   1              	 .syntax unified
   2              	 .cpu cortex-m4
   3              	 .eabi_attribute 27,3
   4              	 .fpu fpv4-sp-d16
   5              	 .eabi_attribute 20,1
   6              	 .eabi_attribute 21,1
   7              	 .eabi_attribute 23,3
   8              	 .eabi_attribute 24,1
   9              	 .eabi_attribute 25,1
  10              	 .eabi_attribute 26,1
  11              	 .eabi_attribute 30,6
  12              	 .eabi_attribute 34,1
  13              	 .eabi_attribute 18,4
  14              	 .thumb
  15              	 .file "arm_mat_sub_f32.c"
  16              	 .text
  17              	.Ltext0:
  18              	 .cfi_sections .debug_frame
  19              	 .section .text.arm_mat_sub_f32,"ax",%progbits
  20              	 .align 2
  21              	 .global arm_mat_sub_f32
  22              	 .thumb
  23              	 .thumb_func
  25              	arm_mat_sub_f32:
  26              	.LFB149:
  27              	 .file 1 "../Dave/Generated/CMSIS_DSP/Source/MatrixFunctions/arm_mat_sub_f32.c"
   1:../Dave/Generated/CMSIS_DSP/Source/MatrixFunctions/arm_mat_sub_f32.c **** /* ----------------------------------------------------------------------
   2:../Dave/Generated/CMSIS_DSP/Source/MatrixFunctions/arm_mat_sub_f32.c ****  * Project:      CMSIS DSP Library
   3:../Dave/Generated/CMSIS_DSP/Source/MatrixFunctions/arm_mat_sub_f32.c ****  * Title:        arm_mat_sub_f32.c
   4:../Dave/Generated/CMSIS_DSP/Source/MatrixFunctions/arm_mat_sub_f32.c ****  * Description:  Floating-point matrix subtraction
   5:../Dave/Generated/CMSIS_DSP/Source/MatrixFunctions/arm_mat_sub_f32.c ****  *
   6:../Dave/Generated/CMSIS_DSP/Source/MatrixFunctions/arm_mat_sub_f32.c ****  * $Date:        18. March 2019
   7:../Dave/Generated/CMSIS_DSP/Source/MatrixFunctions/arm_mat_sub_f32.c ****  * $Revision:    V1.6.0
   8:../Dave/Generated/CMSIS_DSP/Source/MatrixFunctions/arm_mat_sub_f32.c ****  *
   9:../Dave/Generated/CMSIS_DSP/Source/MatrixFunctions/arm_mat_sub_f32.c ****  * Target Processor: Cortex-M cores
  10:../Dave/Generated/CMSIS_DSP/Source/MatrixFunctions/arm_mat_sub_f32.c ****  * -------------------------------------------------------------------- */
  11:../Dave/Generated/CMSIS_DSP/Source/MatrixFunctions/arm_mat_sub_f32.c **** /*
  12:../Dave/Generated/CMSIS_DSP/Source/MatrixFunctions/arm_mat_sub_f32.c ****  * Copyright (C) 2010-2019 ARM Limited or its affiliates. All rights reserved.
  13:../Dave/Generated/CMSIS_DSP/Source/MatrixFunctions/arm_mat_sub_f32.c ****  *
  14:../Dave/Generated/CMSIS_DSP/Source/MatrixFunctions/arm_mat_sub_f32.c ****  * SPDX-License-Identifier: Apache-2.0
  15:../Dave/Generated/CMSIS_DSP/Source/MatrixFunctions/arm_mat_sub_f32.c ****  *
  16:../Dave/Generated/CMSIS_DSP/Source/MatrixFunctions/arm_mat_sub_f32.c ****  * Licensed under the Apache License, Version 2.0 (the License); you may
  17:../Dave/Generated/CMSIS_DSP/Source/MatrixFunctions/arm_mat_sub_f32.c ****  * not use this file except in compliance with the License.
  18:../Dave/Generated/CMSIS_DSP/Source/MatrixFunctions/arm_mat_sub_f32.c ****  * You may obtain a copy of the License at
  19:../Dave/Generated/CMSIS_DSP/Source/MatrixFunctions/arm_mat_sub_f32.c ****  *
  20:../Dave/Generated/CMSIS_DSP/Source/MatrixFunctions/arm_mat_sub_f32.c ****  * www.apache.org/licenses/LICENSE-2.0
  21:../Dave/Generated/CMSIS_DSP/Source/MatrixFunctions/arm_mat_sub_f32.c ****  *
  22:../Dave/Generated/CMSIS_DSP/Source/MatrixFunctions/arm_mat_sub_f32.c ****  * Unless required by applicable law or agreed to in writing, software
  23:../Dave/Generated/CMSIS_DSP/Source/MatrixFunctions/arm_mat_sub_f32.c ****  * distributed under the License is distributed on an AS IS BASIS, WITHOUT
  24:../Dave/Generated/CMSIS_DSP/Source/MatrixFunctions/arm_mat_sub_f32.c ****  * WARRANTIES OR CONDITIONS OF ANY KIND, either express or implied.
  25:../Dave/Generated/CMSIS_DSP/Source/MatrixFunctions/arm_mat_sub_f32.c ****  * See the License for the specific language governing permissions and
  26:../Dave/Generated/CMSIS_DSP/Source/MatrixFunctions/arm_mat_sub_f32.c ****  * limitations under the License.
  27:../Dave/Generated/CMSIS_DSP/Source/MatrixFunctions/arm_mat_sub_f32.c ****  */
  28:../Dave/Generated/CMSIS_DSP/Source/MatrixFunctions/arm_mat_sub_f32.c **** 
  29:../Dave/Generated/CMSIS_DSP/Source/MatrixFunctions/arm_mat_sub_f32.c **** #include "CMSIS_DSP/cmsis_dsp.h"
  30:../Dave/Generated/CMSIS_DSP/Source/MatrixFunctions/arm_mat_sub_f32.c **** 
  31:../Dave/Generated/CMSIS_DSP/Source/MatrixFunctions/arm_mat_sub_f32.c **** /**
  32:../Dave/Generated/CMSIS_DSP/Source/MatrixFunctions/arm_mat_sub_f32.c ****   @ingroup groupMatrix
  33:../Dave/Generated/CMSIS_DSP/Source/MatrixFunctions/arm_mat_sub_f32.c ****  */
  34:../Dave/Generated/CMSIS_DSP/Source/MatrixFunctions/arm_mat_sub_f32.c **** 
  35:../Dave/Generated/CMSIS_DSP/Source/MatrixFunctions/arm_mat_sub_f32.c **** /**
  36:../Dave/Generated/CMSIS_DSP/Source/MatrixFunctions/arm_mat_sub_f32.c ****   @defgroup MatrixSub Matrix Subtraction
  37:../Dave/Generated/CMSIS_DSP/Source/MatrixFunctions/arm_mat_sub_f32.c **** 
  38:../Dave/Generated/CMSIS_DSP/Source/MatrixFunctions/arm_mat_sub_f32.c ****   Subtract two matrices.
  39:../Dave/Generated/CMSIS_DSP/Source/MatrixFunctions/arm_mat_sub_f32.c ****   \image html MatrixSubtraction.gif "Subraction of two 3 x 3 matrices"
  40:../Dave/Generated/CMSIS_DSP/Source/MatrixFunctions/arm_mat_sub_f32.c **** 
  41:../Dave/Generated/CMSIS_DSP/Source/MatrixFunctions/arm_mat_sub_f32.c ****   The functions check to make sure that
  42:../Dave/Generated/CMSIS_DSP/Source/MatrixFunctions/arm_mat_sub_f32.c ****   <code>pSrcA</code>, <code>pSrcB</code>, and <code>pDst</code> have the same
  43:../Dave/Generated/CMSIS_DSP/Source/MatrixFunctions/arm_mat_sub_f32.c ****   number of rows and columns.
  44:../Dave/Generated/CMSIS_DSP/Source/MatrixFunctions/arm_mat_sub_f32.c ****  */
  45:../Dave/Generated/CMSIS_DSP/Source/MatrixFunctions/arm_mat_sub_f32.c **** 
  46:../Dave/Generated/CMSIS_DSP/Source/MatrixFunctions/arm_mat_sub_f32.c **** /**
  47:../Dave/Generated/CMSIS_DSP/Source/MatrixFunctions/arm_mat_sub_f32.c ****   @addtogroup MatrixSub
  48:../Dave/Generated/CMSIS_DSP/Source/MatrixFunctions/arm_mat_sub_f32.c ****   @{
  49:../Dave/Generated/CMSIS_DSP/Source/MatrixFunctions/arm_mat_sub_f32.c ****  */
  50:../Dave/Generated/CMSIS_DSP/Source/MatrixFunctions/arm_mat_sub_f32.c **** 
  51:../Dave/Generated/CMSIS_DSP/Source/MatrixFunctions/arm_mat_sub_f32.c **** /**
  52:../Dave/Generated/CMSIS_DSP/Source/MatrixFunctions/arm_mat_sub_f32.c ****   @brief         Floating-point matrix subtraction.
  53:../Dave/Generated/CMSIS_DSP/Source/MatrixFunctions/arm_mat_sub_f32.c ****   @param[in]     pSrcA      points to the first input matrix structure
  54:../Dave/Generated/CMSIS_DSP/Source/MatrixFunctions/arm_mat_sub_f32.c ****   @param[in]     pSrcB      points to the second input matrix structure
  55:../Dave/Generated/CMSIS_DSP/Source/MatrixFunctions/arm_mat_sub_f32.c ****   @param[out]    pDst       points to output matrix structure
  56:../Dave/Generated/CMSIS_DSP/Source/MatrixFunctions/arm_mat_sub_f32.c ****   @return        execution status
  57:../Dave/Generated/CMSIS_DSP/Source/MatrixFunctions/arm_mat_sub_f32.c ****                    - \ref ARM_MATH_SUCCESS       : Operation successful
  58:../Dave/Generated/CMSIS_DSP/Source/MatrixFunctions/arm_mat_sub_f32.c ****                    - \ref ARM_MATH_SIZE_MISMATCH : Matrix size check failed
  59:../Dave/Generated/CMSIS_DSP/Source/MatrixFunctions/arm_mat_sub_f32.c ****  */
  60:../Dave/Generated/CMSIS_DSP/Source/MatrixFunctions/arm_mat_sub_f32.c **** #if defined(ARM_MATH_MVEF) && !defined(ARM_MATH_AUTOVECTORIZE)
  61:../Dave/Generated/CMSIS_DSP/Source/MatrixFunctions/arm_mat_sub_f32.c **** arm_status arm_mat_sub_f32(
  62:../Dave/Generated/CMSIS_DSP/Source/MatrixFunctions/arm_mat_sub_f32.c ****   const arm_matrix_instance_f32 * pSrcA,
  63:../Dave/Generated/CMSIS_DSP/Source/MatrixFunctions/arm_mat_sub_f32.c ****   const arm_matrix_instance_f32 * pSrcB,
  64:../Dave/Generated/CMSIS_DSP/Source/MatrixFunctions/arm_mat_sub_f32.c ****   arm_matrix_instance_f32 * pDst)
  65:../Dave/Generated/CMSIS_DSP/Source/MatrixFunctions/arm_mat_sub_f32.c **** {
  66:../Dave/Generated/CMSIS_DSP/Source/MatrixFunctions/arm_mat_sub_f32.c ****     arm_status status;                             /* status of matrix subtraction */
  67:../Dave/Generated/CMSIS_DSP/Source/MatrixFunctions/arm_mat_sub_f32.c ****     uint32_t  numSamples;       /* total number of elements in the matrix  */
  68:../Dave/Generated/CMSIS_DSP/Source/MatrixFunctions/arm_mat_sub_f32.c ****     float32_t *pDataA, *pDataB, *pDataDst;
  69:../Dave/Generated/CMSIS_DSP/Source/MatrixFunctions/arm_mat_sub_f32.c ****     f32x4_t vecA, vecB, vecDst;
  70:../Dave/Generated/CMSIS_DSP/Source/MatrixFunctions/arm_mat_sub_f32.c ****     float32_t const *pSrcAVec;
  71:../Dave/Generated/CMSIS_DSP/Source/MatrixFunctions/arm_mat_sub_f32.c ****     float32_t const *pSrcBVec;
  72:../Dave/Generated/CMSIS_DSP/Source/MatrixFunctions/arm_mat_sub_f32.c ****     uint32_t  blkCnt;           /* loop counters */
  73:../Dave/Generated/CMSIS_DSP/Source/MatrixFunctions/arm_mat_sub_f32.c **** 
  74:../Dave/Generated/CMSIS_DSP/Source/MatrixFunctions/arm_mat_sub_f32.c ****     pDataA = pSrcA->pData;
  75:../Dave/Generated/CMSIS_DSP/Source/MatrixFunctions/arm_mat_sub_f32.c ****     pDataB = pSrcB->pData;
  76:../Dave/Generated/CMSIS_DSP/Source/MatrixFunctions/arm_mat_sub_f32.c ****     pDataDst = pDst->pData;
  77:../Dave/Generated/CMSIS_DSP/Source/MatrixFunctions/arm_mat_sub_f32.c ****     pSrcAVec = (float32_t const *) pDataA;
  78:../Dave/Generated/CMSIS_DSP/Source/MatrixFunctions/arm_mat_sub_f32.c ****     pSrcBVec = (float32_t const *) pDataB;
  79:../Dave/Generated/CMSIS_DSP/Source/MatrixFunctions/arm_mat_sub_f32.c **** 
  80:../Dave/Generated/CMSIS_DSP/Source/MatrixFunctions/arm_mat_sub_f32.c **** #ifdef ARM_MATH_MATRIX_CHECK
  81:../Dave/Generated/CMSIS_DSP/Source/MatrixFunctions/arm_mat_sub_f32.c ****   /* Check for matrix mismatch condition */
  82:../Dave/Generated/CMSIS_DSP/Source/MatrixFunctions/arm_mat_sub_f32.c ****   if ((pSrcA->numRows != pSrcB->numRows) ||
  83:../Dave/Generated/CMSIS_DSP/Source/MatrixFunctions/arm_mat_sub_f32.c ****      (pSrcA->numCols != pSrcB->numCols) ||
  84:../Dave/Generated/CMSIS_DSP/Source/MatrixFunctions/arm_mat_sub_f32.c ****      (pSrcA->numRows != pDst->numRows) || (pSrcA->numCols != pDst->numCols))
  85:../Dave/Generated/CMSIS_DSP/Source/MatrixFunctions/arm_mat_sub_f32.c ****   {
  86:../Dave/Generated/CMSIS_DSP/Source/MatrixFunctions/arm_mat_sub_f32.c ****     /* Set status as ARM_MATH_SIZE_MISMATCH */
  87:../Dave/Generated/CMSIS_DSP/Source/MatrixFunctions/arm_mat_sub_f32.c ****     status = ARM_MATH_SIZE_MISMATCH;
  88:../Dave/Generated/CMSIS_DSP/Source/MatrixFunctions/arm_mat_sub_f32.c ****   }
  89:../Dave/Generated/CMSIS_DSP/Source/MatrixFunctions/arm_mat_sub_f32.c ****   else
  90:../Dave/Generated/CMSIS_DSP/Source/MatrixFunctions/arm_mat_sub_f32.c **** #endif /*    #ifdef ARM_MATH_MATRIX_CHECK    */
  91:../Dave/Generated/CMSIS_DSP/Source/MatrixFunctions/arm_mat_sub_f32.c ****   {
  92:../Dave/Generated/CMSIS_DSP/Source/MatrixFunctions/arm_mat_sub_f32.c ****     /*
  93:../Dave/Generated/CMSIS_DSP/Source/MatrixFunctions/arm_mat_sub_f32.c ****      * Total number of samples in the input matrix
  94:../Dave/Generated/CMSIS_DSP/Source/MatrixFunctions/arm_mat_sub_f32.c ****      */
  95:../Dave/Generated/CMSIS_DSP/Source/MatrixFunctions/arm_mat_sub_f32.c ****     numSamples = (uint32_t) pSrcA->numRows * pSrcA->numCols;
  96:../Dave/Generated/CMSIS_DSP/Source/MatrixFunctions/arm_mat_sub_f32.c ****     blkCnt = numSamples >> 2;
  97:../Dave/Generated/CMSIS_DSP/Source/MatrixFunctions/arm_mat_sub_f32.c ****     while (blkCnt > 0U)
  98:../Dave/Generated/CMSIS_DSP/Source/MatrixFunctions/arm_mat_sub_f32.c ****     {
  99:../Dave/Generated/CMSIS_DSP/Source/MatrixFunctions/arm_mat_sub_f32.c ****         /* C(m,n) = A(m,n) + B(m,n) */
 100:../Dave/Generated/CMSIS_DSP/Source/MatrixFunctions/arm_mat_sub_f32.c ****         /* sub and then store the results in the destination buffer. */
 101:../Dave/Generated/CMSIS_DSP/Source/MatrixFunctions/arm_mat_sub_f32.c ****         vecA = vld1q(pSrcAVec); 
 102:../Dave/Generated/CMSIS_DSP/Source/MatrixFunctions/arm_mat_sub_f32.c ****         pSrcAVec += 4;
 103:../Dave/Generated/CMSIS_DSP/Source/MatrixFunctions/arm_mat_sub_f32.c ****         vecB = vld1q(pSrcBVec); 
 104:../Dave/Generated/CMSIS_DSP/Source/MatrixFunctions/arm_mat_sub_f32.c ****         pSrcBVec += 4;
 105:../Dave/Generated/CMSIS_DSP/Source/MatrixFunctions/arm_mat_sub_f32.c ****         vecDst = vsubq(vecA, vecB);
 106:../Dave/Generated/CMSIS_DSP/Source/MatrixFunctions/arm_mat_sub_f32.c ****         vst1q(pDataDst, vecDst);  
 107:../Dave/Generated/CMSIS_DSP/Source/MatrixFunctions/arm_mat_sub_f32.c ****         pDataDst += 4;
 108:../Dave/Generated/CMSIS_DSP/Source/MatrixFunctions/arm_mat_sub_f32.c ****         /*
 109:../Dave/Generated/CMSIS_DSP/Source/MatrixFunctions/arm_mat_sub_f32.c ****          * Decrement the blockSize loop counter
 110:../Dave/Generated/CMSIS_DSP/Source/MatrixFunctions/arm_mat_sub_f32.c ****          */
 111:../Dave/Generated/CMSIS_DSP/Source/MatrixFunctions/arm_mat_sub_f32.c ****         blkCnt--;
 112:../Dave/Generated/CMSIS_DSP/Source/MatrixFunctions/arm_mat_sub_f32.c ****     }
 113:../Dave/Generated/CMSIS_DSP/Source/MatrixFunctions/arm_mat_sub_f32.c ****     /*
 114:../Dave/Generated/CMSIS_DSP/Source/MatrixFunctions/arm_mat_sub_f32.c ****      * tail
 115:../Dave/Generated/CMSIS_DSP/Source/MatrixFunctions/arm_mat_sub_f32.c ****      * (will be merged thru tail predication)
 116:../Dave/Generated/CMSIS_DSP/Source/MatrixFunctions/arm_mat_sub_f32.c ****      */
 117:../Dave/Generated/CMSIS_DSP/Source/MatrixFunctions/arm_mat_sub_f32.c ****     blkCnt = numSamples & 3;
 118:../Dave/Generated/CMSIS_DSP/Source/MatrixFunctions/arm_mat_sub_f32.c ****     if (blkCnt > 0U)
 119:../Dave/Generated/CMSIS_DSP/Source/MatrixFunctions/arm_mat_sub_f32.c ****     {
 120:../Dave/Generated/CMSIS_DSP/Source/MatrixFunctions/arm_mat_sub_f32.c ****         mve_pred16_t p0 = vctp32q(blkCnt);
 121:../Dave/Generated/CMSIS_DSP/Source/MatrixFunctions/arm_mat_sub_f32.c ****         vecA = vld1q(pSrcAVec); 
 122:../Dave/Generated/CMSIS_DSP/Source/MatrixFunctions/arm_mat_sub_f32.c ****         vecB = vld1q(pSrcBVec); 
 123:../Dave/Generated/CMSIS_DSP/Source/MatrixFunctions/arm_mat_sub_f32.c ****         vecDst = vsubq_m(vecDst, vecA, vecB, p0);
 124:../Dave/Generated/CMSIS_DSP/Source/MatrixFunctions/arm_mat_sub_f32.c ****         vstrwq_p(pDataDst, vecDst, p0);
 125:../Dave/Generated/CMSIS_DSP/Source/MatrixFunctions/arm_mat_sub_f32.c ****     }
 126:../Dave/Generated/CMSIS_DSP/Source/MatrixFunctions/arm_mat_sub_f32.c ****     status = ARM_MATH_SUCCESS;
 127:../Dave/Generated/CMSIS_DSP/Source/MatrixFunctions/arm_mat_sub_f32.c ****   }
 128:../Dave/Generated/CMSIS_DSP/Source/MatrixFunctions/arm_mat_sub_f32.c **** 
 129:../Dave/Generated/CMSIS_DSP/Source/MatrixFunctions/arm_mat_sub_f32.c ****   /* Return to application */
 130:../Dave/Generated/CMSIS_DSP/Source/MatrixFunctions/arm_mat_sub_f32.c ****   return (status);
 131:../Dave/Generated/CMSIS_DSP/Source/MatrixFunctions/arm_mat_sub_f32.c **** }
 132:../Dave/Generated/CMSIS_DSP/Source/MatrixFunctions/arm_mat_sub_f32.c **** 
 133:../Dave/Generated/CMSIS_DSP/Source/MatrixFunctions/arm_mat_sub_f32.c **** #else
 134:../Dave/Generated/CMSIS_DSP/Source/MatrixFunctions/arm_mat_sub_f32.c **** #if defined(ARM_MATH_NEON)
 135:../Dave/Generated/CMSIS_DSP/Source/MatrixFunctions/arm_mat_sub_f32.c **** arm_status arm_mat_sub_f32(
 136:../Dave/Generated/CMSIS_DSP/Source/MatrixFunctions/arm_mat_sub_f32.c ****   const arm_matrix_instance_f32 * pSrcA,
 137:../Dave/Generated/CMSIS_DSP/Source/MatrixFunctions/arm_mat_sub_f32.c ****   const arm_matrix_instance_f32 * pSrcB,
 138:../Dave/Generated/CMSIS_DSP/Source/MatrixFunctions/arm_mat_sub_f32.c ****   arm_matrix_instance_f32 * pDst)
 139:../Dave/Generated/CMSIS_DSP/Source/MatrixFunctions/arm_mat_sub_f32.c **** {
 140:../Dave/Generated/CMSIS_DSP/Source/MatrixFunctions/arm_mat_sub_f32.c ****   float32_t *pIn1 = pSrcA->pData;                /* input data matrix pointer A */
 141:../Dave/Generated/CMSIS_DSP/Source/MatrixFunctions/arm_mat_sub_f32.c ****   float32_t *pIn2 = pSrcB->pData;                /* input data matrix pointer B */
 142:../Dave/Generated/CMSIS_DSP/Source/MatrixFunctions/arm_mat_sub_f32.c ****   float32_t *pOut = pDst->pData;                 /* output data matrix pointer  */
 143:../Dave/Generated/CMSIS_DSP/Source/MatrixFunctions/arm_mat_sub_f32.c **** 
 144:../Dave/Generated/CMSIS_DSP/Source/MatrixFunctions/arm_mat_sub_f32.c **** 
 145:../Dave/Generated/CMSIS_DSP/Source/MatrixFunctions/arm_mat_sub_f32.c ****   uint32_t numSamples;                           /* total number of elements in the matrix  */
 146:../Dave/Generated/CMSIS_DSP/Source/MatrixFunctions/arm_mat_sub_f32.c ****   uint32_t blkCnt;                               /* loop counters */
 147:../Dave/Generated/CMSIS_DSP/Source/MatrixFunctions/arm_mat_sub_f32.c ****   arm_status status;                             /* status of matrix subtraction */
 148:../Dave/Generated/CMSIS_DSP/Source/MatrixFunctions/arm_mat_sub_f32.c **** 
 149:../Dave/Generated/CMSIS_DSP/Source/MatrixFunctions/arm_mat_sub_f32.c **** #ifdef ARM_MATH_MATRIX_CHECK
 150:../Dave/Generated/CMSIS_DSP/Source/MatrixFunctions/arm_mat_sub_f32.c ****   /* Check for matrix mismatch condition */
 151:../Dave/Generated/CMSIS_DSP/Source/MatrixFunctions/arm_mat_sub_f32.c ****   if ((pSrcA->numRows != pSrcB->numRows) ||
 152:../Dave/Generated/CMSIS_DSP/Source/MatrixFunctions/arm_mat_sub_f32.c ****      (pSrcA->numCols != pSrcB->numCols) ||
 153:../Dave/Generated/CMSIS_DSP/Source/MatrixFunctions/arm_mat_sub_f32.c ****      (pSrcA->numRows != pDst->numRows) || (pSrcA->numCols != pDst->numCols))
 154:../Dave/Generated/CMSIS_DSP/Source/MatrixFunctions/arm_mat_sub_f32.c ****   {
 155:../Dave/Generated/CMSIS_DSP/Source/MatrixFunctions/arm_mat_sub_f32.c ****     /* Set status as ARM_MATH_SIZE_MISMATCH */
 156:../Dave/Generated/CMSIS_DSP/Source/MatrixFunctions/arm_mat_sub_f32.c ****     status = ARM_MATH_SIZE_MISMATCH;
 157:../Dave/Generated/CMSIS_DSP/Source/MatrixFunctions/arm_mat_sub_f32.c ****   }
 158:../Dave/Generated/CMSIS_DSP/Source/MatrixFunctions/arm_mat_sub_f32.c ****   else
 159:../Dave/Generated/CMSIS_DSP/Source/MatrixFunctions/arm_mat_sub_f32.c **** #endif /*    #ifdef ARM_MATH_MATRIX_CHECK    */
 160:../Dave/Generated/CMSIS_DSP/Source/MatrixFunctions/arm_mat_sub_f32.c ****   {
 161:../Dave/Generated/CMSIS_DSP/Source/MatrixFunctions/arm_mat_sub_f32.c ****     float32x4_t vec1;
 162:../Dave/Generated/CMSIS_DSP/Source/MatrixFunctions/arm_mat_sub_f32.c ****     float32x4_t vec2;
 163:../Dave/Generated/CMSIS_DSP/Source/MatrixFunctions/arm_mat_sub_f32.c ****     float32x4_t res;
 164:../Dave/Generated/CMSIS_DSP/Source/MatrixFunctions/arm_mat_sub_f32.c **** 
 165:../Dave/Generated/CMSIS_DSP/Source/MatrixFunctions/arm_mat_sub_f32.c ****     /* Total number of samples in the input matrix */
 166:../Dave/Generated/CMSIS_DSP/Source/MatrixFunctions/arm_mat_sub_f32.c ****     numSamples = (uint32_t) pSrcA->numRows * pSrcA->numCols;
 167:../Dave/Generated/CMSIS_DSP/Source/MatrixFunctions/arm_mat_sub_f32.c **** 
 168:../Dave/Generated/CMSIS_DSP/Source/MatrixFunctions/arm_mat_sub_f32.c ****     blkCnt = numSamples >> 2U;
 169:../Dave/Generated/CMSIS_DSP/Source/MatrixFunctions/arm_mat_sub_f32.c **** 
 170:../Dave/Generated/CMSIS_DSP/Source/MatrixFunctions/arm_mat_sub_f32.c ****     /* Compute 4 outputs at a time.
 171:../Dave/Generated/CMSIS_DSP/Source/MatrixFunctions/arm_mat_sub_f32.c ****      ** a second loop below computes the remaining 1 to 3 samples. */
 172:../Dave/Generated/CMSIS_DSP/Source/MatrixFunctions/arm_mat_sub_f32.c ****     while (blkCnt > 0U)
 173:../Dave/Generated/CMSIS_DSP/Source/MatrixFunctions/arm_mat_sub_f32.c ****     {
 174:../Dave/Generated/CMSIS_DSP/Source/MatrixFunctions/arm_mat_sub_f32.c ****       /* C(m,n) = A(m,n) - B(m,n) */
 175:../Dave/Generated/CMSIS_DSP/Source/MatrixFunctions/arm_mat_sub_f32.c ****       /* Subtract and then store the results in the destination buffer. */
 176:../Dave/Generated/CMSIS_DSP/Source/MatrixFunctions/arm_mat_sub_f32.c ****       /* Read values from source A */
 177:../Dave/Generated/CMSIS_DSP/Source/MatrixFunctions/arm_mat_sub_f32.c ****       vec1 = vld1q_f32(pIn1);
 178:../Dave/Generated/CMSIS_DSP/Source/MatrixFunctions/arm_mat_sub_f32.c ****       vec2 = vld1q_f32(pIn2);
 179:../Dave/Generated/CMSIS_DSP/Source/MatrixFunctions/arm_mat_sub_f32.c ****       res = vsubq_f32(vec1, vec2);
 180:../Dave/Generated/CMSIS_DSP/Source/MatrixFunctions/arm_mat_sub_f32.c ****       vst1q_f32(pOut, res);
 181:../Dave/Generated/CMSIS_DSP/Source/MatrixFunctions/arm_mat_sub_f32.c **** 
 182:../Dave/Generated/CMSIS_DSP/Source/MatrixFunctions/arm_mat_sub_f32.c ****       /* Update pointers to process next samples */
 183:../Dave/Generated/CMSIS_DSP/Source/MatrixFunctions/arm_mat_sub_f32.c ****       pIn1 += 4U;
 184:../Dave/Generated/CMSIS_DSP/Source/MatrixFunctions/arm_mat_sub_f32.c ****       pIn2 += 4U;
 185:../Dave/Generated/CMSIS_DSP/Source/MatrixFunctions/arm_mat_sub_f32.c ****       pOut += 4U;
 186:../Dave/Generated/CMSIS_DSP/Source/MatrixFunctions/arm_mat_sub_f32.c **** 
 187:../Dave/Generated/CMSIS_DSP/Source/MatrixFunctions/arm_mat_sub_f32.c ****       /* Decrement the loop counter */
 188:../Dave/Generated/CMSIS_DSP/Source/MatrixFunctions/arm_mat_sub_f32.c ****       blkCnt--;
 189:../Dave/Generated/CMSIS_DSP/Source/MatrixFunctions/arm_mat_sub_f32.c ****     }
 190:../Dave/Generated/CMSIS_DSP/Source/MatrixFunctions/arm_mat_sub_f32.c **** 
 191:../Dave/Generated/CMSIS_DSP/Source/MatrixFunctions/arm_mat_sub_f32.c ****     /* If the numSamples is not a multiple of 4, compute any remaining output samples here.
 192:../Dave/Generated/CMSIS_DSP/Source/MatrixFunctions/arm_mat_sub_f32.c ****      ** No loop unrolling is used. */
 193:../Dave/Generated/CMSIS_DSP/Source/MatrixFunctions/arm_mat_sub_f32.c ****     blkCnt = numSamples % 0x4U;
 194:../Dave/Generated/CMSIS_DSP/Source/MatrixFunctions/arm_mat_sub_f32.c **** 
 195:../Dave/Generated/CMSIS_DSP/Source/MatrixFunctions/arm_mat_sub_f32.c **** 
 196:../Dave/Generated/CMSIS_DSP/Source/MatrixFunctions/arm_mat_sub_f32.c ****     while (blkCnt > 0U)
 197:../Dave/Generated/CMSIS_DSP/Source/MatrixFunctions/arm_mat_sub_f32.c ****     {
 198:../Dave/Generated/CMSIS_DSP/Source/MatrixFunctions/arm_mat_sub_f32.c ****       /* C(m,n) = A(m,n) - B(m,n) */
 199:../Dave/Generated/CMSIS_DSP/Source/MatrixFunctions/arm_mat_sub_f32.c ****       /* Subtract and then store the results in the destination buffer. */
 200:../Dave/Generated/CMSIS_DSP/Source/MatrixFunctions/arm_mat_sub_f32.c ****       *pOut++ = (*pIn1++) - (*pIn2++);
 201:../Dave/Generated/CMSIS_DSP/Source/MatrixFunctions/arm_mat_sub_f32.c **** 
 202:../Dave/Generated/CMSIS_DSP/Source/MatrixFunctions/arm_mat_sub_f32.c ****       /* Decrement the loop counter */
 203:../Dave/Generated/CMSIS_DSP/Source/MatrixFunctions/arm_mat_sub_f32.c ****       blkCnt--;
 204:../Dave/Generated/CMSIS_DSP/Source/MatrixFunctions/arm_mat_sub_f32.c ****     }
 205:../Dave/Generated/CMSIS_DSP/Source/MatrixFunctions/arm_mat_sub_f32.c **** 
 206:../Dave/Generated/CMSIS_DSP/Source/MatrixFunctions/arm_mat_sub_f32.c ****     /* Set status as ARM_MATH_SUCCESS */
 207:../Dave/Generated/CMSIS_DSP/Source/MatrixFunctions/arm_mat_sub_f32.c ****     status = ARM_MATH_SUCCESS;
 208:../Dave/Generated/CMSIS_DSP/Source/MatrixFunctions/arm_mat_sub_f32.c ****   }
 209:../Dave/Generated/CMSIS_DSP/Source/MatrixFunctions/arm_mat_sub_f32.c **** 
 210:../Dave/Generated/CMSIS_DSP/Source/MatrixFunctions/arm_mat_sub_f32.c ****   /* Return to application */
 211:../Dave/Generated/CMSIS_DSP/Source/MatrixFunctions/arm_mat_sub_f32.c ****   return (status);
 212:../Dave/Generated/CMSIS_DSP/Source/MatrixFunctions/arm_mat_sub_f32.c **** }
 213:../Dave/Generated/CMSIS_DSP/Source/MatrixFunctions/arm_mat_sub_f32.c **** #else
 214:../Dave/Generated/CMSIS_DSP/Source/MatrixFunctions/arm_mat_sub_f32.c **** arm_status arm_mat_sub_f32(
 215:../Dave/Generated/CMSIS_DSP/Source/MatrixFunctions/arm_mat_sub_f32.c ****   const arm_matrix_instance_f32 * pSrcA,
 216:../Dave/Generated/CMSIS_DSP/Source/MatrixFunctions/arm_mat_sub_f32.c ****   const arm_matrix_instance_f32 * pSrcB,
 217:../Dave/Generated/CMSIS_DSP/Source/MatrixFunctions/arm_mat_sub_f32.c ****         arm_matrix_instance_f32 * pDst)
 218:../Dave/Generated/CMSIS_DSP/Source/MatrixFunctions/arm_mat_sub_f32.c **** {
  28              	 .loc 1 218 0
  29              	 .cfi_startproc
  30              	 
  31              	 
  32              	 
  33 0000 80B4     	 push {r7}
  34              	.LCFI0:
  35              	 .cfi_def_cfa_offset 4
  36              	 .cfi_offset 7,-4
  37 0002 8BB0     	 sub sp,sp,#44
  38              	.LCFI1:
  39              	 .cfi_def_cfa_offset 48
  40 0004 00AF     	 add r7,sp,#0
  41              	.LCFI2:
  42              	 .cfi_def_cfa_register 7
  43 0006 F860     	 str r0,[r7,#12]
  44 0008 B960     	 str r1,[r7,#8]
  45 000a 7A60     	 str r2,[r7,#4]
 219:../Dave/Generated/CMSIS_DSP/Source/MatrixFunctions/arm_mat_sub_f32.c ****   float32_t *pInA = pSrcA->pData;                /* input data matrix pointer A */
  46              	 .loc 1 219 0
  47 000c FB68     	 ldr r3,[r7,#12]
  48 000e 5B68     	 ldr r3,[r3,#4]
  49 0010 7B62     	 str r3,[r7,#36]
 220:../Dave/Generated/CMSIS_DSP/Source/MatrixFunctions/arm_mat_sub_f32.c ****   float32_t *pInB = pSrcB->pData;                /* input data matrix pointer B */
  50              	 .loc 1 220 0
  51 0012 BB68     	 ldr r3,[r7,#8]
  52 0014 5B68     	 ldr r3,[r3,#4]
  53 0016 3B62     	 str r3,[r7,#32]
 221:../Dave/Generated/CMSIS_DSP/Source/MatrixFunctions/arm_mat_sub_f32.c ****   float32_t *pOut = pDst->pData;                 /* output data matrix pointer */
  54              	 .loc 1 221 0
  55 0018 7B68     	 ldr r3,[r7,#4]
  56 001a 5B68     	 ldr r3,[r3,#4]
  57 001c FB61     	 str r3,[r7,#28]
 222:../Dave/Generated/CMSIS_DSP/Source/MatrixFunctions/arm_mat_sub_f32.c **** 
 223:../Dave/Generated/CMSIS_DSP/Source/MatrixFunctions/arm_mat_sub_f32.c ****   uint32_t numSamples;                           /* total number of elements in the matrix */
 224:../Dave/Generated/CMSIS_DSP/Source/MatrixFunctions/arm_mat_sub_f32.c ****   uint32_t blkCnt;                               /* loop counters */
 225:../Dave/Generated/CMSIS_DSP/Source/MatrixFunctions/arm_mat_sub_f32.c ****   arm_status status;                             /* status of matrix subtraction */
 226:../Dave/Generated/CMSIS_DSP/Source/MatrixFunctions/arm_mat_sub_f32.c **** 
 227:../Dave/Generated/CMSIS_DSP/Source/MatrixFunctions/arm_mat_sub_f32.c **** #ifdef ARM_MATH_MATRIX_CHECK
 228:../Dave/Generated/CMSIS_DSP/Source/MatrixFunctions/arm_mat_sub_f32.c **** 
 229:../Dave/Generated/CMSIS_DSP/Source/MatrixFunctions/arm_mat_sub_f32.c ****   /* Check for matrix mismatch condition */
 230:../Dave/Generated/CMSIS_DSP/Source/MatrixFunctions/arm_mat_sub_f32.c ****   if ((pSrcA->numRows != pSrcB->numRows) ||
  58              	 .loc 1 230 0
  59 001e FB68     	 ldr r3,[r7,#12]
  60 0020 1A88     	 ldrh r2,[r3]
  61 0022 BB68     	 ldr r3,[r7,#8]
  62 0024 1B88     	 ldrh r3,[r3]
  63 0026 9A42     	 cmp r2,r3
  64 0028 11D1     	 bne .L2
 231:../Dave/Generated/CMSIS_DSP/Source/MatrixFunctions/arm_mat_sub_f32.c ****       (pSrcA->numCols != pSrcB->numCols) ||
  65              	 .loc 1 231 0 discriminator 1
  66 002a FB68     	 ldr r3,[r7,#12]
  67 002c 5A88     	 ldrh r2,[r3,#2]
  68 002e BB68     	 ldr r3,[r7,#8]
  69 0030 5B88     	 ldrh r3,[r3,#2]
 230:../Dave/Generated/CMSIS_DSP/Source/MatrixFunctions/arm_mat_sub_f32.c ****       (pSrcA->numCols != pSrcB->numCols) ||
  70              	 .loc 1 230 0 discriminator 1
  71 0032 9A42     	 cmp r2,r3
  72 0034 0BD1     	 bne .L2
 232:../Dave/Generated/CMSIS_DSP/Source/MatrixFunctions/arm_mat_sub_f32.c ****       (pSrcA->numRows != pDst->numRows)  ||
  73              	 .loc 1 232 0
  74 0036 FB68     	 ldr r3,[r7,#12]
  75 0038 1A88     	 ldrh r2,[r3]
  76 003a 7B68     	 ldr r3,[r7,#4]
  77 003c 1B88     	 ldrh r3,[r3]
 231:../Dave/Generated/CMSIS_DSP/Source/MatrixFunctions/arm_mat_sub_f32.c ****       (pSrcA->numCols != pSrcB->numCols) ||
  78              	 .loc 1 231 0
  79 003e 9A42     	 cmp r2,r3
  80 0040 05D1     	 bne .L2
 233:../Dave/Generated/CMSIS_DSP/Source/MatrixFunctions/arm_mat_sub_f32.c ****       (pSrcA->numCols != pDst->numCols)    )
  81              	 .loc 1 233 0
  82 0042 FB68     	 ldr r3,[r7,#12]
  83 0044 5A88     	 ldrh r2,[r3,#2]
  84 0046 7B68     	 ldr r3,[r7,#4]
  85 0048 5B88     	 ldrh r3,[r3,#2]
 232:../Dave/Generated/CMSIS_DSP/Source/MatrixFunctions/arm_mat_sub_f32.c ****       (pSrcA->numRows != pDst->numRows)  ||
  86              	 .loc 1 232 0
  87 004a 9A42     	 cmp r2,r3
  88 004c 02D0     	 beq .L3
  89              	.L2:
 234:../Dave/Generated/CMSIS_DSP/Source/MatrixFunctions/arm_mat_sub_f32.c ****   {
 235:../Dave/Generated/CMSIS_DSP/Source/MatrixFunctions/arm_mat_sub_f32.c ****     /* Set status as ARM_MATH_SIZE_MISMATCH */
 236:../Dave/Generated/CMSIS_DSP/Source/MatrixFunctions/arm_mat_sub_f32.c ****     status = ARM_MATH_SIZE_MISMATCH;
  90              	 .loc 1 236 0
  91 004e FD23     	 movs r3,#253
  92 0050 FB75     	 strb r3,[r7,#23]
  93 0052 23E0     	 b .L4
  94              	.L3:
 237:../Dave/Generated/CMSIS_DSP/Source/MatrixFunctions/arm_mat_sub_f32.c ****   }
 238:../Dave/Generated/CMSIS_DSP/Source/MatrixFunctions/arm_mat_sub_f32.c ****   else
 239:../Dave/Generated/CMSIS_DSP/Source/MatrixFunctions/arm_mat_sub_f32.c **** 
 240:../Dave/Generated/CMSIS_DSP/Source/MatrixFunctions/arm_mat_sub_f32.c **** #endif /* #ifdef ARM_MATH_MATRIX_CHECK */
 241:../Dave/Generated/CMSIS_DSP/Source/MatrixFunctions/arm_mat_sub_f32.c **** 
 242:../Dave/Generated/CMSIS_DSP/Source/MatrixFunctions/arm_mat_sub_f32.c ****   {
 243:../Dave/Generated/CMSIS_DSP/Source/MatrixFunctions/arm_mat_sub_f32.c ****     /* Total number of samples in input matrix */
 244:../Dave/Generated/CMSIS_DSP/Source/MatrixFunctions/arm_mat_sub_f32.c ****     numSamples = (uint32_t) pSrcA->numRows * pSrcA->numCols;
  95              	 .loc 1 244 0
  96 0054 FB68     	 ldr r3,[r7,#12]
  97 0056 1B88     	 ldrh r3,[r3]
  98 0058 1A46     	 mov r2,r3
  99 005a FB68     	 ldr r3,[r7,#12]
 100 005c 5B88     	 ldrh r3,[r3,#2]
 101 005e 03FB02F3 	 mul r3,r3,r2
 102 0062 3B61     	 str r3,[r7,#16]
 245:../Dave/Generated/CMSIS_DSP/Source/MatrixFunctions/arm_mat_sub_f32.c **** 
 246:../Dave/Generated/CMSIS_DSP/Source/MatrixFunctions/arm_mat_sub_f32.c **** #if defined (ARM_MATH_LOOPUNROLL)
 247:../Dave/Generated/CMSIS_DSP/Source/MatrixFunctions/arm_mat_sub_f32.c **** 
 248:../Dave/Generated/CMSIS_DSP/Source/MatrixFunctions/arm_mat_sub_f32.c ****     /* Loop unrolling: Compute 4 outputs at a time */
 249:../Dave/Generated/CMSIS_DSP/Source/MatrixFunctions/arm_mat_sub_f32.c ****     blkCnt = numSamples >> 2U;
 250:../Dave/Generated/CMSIS_DSP/Source/MatrixFunctions/arm_mat_sub_f32.c **** 
 251:../Dave/Generated/CMSIS_DSP/Source/MatrixFunctions/arm_mat_sub_f32.c ****     while (blkCnt > 0U)
 252:../Dave/Generated/CMSIS_DSP/Source/MatrixFunctions/arm_mat_sub_f32.c ****     {
 253:../Dave/Generated/CMSIS_DSP/Source/MatrixFunctions/arm_mat_sub_f32.c ****       /* C(m,n) = A(m,n) - B(m,n) */
 254:../Dave/Generated/CMSIS_DSP/Source/MatrixFunctions/arm_mat_sub_f32.c **** 
 255:../Dave/Generated/CMSIS_DSP/Source/MatrixFunctions/arm_mat_sub_f32.c ****       /* Subtract and store result in destination buffer. */
 256:../Dave/Generated/CMSIS_DSP/Source/MatrixFunctions/arm_mat_sub_f32.c ****       *pOut++ = (*pInA++) - (*pInB++);
 257:../Dave/Generated/CMSIS_DSP/Source/MatrixFunctions/arm_mat_sub_f32.c ****       *pOut++ = (*pInA++) - (*pInB++);
 258:../Dave/Generated/CMSIS_DSP/Source/MatrixFunctions/arm_mat_sub_f32.c ****       *pOut++ = (*pInA++) - (*pInB++);
 259:../Dave/Generated/CMSIS_DSP/Source/MatrixFunctions/arm_mat_sub_f32.c ****       *pOut++ = (*pInA++) - (*pInB++);
 260:../Dave/Generated/CMSIS_DSP/Source/MatrixFunctions/arm_mat_sub_f32.c **** 
 261:../Dave/Generated/CMSIS_DSP/Source/MatrixFunctions/arm_mat_sub_f32.c ****       /* Decrement loop counter */
 262:../Dave/Generated/CMSIS_DSP/Source/MatrixFunctions/arm_mat_sub_f32.c ****       blkCnt--;
 263:../Dave/Generated/CMSIS_DSP/Source/MatrixFunctions/arm_mat_sub_f32.c ****     }
 264:../Dave/Generated/CMSIS_DSP/Source/MatrixFunctions/arm_mat_sub_f32.c **** 
 265:../Dave/Generated/CMSIS_DSP/Source/MatrixFunctions/arm_mat_sub_f32.c ****     /* Loop unrolling: Compute remaining outputs */
 266:../Dave/Generated/CMSIS_DSP/Source/MatrixFunctions/arm_mat_sub_f32.c ****     blkCnt = numSamples % 0x4U;
 267:../Dave/Generated/CMSIS_DSP/Source/MatrixFunctions/arm_mat_sub_f32.c **** 
 268:../Dave/Generated/CMSIS_DSP/Source/MatrixFunctions/arm_mat_sub_f32.c **** #else
 269:../Dave/Generated/CMSIS_DSP/Source/MatrixFunctions/arm_mat_sub_f32.c **** 
 270:../Dave/Generated/CMSIS_DSP/Source/MatrixFunctions/arm_mat_sub_f32.c ****     /* Initialize blkCnt with number of samples */
 271:../Dave/Generated/CMSIS_DSP/Source/MatrixFunctions/arm_mat_sub_f32.c ****     blkCnt = numSamples;
 103              	 .loc 1 271 0
 104 0064 3B69     	 ldr r3,[r7,#16]
 105 0066 BB61     	 str r3,[r7,#24]
 272:../Dave/Generated/CMSIS_DSP/Source/MatrixFunctions/arm_mat_sub_f32.c **** 
 273:../Dave/Generated/CMSIS_DSP/Source/MatrixFunctions/arm_mat_sub_f32.c **** #endif /* #if defined (ARM_MATH_LOOPUNROLL) */
 274:../Dave/Generated/CMSIS_DSP/Source/MatrixFunctions/arm_mat_sub_f32.c **** 
 275:../Dave/Generated/CMSIS_DSP/Source/MatrixFunctions/arm_mat_sub_f32.c ****     while (blkCnt > 0U)
 106              	 .loc 1 275 0
 107 0068 13E0     	 b .L5
 108              	.L6:
 276:../Dave/Generated/CMSIS_DSP/Source/MatrixFunctions/arm_mat_sub_f32.c ****     {
 277:../Dave/Generated/CMSIS_DSP/Source/MatrixFunctions/arm_mat_sub_f32.c ****       /* C(m,n) = A(m,n) - B(m,n) */
 278:../Dave/Generated/CMSIS_DSP/Source/MatrixFunctions/arm_mat_sub_f32.c **** 
 279:../Dave/Generated/CMSIS_DSP/Source/MatrixFunctions/arm_mat_sub_f32.c ****       /* Subtract and store result in destination buffer. */
 280:../Dave/Generated/CMSIS_DSP/Source/MatrixFunctions/arm_mat_sub_f32.c ****       *pOut++ = (*pInA++) - (*pInB++);
 109              	 .loc 1 280 0
 110 006a FB69     	 ldr r3,[r7,#28]
 111 006c 1A1D     	 adds r2,r3,#4
 112 006e FA61     	 str r2,[r7,#28]
 113 0070 7A6A     	 ldr r2,[r7,#36]
 114 0072 111D     	 adds r1,r2,#4
 115 0074 7962     	 str r1,[r7,#36]
 116 0076 92ED007A 	 flds s14,[r2]
 117 007a 3A6A     	 ldr r2,[r7,#32]
 118 007c 111D     	 adds r1,r2,#4
 119 007e 3962     	 str r1,[r7,#32]
 120 0080 D2ED007A 	 flds s15,[r2]
 121 0084 77EE677A 	 fsubs s15,s14,s15
 122 0088 C3ED007A 	 fsts s15,[r3]
 281:../Dave/Generated/CMSIS_DSP/Source/MatrixFunctions/arm_mat_sub_f32.c **** 
 282:../Dave/Generated/CMSIS_DSP/Source/MatrixFunctions/arm_mat_sub_f32.c ****       /* Decrement loop counter */
 283:../Dave/Generated/CMSIS_DSP/Source/MatrixFunctions/arm_mat_sub_f32.c ****       blkCnt--;
 123              	 .loc 1 283 0
 124 008c BB69     	 ldr r3,[r7,#24]
 125 008e 013B     	 subs r3,r3,#1
 126 0090 BB61     	 str r3,[r7,#24]
 127              	.L5:
 275:../Dave/Generated/CMSIS_DSP/Source/MatrixFunctions/arm_mat_sub_f32.c ****     {
 128              	 .loc 1 275 0
 129 0092 BB69     	 ldr r3,[r7,#24]
 130 0094 002B     	 cmp r3,#0
 131 0096 E8D1     	 bne .L6
 284:../Dave/Generated/CMSIS_DSP/Source/MatrixFunctions/arm_mat_sub_f32.c ****     }
 285:../Dave/Generated/CMSIS_DSP/Source/MatrixFunctions/arm_mat_sub_f32.c **** 
 286:../Dave/Generated/CMSIS_DSP/Source/MatrixFunctions/arm_mat_sub_f32.c ****     /* Set status as ARM_MATH_SUCCESS */
 287:../Dave/Generated/CMSIS_DSP/Source/MatrixFunctions/arm_mat_sub_f32.c ****     status = ARM_MATH_SUCCESS;
 132              	 .loc 1 287 0
 133 0098 0023     	 movs r3,#0
 134 009a FB75     	 strb r3,[r7,#23]
 135              	.L4:
 288:../Dave/Generated/CMSIS_DSP/Source/MatrixFunctions/arm_mat_sub_f32.c ****   }
 289:../Dave/Generated/CMSIS_DSP/Source/MatrixFunctions/arm_mat_sub_f32.c **** 
 290:../Dave/Generated/CMSIS_DSP/Source/MatrixFunctions/arm_mat_sub_f32.c ****   /* Return to application */
 291:../Dave/Generated/CMSIS_DSP/Source/MatrixFunctions/arm_mat_sub_f32.c ****   return (status);
 136              	 .loc 1 291 0
 137 009c FB7D     	 ldrb r3,[r7,#23]
 138 009e 5BB2     	 sxtb r3,r3
 292:../Dave/Generated/CMSIS_DSP/Source/MatrixFunctions/arm_mat_sub_f32.c **** }
 139              	 .loc 1 292 0
 140 00a0 1846     	 mov r0,r3
 141 00a2 2C37     	 adds r7,r7,#44
 142              	.LCFI3:
 143              	 .cfi_def_cfa_offset 4
 144 00a4 BD46     	 mov sp,r7
 145              	.LCFI4:
 146              	 .cfi_def_cfa_register 13
 147              	 
 148 00a6 5DF8047B 	 ldr r7,[sp],#4
 149              	.LCFI5:
 150              	 .cfi_restore 7
 151              	 .cfi_def_cfa_offset 0
 152 00aa 7047     	 bx lr
 153              	 .cfi_endproc
 154              	.LFE149:
 156              	 .text
 157              	.Letext0:
 158              	 .file 2 "c:\\infineon\\tools\\dave ide\\4.5.0.202105191637\\eclipse\\arm-gcc-49\\arm-none-eabi\\include\\machine\\_default_types.h"
 159              	 .file 3 "c:\\infineon\\tools\\dave ide\\4.5.0.202105191637\\eclipse\\arm-gcc-49\\arm-none-eabi\\include\\stdint.h"
 160              	 .file 4 "C:/Users/Rui Mendes/Desktop/DAVE/_Naive/_ForTesting/Dave/Generated/CMSIS_DSP/Include/arm_math.h"
 161              	 .file 5 "C:/Users/Rui Mendes/Desktop/DAVE/_Naive/_ForTesting/Libraries/CMSIS/Include/cmsis_gcc.h"