   1              	 .syntax unified
   2              	 .cpu cortex-m4
   3              	 .eabi_attribute 27,3
   4              	 .fpu fpv4-sp-d16
   5              	 .eabi_attribute 20,1
   6              	 .eabi_attribute 21,1
   7              	 .eabi_attribute 23,3
   8              	 .eabi_attribute 24,1
   9              	 .eabi_attribute 25,1
  10              	 .eabi_attribute 26,1
  11              	 .eabi_attribute 30,6
  12              	 .eabi_attribute 34,1
  13              	 .eabi_attribute 18,4
  14              	 .thumb
  15              	 .file "arm_mat_trans_q15.c"
  16              	 .text
  17              	.Ltext0:
  18              	 .cfi_sections .debug_frame
  19              	 .section .text.arm_mat_trans_q15,"ax",%progbits
  20              	 .align 2
  21              	 .global arm_mat_trans_q15
  22              	 .thumb
  23              	 .thumb_func
  25              	arm_mat_trans_q15:
  26              	.LFB149:
  27              	 .file 1 "../Dave/Generated/CMSIS_DSP/Source/MatrixFunctions/arm_mat_trans_q15.c"
   1:../Dave/Generated/CMSIS_DSP/Source/MatrixFunctions/arm_mat_trans_q15.c **** /* ----------------------------------------------------------------------
   2:../Dave/Generated/CMSIS_DSP/Source/MatrixFunctions/arm_mat_trans_q15.c ****  * Project:      CMSIS DSP Library
   3:../Dave/Generated/CMSIS_DSP/Source/MatrixFunctions/arm_mat_trans_q15.c ****  * Title:        arm_mat_trans_q15.c
   4:../Dave/Generated/CMSIS_DSP/Source/MatrixFunctions/arm_mat_trans_q15.c ****  * Description:  Q15 matrix transpose
   5:../Dave/Generated/CMSIS_DSP/Source/MatrixFunctions/arm_mat_trans_q15.c ****  *
   6:../Dave/Generated/CMSIS_DSP/Source/MatrixFunctions/arm_mat_trans_q15.c ****  * $Date:        18. March 2019
   7:../Dave/Generated/CMSIS_DSP/Source/MatrixFunctions/arm_mat_trans_q15.c ****  * $Revision:    V1.6.0
   8:../Dave/Generated/CMSIS_DSP/Source/MatrixFunctions/arm_mat_trans_q15.c ****  *
   9:../Dave/Generated/CMSIS_DSP/Source/MatrixFunctions/arm_mat_trans_q15.c ****  * Target Processor: Cortex-M cores
  10:../Dave/Generated/CMSIS_DSP/Source/MatrixFunctions/arm_mat_trans_q15.c ****  * -------------------------------------------------------------------- */
  11:../Dave/Generated/CMSIS_DSP/Source/MatrixFunctions/arm_mat_trans_q15.c **** /*
  12:../Dave/Generated/CMSIS_DSP/Source/MatrixFunctions/arm_mat_trans_q15.c ****  * Copyright (C) 2010-2019 ARM Limited or its affiliates. All rights reserved.
  13:../Dave/Generated/CMSIS_DSP/Source/MatrixFunctions/arm_mat_trans_q15.c ****  *
  14:../Dave/Generated/CMSIS_DSP/Source/MatrixFunctions/arm_mat_trans_q15.c ****  * SPDX-License-Identifier: Apache-2.0
  15:../Dave/Generated/CMSIS_DSP/Source/MatrixFunctions/arm_mat_trans_q15.c ****  *
  16:../Dave/Generated/CMSIS_DSP/Source/MatrixFunctions/arm_mat_trans_q15.c ****  * Licensed under the Apache License, Version 2.0 (the License); you may
  17:../Dave/Generated/CMSIS_DSP/Source/MatrixFunctions/arm_mat_trans_q15.c ****  * not use this file except in compliance with the License.
  18:../Dave/Generated/CMSIS_DSP/Source/MatrixFunctions/arm_mat_trans_q15.c ****  * You may obtain a copy of the License at
  19:../Dave/Generated/CMSIS_DSP/Source/MatrixFunctions/arm_mat_trans_q15.c ****  *
  20:../Dave/Generated/CMSIS_DSP/Source/MatrixFunctions/arm_mat_trans_q15.c ****  * www.apache.org/licenses/LICENSE-2.0
  21:../Dave/Generated/CMSIS_DSP/Source/MatrixFunctions/arm_mat_trans_q15.c ****  *
  22:../Dave/Generated/CMSIS_DSP/Source/MatrixFunctions/arm_mat_trans_q15.c ****  * Unless required by applicable law or agreed to in writing, software
  23:../Dave/Generated/CMSIS_DSP/Source/MatrixFunctions/arm_mat_trans_q15.c ****  * distributed under the License is distributed on an AS IS BASIS, WITHOUT
  24:../Dave/Generated/CMSIS_DSP/Source/MatrixFunctions/arm_mat_trans_q15.c ****  * WARRANTIES OR CONDITIONS OF ANY KIND, either express or implied.
  25:../Dave/Generated/CMSIS_DSP/Source/MatrixFunctions/arm_mat_trans_q15.c ****  * See the License for the specific language governing permissions and
  26:../Dave/Generated/CMSIS_DSP/Source/MatrixFunctions/arm_mat_trans_q15.c ****  * limitations under the License.
  27:../Dave/Generated/CMSIS_DSP/Source/MatrixFunctions/arm_mat_trans_q15.c ****  */
  28:../Dave/Generated/CMSIS_DSP/Source/MatrixFunctions/arm_mat_trans_q15.c **** 
  29:../Dave/Generated/CMSIS_DSP/Source/MatrixFunctions/arm_mat_trans_q15.c **** #include "CMSIS_DSP/cmsis_dsp.h"
  30:../Dave/Generated/CMSIS_DSP/Source/MatrixFunctions/arm_mat_trans_q15.c **** 
  31:../Dave/Generated/CMSIS_DSP/Source/MatrixFunctions/arm_mat_trans_q15.c **** /**
  32:../Dave/Generated/CMSIS_DSP/Source/MatrixFunctions/arm_mat_trans_q15.c ****   @ingroup groupMatrix
  33:../Dave/Generated/CMSIS_DSP/Source/MatrixFunctions/arm_mat_trans_q15.c ****  */
  34:../Dave/Generated/CMSIS_DSP/Source/MatrixFunctions/arm_mat_trans_q15.c **** 
  35:../Dave/Generated/CMSIS_DSP/Source/MatrixFunctions/arm_mat_trans_q15.c **** /**
  36:../Dave/Generated/CMSIS_DSP/Source/MatrixFunctions/arm_mat_trans_q15.c ****   @addtogroup MatrixTrans
  37:../Dave/Generated/CMSIS_DSP/Source/MatrixFunctions/arm_mat_trans_q15.c ****   @{
  38:../Dave/Generated/CMSIS_DSP/Source/MatrixFunctions/arm_mat_trans_q15.c ****  */
  39:../Dave/Generated/CMSIS_DSP/Source/MatrixFunctions/arm_mat_trans_q15.c **** 
  40:../Dave/Generated/CMSIS_DSP/Source/MatrixFunctions/arm_mat_trans_q15.c **** /**
  41:../Dave/Generated/CMSIS_DSP/Source/MatrixFunctions/arm_mat_trans_q15.c ****   @brief         Q15 matrix transpose.
  42:../Dave/Generated/CMSIS_DSP/Source/MatrixFunctions/arm_mat_trans_q15.c ****   @param[in]     pSrc      points to input matrix
  43:../Dave/Generated/CMSIS_DSP/Source/MatrixFunctions/arm_mat_trans_q15.c ****   @param[out]    pDst      points to output matrix
  44:../Dave/Generated/CMSIS_DSP/Source/MatrixFunctions/arm_mat_trans_q15.c ****   @return        execution status
  45:../Dave/Generated/CMSIS_DSP/Source/MatrixFunctions/arm_mat_trans_q15.c ****                    - \ref ARM_MATH_SUCCESS       : Operation successful
  46:../Dave/Generated/CMSIS_DSP/Source/MatrixFunctions/arm_mat_trans_q15.c ****                    - \ref ARM_MATH_SIZE_MISMATCH : Matrix size check failed
  47:../Dave/Generated/CMSIS_DSP/Source/MatrixFunctions/arm_mat_trans_q15.c ****  */
  48:../Dave/Generated/CMSIS_DSP/Source/MatrixFunctions/arm_mat_trans_q15.c ****  
  49:../Dave/Generated/CMSIS_DSP/Source/MatrixFunctions/arm_mat_trans_q15.c **** #if defined(ARM_MATH_MVEI)
  50:../Dave/Generated/CMSIS_DSP/Source/MatrixFunctions/arm_mat_trans_q15.c **** 
  51:../Dave/Generated/CMSIS_DSP/Source/MatrixFunctions/arm_mat_trans_q15.c **** __STATIC_INLINE arm_status arm_mat_trans_16bit_2x2(uint16_t * pDataSrc, uint16_t * pDataDest)
  52:../Dave/Generated/CMSIS_DSP/Source/MatrixFunctions/arm_mat_trans_q15.c **** {
  53:../Dave/Generated/CMSIS_DSP/Source/MatrixFunctions/arm_mat_trans_q15.c ****     pDataDest[0] = pDataSrc[0];
  54:../Dave/Generated/CMSIS_DSP/Source/MatrixFunctions/arm_mat_trans_q15.c ****     pDataDest[3] = pDataSrc[3];
  55:../Dave/Generated/CMSIS_DSP/Source/MatrixFunctions/arm_mat_trans_q15.c ****     pDataDest[2] = pDataSrc[1];
  56:../Dave/Generated/CMSIS_DSP/Source/MatrixFunctions/arm_mat_trans_q15.c ****     pDataDest[1] = pDataSrc[2];
  57:../Dave/Generated/CMSIS_DSP/Source/MatrixFunctions/arm_mat_trans_q15.c **** 
  58:../Dave/Generated/CMSIS_DSP/Source/MatrixFunctions/arm_mat_trans_q15.c ****     return (ARM_MATH_SUCCESS);
  59:../Dave/Generated/CMSIS_DSP/Source/MatrixFunctions/arm_mat_trans_q15.c **** }
  60:../Dave/Generated/CMSIS_DSP/Source/MatrixFunctions/arm_mat_trans_q15.c **** 
  61:../Dave/Generated/CMSIS_DSP/Source/MatrixFunctions/arm_mat_trans_q15.c **** static arm_status arm_mat_trans_16bit_3x3_mve(uint16_t * pDataSrc, uint16_t * pDataDest)
  62:../Dave/Generated/CMSIS_DSP/Source/MatrixFunctions/arm_mat_trans_q15.c **** {
  63:../Dave/Generated/CMSIS_DSP/Source/MatrixFunctions/arm_mat_trans_q15.c ****     static const uint16_t stridesTr33[8] = { 0, 3, 6, 1, 4, 7, 2, 5 };
  64:../Dave/Generated/CMSIS_DSP/Source/MatrixFunctions/arm_mat_trans_q15.c ****     uint16x8_t    vecOffs1;
  65:../Dave/Generated/CMSIS_DSP/Source/MatrixFunctions/arm_mat_trans_q15.c ****     uint16x8_t    vecIn1;
  66:../Dave/Generated/CMSIS_DSP/Source/MatrixFunctions/arm_mat_trans_q15.c ****     /*
  67:../Dave/Generated/CMSIS_DSP/Source/MatrixFunctions/arm_mat_trans_q15.c ****      *
  68:../Dave/Generated/CMSIS_DSP/Source/MatrixFunctions/arm_mat_trans_q15.c ****      *  | 0   1   2 |       | 0   3   6 |  8 x 16 flattened version | 0   3   6   1   4   7   2   5
  69:../Dave/Generated/CMSIS_DSP/Source/MatrixFunctions/arm_mat_trans_q15.c ****      *  | 3   4   5 | =>    | 1   4   7 |            =>             | 8   .   .   .   .   .   .   .
  70:../Dave/Generated/CMSIS_DSP/Source/MatrixFunctions/arm_mat_trans_q15.c ****      *  | 6   7   8 |       | 2   5   8 |       (row major)
  71:../Dave/Generated/CMSIS_DSP/Source/MatrixFunctions/arm_mat_trans_q15.c ****      *
  72:../Dave/Generated/CMSIS_DSP/Source/MatrixFunctions/arm_mat_trans_q15.c ****      */
  73:../Dave/Generated/CMSIS_DSP/Source/MatrixFunctions/arm_mat_trans_q15.c ****     vecOffs1 = vldrhq_u16((uint16_t const *) stridesTr33);
  74:../Dave/Generated/CMSIS_DSP/Source/MatrixFunctions/arm_mat_trans_q15.c ****     vecIn1 = vldrhq_u16((uint16_t const *) pDataSrc);
  75:../Dave/Generated/CMSIS_DSP/Source/MatrixFunctions/arm_mat_trans_q15.c **** 
  76:../Dave/Generated/CMSIS_DSP/Source/MatrixFunctions/arm_mat_trans_q15.c ****     vstrhq_scatter_shifted_offset_u16(pDataDest, vecOffs1, vecIn1);
  77:../Dave/Generated/CMSIS_DSP/Source/MatrixFunctions/arm_mat_trans_q15.c **** 
  78:../Dave/Generated/CMSIS_DSP/Source/MatrixFunctions/arm_mat_trans_q15.c ****     pDataDest[8] = pDataSrc[8];
  79:../Dave/Generated/CMSIS_DSP/Source/MatrixFunctions/arm_mat_trans_q15.c **** 
  80:../Dave/Generated/CMSIS_DSP/Source/MatrixFunctions/arm_mat_trans_q15.c ****     return (ARM_MATH_SUCCESS);
  81:../Dave/Generated/CMSIS_DSP/Source/MatrixFunctions/arm_mat_trans_q15.c **** }
  82:../Dave/Generated/CMSIS_DSP/Source/MatrixFunctions/arm_mat_trans_q15.c **** 
  83:../Dave/Generated/CMSIS_DSP/Source/MatrixFunctions/arm_mat_trans_q15.c **** 
  84:../Dave/Generated/CMSIS_DSP/Source/MatrixFunctions/arm_mat_trans_q15.c **** static arm_status arm_mat_trans_16bit_4x4_mve(uint16_t * pDataSrc, uint16_t * pDataDest)
  85:../Dave/Generated/CMSIS_DSP/Source/MatrixFunctions/arm_mat_trans_q15.c **** {
  86:../Dave/Generated/CMSIS_DSP/Source/MatrixFunctions/arm_mat_trans_q15.c ****     static const uint16_t stridesTr44_1[8] = { 0, 4, 8, 12, 1, 5, 9, 13 };
  87:../Dave/Generated/CMSIS_DSP/Source/MatrixFunctions/arm_mat_trans_q15.c ****     static const uint16_t stridesTr44_2[8] = { 2, 6, 10, 14, 3, 7, 11, 15 };
  88:../Dave/Generated/CMSIS_DSP/Source/MatrixFunctions/arm_mat_trans_q15.c ****     uint16x8_t    vecOffs1, vecOffs2;
  89:../Dave/Generated/CMSIS_DSP/Source/MatrixFunctions/arm_mat_trans_q15.c ****     uint16x8_t    vecIn1, vecIn2;
  90:../Dave/Generated/CMSIS_DSP/Source/MatrixFunctions/arm_mat_trans_q15.c ****     uint16_t const * pDataSrcVec = (uint16_t const *) pDataSrc;
  91:../Dave/Generated/CMSIS_DSP/Source/MatrixFunctions/arm_mat_trans_q15.c **** 
  92:../Dave/Generated/CMSIS_DSP/Source/MatrixFunctions/arm_mat_trans_q15.c ****     /*
  93:../Dave/Generated/CMSIS_DSP/Source/MatrixFunctions/arm_mat_trans_q15.c ****      * 4x4 Matrix transposition
  94:../Dave/Generated/CMSIS_DSP/Source/MatrixFunctions/arm_mat_trans_q15.c ****      *
  95:../Dave/Generated/CMSIS_DSP/Source/MatrixFunctions/arm_mat_trans_q15.c ****      * | 0   1   2   3  |       | 0   4   8   12 |   8 x 16 flattened version
  96:../Dave/Generated/CMSIS_DSP/Source/MatrixFunctions/arm_mat_trans_q15.c ****      * | 4   5   6   7  |  =>   | 1   5   9   13 |   =>      [0   4   8   12  1   5   9   13]
  97:../Dave/Generated/CMSIS_DSP/Source/MatrixFunctions/arm_mat_trans_q15.c ****      * | 8   9   10  11 |       | 2   6   10  14 |           [2   6   10  14  3   7   11  15]
  98:../Dave/Generated/CMSIS_DSP/Source/MatrixFunctions/arm_mat_trans_q15.c ****      * | 12  13  14  15 |       | 3   7   11  15 |
  99:../Dave/Generated/CMSIS_DSP/Source/MatrixFunctions/arm_mat_trans_q15.c ****      */
 100:../Dave/Generated/CMSIS_DSP/Source/MatrixFunctions/arm_mat_trans_q15.c **** 
 101:../Dave/Generated/CMSIS_DSP/Source/MatrixFunctions/arm_mat_trans_q15.c ****     vecOffs1 = vldrhq_u16((uint16_t const *) stridesTr44_1);
 102:../Dave/Generated/CMSIS_DSP/Source/MatrixFunctions/arm_mat_trans_q15.c ****     vecOffs2 = vldrhq_u16((uint16_t const *) stridesTr44_2);
 103:../Dave/Generated/CMSIS_DSP/Source/MatrixFunctions/arm_mat_trans_q15.c ****     vecIn1 = vldrhq_u16(pDataSrcVec);
 104:../Dave/Generated/CMSIS_DSP/Source/MatrixFunctions/arm_mat_trans_q15.c ****     pDataSrcVec += 8;
 105:../Dave/Generated/CMSIS_DSP/Source/MatrixFunctions/arm_mat_trans_q15.c ****     vecIn2 = vldrhq_u16(pDataSrcVec);
 106:../Dave/Generated/CMSIS_DSP/Source/MatrixFunctions/arm_mat_trans_q15.c **** 
 107:../Dave/Generated/CMSIS_DSP/Source/MatrixFunctions/arm_mat_trans_q15.c ****     vstrhq_scatter_shifted_offset_u16(pDataDest, vecOffs1, vecIn1);
 108:../Dave/Generated/CMSIS_DSP/Source/MatrixFunctions/arm_mat_trans_q15.c ****     vstrhq_scatter_shifted_offset_u16(pDataDest, vecOffs2, vecIn2);
 109:../Dave/Generated/CMSIS_DSP/Source/MatrixFunctions/arm_mat_trans_q15.c **** 
 110:../Dave/Generated/CMSIS_DSP/Source/MatrixFunctions/arm_mat_trans_q15.c **** 
 111:../Dave/Generated/CMSIS_DSP/Source/MatrixFunctions/arm_mat_trans_q15.c ****     return (ARM_MATH_SUCCESS);
 112:../Dave/Generated/CMSIS_DSP/Source/MatrixFunctions/arm_mat_trans_q15.c **** }
 113:../Dave/Generated/CMSIS_DSP/Source/MatrixFunctions/arm_mat_trans_q15.c **** 
 114:../Dave/Generated/CMSIS_DSP/Source/MatrixFunctions/arm_mat_trans_q15.c **** 
 115:../Dave/Generated/CMSIS_DSP/Source/MatrixFunctions/arm_mat_trans_q15.c **** 
 116:../Dave/Generated/CMSIS_DSP/Source/MatrixFunctions/arm_mat_trans_q15.c **** static arm_status arm_mat_trans_16bit_generic(
 117:../Dave/Generated/CMSIS_DSP/Source/MatrixFunctions/arm_mat_trans_q15.c ****     uint16_t    srcRows,
 118:../Dave/Generated/CMSIS_DSP/Source/MatrixFunctions/arm_mat_trans_q15.c ****     uint16_t    srcCols,
 119:../Dave/Generated/CMSIS_DSP/Source/MatrixFunctions/arm_mat_trans_q15.c ****     uint16_t  * pDataSrc,
 120:../Dave/Generated/CMSIS_DSP/Source/MatrixFunctions/arm_mat_trans_q15.c ****     uint16_t  * pDataDest)
 121:../Dave/Generated/CMSIS_DSP/Source/MatrixFunctions/arm_mat_trans_q15.c **** {
 122:../Dave/Generated/CMSIS_DSP/Source/MatrixFunctions/arm_mat_trans_q15.c ****     uint16x8_t    vecOffs;
 123:../Dave/Generated/CMSIS_DSP/Source/MatrixFunctions/arm_mat_trans_q15.c ****     uint32_t        i;
 124:../Dave/Generated/CMSIS_DSP/Source/MatrixFunctions/arm_mat_trans_q15.c ****     uint32_t        blkCnt;
 125:../Dave/Generated/CMSIS_DSP/Source/MatrixFunctions/arm_mat_trans_q15.c ****     uint16_t const *pDataC;
 126:../Dave/Generated/CMSIS_DSP/Source/MatrixFunctions/arm_mat_trans_q15.c ****     uint16_t       *pDataDestR;
 127:../Dave/Generated/CMSIS_DSP/Source/MatrixFunctions/arm_mat_trans_q15.c ****     uint16x8_t    vecIn;
 128:../Dave/Generated/CMSIS_DSP/Source/MatrixFunctions/arm_mat_trans_q15.c **** 
 129:../Dave/Generated/CMSIS_DSP/Source/MatrixFunctions/arm_mat_trans_q15.c ****     vecOffs = vidupq_u16((uint32_t)0, 1);
 130:../Dave/Generated/CMSIS_DSP/Source/MatrixFunctions/arm_mat_trans_q15.c ****     vecOffs = vecOffs * srcCols;
 131:../Dave/Generated/CMSIS_DSP/Source/MatrixFunctions/arm_mat_trans_q15.c **** 
 132:../Dave/Generated/CMSIS_DSP/Source/MatrixFunctions/arm_mat_trans_q15.c ****     i = srcCols;
 133:../Dave/Generated/CMSIS_DSP/Source/MatrixFunctions/arm_mat_trans_q15.c ****     while(i > 0U)
 134:../Dave/Generated/CMSIS_DSP/Source/MatrixFunctions/arm_mat_trans_q15.c ****     {
 135:../Dave/Generated/CMSIS_DSP/Source/MatrixFunctions/arm_mat_trans_q15.c ****         pDataC = (uint16_t const *) pDataSrc;
 136:../Dave/Generated/CMSIS_DSP/Source/MatrixFunctions/arm_mat_trans_q15.c ****         pDataDestR = pDataDest;
 137:../Dave/Generated/CMSIS_DSP/Source/MatrixFunctions/arm_mat_trans_q15.c **** 
 138:../Dave/Generated/CMSIS_DSP/Source/MatrixFunctions/arm_mat_trans_q15.c ****         blkCnt = srcRows >> 3;
 139:../Dave/Generated/CMSIS_DSP/Source/MatrixFunctions/arm_mat_trans_q15.c ****         while (blkCnt > 0U)
 140:../Dave/Generated/CMSIS_DSP/Source/MatrixFunctions/arm_mat_trans_q15.c ****         {
 141:../Dave/Generated/CMSIS_DSP/Source/MatrixFunctions/arm_mat_trans_q15.c ****             vecIn = vldrhq_gather_shifted_offset_u16(pDataC, vecOffs);
 142:../Dave/Generated/CMSIS_DSP/Source/MatrixFunctions/arm_mat_trans_q15.c ****             vstrhq_u16(pDataDestR, vecIn); 
 143:../Dave/Generated/CMSIS_DSP/Source/MatrixFunctions/arm_mat_trans_q15.c ****             pDataDestR += 8;
 144:../Dave/Generated/CMSIS_DSP/Source/MatrixFunctions/arm_mat_trans_q15.c ****             pDataC = pDataC + srcCols * 8;
 145:../Dave/Generated/CMSIS_DSP/Source/MatrixFunctions/arm_mat_trans_q15.c ****             /*
 146:../Dave/Generated/CMSIS_DSP/Source/MatrixFunctions/arm_mat_trans_q15.c ****              * Decrement the blockSize loop counter
 147:../Dave/Generated/CMSIS_DSP/Source/MatrixFunctions/arm_mat_trans_q15.c ****              */
 148:../Dave/Generated/CMSIS_DSP/Source/MatrixFunctions/arm_mat_trans_q15.c ****             blkCnt--;
 149:../Dave/Generated/CMSIS_DSP/Source/MatrixFunctions/arm_mat_trans_q15.c ****         }
 150:../Dave/Generated/CMSIS_DSP/Source/MatrixFunctions/arm_mat_trans_q15.c **** 
 151:../Dave/Generated/CMSIS_DSP/Source/MatrixFunctions/arm_mat_trans_q15.c ****         /*
 152:../Dave/Generated/CMSIS_DSP/Source/MatrixFunctions/arm_mat_trans_q15.c ****          * tail
 153:../Dave/Generated/CMSIS_DSP/Source/MatrixFunctions/arm_mat_trans_q15.c ****          */
 154:../Dave/Generated/CMSIS_DSP/Source/MatrixFunctions/arm_mat_trans_q15.c ****         blkCnt = srcRows & 7;
 155:../Dave/Generated/CMSIS_DSP/Source/MatrixFunctions/arm_mat_trans_q15.c ****         if (blkCnt > 0U)
 156:../Dave/Generated/CMSIS_DSP/Source/MatrixFunctions/arm_mat_trans_q15.c ****         {
 157:../Dave/Generated/CMSIS_DSP/Source/MatrixFunctions/arm_mat_trans_q15.c ****             mve_pred16_t p0 = vctp16q(blkCnt);
 158:../Dave/Generated/CMSIS_DSP/Source/MatrixFunctions/arm_mat_trans_q15.c ****             vecIn = vldrhq_gather_shifted_offset_u16(pDataC, vecOffs);
 159:../Dave/Generated/CMSIS_DSP/Source/MatrixFunctions/arm_mat_trans_q15.c ****             vstrhq_p_u16(pDataDestR, vecIn, p0);
 160:../Dave/Generated/CMSIS_DSP/Source/MatrixFunctions/arm_mat_trans_q15.c ****         }
 161:../Dave/Generated/CMSIS_DSP/Source/MatrixFunctions/arm_mat_trans_q15.c ****         pDataSrc += 1;
 162:../Dave/Generated/CMSIS_DSP/Source/MatrixFunctions/arm_mat_trans_q15.c ****         pDataDest += srcRows;
 163:../Dave/Generated/CMSIS_DSP/Source/MatrixFunctions/arm_mat_trans_q15.c ****         i--;
 164:../Dave/Generated/CMSIS_DSP/Source/MatrixFunctions/arm_mat_trans_q15.c ****     }
 165:../Dave/Generated/CMSIS_DSP/Source/MatrixFunctions/arm_mat_trans_q15.c **** 
 166:../Dave/Generated/CMSIS_DSP/Source/MatrixFunctions/arm_mat_trans_q15.c ****     return (ARM_MATH_SUCCESS);
 167:../Dave/Generated/CMSIS_DSP/Source/MatrixFunctions/arm_mat_trans_q15.c **** }
 168:../Dave/Generated/CMSIS_DSP/Source/MatrixFunctions/arm_mat_trans_q15.c **** 
 169:../Dave/Generated/CMSIS_DSP/Source/MatrixFunctions/arm_mat_trans_q15.c **** 
 170:../Dave/Generated/CMSIS_DSP/Source/MatrixFunctions/arm_mat_trans_q15.c **** arm_status arm_mat_trans_q15(
 171:../Dave/Generated/CMSIS_DSP/Source/MatrixFunctions/arm_mat_trans_q15.c ****   const arm_matrix_instance_q15 * pSrc,
 172:../Dave/Generated/CMSIS_DSP/Source/MatrixFunctions/arm_mat_trans_q15.c ****         arm_matrix_instance_q15 * pDst)
 173:../Dave/Generated/CMSIS_DSP/Source/MatrixFunctions/arm_mat_trans_q15.c **** {
 174:../Dave/Generated/CMSIS_DSP/Source/MatrixFunctions/arm_mat_trans_q15.c ****   arm_status status;                             /* status of matrix transpose */
 175:../Dave/Generated/CMSIS_DSP/Source/MatrixFunctions/arm_mat_trans_q15.c **** 
 176:../Dave/Generated/CMSIS_DSP/Source/MatrixFunctions/arm_mat_trans_q15.c **** #ifdef ARM_MATH_MATRIX_CHECK
 177:../Dave/Generated/CMSIS_DSP/Source/MatrixFunctions/arm_mat_trans_q15.c **** 
 178:../Dave/Generated/CMSIS_DSP/Source/MatrixFunctions/arm_mat_trans_q15.c ****   /* Check for matrix mismatch condition */
 179:../Dave/Generated/CMSIS_DSP/Source/MatrixFunctions/arm_mat_trans_q15.c ****   if ((pSrc->numRows != pDst->numCols) ||
 180:../Dave/Generated/CMSIS_DSP/Source/MatrixFunctions/arm_mat_trans_q15.c ****       (pSrc->numCols != pDst->numRows)   )
 181:../Dave/Generated/CMSIS_DSP/Source/MatrixFunctions/arm_mat_trans_q15.c ****   {
 182:../Dave/Generated/CMSIS_DSP/Source/MatrixFunctions/arm_mat_trans_q15.c ****     /* Set status as ARM_MATH_SIZE_MISMATCH */
 183:../Dave/Generated/CMSIS_DSP/Source/MatrixFunctions/arm_mat_trans_q15.c ****     status = ARM_MATH_SIZE_MISMATCH;
 184:../Dave/Generated/CMSIS_DSP/Source/MatrixFunctions/arm_mat_trans_q15.c ****   }
 185:../Dave/Generated/CMSIS_DSP/Source/MatrixFunctions/arm_mat_trans_q15.c ****   else
 186:../Dave/Generated/CMSIS_DSP/Source/MatrixFunctions/arm_mat_trans_q15.c **** 
 187:../Dave/Generated/CMSIS_DSP/Source/MatrixFunctions/arm_mat_trans_q15.c **** #endif /* #ifdef ARM_MATH_MATRIX_CHECK */
 188:../Dave/Generated/CMSIS_DSP/Source/MatrixFunctions/arm_mat_trans_q15.c **** 
 189:../Dave/Generated/CMSIS_DSP/Source/MatrixFunctions/arm_mat_trans_q15.c ****   {
 190:../Dave/Generated/CMSIS_DSP/Source/MatrixFunctions/arm_mat_trans_q15.c ****     if (pDst->numRows == pDst->numCols)
 191:../Dave/Generated/CMSIS_DSP/Source/MatrixFunctions/arm_mat_trans_q15.c ****     {
 192:../Dave/Generated/CMSIS_DSP/Source/MatrixFunctions/arm_mat_trans_q15.c ****         if (pDst->numCols == 1)
 193:../Dave/Generated/CMSIS_DSP/Source/MatrixFunctions/arm_mat_trans_q15.c ****         {
 194:../Dave/Generated/CMSIS_DSP/Source/MatrixFunctions/arm_mat_trans_q15.c ****           pDst->pData[0] = pSrc->pData[0];
 195:../Dave/Generated/CMSIS_DSP/Source/MatrixFunctions/arm_mat_trans_q15.c ****           return(ARM_MATH_SUCCESS);
 196:../Dave/Generated/CMSIS_DSP/Source/MatrixFunctions/arm_mat_trans_q15.c ****         }
 197:../Dave/Generated/CMSIS_DSP/Source/MatrixFunctions/arm_mat_trans_q15.c ****         if (pDst->numCols == 2)
 198:../Dave/Generated/CMSIS_DSP/Source/MatrixFunctions/arm_mat_trans_q15.c ****             return arm_mat_trans_16bit_2x2((uint16_t  *)pSrc->pData, (uint16_t  *)pDst->pData);
 199:../Dave/Generated/CMSIS_DSP/Source/MatrixFunctions/arm_mat_trans_q15.c ****         if (pDst->numCols == 3)
 200:../Dave/Generated/CMSIS_DSP/Source/MatrixFunctions/arm_mat_trans_q15.c ****             return arm_mat_trans_16bit_3x3_mve((uint16_t  *)pSrc->pData, (uint16_t  *)pDst->pData);
 201:../Dave/Generated/CMSIS_DSP/Source/MatrixFunctions/arm_mat_trans_q15.c ****         if (pDst->numCols == 4)
 202:../Dave/Generated/CMSIS_DSP/Source/MatrixFunctions/arm_mat_trans_q15.c ****             return arm_mat_trans_16bit_4x4_mve((uint16_t  *)pSrc->pData, (uint16_t  *)pDst->pData);
 203:../Dave/Generated/CMSIS_DSP/Source/MatrixFunctions/arm_mat_trans_q15.c ****     }
 204:../Dave/Generated/CMSIS_DSP/Source/MatrixFunctions/arm_mat_trans_q15.c **** 
 205:../Dave/Generated/CMSIS_DSP/Source/MatrixFunctions/arm_mat_trans_q15.c ****     arm_mat_trans_16bit_generic(pSrc->numRows, pSrc->numCols, (uint16_t  *)pSrc->pData, (uint16_t  
 206:../Dave/Generated/CMSIS_DSP/Source/MatrixFunctions/arm_mat_trans_q15.c ****       /* Set status as ARM_MATH_SUCCESS */
 207:../Dave/Generated/CMSIS_DSP/Source/MatrixFunctions/arm_mat_trans_q15.c ****     status = ARM_MATH_SUCCESS;
 208:../Dave/Generated/CMSIS_DSP/Source/MatrixFunctions/arm_mat_trans_q15.c ****   }
 209:../Dave/Generated/CMSIS_DSP/Source/MatrixFunctions/arm_mat_trans_q15.c **** 
 210:../Dave/Generated/CMSIS_DSP/Source/MatrixFunctions/arm_mat_trans_q15.c ****   /* Return to application */
 211:../Dave/Generated/CMSIS_DSP/Source/MatrixFunctions/arm_mat_trans_q15.c ****   return (status);
 212:../Dave/Generated/CMSIS_DSP/Source/MatrixFunctions/arm_mat_trans_q15.c **** }
 213:../Dave/Generated/CMSIS_DSP/Source/MatrixFunctions/arm_mat_trans_q15.c **** #else
 214:../Dave/Generated/CMSIS_DSP/Source/MatrixFunctions/arm_mat_trans_q15.c **** arm_status arm_mat_trans_q15(
 215:../Dave/Generated/CMSIS_DSP/Source/MatrixFunctions/arm_mat_trans_q15.c ****   const arm_matrix_instance_q15 * pSrc,
 216:../Dave/Generated/CMSIS_DSP/Source/MatrixFunctions/arm_mat_trans_q15.c ****         arm_matrix_instance_q15 * pDst)
 217:../Dave/Generated/CMSIS_DSP/Source/MatrixFunctions/arm_mat_trans_q15.c **** {
  28              	 .loc 1 217 0
  29              	 .cfi_startproc
  30              	 
  31              	 
  32              	 
  33 0000 80B4     	 push {r7}
  34              	.LCFI0:
  35              	 .cfi_def_cfa_offset 4
  36              	 .cfi_offset 7,-4
  37 0002 8BB0     	 sub sp,sp,#44
  38              	.LCFI1:
  39              	 .cfi_def_cfa_offset 48
  40 0004 00AF     	 add r7,sp,#0
  41              	.LCFI2:
  42              	 .cfi_def_cfa_register 7
  43 0006 7860     	 str r0,[r7,#4]
  44 0008 3960     	 str r1,[r7]
 218:../Dave/Generated/CMSIS_DSP/Source/MatrixFunctions/arm_mat_trans_q15.c ****         q15_t *pIn = pSrc->pData;                      /* input data matrix pointer */
  45              	 .loc 1 218 0
  46 000a 7B68     	 ldr r3,[r7,#4]
  47 000c 5B68     	 ldr r3,[r3,#4]
  48 000e 7B62     	 str r3,[r7,#36]
 219:../Dave/Generated/CMSIS_DSP/Source/MatrixFunctions/arm_mat_trans_q15.c ****         q15_t *pOut = pDst->pData;                     /* output data matrix pointer */
  49              	 .loc 1 219 0
  50 0010 3B68     	 ldr r3,[r7]
  51 0012 5B68     	 ldr r3,[r3,#4]
  52 0014 3B62     	 str r3,[r7,#32]
 220:../Dave/Generated/CMSIS_DSP/Source/MatrixFunctions/arm_mat_trans_q15.c ****         uint16_t nRows = pSrc->numRows;                /* number of rows */
  53              	 .loc 1 220 0
  54 0016 7B68     	 ldr r3,[r7,#4]
  55 0018 1B88     	 ldrh r3,[r3]
  56 001a 3B82     	 strh r3,[r7,#16]
 221:../Dave/Generated/CMSIS_DSP/Source/MatrixFunctions/arm_mat_trans_q15.c ****         uint16_t nCols = pSrc->numCols;                /* number of columns */
  57              	 .loc 1 221 0
  58 001c 7B68     	 ldr r3,[r7,#4]
  59 001e 5B88     	 ldrh r3,[r3,#2]
  60 0020 FB81     	 strh r3,[r7,#14]
 222:../Dave/Generated/CMSIS_DSP/Source/MatrixFunctions/arm_mat_trans_q15.c ****         uint32_t col, row = nRows, i = 0U;             /* Loop counters */
  61              	 .loc 1 222 0
  62 0022 3B8A     	 ldrh r3,[r7,#16]
  63 0024 BB61     	 str r3,[r7,#24]
  64 0026 0023     	 movs r3,#0
  65 0028 7B61     	 str r3,[r7,#20]
 223:../Dave/Generated/CMSIS_DSP/Source/MatrixFunctions/arm_mat_trans_q15.c ****         arm_status status;                             /* status of matrix transpose */
 224:../Dave/Generated/CMSIS_DSP/Source/MatrixFunctions/arm_mat_trans_q15.c **** 
 225:../Dave/Generated/CMSIS_DSP/Source/MatrixFunctions/arm_mat_trans_q15.c **** #if defined (ARM_MATH_LOOPUNROLL)
 226:../Dave/Generated/CMSIS_DSP/Source/MatrixFunctions/arm_mat_trans_q15.c ****         q31_t in;                                      /* variable to hold temporary output  */
 227:../Dave/Generated/CMSIS_DSP/Source/MatrixFunctions/arm_mat_trans_q15.c **** #endif
 228:../Dave/Generated/CMSIS_DSP/Source/MatrixFunctions/arm_mat_trans_q15.c **** 
 229:../Dave/Generated/CMSIS_DSP/Source/MatrixFunctions/arm_mat_trans_q15.c **** #ifdef ARM_MATH_MATRIX_CHECK
 230:../Dave/Generated/CMSIS_DSP/Source/MatrixFunctions/arm_mat_trans_q15.c **** 
 231:../Dave/Generated/CMSIS_DSP/Source/MatrixFunctions/arm_mat_trans_q15.c ****   /* Check for matrix mismatch condition */
 232:../Dave/Generated/CMSIS_DSP/Source/MatrixFunctions/arm_mat_trans_q15.c ****   if ((pSrc->numRows != pDst->numCols) ||
  66              	 .loc 1 232 0
  67 002a 7B68     	 ldr r3,[r7,#4]
  68 002c 1A88     	 ldrh r2,[r3]
  69 002e 3B68     	 ldr r3,[r7]
  70 0030 5B88     	 ldrh r3,[r3,#2]
  71 0032 9A42     	 cmp r2,r3
  72 0034 05D1     	 bne .L2
 233:../Dave/Generated/CMSIS_DSP/Source/MatrixFunctions/arm_mat_trans_q15.c ****       (pSrc->numCols != pDst->numRows)   )
  73              	 .loc 1 233 0 discriminator 1
  74 0036 7B68     	 ldr r3,[r7,#4]
  75 0038 5A88     	 ldrh r2,[r3,#2]
  76 003a 3B68     	 ldr r3,[r7]
  77 003c 1B88     	 ldrh r3,[r3]
 232:../Dave/Generated/CMSIS_DSP/Source/MatrixFunctions/arm_mat_trans_q15.c ****       (pSrc->numCols != pDst->numRows)   )
  78              	 .loc 1 232 0 discriminator 1
  79 003e 9A42     	 cmp r2,r3
  80 0040 02D0     	 beq .L3
  81              	.L2:
 234:../Dave/Generated/CMSIS_DSP/Source/MatrixFunctions/arm_mat_trans_q15.c ****   {
 235:../Dave/Generated/CMSIS_DSP/Source/MatrixFunctions/arm_mat_trans_q15.c ****     /* Set status as ARM_MATH_SIZE_MISMATCH */
 236:../Dave/Generated/CMSIS_DSP/Source/MatrixFunctions/arm_mat_trans_q15.c ****     status = ARM_MATH_SIZE_MISMATCH;
  82              	 .loc 1 236 0
  83 0042 FD23     	 movs r3,#253
  84 0044 FB74     	 strb r3,[r7,#19]
  85 0046 24E0     	 b .L4
  86              	.L3:
 237:../Dave/Generated/CMSIS_DSP/Source/MatrixFunctions/arm_mat_trans_q15.c ****   }
 238:../Dave/Generated/CMSIS_DSP/Source/MatrixFunctions/arm_mat_trans_q15.c ****   else
 239:../Dave/Generated/CMSIS_DSP/Source/MatrixFunctions/arm_mat_trans_q15.c **** 
 240:../Dave/Generated/CMSIS_DSP/Source/MatrixFunctions/arm_mat_trans_q15.c **** #endif /* #ifdef ARM_MATH_MATRIX_CHECK */
 241:../Dave/Generated/CMSIS_DSP/Source/MatrixFunctions/arm_mat_trans_q15.c **** 
 242:../Dave/Generated/CMSIS_DSP/Source/MatrixFunctions/arm_mat_trans_q15.c ****   {
 243:../Dave/Generated/CMSIS_DSP/Source/MatrixFunctions/arm_mat_trans_q15.c ****     /* Matrix transpose by exchanging the rows with columns */
 244:../Dave/Generated/CMSIS_DSP/Source/MatrixFunctions/arm_mat_trans_q15.c ****     /* row loop */
 245:../Dave/Generated/CMSIS_DSP/Source/MatrixFunctions/arm_mat_trans_q15.c ****     do
 246:../Dave/Generated/CMSIS_DSP/Source/MatrixFunctions/arm_mat_trans_q15.c ****     {
 247:../Dave/Generated/CMSIS_DSP/Source/MatrixFunctions/arm_mat_trans_q15.c ****       /* Pointer pOut is set to starting address of column being processed */
 248:../Dave/Generated/CMSIS_DSP/Source/MatrixFunctions/arm_mat_trans_q15.c ****       pOut = pDst->pData + i;
  87              	 .loc 1 248 0
  88 0048 3B68     	 ldr r3,[r7]
  89 004a 5A68     	 ldr r2,[r3,#4]
  90 004c 7B69     	 ldr r3,[r7,#20]
  91 004e 5B00     	 lsls r3,r3,#1
  92 0050 1344     	 add r3,r3,r2
  93 0052 3B62     	 str r3,[r7,#32]
 249:../Dave/Generated/CMSIS_DSP/Source/MatrixFunctions/arm_mat_trans_q15.c **** 
 250:../Dave/Generated/CMSIS_DSP/Source/MatrixFunctions/arm_mat_trans_q15.c **** #if defined (ARM_MATH_LOOPUNROLL)
 251:../Dave/Generated/CMSIS_DSP/Source/MatrixFunctions/arm_mat_trans_q15.c **** 
 252:../Dave/Generated/CMSIS_DSP/Source/MatrixFunctions/arm_mat_trans_q15.c ****       /* Loop unrolling: Compute 4 outputs at a time */
 253:../Dave/Generated/CMSIS_DSP/Source/MatrixFunctions/arm_mat_trans_q15.c ****       col = nCols >> 2U;
 254:../Dave/Generated/CMSIS_DSP/Source/MatrixFunctions/arm_mat_trans_q15.c **** 
 255:../Dave/Generated/CMSIS_DSP/Source/MatrixFunctions/arm_mat_trans_q15.c ****       while (col > 0U)        /* column loop */
 256:../Dave/Generated/CMSIS_DSP/Source/MatrixFunctions/arm_mat_trans_q15.c ****       {
 257:../Dave/Generated/CMSIS_DSP/Source/MatrixFunctions/arm_mat_trans_q15.c ****         /* Read two elements from row */
 258:../Dave/Generated/CMSIS_DSP/Source/MatrixFunctions/arm_mat_trans_q15.c ****         in = read_q15x2_ia ((q15_t **) &pIn);
 259:../Dave/Generated/CMSIS_DSP/Source/MatrixFunctions/arm_mat_trans_q15.c **** 
 260:../Dave/Generated/CMSIS_DSP/Source/MatrixFunctions/arm_mat_trans_q15.c ****         /* Unpack and store one element in  destination */
 261:../Dave/Generated/CMSIS_DSP/Source/MatrixFunctions/arm_mat_trans_q15.c **** #ifndef ARM_MATH_BIG_ENDIAN
 262:../Dave/Generated/CMSIS_DSP/Source/MatrixFunctions/arm_mat_trans_q15.c ****         *pOut = (q15_t) in;
 263:../Dave/Generated/CMSIS_DSP/Source/MatrixFunctions/arm_mat_trans_q15.c **** #else
 264:../Dave/Generated/CMSIS_DSP/Source/MatrixFunctions/arm_mat_trans_q15.c ****         *pOut = (q15_t) ((in & (q31_t) 0xffff0000) >> 16);
 265:../Dave/Generated/CMSIS_DSP/Source/MatrixFunctions/arm_mat_trans_q15.c **** #endif /* #ifndef ARM_MATH_BIG_ENDIAN */
 266:../Dave/Generated/CMSIS_DSP/Source/MatrixFunctions/arm_mat_trans_q15.c **** 
 267:../Dave/Generated/CMSIS_DSP/Source/MatrixFunctions/arm_mat_trans_q15.c ****         /* Update pointer pOut to point to next row of transposed matrix */
 268:../Dave/Generated/CMSIS_DSP/Source/MatrixFunctions/arm_mat_trans_q15.c ****         pOut += nRows;
 269:../Dave/Generated/CMSIS_DSP/Source/MatrixFunctions/arm_mat_trans_q15.c **** 
 270:../Dave/Generated/CMSIS_DSP/Source/MatrixFunctions/arm_mat_trans_q15.c ****         /* Unpack and store second element in destination */
 271:../Dave/Generated/CMSIS_DSP/Source/MatrixFunctions/arm_mat_trans_q15.c **** #ifndef ARM_MATH_BIG_ENDIAN
 272:../Dave/Generated/CMSIS_DSP/Source/MatrixFunctions/arm_mat_trans_q15.c ****         *pOut = (q15_t) ((in & (q31_t) 0xffff0000) >> 16);
 273:../Dave/Generated/CMSIS_DSP/Source/MatrixFunctions/arm_mat_trans_q15.c **** #else
 274:../Dave/Generated/CMSIS_DSP/Source/MatrixFunctions/arm_mat_trans_q15.c ****         *pOut = (q15_t) in;
 275:../Dave/Generated/CMSIS_DSP/Source/MatrixFunctions/arm_mat_trans_q15.c **** #endif /* #ifndef ARM_MATH_BIG_ENDIAN */
 276:../Dave/Generated/CMSIS_DSP/Source/MatrixFunctions/arm_mat_trans_q15.c **** 
 277:../Dave/Generated/CMSIS_DSP/Source/MatrixFunctions/arm_mat_trans_q15.c ****         /* Update  pointer pOut to point to next row of transposed matrix */
 278:../Dave/Generated/CMSIS_DSP/Source/MatrixFunctions/arm_mat_trans_q15.c ****         pOut += nRows;
 279:../Dave/Generated/CMSIS_DSP/Source/MatrixFunctions/arm_mat_trans_q15.c **** 
 280:../Dave/Generated/CMSIS_DSP/Source/MatrixFunctions/arm_mat_trans_q15.c ****         /* Read two elements from row */
 281:../Dave/Generated/CMSIS_DSP/Source/MatrixFunctions/arm_mat_trans_q15.c ****         in = read_q15x2_ia ((q15_t **) &pIn);
 282:../Dave/Generated/CMSIS_DSP/Source/MatrixFunctions/arm_mat_trans_q15.c **** 
 283:../Dave/Generated/CMSIS_DSP/Source/MatrixFunctions/arm_mat_trans_q15.c ****         /* Unpack and store one element in destination */
 284:../Dave/Generated/CMSIS_DSP/Source/MatrixFunctions/arm_mat_trans_q15.c **** #ifndef ARM_MATH_BIG_ENDIAN
 285:../Dave/Generated/CMSIS_DSP/Source/MatrixFunctions/arm_mat_trans_q15.c ****         *pOut = (q15_t) in;
 286:../Dave/Generated/CMSIS_DSP/Source/MatrixFunctions/arm_mat_trans_q15.c **** #else
 287:../Dave/Generated/CMSIS_DSP/Source/MatrixFunctions/arm_mat_trans_q15.c ****         *pOut = (q15_t) ((in & (q31_t) 0xffff0000) >> 16);
 288:../Dave/Generated/CMSIS_DSP/Source/MatrixFunctions/arm_mat_trans_q15.c **** 
 289:../Dave/Generated/CMSIS_DSP/Source/MatrixFunctions/arm_mat_trans_q15.c **** #endif /* #ifndef ARM_MATH_BIG_ENDIAN */
 290:../Dave/Generated/CMSIS_DSP/Source/MatrixFunctions/arm_mat_trans_q15.c **** 
 291:../Dave/Generated/CMSIS_DSP/Source/MatrixFunctions/arm_mat_trans_q15.c ****         /* Update pointer pOut to point to next row of transposed matrix */
 292:../Dave/Generated/CMSIS_DSP/Source/MatrixFunctions/arm_mat_trans_q15.c ****         pOut += nRows;
 293:../Dave/Generated/CMSIS_DSP/Source/MatrixFunctions/arm_mat_trans_q15.c **** 
 294:../Dave/Generated/CMSIS_DSP/Source/MatrixFunctions/arm_mat_trans_q15.c ****         /* Unpack and store second element in destination */
 295:../Dave/Generated/CMSIS_DSP/Source/MatrixFunctions/arm_mat_trans_q15.c **** #ifndef ARM_MATH_BIG_ENDIAN
 296:../Dave/Generated/CMSIS_DSP/Source/MatrixFunctions/arm_mat_trans_q15.c ****         *pOut = (q15_t) ((in & (q31_t) 0xffff0000) >> 16);
 297:../Dave/Generated/CMSIS_DSP/Source/MatrixFunctions/arm_mat_trans_q15.c **** #else
 298:../Dave/Generated/CMSIS_DSP/Source/MatrixFunctions/arm_mat_trans_q15.c ****         *pOut = (q15_t) in;
 299:../Dave/Generated/CMSIS_DSP/Source/MatrixFunctions/arm_mat_trans_q15.c **** #endif /* #ifndef ARM_MATH_BIG_ENDIAN */
 300:../Dave/Generated/CMSIS_DSP/Source/MatrixFunctions/arm_mat_trans_q15.c **** 
 301:../Dave/Generated/CMSIS_DSP/Source/MatrixFunctions/arm_mat_trans_q15.c ****         /* Update pointer pOut to point to next row of transposed matrix */
 302:../Dave/Generated/CMSIS_DSP/Source/MatrixFunctions/arm_mat_trans_q15.c ****         pOut += nRows;
 303:../Dave/Generated/CMSIS_DSP/Source/MatrixFunctions/arm_mat_trans_q15.c **** 
 304:../Dave/Generated/CMSIS_DSP/Source/MatrixFunctions/arm_mat_trans_q15.c ****         /* Decrement column loop counter */
 305:../Dave/Generated/CMSIS_DSP/Source/MatrixFunctions/arm_mat_trans_q15.c ****         col--;
 306:../Dave/Generated/CMSIS_DSP/Source/MatrixFunctions/arm_mat_trans_q15.c ****       }
 307:../Dave/Generated/CMSIS_DSP/Source/MatrixFunctions/arm_mat_trans_q15.c **** 
 308:../Dave/Generated/CMSIS_DSP/Source/MatrixFunctions/arm_mat_trans_q15.c ****       /* Loop unrolling: Compute remaining outputs */
 309:../Dave/Generated/CMSIS_DSP/Source/MatrixFunctions/arm_mat_trans_q15.c ****       col = nCols % 0x4U;
 310:../Dave/Generated/CMSIS_DSP/Source/MatrixFunctions/arm_mat_trans_q15.c **** 
 311:../Dave/Generated/CMSIS_DSP/Source/MatrixFunctions/arm_mat_trans_q15.c **** #else
 312:../Dave/Generated/CMSIS_DSP/Source/MatrixFunctions/arm_mat_trans_q15.c **** 
 313:../Dave/Generated/CMSIS_DSP/Source/MatrixFunctions/arm_mat_trans_q15.c ****       /* Initialize col with number of samples */
 314:../Dave/Generated/CMSIS_DSP/Source/MatrixFunctions/arm_mat_trans_q15.c ****       col = nCols;
  94              	 .loc 1 314 0
  95 0054 FB89     	 ldrh r3,[r7,#14]
  96 0056 FB61     	 str r3,[r7,#28]
 315:../Dave/Generated/CMSIS_DSP/Source/MatrixFunctions/arm_mat_trans_q15.c **** 
 316:../Dave/Generated/CMSIS_DSP/Source/MatrixFunctions/arm_mat_trans_q15.c **** #endif /* #if defined (ARM_MATH_LOOPUNROLL) */
 317:../Dave/Generated/CMSIS_DSP/Source/MatrixFunctions/arm_mat_trans_q15.c **** 
 318:../Dave/Generated/CMSIS_DSP/Source/MatrixFunctions/arm_mat_trans_q15.c ****       while (col > 0U)
  97              	 .loc 1 318 0
  98 0058 0DE0     	 b .L5
  99              	.L6:
 319:../Dave/Generated/CMSIS_DSP/Source/MatrixFunctions/arm_mat_trans_q15.c ****       {
 320:../Dave/Generated/CMSIS_DSP/Source/MatrixFunctions/arm_mat_trans_q15.c ****         /* Read and store input element in destination */
 321:../Dave/Generated/CMSIS_DSP/Source/MatrixFunctions/arm_mat_trans_q15.c ****         *pOut = *pIn++;
 100              	 .loc 1 321 0
 101 005a 7B6A     	 ldr r3,[r7,#36]
 102 005c 9A1C     	 adds r2,r3,#2
 103 005e 7A62     	 str r2,[r7,#36]
 104 0060 1A88     	 ldrh r2,[r3]
 105 0062 3B6A     	 ldr r3,[r7,#32]
 106 0064 1A80     	 strh r2,[r3]
 322:../Dave/Generated/CMSIS_DSP/Source/MatrixFunctions/arm_mat_trans_q15.c **** 
 323:../Dave/Generated/CMSIS_DSP/Source/MatrixFunctions/arm_mat_trans_q15.c ****         /* Update pointer pOut to point to next row of transposed matrix */
 324:../Dave/Generated/CMSIS_DSP/Source/MatrixFunctions/arm_mat_trans_q15.c ****         pOut += nRows;
 107              	 .loc 1 324 0
 108 0066 3B8A     	 ldrh r3,[r7,#16]
 109 0068 5B00     	 lsls r3,r3,#1
 110 006a 3A6A     	 ldr r2,[r7,#32]
 111 006c 1344     	 add r3,r3,r2
 112 006e 3B62     	 str r3,[r7,#32]
 325:../Dave/Generated/CMSIS_DSP/Source/MatrixFunctions/arm_mat_trans_q15.c **** 
 326:../Dave/Generated/CMSIS_DSP/Source/MatrixFunctions/arm_mat_trans_q15.c ****         /* Decrement column loop counter */
 327:../Dave/Generated/CMSIS_DSP/Source/MatrixFunctions/arm_mat_trans_q15.c ****         col--;
 113              	 .loc 1 327 0
 114 0070 FB69     	 ldr r3,[r7,#28]
 115 0072 013B     	 subs r3,r3,#1
 116 0074 FB61     	 str r3,[r7,#28]
 117              	.L5:
 318:../Dave/Generated/CMSIS_DSP/Source/MatrixFunctions/arm_mat_trans_q15.c ****       {
 118              	 .loc 1 318 0
 119 0076 FB69     	 ldr r3,[r7,#28]
 120 0078 002B     	 cmp r3,#0
 121 007a EED1     	 bne .L6
 328:../Dave/Generated/CMSIS_DSP/Source/MatrixFunctions/arm_mat_trans_q15.c ****       }
 329:../Dave/Generated/CMSIS_DSP/Source/MatrixFunctions/arm_mat_trans_q15.c **** 
 330:../Dave/Generated/CMSIS_DSP/Source/MatrixFunctions/arm_mat_trans_q15.c ****       i++;
 122              	 .loc 1 330 0
 123 007c 7B69     	 ldr r3,[r7,#20]
 124 007e 0133     	 adds r3,r3,#1
 125 0080 7B61     	 str r3,[r7,#20]
 331:../Dave/Generated/CMSIS_DSP/Source/MatrixFunctions/arm_mat_trans_q15.c **** 
 332:../Dave/Generated/CMSIS_DSP/Source/MatrixFunctions/arm_mat_trans_q15.c ****       /* Decrement row loop counter */
 333:../Dave/Generated/CMSIS_DSP/Source/MatrixFunctions/arm_mat_trans_q15.c ****       row--;
 126              	 .loc 1 333 0
 127 0082 BB69     	 ldr r3,[r7,#24]
 128 0084 013B     	 subs r3,r3,#1
 129 0086 BB61     	 str r3,[r7,#24]
 334:../Dave/Generated/CMSIS_DSP/Source/MatrixFunctions/arm_mat_trans_q15.c **** 
 335:../Dave/Generated/CMSIS_DSP/Source/MatrixFunctions/arm_mat_trans_q15.c ****     } while (row > 0U);          /* row loop end */
 130              	 .loc 1 335 0
 131 0088 BB69     	 ldr r3,[r7,#24]
 132 008a 002B     	 cmp r3,#0
 133 008c DCD1     	 bne .L3
 336:../Dave/Generated/CMSIS_DSP/Source/MatrixFunctions/arm_mat_trans_q15.c **** 
 337:../Dave/Generated/CMSIS_DSP/Source/MatrixFunctions/arm_mat_trans_q15.c ****     /* Set status as ARM_MATH_SUCCESS */
 338:../Dave/Generated/CMSIS_DSP/Source/MatrixFunctions/arm_mat_trans_q15.c ****     status = ARM_MATH_SUCCESS;
 134              	 .loc 1 338 0
 135 008e 0023     	 movs r3,#0
 136 0090 FB74     	 strb r3,[r7,#19]
 137              	.L4:
 339:../Dave/Generated/CMSIS_DSP/Source/MatrixFunctions/arm_mat_trans_q15.c ****   }
 340:../Dave/Generated/CMSIS_DSP/Source/MatrixFunctions/arm_mat_trans_q15.c **** 
 341:../Dave/Generated/CMSIS_DSP/Source/MatrixFunctions/arm_mat_trans_q15.c ****   /* Return to application */
 342:../Dave/Generated/CMSIS_DSP/Source/MatrixFunctions/arm_mat_trans_q15.c ****   return (status);
 138              	 .loc 1 342 0
 139 0092 FB7C     	 ldrb r3,[r7,#19]
 140 0094 5BB2     	 sxtb r3,r3
 343:../Dave/Generated/CMSIS_DSP/Source/MatrixFunctions/arm_mat_trans_q15.c **** }
 141              	 .loc 1 343 0
 142 0096 1846     	 mov r0,r3
 143 0098 2C37     	 adds r7,r7,#44
 144              	.LCFI3:
 145              	 .cfi_def_cfa_offset 4
 146 009a BD46     	 mov sp,r7
 147              	.LCFI4:
 148              	 .cfi_def_cfa_register 13
 149              	 
 150 009c 5DF8047B 	 ldr r7,[sp],#4
 151              	.LCFI5:
 152              	 .cfi_restore 7
 153              	 .cfi_def_cfa_offset 0
 154 00a0 7047     	 bx lr
 155              	 .cfi_endproc
 156              	.LFE149:
 158 00a2 00BF     	 .text
 159              	.Letext0:
 160              	 .file 2 "c:\\infineon\\tools\\dave ide\\4.5.0.202105191637\\eclipse\\arm-gcc-49\\arm-none-eabi\\include\\machine\\_default_types.h"
 161              	 .file 3 "c:\\infineon\\tools\\dave ide\\4.5.0.202105191637\\eclipse\\arm-gcc-49\\arm-none-eabi\\include\\stdint.h"
 162              	 .file 4 "C:/Users/Rui Mendes/Desktop/DAVE/_Naive/_ForTesting/Dave/Generated/CMSIS_DSP/Include/arm_math.h"
 163              	 .file 5 "C:/Users/Rui Mendes/Desktop/DAVE/_Naive/_ForTesting/Libraries/CMSIS/Include/cmsis_gcc.h"