   1              	 .syntax unified
   2              	 .cpu cortex-m4
   3              	 .eabi_attribute 27,3
   4              	 .fpu fpv4-sp-d16
   5              	 .eabi_attribute 20,1
   6              	 .eabi_attribute 21,1
   7              	 .eabi_attribute 23,3
   8              	 .eabi_attribute 24,1
   9              	 .eabi_attribute 25,1
  10              	 .eabi_attribute 26,1
  11              	 .eabi_attribute 30,6
  12              	 .eabi_attribute 34,1
  13              	 .eabi_attribute 18,4
  14              	 .thumb
  15              	 .file "arm_mean_q31.c"
  16              	 .text
  17              	.Ltext0:
  18              	 .cfi_sections .debug_frame
  19              	 .global __aeabi_ldivmod
  20              	 .section .text.arm_mean_q31,"ax",%progbits
  21              	 .align 2
  22              	 .global arm_mean_q31
  23              	 .thumb
  24              	 .thumb_func
  26              	arm_mean_q31:
  27              	.LFB149:
  28              	 .file 1 "../Dave/Generated/CMSIS_DSP/Source/StatisticsFunctions/arm_mean_q31.c"
   1:../Dave/Generated/CMSIS_DSP/Source/StatisticsFunctions/arm_mean_q31.c **** /* ----------------------------------------------------------------------
   2:../Dave/Generated/CMSIS_DSP/Source/StatisticsFunctions/arm_mean_q31.c ****  * Project:      CMSIS DSP Library
   3:../Dave/Generated/CMSIS_DSP/Source/StatisticsFunctions/arm_mean_q31.c ****  * Title:        arm_mean_q31.c
   4:../Dave/Generated/CMSIS_DSP/Source/StatisticsFunctions/arm_mean_q31.c ****  * Description:  Mean value of a Q31 vector
   5:../Dave/Generated/CMSIS_DSP/Source/StatisticsFunctions/arm_mean_q31.c ****  *
   6:../Dave/Generated/CMSIS_DSP/Source/StatisticsFunctions/arm_mean_q31.c ****  * $Date:        18. March 2019
   7:../Dave/Generated/CMSIS_DSP/Source/StatisticsFunctions/arm_mean_q31.c ****  * $Revision:    V1.6.0
   8:../Dave/Generated/CMSIS_DSP/Source/StatisticsFunctions/arm_mean_q31.c ****  *
   9:../Dave/Generated/CMSIS_DSP/Source/StatisticsFunctions/arm_mean_q31.c ****  * Target Processor: Cortex-M cores
  10:../Dave/Generated/CMSIS_DSP/Source/StatisticsFunctions/arm_mean_q31.c ****  * -------------------------------------------------------------------- */
  11:../Dave/Generated/CMSIS_DSP/Source/StatisticsFunctions/arm_mean_q31.c **** /*
  12:../Dave/Generated/CMSIS_DSP/Source/StatisticsFunctions/arm_mean_q31.c ****  * Copyright (C) 2010-2019 ARM Limited or its affiliates. All rights reserved.
  13:../Dave/Generated/CMSIS_DSP/Source/StatisticsFunctions/arm_mean_q31.c ****  *
  14:../Dave/Generated/CMSIS_DSP/Source/StatisticsFunctions/arm_mean_q31.c ****  * SPDX-License-Identifier: Apache-2.0
  15:../Dave/Generated/CMSIS_DSP/Source/StatisticsFunctions/arm_mean_q31.c ****  *
  16:../Dave/Generated/CMSIS_DSP/Source/StatisticsFunctions/arm_mean_q31.c ****  * Licensed under the Apache License, Version 2.0 (the License); you may
  17:../Dave/Generated/CMSIS_DSP/Source/StatisticsFunctions/arm_mean_q31.c ****  * not use this file except in compliance with the License.
  18:../Dave/Generated/CMSIS_DSP/Source/StatisticsFunctions/arm_mean_q31.c ****  * You may obtain a copy of the License at
  19:../Dave/Generated/CMSIS_DSP/Source/StatisticsFunctions/arm_mean_q31.c ****  *
  20:../Dave/Generated/CMSIS_DSP/Source/StatisticsFunctions/arm_mean_q31.c ****  * www.apache.org/licenses/LICENSE-2.0
  21:../Dave/Generated/CMSIS_DSP/Source/StatisticsFunctions/arm_mean_q31.c ****  *
  22:../Dave/Generated/CMSIS_DSP/Source/StatisticsFunctions/arm_mean_q31.c ****  * Unless required by applicable law or agreed to in writing, software
  23:../Dave/Generated/CMSIS_DSP/Source/StatisticsFunctions/arm_mean_q31.c ****  * distributed under the License is distributed on an AS IS BASIS, WITHOUT
  24:../Dave/Generated/CMSIS_DSP/Source/StatisticsFunctions/arm_mean_q31.c ****  * WARRANTIES OR CONDITIONS OF ANY KIND, either express or implied.
  25:../Dave/Generated/CMSIS_DSP/Source/StatisticsFunctions/arm_mean_q31.c ****  * See the License for the specific language governing permissions and
  26:../Dave/Generated/CMSIS_DSP/Source/StatisticsFunctions/arm_mean_q31.c ****  * limitations under the License.
  27:../Dave/Generated/CMSIS_DSP/Source/StatisticsFunctions/arm_mean_q31.c ****  */
  28:../Dave/Generated/CMSIS_DSP/Source/StatisticsFunctions/arm_mean_q31.c **** 
  29:../Dave/Generated/CMSIS_DSP/Source/StatisticsFunctions/arm_mean_q31.c **** #include "CMSIS_DSP/cmsis_dsp.h"
  30:../Dave/Generated/CMSIS_DSP/Source/StatisticsFunctions/arm_mean_q31.c **** 
  31:../Dave/Generated/CMSIS_DSP/Source/StatisticsFunctions/arm_mean_q31.c **** /**
  32:../Dave/Generated/CMSIS_DSP/Source/StatisticsFunctions/arm_mean_q31.c ****   @ingroup groupStats
  33:../Dave/Generated/CMSIS_DSP/Source/StatisticsFunctions/arm_mean_q31.c ****  */
  34:../Dave/Generated/CMSIS_DSP/Source/StatisticsFunctions/arm_mean_q31.c **** 
  35:../Dave/Generated/CMSIS_DSP/Source/StatisticsFunctions/arm_mean_q31.c **** /**
  36:../Dave/Generated/CMSIS_DSP/Source/StatisticsFunctions/arm_mean_q31.c ****   @addtogroup mean
  37:../Dave/Generated/CMSIS_DSP/Source/StatisticsFunctions/arm_mean_q31.c ****   @{
  38:../Dave/Generated/CMSIS_DSP/Source/StatisticsFunctions/arm_mean_q31.c ****  */
  39:../Dave/Generated/CMSIS_DSP/Source/StatisticsFunctions/arm_mean_q31.c **** 
  40:../Dave/Generated/CMSIS_DSP/Source/StatisticsFunctions/arm_mean_q31.c **** /**
  41:../Dave/Generated/CMSIS_DSP/Source/StatisticsFunctions/arm_mean_q31.c ****   @brief         Mean value of a Q31 vector.
  42:../Dave/Generated/CMSIS_DSP/Source/StatisticsFunctions/arm_mean_q31.c ****   @param[in]     pSrc       points to the input vector
  43:../Dave/Generated/CMSIS_DSP/Source/StatisticsFunctions/arm_mean_q31.c ****   @param[in]     blockSize  number of samples in input vector
  44:../Dave/Generated/CMSIS_DSP/Source/StatisticsFunctions/arm_mean_q31.c ****   @param[out]    pResult    mean value returned here
  45:../Dave/Generated/CMSIS_DSP/Source/StatisticsFunctions/arm_mean_q31.c ****   @return        none
  46:../Dave/Generated/CMSIS_DSP/Source/StatisticsFunctions/arm_mean_q31.c **** 
  47:../Dave/Generated/CMSIS_DSP/Source/StatisticsFunctions/arm_mean_q31.c ****   @par           Scaling and Overflow Behavior
  48:../Dave/Generated/CMSIS_DSP/Source/StatisticsFunctions/arm_mean_q31.c ****                    The function is implemented using a 64-bit internal accumulator.
  49:../Dave/Generated/CMSIS_DSP/Source/StatisticsFunctions/arm_mean_q31.c ****                    The input is represented in 1.31 format and is accumulated in a 64-bit
  50:../Dave/Generated/CMSIS_DSP/Source/StatisticsFunctions/arm_mean_q31.c ****                    accumulator in 33.31 format.
  51:../Dave/Generated/CMSIS_DSP/Source/StatisticsFunctions/arm_mean_q31.c ****                    There is no risk of internal overflow with this approach, and the
  52:../Dave/Generated/CMSIS_DSP/Source/StatisticsFunctions/arm_mean_q31.c ****                    full precision of intermediate result is preserved.
  53:../Dave/Generated/CMSIS_DSP/Source/StatisticsFunctions/arm_mean_q31.c ****                    Finally, the accumulator is truncated to yield a result of 1.31 format.
  54:../Dave/Generated/CMSIS_DSP/Source/StatisticsFunctions/arm_mean_q31.c ****  */
  55:../Dave/Generated/CMSIS_DSP/Source/StatisticsFunctions/arm_mean_q31.c **** #if defined(ARM_MATH_MVEI)
  56:../Dave/Generated/CMSIS_DSP/Source/StatisticsFunctions/arm_mean_q31.c **** void arm_mean_q31(
  57:../Dave/Generated/CMSIS_DSP/Source/StatisticsFunctions/arm_mean_q31.c ****   const q31_t * pSrc,
  58:../Dave/Generated/CMSIS_DSP/Source/StatisticsFunctions/arm_mean_q31.c ****         uint32_t blockSize,
  59:../Dave/Generated/CMSIS_DSP/Source/StatisticsFunctions/arm_mean_q31.c ****         q31_t * pResult)
  60:../Dave/Generated/CMSIS_DSP/Source/StatisticsFunctions/arm_mean_q31.c **** {
  61:../Dave/Generated/CMSIS_DSP/Source/StatisticsFunctions/arm_mean_q31.c ****     uint32_t  blkCnt;           /* loop counters */
  62:../Dave/Generated/CMSIS_DSP/Source/StatisticsFunctions/arm_mean_q31.c ****     q31x4_t vecSrc;
  63:../Dave/Generated/CMSIS_DSP/Source/StatisticsFunctions/arm_mean_q31.c ****     q63_t     sum = 0LL;
  64:../Dave/Generated/CMSIS_DSP/Source/StatisticsFunctions/arm_mean_q31.c **** 
  65:../Dave/Generated/CMSIS_DSP/Source/StatisticsFunctions/arm_mean_q31.c **** 
  66:../Dave/Generated/CMSIS_DSP/Source/StatisticsFunctions/arm_mean_q31.c ****     /* Compute 4 outputs at a time */
  67:../Dave/Generated/CMSIS_DSP/Source/StatisticsFunctions/arm_mean_q31.c ****     blkCnt = blockSize >> 2U;
  68:../Dave/Generated/CMSIS_DSP/Source/StatisticsFunctions/arm_mean_q31.c ****     while (blkCnt > 0U)
  69:../Dave/Generated/CMSIS_DSP/Source/StatisticsFunctions/arm_mean_q31.c ****     {
  70:../Dave/Generated/CMSIS_DSP/Source/StatisticsFunctions/arm_mean_q31.c **** 
  71:../Dave/Generated/CMSIS_DSP/Source/StatisticsFunctions/arm_mean_q31.c ****         vecSrc = vldrwq_s32(pSrc);
  72:../Dave/Generated/CMSIS_DSP/Source/StatisticsFunctions/arm_mean_q31.c ****         /*
  73:../Dave/Generated/CMSIS_DSP/Source/StatisticsFunctions/arm_mean_q31.c ****          * sum lanes
  74:../Dave/Generated/CMSIS_DSP/Source/StatisticsFunctions/arm_mean_q31.c ****          */
  75:../Dave/Generated/CMSIS_DSP/Source/StatisticsFunctions/arm_mean_q31.c ****         sum = vaddlvaq(sum, vecSrc);
  76:../Dave/Generated/CMSIS_DSP/Source/StatisticsFunctions/arm_mean_q31.c **** 
  77:../Dave/Generated/CMSIS_DSP/Source/StatisticsFunctions/arm_mean_q31.c ****         blkCnt --;
  78:../Dave/Generated/CMSIS_DSP/Source/StatisticsFunctions/arm_mean_q31.c ****         pSrc += 4;
  79:../Dave/Generated/CMSIS_DSP/Source/StatisticsFunctions/arm_mean_q31.c ****     }
  80:../Dave/Generated/CMSIS_DSP/Source/StatisticsFunctions/arm_mean_q31.c **** 
  81:../Dave/Generated/CMSIS_DSP/Source/StatisticsFunctions/arm_mean_q31.c ****     /* Tail */
  82:../Dave/Generated/CMSIS_DSP/Source/StatisticsFunctions/arm_mean_q31.c ****     blkCnt = blockSize & 0x3;
  83:../Dave/Generated/CMSIS_DSP/Source/StatisticsFunctions/arm_mean_q31.c **** 
  84:../Dave/Generated/CMSIS_DSP/Source/StatisticsFunctions/arm_mean_q31.c ****     while (blkCnt > 0U)
  85:../Dave/Generated/CMSIS_DSP/Source/StatisticsFunctions/arm_mean_q31.c ****     {
  86:../Dave/Generated/CMSIS_DSP/Source/StatisticsFunctions/arm_mean_q31.c ****       /* C = (A[0] + A[1] + A[2] + ... + A[blockSize-1]) */
  87:../Dave/Generated/CMSIS_DSP/Source/StatisticsFunctions/arm_mean_q31.c ****       sum += *pSrc++;
  88:../Dave/Generated/CMSIS_DSP/Source/StatisticsFunctions/arm_mean_q31.c ****       blkCnt --;
  89:../Dave/Generated/CMSIS_DSP/Source/StatisticsFunctions/arm_mean_q31.c ****     }
  90:../Dave/Generated/CMSIS_DSP/Source/StatisticsFunctions/arm_mean_q31.c **** 
  91:../Dave/Generated/CMSIS_DSP/Source/StatisticsFunctions/arm_mean_q31.c ****     *pResult = arm_div_q63_to_q31(sum, blockSize);
  92:../Dave/Generated/CMSIS_DSP/Source/StatisticsFunctions/arm_mean_q31.c **** }
  93:../Dave/Generated/CMSIS_DSP/Source/StatisticsFunctions/arm_mean_q31.c **** #else
  94:../Dave/Generated/CMSIS_DSP/Source/StatisticsFunctions/arm_mean_q31.c **** void arm_mean_q31(
  95:../Dave/Generated/CMSIS_DSP/Source/StatisticsFunctions/arm_mean_q31.c ****   const q31_t * pSrc,
  96:../Dave/Generated/CMSIS_DSP/Source/StatisticsFunctions/arm_mean_q31.c ****         uint32_t blockSize,
  97:../Dave/Generated/CMSIS_DSP/Source/StatisticsFunctions/arm_mean_q31.c ****         q31_t * pResult)
  98:../Dave/Generated/CMSIS_DSP/Source/StatisticsFunctions/arm_mean_q31.c **** {
  29              	 .loc 1 98 0
  30              	 .cfi_startproc
  31              	 
  32              	 
  33 0000 80B5     	 push {r7,lr}
  34              	.LCFI0:
  35              	 .cfi_def_cfa_offset 8
  36              	 .cfi_offset 7,-8
  37              	 .cfi_offset 14,-4
  38 0002 88B0     	 sub sp,sp,#32
  39              	.LCFI1:
  40              	 .cfi_def_cfa_offset 40
  41 0004 00AF     	 add r7,sp,#0
  42              	.LCFI2:
  43              	 .cfi_def_cfa_register 7
  44 0006 F860     	 str r0,[r7,#12]
  45 0008 B960     	 str r1,[r7,#8]
  46 000a 7A60     	 str r2,[r7,#4]
  99:../Dave/Generated/CMSIS_DSP/Source/StatisticsFunctions/arm_mean_q31.c ****         uint32_t blkCnt;                               /* Loop counter */
 100:../Dave/Generated/CMSIS_DSP/Source/StatisticsFunctions/arm_mean_q31.c ****         q63_t sum = 0;                                 /* Temporary result storage */
  47              	 .loc 1 100 0
  48 000c 4FF00002 	 mov r2,#0
  49 0010 4FF00003 	 mov r3,#0
  50 0014 C7E90423 	 strd r2,[r7,#16]
 101:../Dave/Generated/CMSIS_DSP/Source/StatisticsFunctions/arm_mean_q31.c **** 
 102:../Dave/Generated/CMSIS_DSP/Source/StatisticsFunctions/arm_mean_q31.c **** #if defined (ARM_MATH_LOOPUNROLL)
 103:../Dave/Generated/CMSIS_DSP/Source/StatisticsFunctions/arm_mean_q31.c **** 
 104:../Dave/Generated/CMSIS_DSP/Source/StatisticsFunctions/arm_mean_q31.c ****   /* Loop unrolling: Compute 4 outputs at a time */
 105:../Dave/Generated/CMSIS_DSP/Source/StatisticsFunctions/arm_mean_q31.c ****   blkCnt = blockSize >> 2U;
 106:../Dave/Generated/CMSIS_DSP/Source/StatisticsFunctions/arm_mean_q31.c **** 
 107:../Dave/Generated/CMSIS_DSP/Source/StatisticsFunctions/arm_mean_q31.c ****   while (blkCnt > 0U)
 108:../Dave/Generated/CMSIS_DSP/Source/StatisticsFunctions/arm_mean_q31.c ****   {
 109:../Dave/Generated/CMSIS_DSP/Source/StatisticsFunctions/arm_mean_q31.c ****     /* C = (A[0] + A[1] + A[2] + ... + A[blockSize-1]) */
 110:../Dave/Generated/CMSIS_DSP/Source/StatisticsFunctions/arm_mean_q31.c ****     sum += *pSrc++;
 111:../Dave/Generated/CMSIS_DSP/Source/StatisticsFunctions/arm_mean_q31.c **** 
 112:../Dave/Generated/CMSIS_DSP/Source/StatisticsFunctions/arm_mean_q31.c ****     sum += *pSrc++;
 113:../Dave/Generated/CMSIS_DSP/Source/StatisticsFunctions/arm_mean_q31.c **** 
 114:../Dave/Generated/CMSIS_DSP/Source/StatisticsFunctions/arm_mean_q31.c ****     sum += *pSrc++;
 115:../Dave/Generated/CMSIS_DSP/Source/StatisticsFunctions/arm_mean_q31.c **** 
 116:../Dave/Generated/CMSIS_DSP/Source/StatisticsFunctions/arm_mean_q31.c ****     sum += *pSrc++;
 117:../Dave/Generated/CMSIS_DSP/Source/StatisticsFunctions/arm_mean_q31.c **** 
 118:../Dave/Generated/CMSIS_DSP/Source/StatisticsFunctions/arm_mean_q31.c ****     /* Decrement the loop counter */
 119:../Dave/Generated/CMSIS_DSP/Source/StatisticsFunctions/arm_mean_q31.c ****     blkCnt--;
 120:../Dave/Generated/CMSIS_DSP/Source/StatisticsFunctions/arm_mean_q31.c ****   }
 121:../Dave/Generated/CMSIS_DSP/Source/StatisticsFunctions/arm_mean_q31.c **** 
 122:../Dave/Generated/CMSIS_DSP/Source/StatisticsFunctions/arm_mean_q31.c ****   /* Loop unrolling: Compute remaining outputs */
 123:../Dave/Generated/CMSIS_DSP/Source/StatisticsFunctions/arm_mean_q31.c ****   blkCnt = blockSize % 0x4U;
 124:../Dave/Generated/CMSIS_DSP/Source/StatisticsFunctions/arm_mean_q31.c **** 
 125:../Dave/Generated/CMSIS_DSP/Source/StatisticsFunctions/arm_mean_q31.c **** #else
 126:../Dave/Generated/CMSIS_DSP/Source/StatisticsFunctions/arm_mean_q31.c **** 
 127:../Dave/Generated/CMSIS_DSP/Source/StatisticsFunctions/arm_mean_q31.c ****   /* Initialize blkCnt with number of samples */
 128:../Dave/Generated/CMSIS_DSP/Source/StatisticsFunctions/arm_mean_q31.c ****   blkCnt = blockSize;
  51              	 .loc 1 128 0
  52 0018 BB68     	 ldr r3,[r7,#8]
  53 001a FB61     	 str r3,[r7,#28]
 129:../Dave/Generated/CMSIS_DSP/Source/StatisticsFunctions/arm_mean_q31.c **** 
 130:../Dave/Generated/CMSIS_DSP/Source/StatisticsFunctions/arm_mean_q31.c **** #endif /* #if defined (ARM_MATH_LOOPUNROLL) */
 131:../Dave/Generated/CMSIS_DSP/Source/StatisticsFunctions/arm_mean_q31.c **** 
 132:../Dave/Generated/CMSIS_DSP/Source/StatisticsFunctions/arm_mean_q31.c ****   while (blkCnt > 0U)
  54              	 .loc 1 132 0
  55 001c 10E0     	 b .L2
  56              	.L3:
 133:../Dave/Generated/CMSIS_DSP/Source/StatisticsFunctions/arm_mean_q31.c ****   {
 134:../Dave/Generated/CMSIS_DSP/Source/StatisticsFunctions/arm_mean_q31.c ****     /* C = (A[0] + A[1] + A[2] + ... + A[blockSize-1]) */
 135:../Dave/Generated/CMSIS_DSP/Source/StatisticsFunctions/arm_mean_q31.c ****     sum += *pSrc++;
  57              	 .loc 1 135 0
  58 001e FB68     	 ldr r3,[r7,#12]
  59 0020 1A1D     	 adds r2,r3,#4
  60 0022 FA60     	 str r2,[r7,#12]
  61 0024 1B68     	 ldr r3,[r3]
  62 0026 1A46     	 mov r2,r3
  63 0028 4FEAE273 	 asr r3,r2,#31
  64 002c D7E90401 	 ldrd r0,[r7,#16]
  65 0030 1218     	 adds r2,r2,r0
  66 0032 43EB0103 	 adc r3,r3,r1
  67 0036 C7E90423 	 strd r2,[r7,#16]
 136:../Dave/Generated/CMSIS_DSP/Source/StatisticsFunctions/arm_mean_q31.c **** 
 137:../Dave/Generated/CMSIS_DSP/Source/StatisticsFunctions/arm_mean_q31.c ****     /* Decrement loop counter */
 138:../Dave/Generated/CMSIS_DSP/Source/StatisticsFunctions/arm_mean_q31.c ****     blkCnt--;
  68              	 .loc 1 138 0
  69 003a FB69     	 ldr r3,[r7,#28]
  70 003c 013B     	 subs r3,r3,#1
  71 003e FB61     	 str r3,[r7,#28]
  72              	.L2:
 132:../Dave/Generated/CMSIS_DSP/Source/StatisticsFunctions/arm_mean_q31.c ****   {
  73              	 .loc 1 132 0
  74 0040 FB69     	 ldr r3,[r7,#28]
  75 0042 002B     	 cmp r3,#0
  76 0044 EBD1     	 bne .L3
 139:../Dave/Generated/CMSIS_DSP/Source/StatisticsFunctions/arm_mean_q31.c ****   }
 140:../Dave/Generated/CMSIS_DSP/Source/StatisticsFunctions/arm_mean_q31.c **** 
 141:../Dave/Generated/CMSIS_DSP/Source/StatisticsFunctions/arm_mean_q31.c ****   /* C = (A[0] + A[1] + A[2] + ... + A[blockSize-1]) / blockSize  */
 142:../Dave/Generated/CMSIS_DSP/Source/StatisticsFunctions/arm_mean_q31.c ****   /* Store result to destination */
 143:../Dave/Generated/CMSIS_DSP/Source/StatisticsFunctions/arm_mean_q31.c ****   *pResult = (q31_t) (sum / blockSize);
  77              	 .loc 1 143 0
  78 0046 BB68     	 ldr r3,[r7,#8]
  79 0048 1A46     	 mov r2,r3
  80 004a 4FF00003 	 mov r3,#0
  81 004e D7E90401 	 ldrd r0,[r7,#16]
  82 0052 FFF7FEFF 	 bl __aeabi_ldivmod
  83 0056 0246     	 mov r2,r0
  84 0058 0B46     	 mov r3,r1
  85 005a 7B68     	 ldr r3,[r7,#4]
  86 005c 1A60     	 str r2,[r3]
 144:../Dave/Generated/CMSIS_DSP/Source/StatisticsFunctions/arm_mean_q31.c **** }
  87              	 .loc 1 144 0
  88 005e 2037     	 adds r7,r7,#32
  89              	.LCFI3:
  90              	 .cfi_def_cfa_offset 8
  91 0060 BD46     	 mov sp,r7
  92              	.LCFI4:
  93              	 .cfi_def_cfa_register 13
  94              	 
  95 0062 80BD     	 pop {r7,pc}
  96              	 .cfi_endproc
  97              	.LFE149:
  99              	 .text
 100              	.Letext0:
 101              	 .file 2 "c:\\infineon\\tools\\dave ide\\4.5.0.202105191637\\eclipse\\arm-gcc-49\\arm-none-eabi\\include\\machine\\_default_types.h"
 102              	 .file 3 "c:\\infineon\\tools\\dave ide\\4.5.0.202105191637\\eclipse\\arm-gcc-49\\arm-none-eabi\\include\\stdint.h"
 103              	 .file 4 "C:/Users/Rui Mendes/Desktop/DAVE/_Naive/_ForTesting/Dave/Generated/CMSIS_DSP/Include/arm_math.h"
 104              	 .file 5 "C:/Users/Rui Mendes/Desktop/DAVE/_Naive/_ForTesting/Libraries/CMSIS/Include/cmsis_gcc.h"