   1              	 .syntax unified
   2              	 .cpu cortex-m4
   3              	 .eabi_attribute 27,3
   4              	 .fpu fpv4-sp-d16
   5              	 .eabi_attribute 20,1
   6              	 .eabi_attribute 21,1
   7              	 .eabi_attribute 23,3
   8              	 .eabi_attribute 24,1
   9              	 .eabi_attribute 25,1
  10              	 .eabi_attribute 26,1
  11              	 .eabi_attribute 30,6
  12              	 .eabi_attribute 34,1
  13              	 .eabi_attribute 18,4
  14              	 .thumb
  15              	 .file "arm_std_q31.c"
  16              	 .text
  17              	.Ltext0:
  18              	 .cfi_sections .debug_frame
  19              	 .global __aeabi_ldivmod
  20              	 .section .text.arm_std_q31,"ax",%progbits
  21              	 .align 2
  22              	 .global arm_std_q31
  23              	 .thumb
  24              	 .thumb_func
  26              	arm_std_q31:
  27              	.LFB149:
  28              	 .file 1 "../Dave/Generated/CMSIS_DSP/Source/StatisticsFunctions/arm_std_q31.c"
   1:../Dave/Generated/CMSIS_DSP/Source/StatisticsFunctions/arm_std_q31.c **** /* ----------------------------------------------------------------------
   2:../Dave/Generated/CMSIS_DSP/Source/StatisticsFunctions/arm_std_q31.c ****  * Project:      CMSIS DSP Library
   3:../Dave/Generated/CMSIS_DSP/Source/StatisticsFunctions/arm_std_q31.c ****  * Title:        arm_std_q31.c
   4:../Dave/Generated/CMSIS_DSP/Source/StatisticsFunctions/arm_std_q31.c ****  * Description:  Standard deviation of the elements of a Q31 vector
   5:../Dave/Generated/CMSIS_DSP/Source/StatisticsFunctions/arm_std_q31.c ****  *
   6:../Dave/Generated/CMSIS_DSP/Source/StatisticsFunctions/arm_std_q31.c ****  * $Date:        18. March 2019
   7:../Dave/Generated/CMSIS_DSP/Source/StatisticsFunctions/arm_std_q31.c ****  * $Revision:    V1.6.0
   8:../Dave/Generated/CMSIS_DSP/Source/StatisticsFunctions/arm_std_q31.c ****  *
   9:../Dave/Generated/CMSIS_DSP/Source/StatisticsFunctions/arm_std_q31.c ****  * Target Processor: Cortex-M cores
  10:../Dave/Generated/CMSIS_DSP/Source/StatisticsFunctions/arm_std_q31.c ****  * -------------------------------------------------------------------- */
  11:../Dave/Generated/CMSIS_DSP/Source/StatisticsFunctions/arm_std_q31.c **** /*
  12:../Dave/Generated/CMSIS_DSP/Source/StatisticsFunctions/arm_std_q31.c ****  * Copyright (C) 2010-2019 ARM Limited or its affiliates. All rights reserved.
  13:../Dave/Generated/CMSIS_DSP/Source/StatisticsFunctions/arm_std_q31.c ****  *
  14:../Dave/Generated/CMSIS_DSP/Source/StatisticsFunctions/arm_std_q31.c ****  * SPDX-License-Identifier: Apache-2.0
  15:../Dave/Generated/CMSIS_DSP/Source/StatisticsFunctions/arm_std_q31.c ****  *
  16:../Dave/Generated/CMSIS_DSP/Source/StatisticsFunctions/arm_std_q31.c ****  * Licensed under the Apache License, Version 2.0 (the License); you may
  17:../Dave/Generated/CMSIS_DSP/Source/StatisticsFunctions/arm_std_q31.c ****  * not use this file except in compliance with the License.
  18:../Dave/Generated/CMSIS_DSP/Source/StatisticsFunctions/arm_std_q31.c ****  * You may obtain a copy of the License at
  19:../Dave/Generated/CMSIS_DSP/Source/StatisticsFunctions/arm_std_q31.c ****  *
  20:../Dave/Generated/CMSIS_DSP/Source/StatisticsFunctions/arm_std_q31.c ****  * www.apache.org/licenses/LICENSE-2.0
  21:../Dave/Generated/CMSIS_DSP/Source/StatisticsFunctions/arm_std_q31.c ****  *
  22:../Dave/Generated/CMSIS_DSP/Source/StatisticsFunctions/arm_std_q31.c ****  * Unless required by applicable law or agreed to in writing, software
  23:../Dave/Generated/CMSIS_DSP/Source/StatisticsFunctions/arm_std_q31.c ****  * distributed under the License is distributed on an AS IS BASIS, WITHOUT
  24:../Dave/Generated/CMSIS_DSP/Source/StatisticsFunctions/arm_std_q31.c ****  * WARRANTIES OR CONDITIONS OF ANY KIND, either express or implied.
  25:../Dave/Generated/CMSIS_DSP/Source/StatisticsFunctions/arm_std_q31.c ****  * See the License for the specific language governing permissions and
  26:../Dave/Generated/CMSIS_DSP/Source/StatisticsFunctions/arm_std_q31.c ****  * limitations under the License.
  27:../Dave/Generated/CMSIS_DSP/Source/StatisticsFunctions/arm_std_q31.c ****  */
  28:../Dave/Generated/CMSIS_DSP/Source/StatisticsFunctions/arm_std_q31.c **** 
  29:../Dave/Generated/CMSIS_DSP/Source/StatisticsFunctions/arm_std_q31.c **** #include "CMSIS_DSP/cmsis_dsp.h"
  30:../Dave/Generated/CMSIS_DSP/Source/StatisticsFunctions/arm_std_q31.c **** 
  31:../Dave/Generated/CMSIS_DSP/Source/StatisticsFunctions/arm_std_q31.c **** /**
  32:../Dave/Generated/CMSIS_DSP/Source/StatisticsFunctions/arm_std_q31.c ****   @ingroup groupStats
  33:../Dave/Generated/CMSIS_DSP/Source/StatisticsFunctions/arm_std_q31.c ****  */
  34:../Dave/Generated/CMSIS_DSP/Source/StatisticsFunctions/arm_std_q31.c **** 
  35:../Dave/Generated/CMSIS_DSP/Source/StatisticsFunctions/arm_std_q31.c **** /**
  36:../Dave/Generated/CMSIS_DSP/Source/StatisticsFunctions/arm_std_q31.c ****   @addtogroup STD
  37:../Dave/Generated/CMSIS_DSP/Source/StatisticsFunctions/arm_std_q31.c ****   @{
  38:../Dave/Generated/CMSIS_DSP/Source/StatisticsFunctions/arm_std_q31.c ****  */
  39:../Dave/Generated/CMSIS_DSP/Source/StatisticsFunctions/arm_std_q31.c **** 
  40:../Dave/Generated/CMSIS_DSP/Source/StatisticsFunctions/arm_std_q31.c **** /**
  41:../Dave/Generated/CMSIS_DSP/Source/StatisticsFunctions/arm_std_q31.c ****   @brief         Standard deviation of the elements of a Q31 vector.
  42:../Dave/Generated/CMSIS_DSP/Source/StatisticsFunctions/arm_std_q31.c ****   @param[in]     pSrc       points to the input vector.
  43:../Dave/Generated/CMSIS_DSP/Source/StatisticsFunctions/arm_std_q31.c ****   @param[in]     blockSize  number of samples in input vector.
  44:../Dave/Generated/CMSIS_DSP/Source/StatisticsFunctions/arm_std_q31.c ****   @param[out]    pResult    standard deviation value returned here.
  45:../Dave/Generated/CMSIS_DSP/Source/StatisticsFunctions/arm_std_q31.c ****   @return        none
  46:../Dave/Generated/CMSIS_DSP/Source/StatisticsFunctions/arm_std_q31.c **** 
  47:../Dave/Generated/CMSIS_DSP/Source/StatisticsFunctions/arm_std_q31.c ****   @par           Scaling and Overflow Behavior
  48:../Dave/Generated/CMSIS_DSP/Source/StatisticsFunctions/arm_std_q31.c ****                    The function is implemented using an internal 64-bit accumulator.
  49:../Dave/Generated/CMSIS_DSP/Source/StatisticsFunctions/arm_std_q31.c ****                    The input is represented in 1.31 format, which is then downshifted by 8 bits
  50:../Dave/Generated/CMSIS_DSP/Source/StatisticsFunctions/arm_std_q31.c ****                    which yields 1.23, and intermediate multiplication yields a 2.46 format.
  51:../Dave/Generated/CMSIS_DSP/Source/StatisticsFunctions/arm_std_q31.c ****                    The accumulator maintains full precision of the intermediate multiplication resu
  52:../Dave/Generated/CMSIS_DSP/Source/StatisticsFunctions/arm_std_q31.c ****                    but provides only a 16 guard bits.
  53:../Dave/Generated/CMSIS_DSP/Source/StatisticsFunctions/arm_std_q31.c ****                    There is no saturation on intermediate additions.
  54:../Dave/Generated/CMSIS_DSP/Source/StatisticsFunctions/arm_std_q31.c ****                    If the accumulator overflows it wraps around and distorts the result.
  55:../Dave/Generated/CMSIS_DSP/Source/StatisticsFunctions/arm_std_q31.c ****                    In order to avoid overflows completely the input signal must be scaled down by
  56:../Dave/Generated/CMSIS_DSP/Source/StatisticsFunctions/arm_std_q31.c ****                    log2(blockSize)-8 bits, as a total of blockSize additions are performed internal
  57:../Dave/Generated/CMSIS_DSP/Source/StatisticsFunctions/arm_std_q31.c ****                    After division, internal variables should be Q18.46
  58:../Dave/Generated/CMSIS_DSP/Source/StatisticsFunctions/arm_std_q31.c ****                    Finally, the 18.46 accumulator is right shifted by 15 bits to yield a 1.31 forma
  59:../Dave/Generated/CMSIS_DSP/Source/StatisticsFunctions/arm_std_q31.c ****  */
  60:../Dave/Generated/CMSIS_DSP/Source/StatisticsFunctions/arm_std_q31.c **** #if defined(ARM_MATH_MVEI)
  61:../Dave/Generated/CMSIS_DSP/Source/StatisticsFunctions/arm_std_q31.c **** void arm_std_q31(
  62:../Dave/Generated/CMSIS_DSP/Source/StatisticsFunctions/arm_std_q31.c ****   const q31_t * pSrc,
  63:../Dave/Generated/CMSIS_DSP/Source/StatisticsFunctions/arm_std_q31.c ****         uint32_t blockSize,
  64:../Dave/Generated/CMSIS_DSP/Source/StatisticsFunctions/arm_std_q31.c ****         q31_t * pResult)
  65:../Dave/Generated/CMSIS_DSP/Source/StatisticsFunctions/arm_std_q31.c **** {
  66:../Dave/Generated/CMSIS_DSP/Source/StatisticsFunctions/arm_std_q31.c ****     q31_t var=0;
  67:../Dave/Generated/CMSIS_DSP/Source/StatisticsFunctions/arm_std_q31.c **** 
  68:../Dave/Generated/CMSIS_DSP/Source/StatisticsFunctions/arm_std_q31.c ****     arm_var_q31(pSrc, blockSize, &var);
  69:../Dave/Generated/CMSIS_DSP/Source/StatisticsFunctions/arm_std_q31.c ****     arm_sqrt_q31(var, pResult);
  70:../Dave/Generated/CMSIS_DSP/Source/StatisticsFunctions/arm_std_q31.c **** }
  71:../Dave/Generated/CMSIS_DSP/Source/StatisticsFunctions/arm_std_q31.c **** #else
  72:../Dave/Generated/CMSIS_DSP/Source/StatisticsFunctions/arm_std_q31.c **** void arm_std_q31(
  73:../Dave/Generated/CMSIS_DSP/Source/StatisticsFunctions/arm_std_q31.c ****   const q31_t * pSrc,
  74:../Dave/Generated/CMSIS_DSP/Source/StatisticsFunctions/arm_std_q31.c ****         uint32_t blockSize,
  75:../Dave/Generated/CMSIS_DSP/Source/StatisticsFunctions/arm_std_q31.c ****         q31_t * pResult)
  76:../Dave/Generated/CMSIS_DSP/Source/StatisticsFunctions/arm_std_q31.c **** {
  29              	 .loc 1 76 0
  30              	 .cfi_startproc
  31              	 
  32              	 
  33 0000 2DE9F043 	 push {r4,r5,r6,r7,r8,r9,lr}
  34              	.LCFI0:
  35              	 .cfi_def_cfa_offset 28
  36              	 .cfi_offset 4,-28
  37              	 .cfi_offset 5,-24
  38              	 .cfi_offset 6,-20
  39              	 .cfi_offset 7,-16
  40              	 .cfi_offset 8,-12
  41              	 .cfi_offset 9,-8
  42              	 .cfi_offset 14,-4
  43 0004 91B0     	 sub sp,sp,#68
  44              	.LCFI1:
  45              	 .cfi_def_cfa_offset 96
  46 0006 00AF     	 add r7,sp,#0
  47              	.LCFI2:
  48              	 .cfi_def_cfa_register 7
  49 0008 F860     	 str r0,[r7,#12]
  50 000a B960     	 str r1,[r7,#8]
  51 000c 7A60     	 str r2,[r7,#4]
  77:../Dave/Generated/CMSIS_DSP/Source/StatisticsFunctions/arm_std_q31.c ****         uint32_t blkCnt;                               /* Loop counter */
  78:../Dave/Generated/CMSIS_DSP/Source/StatisticsFunctions/arm_std_q31.c ****         q63_t sum = 0;                                 /* Accumulator */
  52              	 .loc 1 78 0
  53 000e 4FF00002 	 mov r2,#0
  54 0012 4FF00003 	 mov r3,#0
  55 0016 C7E90C23 	 strd r2,[r7,#48]
  79:../Dave/Generated/CMSIS_DSP/Source/StatisticsFunctions/arm_std_q31.c ****         q63_t meanOfSquares, squareOfMean;             /* Square of mean and mean of square */
  80:../Dave/Generated/CMSIS_DSP/Source/StatisticsFunctions/arm_std_q31.c ****         q63_t sumOfSquares = 0;                        /* Sum of squares */
  56              	 .loc 1 80 0
  57 001a 4FF00002 	 mov r2,#0
  58 001e 4FF00003 	 mov r3,#0
  59 0022 C7E90A23 	 strd r2,[r7,#40]
  81:../Dave/Generated/CMSIS_DSP/Source/StatisticsFunctions/arm_std_q31.c ****         q31_t in;                                      /* Temporary variable to store input value *
  82:../Dave/Generated/CMSIS_DSP/Source/StatisticsFunctions/arm_std_q31.c **** 
  83:../Dave/Generated/CMSIS_DSP/Source/StatisticsFunctions/arm_std_q31.c ****   if (blockSize <= 1U)
  60              	 .loc 1 83 0
  61 0026 BB68     	 ldr r3,[r7,#8]
  62 0028 012B     	 cmp r3,#1
  63 002a 03D8     	 bhi .L2
  84:../Dave/Generated/CMSIS_DSP/Source/StatisticsFunctions/arm_std_q31.c ****   {
  85:../Dave/Generated/CMSIS_DSP/Source/StatisticsFunctions/arm_std_q31.c ****     *pResult = 0;
  64              	 .loc 1 85 0
  65 002c 7B68     	 ldr r3,[r7,#4]
  66 002e 0022     	 movs r2,#0
  67 0030 1A60     	 str r2,[r3]
  86:../Dave/Generated/CMSIS_DSP/Source/StatisticsFunctions/arm_std_q31.c ****     return;
  68              	 .loc 1 86 0
  69 0032 6FE0     	 b .L1
  70              	.L2:
  87:../Dave/Generated/CMSIS_DSP/Source/StatisticsFunctions/arm_std_q31.c ****   }
  88:../Dave/Generated/CMSIS_DSP/Source/StatisticsFunctions/arm_std_q31.c **** 
  89:../Dave/Generated/CMSIS_DSP/Source/StatisticsFunctions/arm_std_q31.c **** #if defined (ARM_MATH_LOOPUNROLL)
  90:../Dave/Generated/CMSIS_DSP/Source/StatisticsFunctions/arm_std_q31.c **** 
  91:../Dave/Generated/CMSIS_DSP/Source/StatisticsFunctions/arm_std_q31.c ****   /* Loop unrolling: Compute 4 outputs at a time */
  92:../Dave/Generated/CMSIS_DSP/Source/StatisticsFunctions/arm_std_q31.c ****   blkCnt = blockSize >> 2U;
  93:../Dave/Generated/CMSIS_DSP/Source/StatisticsFunctions/arm_std_q31.c **** 
  94:../Dave/Generated/CMSIS_DSP/Source/StatisticsFunctions/arm_std_q31.c ****   while (blkCnt > 0U)
  95:../Dave/Generated/CMSIS_DSP/Source/StatisticsFunctions/arm_std_q31.c ****   {
  96:../Dave/Generated/CMSIS_DSP/Source/StatisticsFunctions/arm_std_q31.c ****     /* C = A[0] * A[0] + A[1] * A[1] + ... + A[blockSize-1] * A[blockSize-1] */
  97:../Dave/Generated/CMSIS_DSP/Source/StatisticsFunctions/arm_std_q31.c ****     /* C = A[0] + A[1] + ... + A[blockSize-1] */
  98:../Dave/Generated/CMSIS_DSP/Source/StatisticsFunctions/arm_std_q31.c **** 
  99:../Dave/Generated/CMSIS_DSP/Source/StatisticsFunctions/arm_std_q31.c ****     in = *pSrc++ >> 8U;
 100:../Dave/Generated/CMSIS_DSP/Source/StatisticsFunctions/arm_std_q31.c ****     /* Compute sum of squares and store result in a temporary variable, sumOfSquares. */
 101:../Dave/Generated/CMSIS_DSP/Source/StatisticsFunctions/arm_std_q31.c ****     sumOfSquares += ((q63_t) (in) * (in));
 102:../Dave/Generated/CMSIS_DSP/Source/StatisticsFunctions/arm_std_q31.c ****     /* Compute sum and store result in a temporary variable, sum. */
 103:../Dave/Generated/CMSIS_DSP/Source/StatisticsFunctions/arm_std_q31.c ****     sum += in;
 104:../Dave/Generated/CMSIS_DSP/Source/StatisticsFunctions/arm_std_q31.c **** 
 105:../Dave/Generated/CMSIS_DSP/Source/StatisticsFunctions/arm_std_q31.c ****     in = *pSrc++ >> 8U;
 106:../Dave/Generated/CMSIS_DSP/Source/StatisticsFunctions/arm_std_q31.c ****     sumOfSquares += ((q63_t) (in) * (in));
 107:../Dave/Generated/CMSIS_DSP/Source/StatisticsFunctions/arm_std_q31.c ****     sum += in;
 108:../Dave/Generated/CMSIS_DSP/Source/StatisticsFunctions/arm_std_q31.c **** 
 109:../Dave/Generated/CMSIS_DSP/Source/StatisticsFunctions/arm_std_q31.c ****     in = *pSrc++ >> 8U;
 110:../Dave/Generated/CMSIS_DSP/Source/StatisticsFunctions/arm_std_q31.c ****     sumOfSquares += ((q63_t) (in) * (in));
 111:../Dave/Generated/CMSIS_DSP/Source/StatisticsFunctions/arm_std_q31.c ****     sum += in;
 112:../Dave/Generated/CMSIS_DSP/Source/StatisticsFunctions/arm_std_q31.c **** 
 113:../Dave/Generated/CMSIS_DSP/Source/StatisticsFunctions/arm_std_q31.c ****     in = *pSrc++ >> 8U;
 114:../Dave/Generated/CMSIS_DSP/Source/StatisticsFunctions/arm_std_q31.c ****     sumOfSquares += ((q63_t) (in) * (in));
 115:../Dave/Generated/CMSIS_DSP/Source/StatisticsFunctions/arm_std_q31.c ****     sum += in;
 116:../Dave/Generated/CMSIS_DSP/Source/StatisticsFunctions/arm_std_q31.c **** 
 117:../Dave/Generated/CMSIS_DSP/Source/StatisticsFunctions/arm_std_q31.c ****     /* Decrement loop counter */
 118:../Dave/Generated/CMSIS_DSP/Source/StatisticsFunctions/arm_std_q31.c ****     blkCnt--;
 119:../Dave/Generated/CMSIS_DSP/Source/StatisticsFunctions/arm_std_q31.c ****   }
 120:../Dave/Generated/CMSIS_DSP/Source/StatisticsFunctions/arm_std_q31.c **** 
 121:../Dave/Generated/CMSIS_DSP/Source/StatisticsFunctions/arm_std_q31.c ****   /* Loop unrolling: Compute remaining outputs */
 122:../Dave/Generated/CMSIS_DSP/Source/StatisticsFunctions/arm_std_q31.c ****   blkCnt = blockSize % 0x4U;
 123:../Dave/Generated/CMSIS_DSP/Source/StatisticsFunctions/arm_std_q31.c **** 
 124:../Dave/Generated/CMSIS_DSP/Source/StatisticsFunctions/arm_std_q31.c **** #else
 125:../Dave/Generated/CMSIS_DSP/Source/StatisticsFunctions/arm_std_q31.c **** 
 126:../Dave/Generated/CMSIS_DSP/Source/StatisticsFunctions/arm_std_q31.c ****   /* Initialize blkCnt with number of samples */
 127:../Dave/Generated/CMSIS_DSP/Source/StatisticsFunctions/arm_std_q31.c ****   blkCnt = blockSize;
  71              	 .loc 1 127 0
  72 0034 BB68     	 ldr r3,[r7,#8]
  73 0036 FB63     	 str r3,[r7,#60]
 128:../Dave/Generated/CMSIS_DSP/Source/StatisticsFunctions/arm_std_q31.c **** 
 129:../Dave/Generated/CMSIS_DSP/Source/StatisticsFunctions/arm_std_q31.c **** #endif /* #if defined (ARM_MATH_LOOPUNROLL) */
 130:../Dave/Generated/CMSIS_DSP/Source/StatisticsFunctions/arm_std_q31.c **** 
 131:../Dave/Generated/CMSIS_DSP/Source/StatisticsFunctions/arm_std_q31.c ****   while (blkCnt > 0U)
  74              	 .loc 1 131 0
  75 0038 2BE0     	 b .L4
  76              	.L5:
 132:../Dave/Generated/CMSIS_DSP/Source/StatisticsFunctions/arm_std_q31.c ****   {
 133:../Dave/Generated/CMSIS_DSP/Source/StatisticsFunctions/arm_std_q31.c ****     /* C = A[0] * A[0] + A[1] * A[1] + ... + A[blockSize-1] * A[blockSize-1] */
 134:../Dave/Generated/CMSIS_DSP/Source/StatisticsFunctions/arm_std_q31.c ****     /* C = A[0] + A[1] + ... + A[blockSize-1] */
 135:../Dave/Generated/CMSIS_DSP/Source/StatisticsFunctions/arm_std_q31.c **** 
 136:../Dave/Generated/CMSIS_DSP/Source/StatisticsFunctions/arm_std_q31.c ****     in = *pSrc++ >> 8U;
  77              	 .loc 1 136 0
  78 003a FB68     	 ldr r3,[r7,#12]
  79 003c 1A1D     	 adds r2,r3,#4
  80 003e FA60     	 str r2,[r7,#12]
  81 0040 1B68     	 ldr r3,[r3]
  82 0042 1B12     	 asrs r3,r3,#8
  83 0044 7B62     	 str r3,[r7,#36]
 137:../Dave/Generated/CMSIS_DSP/Source/StatisticsFunctions/arm_std_q31.c ****     /* Compute sum of squares and store result in a temporary variable, sumOfSquares. */
 138:../Dave/Generated/CMSIS_DSP/Source/StatisticsFunctions/arm_std_q31.c ****     sumOfSquares += ((q63_t) (in) * (in));
  84              	 .loc 1 138 0
  85 0046 7B6A     	 ldr r3,[r7,#36]
  86 0048 1846     	 mov r0,r3
  87 004a 4FEAE071 	 asr r1,r0,#31
  88 004e 7B6A     	 ldr r3,[r7,#36]
  89 0050 1A46     	 mov r2,r3
  90 0052 4FEAE273 	 asr r3,r2,#31
  91 0056 02FB01FE 	 mul lr,r2,r1
  92 005a 00FB03F6 	 mul r6,r0,r3
  93 005e 7644     	 add r6,r6,lr
  94 0060 A0FB0223 	 umull r2,r3,r0,r2
  95 0064 F118     	 adds r1,r6,r3
  96 0066 0B46     	 mov r3,r1
  97 0068 D7E90A01 	 ldrd r0,[r7,#40]
  98 006c 1218     	 adds r2,r2,r0
  99 006e 43EB0103 	 adc r3,r3,r1
 100 0072 C7E90A23 	 strd r2,[r7,#40]
 139:../Dave/Generated/CMSIS_DSP/Source/StatisticsFunctions/arm_std_q31.c ****     /* Compute sum and store result in a temporary variable, sum. */
 140:../Dave/Generated/CMSIS_DSP/Source/StatisticsFunctions/arm_std_q31.c ****     sum += in;
 101              	 .loc 1 140 0
 102 0076 7B6A     	 ldr r3,[r7,#36]
 103 0078 1A46     	 mov r2,r3
 104 007a 4FEAE273 	 asr r3,r2,#31
 105 007e D7E90C01 	 ldrd r0,[r7,#48]
 106 0082 1218     	 adds r2,r2,r0
 107 0084 43EB0103 	 adc r3,r3,r1
 108 0088 C7E90C23 	 strd r2,[r7,#48]
 141:../Dave/Generated/CMSIS_DSP/Source/StatisticsFunctions/arm_std_q31.c **** 
 142:../Dave/Generated/CMSIS_DSP/Source/StatisticsFunctions/arm_std_q31.c ****     /* Decrement loop counter */
 143:../Dave/Generated/CMSIS_DSP/Source/StatisticsFunctions/arm_std_q31.c ****     blkCnt--;
 109              	 .loc 1 143 0
 110 008c FB6B     	 ldr r3,[r7,#60]
 111 008e 013B     	 subs r3,r3,#1
 112 0090 FB63     	 str r3,[r7,#60]
 113              	.L4:
 131:../Dave/Generated/CMSIS_DSP/Source/StatisticsFunctions/arm_std_q31.c ****   {
 114              	 .loc 1 131 0
 115 0092 FB6B     	 ldr r3,[r7,#60]
 116 0094 002B     	 cmp r3,#0
 117 0096 D0D1     	 bne .L5
 144:../Dave/Generated/CMSIS_DSP/Source/StatisticsFunctions/arm_std_q31.c ****   }
 145:../Dave/Generated/CMSIS_DSP/Source/StatisticsFunctions/arm_std_q31.c **** 
 146:../Dave/Generated/CMSIS_DSP/Source/StatisticsFunctions/arm_std_q31.c ****   /* Compute Mean of squares and store result in a temporary variable, meanOfSquares. */
 147:../Dave/Generated/CMSIS_DSP/Source/StatisticsFunctions/arm_std_q31.c ****   meanOfSquares = (sumOfSquares / (q63_t)(blockSize - 1U));
 118              	 .loc 1 147 0
 119 0098 BB68     	 ldr r3,[r7,#8]
 120 009a 013B     	 subs r3,r3,#1
 121 009c 1A46     	 mov r2,r3
 122 009e 4FF00003 	 mov r3,#0
 123 00a2 D7E90A01 	 ldrd r0,[r7,#40]
 124 00a6 FFF7FEFF 	 bl __aeabi_ldivmod
 125 00aa 0246     	 mov r2,r0
 126 00ac 0B46     	 mov r3,r1
 127 00ae C7E90623 	 strd r2,[r7,#24]
 148:../Dave/Generated/CMSIS_DSP/Source/StatisticsFunctions/arm_std_q31.c **** 
 149:../Dave/Generated/CMSIS_DSP/Source/StatisticsFunctions/arm_std_q31.c ****   /* Compute square of mean */
 150:../Dave/Generated/CMSIS_DSP/Source/StatisticsFunctions/arm_std_q31.c ****   squareOfMean = ( sum * sum / (q63_t)(blockSize * (blockSize - 1U)));
 128              	 .loc 1 150 0
 129 00b2 7B6B     	 ldr r3,[r7,#52]
 130 00b4 3A6B     	 ldr r2,[r7,#48]
 131 00b6 02FB03F2 	 mul r2,r2,r3
 132 00ba 7B6B     	 ldr r3,[r7,#52]
 133 00bc 396B     	 ldr r1,[r7,#48]
 134 00be 01FB03F3 	 mul r3,r1,r3
 135 00c2 D118     	 adds r1,r2,r3
 136 00c4 3A6B     	 ldr r2,[r7,#48]
 137 00c6 3B6B     	 ldr r3,[r7,#48]
 138 00c8 A2FB0323 	 umull r2,r3,r2,r3
 139 00cc 1944     	 add r1,r1,r3
 140 00ce 0B46     	 mov r3,r1
 141 00d0 B968     	 ldr r1,[r7,#8]
 142 00d2 0139     	 subs r1,r1,#1
 143 00d4 B868     	 ldr r0,[r7,#8]
 144 00d6 00FB01F1 	 mul r1,r0,r1
 145 00da 8846     	 mov r8,r1
 146 00dc 4FF00009 	 mov r9,#0
 147 00e0 1046     	 mov r0,r2
 148 00e2 1946     	 mov r1,r3
 149 00e4 4246     	 mov r2,r8
 150 00e6 4B46     	 mov r3,r9
 151 00e8 FFF7FEFF 	 bl __aeabi_ldivmod
 152 00ec 0246     	 mov r2,r0
 153 00ee 0B46     	 mov r3,r1
 154 00f0 C7E90423 	 strd r2,[r7,#16]
 151:../Dave/Generated/CMSIS_DSP/Source/StatisticsFunctions/arm_std_q31.c **** 
 152:../Dave/Generated/CMSIS_DSP/Source/StatisticsFunctions/arm_std_q31.c ****   /* Compute standard deviation and store result in destination */
 153:../Dave/Generated/CMSIS_DSP/Source/StatisticsFunctions/arm_std_q31.c ****   arm_sqrt_q31((meanOfSquares - squareOfMean) >> 15U, pResult);
 155              	 .loc 1 153 0
 156 00f4 D7E90601 	 ldrd r0,[r7,#24]
 157 00f8 D7E90423 	 ldrd r2,[r7,#16]
 158 00fc 821A     	 subs r2,r0,r2
 159 00fe 61EB0303 	 sbc r3,r1,r3
 160 0102 D40B     	 lsrs r4,r2,#15
 161 0104 44EA4344 	 orr r4,r4,r3,lsl#17
 162 0108 DD13     	 asrs r5,r3,#15
 163 010a 2346     	 mov r3,r4
 164 010c 1846     	 mov r0,r3
 165 010e 7968     	 ldr r1,[r7,#4]
 166 0110 FFF7FEFF 	 bl arm_sqrt_q31
 167              	.L1:
 154:../Dave/Generated/CMSIS_DSP/Source/StatisticsFunctions/arm_std_q31.c **** }
 168              	 .loc 1 154 0
 169 0114 4437     	 adds r7,r7,#68
 170              	.LCFI3:
 171              	 .cfi_def_cfa_offset 28
 172 0116 BD46     	 mov sp,r7
 173              	.LCFI4:
 174              	 .cfi_def_cfa_register 13
 175              	 
 176 0118 BDE8F083 	 pop {r4,r5,r6,r7,r8,r9,pc}
 177              	 .cfi_endproc
 178              	.LFE149:
 180              	 .text
 181              	.Letext0:
 182              	 .file 2 "c:\\infineon\\tools\\dave ide\\4.5.0.202105191637\\eclipse\\arm-gcc-49\\arm-none-eabi\\include\\machine\\_default_types.h"
 183              	 .file 3 "c:\\infineon\\tools\\dave ide\\4.5.0.202105191637\\eclipse\\arm-gcc-49\\arm-none-eabi\\include\\stdint.h"
 184              	 .file 4 "C:/Users/Rui Mendes/Desktop/DAVE/_Naive/_ForTesting/Dave/Generated/CMSIS_DSP/Include/arm_math.h"
 185              	 .file 5 "C:/Users/Rui Mendes/Desktop/DAVE/_Naive/_ForTesting/Libraries/CMSIS/Include/cmsis_gcc.h"