   1              	 .syntax unified
   2              	 .cpu cortex-m4
   3              	 .eabi_attribute 27,3
   4              	 .fpu fpv4-sp-d16
   5              	 .eabi_attribute 20,1
   6              	 .eabi_attribute 21,1
   7              	 .eabi_attribute 23,3
   8              	 .eabi_attribute 24,1
   9              	 .eabi_attribute 25,1
  10              	 .eabi_attribute 26,1
  11              	 .eabi_attribute 30,6
  12              	 .eabi_attribute 34,1
  13              	 .eabi_attribute 18,4
  14              	 .thumb
  15              	 .file "arm_max_no_idx_f32.c"
  16              	 .text
  17              	.Ltext0:
  18              	 .cfi_sections .debug_frame
  19              	 .section .text.arm_max_no_idx_f32,"ax",%progbits
  20              	 .align 2
  21              	 .global arm_max_no_idx_f32
  22              	 .thumb
  23              	 .thumb_func
  25              	arm_max_no_idx_f32:
  26              	.LFB149:
  27              	 .file 1 "../Dave/Generated/CMSIS_DSP/Source/StatisticsFunctions/arm_max_no_idx_f32.c"
   1:../Dave/Generated/CMSIS_DSP/Source/StatisticsFunctions/arm_max_no_idx_f32.c **** /* ----------------------------------------------------------------------
   2:../Dave/Generated/CMSIS_DSP/Source/StatisticsFunctions/arm_max_no_idx_f32.c ****  * Project:      CMSIS DSP Library
   3:../Dave/Generated/CMSIS_DSP/Source/StatisticsFunctions/arm_max_no_idx_f32.c ****  * Title:        arm_max_no_idx_f32.c
   4:../Dave/Generated/CMSIS_DSP/Source/StatisticsFunctions/arm_max_no_idx_f32.c ****  * Description:  Maximum value of a floating-point vector without returning the index
   5:../Dave/Generated/CMSIS_DSP/Source/StatisticsFunctions/arm_max_no_idx_f32.c ****  *
   6:../Dave/Generated/CMSIS_DSP/Source/StatisticsFunctions/arm_max_no_idx_f32.c ****  * $Date:        16. October 2019
   7:../Dave/Generated/CMSIS_DSP/Source/StatisticsFunctions/arm_max_no_idx_f32.c ****  * $Revision:    V1.6.0
   8:../Dave/Generated/CMSIS_DSP/Source/StatisticsFunctions/arm_max_no_idx_f32.c ****  *
   9:../Dave/Generated/CMSIS_DSP/Source/StatisticsFunctions/arm_max_no_idx_f32.c ****  * Target Processor: Cortex-M and Cortex-A cores
  10:../Dave/Generated/CMSIS_DSP/Source/StatisticsFunctions/arm_max_no_idx_f32.c ****  * -------------------------------------------------------------------- */
  11:../Dave/Generated/CMSIS_DSP/Source/StatisticsFunctions/arm_max_no_idx_f32.c **** /*
  12:../Dave/Generated/CMSIS_DSP/Source/StatisticsFunctions/arm_max_no_idx_f32.c ****  * Copyright (C) 2010-2019 ARM Limited or its affiliates. All rights reserved.
  13:../Dave/Generated/CMSIS_DSP/Source/StatisticsFunctions/arm_max_no_idx_f32.c ****  *
  14:../Dave/Generated/CMSIS_DSP/Source/StatisticsFunctions/arm_max_no_idx_f32.c ****  * SPDX-License-Identifier: Apache-2.0
  15:../Dave/Generated/CMSIS_DSP/Source/StatisticsFunctions/arm_max_no_idx_f32.c ****  *
  16:../Dave/Generated/CMSIS_DSP/Source/StatisticsFunctions/arm_max_no_idx_f32.c ****  * Licensed under the Apache License, Version 2.0 (the License); you may
  17:../Dave/Generated/CMSIS_DSP/Source/StatisticsFunctions/arm_max_no_idx_f32.c ****  * not use this file except in compliance with the License.
  18:../Dave/Generated/CMSIS_DSP/Source/StatisticsFunctions/arm_max_no_idx_f32.c ****  * You may obtain a copy of the License at
  19:../Dave/Generated/CMSIS_DSP/Source/StatisticsFunctions/arm_max_no_idx_f32.c ****  *
  20:../Dave/Generated/CMSIS_DSP/Source/StatisticsFunctions/arm_max_no_idx_f32.c ****  * www.apache.org/licenses/LICENSE-2.0
  21:../Dave/Generated/CMSIS_DSP/Source/StatisticsFunctions/arm_max_no_idx_f32.c ****  *
  22:../Dave/Generated/CMSIS_DSP/Source/StatisticsFunctions/arm_max_no_idx_f32.c ****  * Unless required by applicable law or agreed to in writing, software
  23:../Dave/Generated/CMSIS_DSP/Source/StatisticsFunctions/arm_max_no_idx_f32.c ****  * distributed under the License is distributed on an AS IS BASIS, WITHOUT
  24:../Dave/Generated/CMSIS_DSP/Source/StatisticsFunctions/arm_max_no_idx_f32.c ****  * WARRANTIES OR CONDITIONS OF ANY KIND, either express or implied.
  25:../Dave/Generated/CMSIS_DSP/Source/StatisticsFunctions/arm_max_no_idx_f32.c ****  * See the License for the specific language governing permissions and
  26:../Dave/Generated/CMSIS_DSP/Source/StatisticsFunctions/arm_max_no_idx_f32.c ****  * limitations under the License.
  27:../Dave/Generated/CMSIS_DSP/Source/StatisticsFunctions/arm_max_no_idx_f32.c ****  */
  28:../Dave/Generated/CMSIS_DSP/Source/StatisticsFunctions/arm_max_no_idx_f32.c **** 
  29:../Dave/Generated/CMSIS_DSP/Source/StatisticsFunctions/arm_max_no_idx_f32.c **** #include "CMSIS_DSP/cmsis_dsp.h"
  30:../Dave/Generated/CMSIS_DSP/Source/StatisticsFunctions/arm_max_no_idx_f32.c **** #if (defined(ARM_MATH_NEON) || defined(ARM_MATH_MVEF)) && !defined(ARM_MATH_AUTOVECTORIZE)
  31:../Dave/Generated/CMSIS_DSP/Source/StatisticsFunctions/arm_max_no_idx_f32.c **** #include <limits.h>
  32:../Dave/Generated/CMSIS_DSP/Source/StatisticsFunctions/arm_max_no_idx_f32.c **** #endif
  33:../Dave/Generated/CMSIS_DSP/Source/StatisticsFunctions/arm_max_no_idx_f32.c **** 
  34:../Dave/Generated/CMSIS_DSP/Source/StatisticsFunctions/arm_max_no_idx_f32.c **** /**
  35:../Dave/Generated/CMSIS_DSP/Source/StatisticsFunctions/arm_max_no_idx_f32.c ****   @ingroup groupStats
  36:../Dave/Generated/CMSIS_DSP/Source/StatisticsFunctions/arm_max_no_idx_f32.c ****  */
  37:../Dave/Generated/CMSIS_DSP/Source/StatisticsFunctions/arm_max_no_idx_f32.c **** 
  38:../Dave/Generated/CMSIS_DSP/Source/StatisticsFunctions/arm_max_no_idx_f32.c **** 
  39:../Dave/Generated/CMSIS_DSP/Source/StatisticsFunctions/arm_max_no_idx_f32.c **** /**
  40:../Dave/Generated/CMSIS_DSP/Source/StatisticsFunctions/arm_max_no_idx_f32.c ****   @addtogroup Max
  41:../Dave/Generated/CMSIS_DSP/Source/StatisticsFunctions/arm_max_no_idx_f32.c ****   @{
  42:../Dave/Generated/CMSIS_DSP/Source/StatisticsFunctions/arm_max_no_idx_f32.c ****  */
  43:../Dave/Generated/CMSIS_DSP/Source/StatisticsFunctions/arm_max_no_idx_f32.c **** 
  44:../Dave/Generated/CMSIS_DSP/Source/StatisticsFunctions/arm_max_no_idx_f32.c **** /**
  45:../Dave/Generated/CMSIS_DSP/Source/StatisticsFunctions/arm_max_no_idx_f32.c ****   @brief         Maximum value of a floating-point vector.
  46:../Dave/Generated/CMSIS_DSP/Source/StatisticsFunctions/arm_max_no_idx_f32.c ****   @param[in]     pSrc       points to the input vector
  47:../Dave/Generated/CMSIS_DSP/Source/StatisticsFunctions/arm_max_no_idx_f32.c ****   @param[in]     blockSize  number of samples in input vector
  48:../Dave/Generated/CMSIS_DSP/Source/StatisticsFunctions/arm_max_no_idx_f32.c ****   @param[out]    pResult    maximum value returned here
  49:../Dave/Generated/CMSIS_DSP/Source/StatisticsFunctions/arm_max_no_idx_f32.c ****   @return        none
  50:../Dave/Generated/CMSIS_DSP/Source/StatisticsFunctions/arm_max_no_idx_f32.c ****  */
  51:../Dave/Generated/CMSIS_DSP/Source/StatisticsFunctions/arm_max_no_idx_f32.c **** 
  52:../Dave/Generated/CMSIS_DSP/Source/StatisticsFunctions/arm_max_no_idx_f32.c **** #if defined(ARM_MATH_MVEF) && !defined(ARM_MATH_AUTOVECTORIZE)
  53:../Dave/Generated/CMSIS_DSP/Source/StatisticsFunctions/arm_max_no_idx_f32.c **** 
  54:../Dave/Generated/CMSIS_DSP/Source/StatisticsFunctions/arm_max_no_idx_f32.c **** void arm_max_no_idx_f32(
  55:../Dave/Generated/CMSIS_DSP/Source/StatisticsFunctions/arm_max_no_idx_f32.c ****     const float32_t *pSrc,
  56:../Dave/Generated/CMSIS_DSP/Source/StatisticsFunctions/arm_max_no_idx_f32.c ****     uint32_t   blockSize,
  57:../Dave/Generated/CMSIS_DSP/Source/StatisticsFunctions/arm_max_no_idx_f32.c ****     float32_t *pResult)
  58:../Dave/Generated/CMSIS_DSP/Source/StatisticsFunctions/arm_max_no_idx_f32.c **** {
  59:../Dave/Generated/CMSIS_DSP/Source/StatisticsFunctions/arm_max_no_idx_f32.c ****    f32x4_t     vecSrc;
  60:../Dave/Generated/CMSIS_DSP/Source/StatisticsFunctions/arm_max_no_idx_f32.c ****    f32x4_t     curExtremValVec = vdupq_n_f32(F32_MIN);
  61:../Dave/Generated/CMSIS_DSP/Source/StatisticsFunctions/arm_max_no_idx_f32.c ****    float32_t   maxValue = F32_MIN;
  62:../Dave/Generated/CMSIS_DSP/Source/StatisticsFunctions/arm_max_no_idx_f32.c ****    float32_t   newVal;
  63:../Dave/Generated/CMSIS_DSP/Source/StatisticsFunctions/arm_max_no_idx_f32.c ****    uint32_t    blkCnt;
  64:../Dave/Generated/CMSIS_DSP/Source/StatisticsFunctions/arm_max_no_idx_f32.c **** 
  65:../Dave/Generated/CMSIS_DSP/Source/StatisticsFunctions/arm_max_no_idx_f32.c ****    /* Loop unrolling: Compute 4 outputs at a time */
  66:../Dave/Generated/CMSIS_DSP/Source/StatisticsFunctions/arm_max_no_idx_f32.c ****    blkCnt = blockSize >> 2U;
  67:../Dave/Generated/CMSIS_DSP/Source/StatisticsFunctions/arm_max_no_idx_f32.c **** 
  68:../Dave/Generated/CMSIS_DSP/Source/StatisticsFunctions/arm_max_no_idx_f32.c ****    while (blkCnt > 0U)
  69:../Dave/Generated/CMSIS_DSP/Source/StatisticsFunctions/arm_max_no_idx_f32.c ****    {
  70:../Dave/Generated/CMSIS_DSP/Source/StatisticsFunctions/arm_max_no_idx_f32.c **** 
  71:../Dave/Generated/CMSIS_DSP/Source/StatisticsFunctions/arm_max_no_idx_f32.c ****         vecSrc = vldrwq_f32(pSrc);
  72:../Dave/Generated/CMSIS_DSP/Source/StatisticsFunctions/arm_max_no_idx_f32.c ****         /*
  73:../Dave/Generated/CMSIS_DSP/Source/StatisticsFunctions/arm_max_no_idx_f32.c ****          * update per-lane max.
  74:../Dave/Generated/CMSIS_DSP/Source/StatisticsFunctions/arm_max_no_idx_f32.c ****          */
  75:../Dave/Generated/CMSIS_DSP/Source/StatisticsFunctions/arm_max_no_idx_f32.c ****         curExtremValVec = vmaxnmq(vecSrc, curExtremValVec);
  76:../Dave/Generated/CMSIS_DSP/Source/StatisticsFunctions/arm_max_no_idx_f32.c ****         /*
  77:../Dave/Generated/CMSIS_DSP/Source/StatisticsFunctions/arm_max_no_idx_f32.c ****          * Decrement the blockSize loop counter
  78:../Dave/Generated/CMSIS_DSP/Source/StatisticsFunctions/arm_max_no_idx_f32.c ****          * Advance vector source and destination pointers
  79:../Dave/Generated/CMSIS_DSP/Source/StatisticsFunctions/arm_max_no_idx_f32.c ****          */
  80:../Dave/Generated/CMSIS_DSP/Source/StatisticsFunctions/arm_max_no_idx_f32.c ****         pSrc += 4;
  81:../Dave/Generated/CMSIS_DSP/Source/StatisticsFunctions/arm_max_no_idx_f32.c ****         blkCnt --;
  82:../Dave/Generated/CMSIS_DSP/Source/StatisticsFunctions/arm_max_no_idx_f32.c ****     }
  83:../Dave/Generated/CMSIS_DSP/Source/StatisticsFunctions/arm_max_no_idx_f32.c ****     /*
  84:../Dave/Generated/CMSIS_DSP/Source/StatisticsFunctions/arm_max_no_idx_f32.c ****      * Get max value across the vector
  85:../Dave/Generated/CMSIS_DSP/Source/StatisticsFunctions/arm_max_no_idx_f32.c ****      */
  86:../Dave/Generated/CMSIS_DSP/Source/StatisticsFunctions/arm_max_no_idx_f32.c ****     maxValue = vmaxnmvq(maxValue, curExtremValVec);
  87:../Dave/Generated/CMSIS_DSP/Source/StatisticsFunctions/arm_max_no_idx_f32.c **** 
  88:../Dave/Generated/CMSIS_DSP/Source/StatisticsFunctions/arm_max_no_idx_f32.c ****     blkCnt = blockSize & 3;
  89:../Dave/Generated/CMSIS_DSP/Source/StatisticsFunctions/arm_max_no_idx_f32.c **** 
  90:../Dave/Generated/CMSIS_DSP/Source/StatisticsFunctions/arm_max_no_idx_f32.c ****     while (blkCnt > 0U)
  91:../Dave/Generated/CMSIS_DSP/Source/StatisticsFunctions/arm_max_no_idx_f32.c ****     {
  92:../Dave/Generated/CMSIS_DSP/Source/StatisticsFunctions/arm_max_no_idx_f32.c ****         newVal = *pSrc++;
  93:../Dave/Generated/CMSIS_DSP/Source/StatisticsFunctions/arm_max_no_idx_f32.c **** 
  94:../Dave/Generated/CMSIS_DSP/Source/StatisticsFunctions/arm_max_no_idx_f32.c ****         /* compare for the maximum value */
  95:../Dave/Generated/CMSIS_DSP/Source/StatisticsFunctions/arm_max_no_idx_f32.c ****         if (maxValue < newVal)
  96:../Dave/Generated/CMSIS_DSP/Source/StatisticsFunctions/arm_max_no_idx_f32.c ****         {
  97:../Dave/Generated/CMSIS_DSP/Source/StatisticsFunctions/arm_max_no_idx_f32.c ****             /* Update the maximum value and it's index */
  98:../Dave/Generated/CMSIS_DSP/Source/StatisticsFunctions/arm_max_no_idx_f32.c ****             maxValue = newVal;
  99:../Dave/Generated/CMSIS_DSP/Source/StatisticsFunctions/arm_max_no_idx_f32.c ****         }
 100:../Dave/Generated/CMSIS_DSP/Source/StatisticsFunctions/arm_max_no_idx_f32.c **** 
 101:../Dave/Generated/CMSIS_DSP/Source/StatisticsFunctions/arm_max_no_idx_f32.c ****         blkCnt --;
 102:../Dave/Generated/CMSIS_DSP/Source/StatisticsFunctions/arm_max_no_idx_f32.c ****     }
 103:../Dave/Generated/CMSIS_DSP/Source/StatisticsFunctions/arm_max_no_idx_f32.c **** 
 104:../Dave/Generated/CMSIS_DSP/Source/StatisticsFunctions/arm_max_no_idx_f32.c ****     *pResult = maxValue;
 105:../Dave/Generated/CMSIS_DSP/Source/StatisticsFunctions/arm_max_no_idx_f32.c **** }
 106:../Dave/Generated/CMSIS_DSP/Source/StatisticsFunctions/arm_max_no_idx_f32.c **** 
 107:../Dave/Generated/CMSIS_DSP/Source/StatisticsFunctions/arm_max_no_idx_f32.c **** #else
 108:../Dave/Generated/CMSIS_DSP/Source/StatisticsFunctions/arm_max_no_idx_f32.c **** 
 109:../Dave/Generated/CMSIS_DSP/Source/StatisticsFunctions/arm_max_no_idx_f32.c **** void arm_max_no_idx_f32(
 110:../Dave/Generated/CMSIS_DSP/Source/StatisticsFunctions/arm_max_no_idx_f32.c ****     const float32_t *pSrc,
 111:../Dave/Generated/CMSIS_DSP/Source/StatisticsFunctions/arm_max_no_idx_f32.c ****     uint32_t   blockSize,
 112:../Dave/Generated/CMSIS_DSP/Source/StatisticsFunctions/arm_max_no_idx_f32.c ****     float32_t *pResult)
 113:../Dave/Generated/CMSIS_DSP/Source/StatisticsFunctions/arm_max_no_idx_f32.c **** {
  28              	 .loc 1 113 0
  29              	 .cfi_startproc
  30              	 
  31              	 
  32              	 
  33 0000 80B4     	 push {r7}
  34              	.LCFI0:
  35              	 .cfi_def_cfa_offset 4
  36              	 .cfi_offset 7,-4
  37 0002 87B0     	 sub sp,sp,#28
  38              	.LCFI1:
  39              	 .cfi_def_cfa_offset 32
  40 0004 00AF     	 add r7,sp,#0
  41              	.LCFI2:
  42              	 .cfi_def_cfa_register 7
  43 0006 F860     	 str r0,[r7,#12]
  44 0008 B960     	 str r1,[r7,#8]
  45 000a 7A60     	 str r2,[r7,#4]
 114:../Dave/Generated/CMSIS_DSP/Source/StatisticsFunctions/arm_max_no_idx_f32.c ****    float32_t   maxValue = F32_MIN;
  46              	 .loc 1 114 0
  47 000c 6FF40003 	 mvn r3,#8388608
  48 0010 7B61     	 str r3,[r7,#20]
 115:../Dave/Generated/CMSIS_DSP/Source/StatisticsFunctions/arm_max_no_idx_f32.c ****    float32_t   newVal;
 116:../Dave/Generated/CMSIS_DSP/Source/StatisticsFunctions/arm_max_no_idx_f32.c **** 
 117:../Dave/Generated/CMSIS_DSP/Source/StatisticsFunctions/arm_max_no_idx_f32.c ****    while (blockSize > 0U)
  49              	 .loc 1 117 0
  50 0012 12E0     	 b .L2
  51              	.L5:
 118:../Dave/Generated/CMSIS_DSP/Source/StatisticsFunctions/arm_max_no_idx_f32.c ****    {
 119:../Dave/Generated/CMSIS_DSP/Source/StatisticsFunctions/arm_max_no_idx_f32.c ****        newVal = *pSrc++;
  52              	 .loc 1 119 0
  53 0014 FB68     	 ldr r3,[r7,#12]
  54 0016 1A1D     	 adds r2,r3,#4
  55 0018 FA60     	 str r2,[r7,#12]
  56 001a 1B68     	 ldr r3,[r3]
  57 001c 3B61     	 str r3,[r7,#16]
 120:../Dave/Generated/CMSIS_DSP/Source/StatisticsFunctions/arm_max_no_idx_f32.c ****    
 121:../Dave/Generated/CMSIS_DSP/Source/StatisticsFunctions/arm_max_no_idx_f32.c ****        /* compare for the maximum value */
 122:../Dave/Generated/CMSIS_DSP/Source/StatisticsFunctions/arm_max_no_idx_f32.c ****        if (maxValue < newVal)
  58              	 .loc 1 122 0
  59 001e 97ED057A 	 flds s14,[r7,#20]
  60 0022 D7ED047A 	 flds s15,[r7,#16]
  61 0026 B4EEE77A 	 fcmpes s14,s15
  62 002a F1EE10FA 	 fmstat
  63 002e 01D5     	 bpl .L3
 123:../Dave/Generated/CMSIS_DSP/Source/StatisticsFunctions/arm_max_no_idx_f32.c ****        {
 124:../Dave/Generated/CMSIS_DSP/Source/StatisticsFunctions/arm_max_no_idx_f32.c ****            /* Update the maximum value and it's index */
 125:../Dave/Generated/CMSIS_DSP/Source/StatisticsFunctions/arm_max_no_idx_f32.c ****            maxValue = newVal;
  64              	 .loc 1 125 0
  65 0030 3B69     	 ldr r3,[r7,#16]
  66 0032 7B61     	 str r3,[r7,#20]
  67              	.L3:
 126:../Dave/Generated/CMSIS_DSP/Source/StatisticsFunctions/arm_max_no_idx_f32.c ****        }
 127:../Dave/Generated/CMSIS_DSP/Source/StatisticsFunctions/arm_max_no_idx_f32.c ****    
 128:../Dave/Generated/CMSIS_DSP/Source/StatisticsFunctions/arm_max_no_idx_f32.c ****        blockSize --;
  68              	 .loc 1 128 0
  69 0034 BB68     	 ldr r3,[r7,#8]
  70 0036 013B     	 subs r3,r3,#1
  71 0038 BB60     	 str r3,[r7,#8]
  72              	.L2:
 117:../Dave/Generated/CMSIS_DSP/Source/StatisticsFunctions/arm_max_no_idx_f32.c ****    {
  73              	 .loc 1 117 0
  74 003a BB68     	 ldr r3,[r7,#8]
  75 003c 002B     	 cmp r3,#0
  76 003e E9D1     	 bne .L5
 129:../Dave/Generated/CMSIS_DSP/Source/StatisticsFunctions/arm_max_no_idx_f32.c ****    }
 130:../Dave/Generated/CMSIS_DSP/Source/StatisticsFunctions/arm_max_no_idx_f32.c ****     
 131:../Dave/Generated/CMSIS_DSP/Source/StatisticsFunctions/arm_max_no_idx_f32.c ****    *pResult = maxValue;
  77              	 .loc 1 131 0
  78 0040 7B68     	 ldr r3,[r7,#4]
  79 0042 7A69     	 ldr r2,[r7,#20]
  80 0044 1A60     	 str r2,[r3]
 132:../Dave/Generated/CMSIS_DSP/Source/StatisticsFunctions/arm_max_no_idx_f32.c **** }
  81              	 .loc 1 132 0
  82 0046 1C37     	 adds r7,r7,#28
  83              	.LCFI3:
  84              	 .cfi_def_cfa_offset 4
  85 0048 BD46     	 mov sp,r7
  86              	.LCFI4:
  87              	 .cfi_def_cfa_register 13
  88              	 
  89 004a 5DF8047B 	 ldr r7,[sp],#4
  90              	.LCFI5:
  91              	 .cfi_restore 7
  92              	 .cfi_def_cfa_offset 0
  93 004e 7047     	 bx lr
  94              	 .cfi_endproc
  95              	.LFE149:
  97              	 .text
  98              	.Letext0:
  99              	 .file 2 "c:\\infineon\\tools\\dave ide\\4.5.0.202105191637\\eclipse\\arm-gcc-49\\arm-none-eabi\\include\\machine\\_default_types.h"
 100              	 .file 3 "c:\\infineon\\tools\\dave ide\\4.5.0.202105191637\\eclipse\\arm-gcc-49\\arm-none-eabi\\include\\stdint.h"
 101              	 .file 4 "C:/Users/Rui Mendes/Desktop/DAVE/_Naive/_ForTesting/Dave/Generated/CMSIS_DSP/Include/arm_math.h"
 102              	 .file 5 "C:/Users/Rui Mendes/Desktop/DAVE/_Naive/_ForTesting/Libraries/CMSIS/Include/cmsis_gcc.h"