   1              	 .syntax unified
   2              	 .cpu cortex-m4
   3              	 .eabi_attribute 27,3
   4              	 .fpu fpv4-sp-d16
   5              	 .eabi_attribute 20,1
   6              	 .eabi_attribute 21,1
   7              	 .eabi_attribute 23,3
   8              	 .eabi_attribute 24,1
   9              	 .eabi_attribute 25,1
  10              	 .eabi_attribute 26,1
  11              	 .eabi_attribute 30,6
  12              	 .eabi_attribute 34,1
  13              	 .eabi_attribute 18,4
  14              	 .thumb
  15              	 .file "arm_power_q15.c"
  16              	 .text
  17              	.Ltext0:
  18              	 .cfi_sections .debug_frame
  19              	 .section .text.arm_power_q15,"ax",%progbits
  20              	 .align 2
  21              	 .global arm_power_q15
  22              	 .thumb
  23              	 .thumb_func
  25              	arm_power_q15:
  26              	.LFB149:
  27              	 .file 1 "../Dave/Generated/CMSIS_DSP/Source/StatisticsFunctions/arm_power_q15.c"
   1:../Dave/Generated/CMSIS_DSP/Source/StatisticsFunctions/arm_power_q15.c **** /* ----------------------------------------------------------------------
   2:../Dave/Generated/CMSIS_DSP/Source/StatisticsFunctions/arm_power_q15.c ****  * Project:      CMSIS DSP Library
   3:../Dave/Generated/CMSIS_DSP/Source/StatisticsFunctions/arm_power_q15.c ****  * Title:        arm_power_q15.c
   4:../Dave/Generated/CMSIS_DSP/Source/StatisticsFunctions/arm_power_q15.c ****  * Description:  Sum of the squares of the elements of a Q15 vector
   5:../Dave/Generated/CMSIS_DSP/Source/StatisticsFunctions/arm_power_q15.c ****  *
   6:../Dave/Generated/CMSIS_DSP/Source/StatisticsFunctions/arm_power_q15.c ****  * $Date:        18. March 2019
   7:../Dave/Generated/CMSIS_DSP/Source/StatisticsFunctions/arm_power_q15.c ****  * $Revision:    V1.6.0
   8:../Dave/Generated/CMSIS_DSP/Source/StatisticsFunctions/arm_power_q15.c ****  *
   9:../Dave/Generated/CMSIS_DSP/Source/StatisticsFunctions/arm_power_q15.c ****  * Target Processor: Cortex-M cores
  10:../Dave/Generated/CMSIS_DSP/Source/StatisticsFunctions/arm_power_q15.c ****  * -------------------------------------------------------------------- */
  11:../Dave/Generated/CMSIS_DSP/Source/StatisticsFunctions/arm_power_q15.c **** /*
  12:../Dave/Generated/CMSIS_DSP/Source/StatisticsFunctions/arm_power_q15.c ****  * Copyright (C) 2010-2019 ARM Limited or its affiliates. All rights reserved.
  13:../Dave/Generated/CMSIS_DSP/Source/StatisticsFunctions/arm_power_q15.c ****  *
  14:../Dave/Generated/CMSIS_DSP/Source/StatisticsFunctions/arm_power_q15.c ****  * SPDX-License-Identifier: Apache-2.0
  15:../Dave/Generated/CMSIS_DSP/Source/StatisticsFunctions/arm_power_q15.c ****  *
  16:../Dave/Generated/CMSIS_DSP/Source/StatisticsFunctions/arm_power_q15.c ****  * Licensed under the Apache License, Version 2.0 (the License); you may
  17:../Dave/Generated/CMSIS_DSP/Source/StatisticsFunctions/arm_power_q15.c ****  * not use this file except in compliance with the License.
  18:../Dave/Generated/CMSIS_DSP/Source/StatisticsFunctions/arm_power_q15.c ****  * You may obtain a copy of the License at
  19:../Dave/Generated/CMSIS_DSP/Source/StatisticsFunctions/arm_power_q15.c ****  *
  20:../Dave/Generated/CMSIS_DSP/Source/StatisticsFunctions/arm_power_q15.c ****  * www.apache.org/licenses/LICENSE-2.0
  21:../Dave/Generated/CMSIS_DSP/Source/StatisticsFunctions/arm_power_q15.c ****  *
  22:../Dave/Generated/CMSIS_DSP/Source/StatisticsFunctions/arm_power_q15.c ****  * Unless required by applicable law or agreed to in writing, software
  23:../Dave/Generated/CMSIS_DSP/Source/StatisticsFunctions/arm_power_q15.c ****  * distributed under the License is distributed on an AS IS BASIS, WITHOUT
  24:../Dave/Generated/CMSIS_DSP/Source/StatisticsFunctions/arm_power_q15.c ****  * WARRANTIES OR CONDITIONS OF ANY KIND, either express or implied.
  25:../Dave/Generated/CMSIS_DSP/Source/StatisticsFunctions/arm_power_q15.c ****  * See the License for the specific language governing permissions and
  26:../Dave/Generated/CMSIS_DSP/Source/StatisticsFunctions/arm_power_q15.c ****  * limitations under the License.
  27:../Dave/Generated/CMSIS_DSP/Source/StatisticsFunctions/arm_power_q15.c ****  */
  28:../Dave/Generated/CMSIS_DSP/Source/StatisticsFunctions/arm_power_q15.c **** 
  29:../Dave/Generated/CMSIS_DSP/Source/StatisticsFunctions/arm_power_q15.c **** #include "CMSIS_DSP/cmsis_dsp.h"
  30:../Dave/Generated/CMSIS_DSP/Source/StatisticsFunctions/arm_power_q15.c **** 
  31:../Dave/Generated/CMSIS_DSP/Source/StatisticsFunctions/arm_power_q15.c **** /**
  32:../Dave/Generated/CMSIS_DSP/Source/StatisticsFunctions/arm_power_q15.c ****   @ingroup groupStats
  33:../Dave/Generated/CMSIS_DSP/Source/StatisticsFunctions/arm_power_q15.c ****  */
  34:../Dave/Generated/CMSIS_DSP/Source/StatisticsFunctions/arm_power_q15.c **** 
  35:../Dave/Generated/CMSIS_DSP/Source/StatisticsFunctions/arm_power_q15.c **** /**
  36:../Dave/Generated/CMSIS_DSP/Source/StatisticsFunctions/arm_power_q15.c ****   @addtogroup power
  37:../Dave/Generated/CMSIS_DSP/Source/StatisticsFunctions/arm_power_q15.c ****   @{
  38:../Dave/Generated/CMSIS_DSP/Source/StatisticsFunctions/arm_power_q15.c ****  */
  39:../Dave/Generated/CMSIS_DSP/Source/StatisticsFunctions/arm_power_q15.c **** 
  40:../Dave/Generated/CMSIS_DSP/Source/StatisticsFunctions/arm_power_q15.c **** /**
  41:../Dave/Generated/CMSIS_DSP/Source/StatisticsFunctions/arm_power_q15.c ****   @brief         Sum of the squares of the elements of a Q15 vector.
  42:../Dave/Generated/CMSIS_DSP/Source/StatisticsFunctions/arm_power_q15.c ****   @param[in]     pSrc       points to the input vector
  43:../Dave/Generated/CMSIS_DSP/Source/StatisticsFunctions/arm_power_q15.c ****   @param[in]     blockSize  number of samples in input vector
  44:../Dave/Generated/CMSIS_DSP/Source/StatisticsFunctions/arm_power_q15.c ****   @param[out]    pResult    sum of the squares value returned here
  45:../Dave/Generated/CMSIS_DSP/Source/StatisticsFunctions/arm_power_q15.c ****   @return        none
  46:../Dave/Generated/CMSIS_DSP/Source/StatisticsFunctions/arm_power_q15.c **** 
  47:../Dave/Generated/CMSIS_DSP/Source/StatisticsFunctions/arm_power_q15.c ****   @par           Scaling and Overflow Behavior
  48:../Dave/Generated/CMSIS_DSP/Source/StatisticsFunctions/arm_power_q15.c ****                    The function is implemented using a 64-bit internal accumulator.
  49:../Dave/Generated/CMSIS_DSP/Source/StatisticsFunctions/arm_power_q15.c ****                    The input is represented in 1.15 format.
  50:../Dave/Generated/CMSIS_DSP/Source/StatisticsFunctions/arm_power_q15.c ****                    Intermediate multiplication yields a 2.30 format, and this
  51:../Dave/Generated/CMSIS_DSP/Source/StatisticsFunctions/arm_power_q15.c ****                    result is added without saturation to a 64-bit accumulator in 34.30 format.
  52:../Dave/Generated/CMSIS_DSP/Source/StatisticsFunctions/arm_power_q15.c ****                    With 33 guard bits in the accumulator, there is no risk of overflow, and the
  53:../Dave/Generated/CMSIS_DSP/Source/StatisticsFunctions/arm_power_q15.c ****                    full precision of the intermediate multiplication is preserved.
  54:../Dave/Generated/CMSIS_DSP/Source/StatisticsFunctions/arm_power_q15.c ****                    Finally, the return result is in 34.30 format.
  55:../Dave/Generated/CMSIS_DSP/Source/StatisticsFunctions/arm_power_q15.c ****  */
  56:../Dave/Generated/CMSIS_DSP/Source/StatisticsFunctions/arm_power_q15.c **** #if defined(ARM_MATH_MVEI)
  57:../Dave/Generated/CMSIS_DSP/Source/StatisticsFunctions/arm_power_q15.c **** 
  58:../Dave/Generated/CMSIS_DSP/Source/StatisticsFunctions/arm_power_q15.c **** void arm_power_q15(
  59:../Dave/Generated/CMSIS_DSP/Source/StatisticsFunctions/arm_power_q15.c ****   const q15_t * pSrc,
  60:../Dave/Generated/CMSIS_DSP/Source/StatisticsFunctions/arm_power_q15.c ****         uint32_t blockSize,
  61:../Dave/Generated/CMSIS_DSP/Source/StatisticsFunctions/arm_power_q15.c ****         q63_t * pResult)
  62:../Dave/Generated/CMSIS_DSP/Source/StatisticsFunctions/arm_power_q15.c **** {
  63:../Dave/Generated/CMSIS_DSP/Source/StatisticsFunctions/arm_power_q15.c ****     uint32_t  blkCnt;           /* loop counters */
  64:../Dave/Generated/CMSIS_DSP/Source/StatisticsFunctions/arm_power_q15.c ****     q15x8_t vecSrc;
  65:../Dave/Generated/CMSIS_DSP/Source/StatisticsFunctions/arm_power_q15.c ****     q63_t     sum = 0LL;
  66:../Dave/Generated/CMSIS_DSP/Source/StatisticsFunctions/arm_power_q15.c ****     q15_t in;
  67:../Dave/Generated/CMSIS_DSP/Source/StatisticsFunctions/arm_power_q15.c **** 
  68:../Dave/Generated/CMSIS_DSP/Source/StatisticsFunctions/arm_power_q15.c ****    /* Compute 8 outputs at a time */
  69:../Dave/Generated/CMSIS_DSP/Source/StatisticsFunctions/arm_power_q15.c ****     blkCnt = blockSize >> 3U;
  70:../Dave/Generated/CMSIS_DSP/Source/StatisticsFunctions/arm_power_q15.c ****     while (blkCnt > 0U)
  71:../Dave/Generated/CMSIS_DSP/Source/StatisticsFunctions/arm_power_q15.c ****     {
  72:../Dave/Generated/CMSIS_DSP/Source/StatisticsFunctions/arm_power_q15.c ****         vecSrc = vldrhq_s16(pSrc);
  73:../Dave/Generated/CMSIS_DSP/Source/StatisticsFunctions/arm_power_q15.c ****         /*
  74:../Dave/Generated/CMSIS_DSP/Source/StatisticsFunctions/arm_power_q15.c ****          * sum lanes
  75:../Dave/Generated/CMSIS_DSP/Source/StatisticsFunctions/arm_power_q15.c ****          */
  76:../Dave/Generated/CMSIS_DSP/Source/StatisticsFunctions/arm_power_q15.c ****         sum = vmlaldavaq(sum, vecSrc, vecSrc);
  77:../Dave/Generated/CMSIS_DSP/Source/StatisticsFunctions/arm_power_q15.c **** 
  78:../Dave/Generated/CMSIS_DSP/Source/StatisticsFunctions/arm_power_q15.c ****         blkCnt --;
  79:../Dave/Generated/CMSIS_DSP/Source/StatisticsFunctions/arm_power_q15.c ****         pSrc += 8;
  80:../Dave/Generated/CMSIS_DSP/Source/StatisticsFunctions/arm_power_q15.c ****     }
  81:../Dave/Generated/CMSIS_DSP/Source/StatisticsFunctions/arm_power_q15.c **** 
  82:../Dave/Generated/CMSIS_DSP/Source/StatisticsFunctions/arm_power_q15.c ****     /*
  83:../Dave/Generated/CMSIS_DSP/Source/StatisticsFunctions/arm_power_q15.c ****      * tail
  84:../Dave/Generated/CMSIS_DSP/Source/StatisticsFunctions/arm_power_q15.c ****      */
  85:../Dave/Generated/CMSIS_DSP/Source/StatisticsFunctions/arm_power_q15.c ****     blkCnt = blockSize & 0x7;
  86:../Dave/Generated/CMSIS_DSP/Source/StatisticsFunctions/arm_power_q15.c ****     while (blkCnt > 0U)
  87:../Dave/Generated/CMSIS_DSP/Source/StatisticsFunctions/arm_power_q15.c ****     {
  88:../Dave/Generated/CMSIS_DSP/Source/StatisticsFunctions/arm_power_q15.c ****       /* C = A[0] * A[0] + A[1] * A[1] + ... + A[blockSize-1] * A[blockSize-1] */
  89:../Dave/Generated/CMSIS_DSP/Source/StatisticsFunctions/arm_power_q15.c ****   
  90:../Dave/Generated/CMSIS_DSP/Source/StatisticsFunctions/arm_power_q15.c ****       /* Compute Power and store result in a temporary variable, sum. */
  91:../Dave/Generated/CMSIS_DSP/Source/StatisticsFunctions/arm_power_q15.c ****       in = *pSrc++;
  92:../Dave/Generated/CMSIS_DSP/Source/StatisticsFunctions/arm_power_q15.c ****       sum += ((q31_t) in * in);
  93:../Dave/Generated/CMSIS_DSP/Source/StatisticsFunctions/arm_power_q15.c ****   
  94:../Dave/Generated/CMSIS_DSP/Source/StatisticsFunctions/arm_power_q15.c ****       /* Decrement loop counter */
  95:../Dave/Generated/CMSIS_DSP/Source/StatisticsFunctions/arm_power_q15.c ****       blkCnt--;
  96:../Dave/Generated/CMSIS_DSP/Source/StatisticsFunctions/arm_power_q15.c ****     }
  97:../Dave/Generated/CMSIS_DSP/Source/StatisticsFunctions/arm_power_q15.c **** 
  98:../Dave/Generated/CMSIS_DSP/Source/StatisticsFunctions/arm_power_q15.c ****     *pResult = sum;
  99:../Dave/Generated/CMSIS_DSP/Source/StatisticsFunctions/arm_power_q15.c **** }
 100:../Dave/Generated/CMSIS_DSP/Source/StatisticsFunctions/arm_power_q15.c **** #else
 101:../Dave/Generated/CMSIS_DSP/Source/StatisticsFunctions/arm_power_q15.c **** void arm_power_q15(
 102:../Dave/Generated/CMSIS_DSP/Source/StatisticsFunctions/arm_power_q15.c ****   const q15_t * pSrc,
 103:../Dave/Generated/CMSIS_DSP/Source/StatisticsFunctions/arm_power_q15.c ****         uint32_t blockSize,
 104:../Dave/Generated/CMSIS_DSP/Source/StatisticsFunctions/arm_power_q15.c ****         q63_t * pResult)
 105:../Dave/Generated/CMSIS_DSP/Source/StatisticsFunctions/arm_power_q15.c **** {
  28              	 .loc 1 105 0
  29              	 .cfi_startproc
  30              	 
  31              	 
  32              	 
  33 0000 80B4     	 push {r7}
  34              	.LCFI0:
  35              	 .cfi_def_cfa_offset 4
  36              	 .cfi_offset 7,-4
  37 0002 8BB0     	 sub sp,sp,#44
  38              	.LCFI1:
  39              	 .cfi_def_cfa_offset 48
  40 0004 00AF     	 add r7,sp,#0
  41              	.LCFI2:
  42              	 .cfi_def_cfa_register 7
  43 0006 F860     	 str r0,[r7,#12]
  44 0008 B960     	 str r1,[r7,#8]
  45 000a 7A60     	 str r2,[r7,#4]
 106:../Dave/Generated/CMSIS_DSP/Source/StatisticsFunctions/arm_power_q15.c ****         uint32_t blkCnt;                               /* Loop counter */
 107:../Dave/Generated/CMSIS_DSP/Source/StatisticsFunctions/arm_power_q15.c ****         q63_t sum = 0;                                 /* Temporary result storage */
  46              	 .loc 1 107 0
  47 000c 4FF00002 	 mov r2,#0
  48 0010 4FF00003 	 mov r3,#0
  49 0014 C7E90623 	 strd r2,[r7,#24]
 108:../Dave/Generated/CMSIS_DSP/Source/StatisticsFunctions/arm_power_q15.c ****         q15_t in;                                      /* Temporary variable to store input value *
 109:../Dave/Generated/CMSIS_DSP/Source/StatisticsFunctions/arm_power_q15.c **** 
 110:../Dave/Generated/CMSIS_DSP/Source/StatisticsFunctions/arm_power_q15.c **** #if defined (ARM_MATH_LOOPUNROLL) && defined (ARM_MATH_DSP)
 111:../Dave/Generated/CMSIS_DSP/Source/StatisticsFunctions/arm_power_q15.c ****         q31_t in32;                                    /* Temporary variable to store packed input 
 112:../Dave/Generated/CMSIS_DSP/Source/StatisticsFunctions/arm_power_q15.c **** #endif
 113:../Dave/Generated/CMSIS_DSP/Source/StatisticsFunctions/arm_power_q15.c **** 
 114:../Dave/Generated/CMSIS_DSP/Source/StatisticsFunctions/arm_power_q15.c **** #if defined (ARM_MATH_LOOPUNROLL)
 115:../Dave/Generated/CMSIS_DSP/Source/StatisticsFunctions/arm_power_q15.c **** 
 116:../Dave/Generated/CMSIS_DSP/Source/StatisticsFunctions/arm_power_q15.c ****   /* Loop unrolling: Compute 4 outputs at a time */
 117:../Dave/Generated/CMSIS_DSP/Source/StatisticsFunctions/arm_power_q15.c ****   blkCnt = blockSize >> 2U;
 118:../Dave/Generated/CMSIS_DSP/Source/StatisticsFunctions/arm_power_q15.c **** 
 119:../Dave/Generated/CMSIS_DSP/Source/StatisticsFunctions/arm_power_q15.c ****   while (blkCnt > 0U)
 120:../Dave/Generated/CMSIS_DSP/Source/StatisticsFunctions/arm_power_q15.c ****   {
 121:../Dave/Generated/CMSIS_DSP/Source/StatisticsFunctions/arm_power_q15.c ****     /* C = A[0] * A[0] + A[1] * A[1] + ... + A[blockSize-1] * A[blockSize-1] */
 122:../Dave/Generated/CMSIS_DSP/Source/StatisticsFunctions/arm_power_q15.c **** 
 123:../Dave/Generated/CMSIS_DSP/Source/StatisticsFunctions/arm_power_q15.c ****     /* Compute Power and store result in a temporary variable, sum. */
 124:../Dave/Generated/CMSIS_DSP/Source/StatisticsFunctions/arm_power_q15.c **** #if defined (ARM_MATH_DSP)
 125:../Dave/Generated/CMSIS_DSP/Source/StatisticsFunctions/arm_power_q15.c ****     in32 = read_q15x2_ia ((q15_t **) &pSrc);
 126:../Dave/Generated/CMSIS_DSP/Source/StatisticsFunctions/arm_power_q15.c ****     sum = __SMLALD(in32, in32, sum);
 127:../Dave/Generated/CMSIS_DSP/Source/StatisticsFunctions/arm_power_q15.c **** 
 128:../Dave/Generated/CMSIS_DSP/Source/StatisticsFunctions/arm_power_q15.c ****     in32 = read_q15x2_ia ((q15_t **) &pSrc);
 129:../Dave/Generated/CMSIS_DSP/Source/StatisticsFunctions/arm_power_q15.c ****     sum = __SMLALD(in32, in32, sum);
 130:../Dave/Generated/CMSIS_DSP/Source/StatisticsFunctions/arm_power_q15.c **** #else
 131:../Dave/Generated/CMSIS_DSP/Source/StatisticsFunctions/arm_power_q15.c ****     in = *pSrc++;
 132:../Dave/Generated/CMSIS_DSP/Source/StatisticsFunctions/arm_power_q15.c ****     sum += ((q31_t) in * in);
 133:../Dave/Generated/CMSIS_DSP/Source/StatisticsFunctions/arm_power_q15.c **** 
 134:../Dave/Generated/CMSIS_DSP/Source/StatisticsFunctions/arm_power_q15.c ****     in = *pSrc++;
 135:../Dave/Generated/CMSIS_DSP/Source/StatisticsFunctions/arm_power_q15.c ****     sum += ((q31_t) in * in);
 136:../Dave/Generated/CMSIS_DSP/Source/StatisticsFunctions/arm_power_q15.c **** 
 137:../Dave/Generated/CMSIS_DSP/Source/StatisticsFunctions/arm_power_q15.c ****     in = *pSrc++;
 138:../Dave/Generated/CMSIS_DSP/Source/StatisticsFunctions/arm_power_q15.c ****     sum += ((q31_t) in * in);
 139:../Dave/Generated/CMSIS_DSP/Source/StatisticsFunctions/arm_power_q15.c **** 
 140:../Dave/Generated/CMSIS_DSP/Source/StatisticsFunctions/arm_power_q15.c ****     in = *pSrc++;
 141:../Dave/Generated/CMSIS_DSP/Source/StatisticsFunctions/arm_power_q15.c ****     sum += ((q31_t) in * in);
 142:../Dave/Generated/CMSIS_DSP/Source/StatisticsFunctions/arm_power_q15.c **** #endif /* #if defined (ARM_MATH_DSP) */
 143:../Dave/Generated/CMSIS_DSP/Source/StatisticsFunctions/arm_power_q15.c **** 
 144:../Dave/Generated/CMSIS_DSP/Source/StatisticsFunctions/arm_power_q15.c ****     /* Decrement loop counter */
 145:../Dave/Generated/CMSIS_DSP/Source/StatisticsFunctions/arm_power_q15.c ****     blkCnt--;
 146:../Dave/Generated/CMSIS_DSP/Source/StatisticsFunctions/arm_power_q15.c ****   }
 147:../Dave/Generated/CMSIS_DSP/Source/StatisticsFunctions/arm_power_q15.c **** 
 148:../Dave/Generated/CMSIS_DSP/Source/StatisticsFunctions/arm_power_q15.c ****   /* Loop unrolling: Compute remaining outputs */
 149:../Dave/Generated/CMSIS_DSP/Source/StatisticsFunctions/arm_power_q15.c ****   blkCnt = blockSize % 0x4U;
 150:../Dave/Generated/CMSIS_DSP/Source/StatisticsFunctions/arm_power_q15.c **** 
 151:../Dave/Generated/CMSIS_DSP/Source/StatisticsFunctions/arm_power_q15.c **** #else
 152:../Dave/Generated/CMSIS_DSP/Source/StatisticsFunctions/arm_power_q15.c **** 
 153:../Dave/Generated/CMSIS_DSP/Source/StatisticsFunctions/arm_power_q15.c ****   /* Initialize blkCnt with number of samples */
 154:../Dave/Generated/CMSIS_DSP/Source/StatisticsFunctions/arm_power_q15.c ****   blkCnt = blockSize;
  50              	 .loc 1 154 0
  51 0018 BB68     	 ldr r3,[r7,#8]
  52 001a 7B62     	 str r3,[r7,#36]
 155:../Dave/Generated/CMSIS_DSP/Source/StatisticsFunctions/arm_power_q15.c **** 
 156:../Dave/Generated/CMSIS_DSP/Source/StatisticsFunctions/arm_power_q15.c **** #endif /* #if defined (ARM_MATH_LOOPUNROLL) */
 157:../Dave/Generated/CMSIS_DSP/Source/StatisticsFunctions/arm_power_q15.c **** 
 158:../Dave/Generated/CMSIS_DSP/Source/StatisticsFunctions/arm_power_q15.c ****   while (blkCnt > 0U)
  53              	 .loc 1 158 0
  54 001c 17E0     	 b .L2
  55              	.L3:
 159:../Dave/Generated/CMSIS_DSP/Source/StatisticsFunctions/arm_power_q15.c ****   {
 160:../Dave/Generated/CMSIS_DSP/Source/StatisticsFunctions/arm_power_q15.c ****     /* C = A[0] * A[0] + A[1] * A[1] + ... + A[blockSize-1] * A[blockSize-1] */
 161:../Dave/Generated/CMSIS_DSP/Source/StatisticsFunctions/arm_power_q15.c **** 
 162:../Dave/Generated/CMSIS_DSP/Source/StatisticsFunctions/arm_power_q15.c ****     /* Compute Power and store result in a temporary variable, sum. */
 163:../Dave/Generated/CMSIS_DSP/Source/StatisticsFunctions/arm_power_q15.c ****     in = *pSrc++;
  56              	 .loc 1 163 0
  57 001e FB68     	 ldr r3,[r7,#12]
  58 0020 9A1C     	 adds r2,r3,#2
  59 0022 FA60     	 str r2,[r7,#12]
  60 0024 1B88     	 ldrh r3,[r3]
  61 0026 FB82     	 strh r3,[r7,#22]
 164:../Dave/Generated/CMSIS_DSP/Source/StatisticsFunctions/arm_power_q15.c ****     sum += ((q31_t) in * in);
  62              	 .loc 1 164 0
  63 0028 B7F91630 	 ldrsh r3,[r7,#22]
  64 002c B7F91620 	 ldrsh r2,[r7,#22]
  65 0030 02FB03F3 	 mul r3,r2,r3
  66 0034 1A46     	 mov r2,r3
  67 0036 4FEAE273 	 asr r3,r2,#31
  68 003a D7E90601 	 ldrd r0,[r7,#24]
  69 003e 1218     	 adds r2,r2,r0
  70 0040 43EB0103 	 adc r3,r3,r1
  71 0044 C7E90623 	 strd r2,[r7,#24]
 165:../Dave/Generated/CMSIS_DSP/Source/StatisticsFunctions/arm_power_q15.c **** 
 166:../Dave/Generated/CMSIS_DSP/Source/StatisticsFunctions/arm_power_q15.c ****     /* Decrement loop counter */
 167:../Dave/Generated/CMSIS_DSP/Source/StatisticsFunctions/arm_power_q15.c ****     blkCnt--;
  72              	 .loc 1 167 0
  73 0048 7B6A     	 ldr r3,[r7,#36]
  74 004a 013B     	 subs r3,r3,#1
  75 004c 7B62     	 str r3,[r7,#36]
  76              	.L2:
 158:../Dave/Generated/CMSIS_DSP/Source/StatisticsFunctions/arm_power_q15.c ****   {
  77              	 .loc 1 158 0
  78 004e 7B6A     	 ldr r3,[r7,#36]
  79 0050 002B     	 cmp r3,#0
  80 0052 E4D1     	 bne .L3
 168:../Dave/Generated/CMSIS_DSP/Source/StatisticsFunctions/arm_power_q15.c ****   }
 169:../Dave/Generated/CMSIS_DSP/Source/StatisticsFunctions/arm_power_q15.c **** 
 170:../Dave/Generated/CMSIS_DSP/Source/StatisticsFunctions/arm_power_q15.c ****   /* Store result in 34.30 format */
 171:../Dave/Generated/CMSIS_DSP/Source/StatisticsFunctions/arm_power_q15.c ****   *pResult = sum;
  81              	 .loc 1 171 0
  82 0054 7968     	 ldr r1,[r7,#4]
  83 0056 D7E90623 	 ldrd r2,[r7,#24]
  84 005a C1E90023 	 strd r2,[r1]
 172:../Dave/Generated/CMSIS_DSP/Source/StatisticsFunctions/arm_power_q15.c **** }
  85              	 .loc 1 172 0
  86 005e 2C37     	 adds r7,r7,#44
  87              	.LCFI3:
  88              	 .cfi_def_cfa_offset 4
  89 0060 BD46     	 mov sp,r7
  90              	.LCFI4:
  91              	 .cfi_def_cfa_register 13
  92              	 
  93 0062 5DF8047B 	 ldr r7,[sp],#4
  94              	.LCFI5:
  95              	 .cfi_restore 7
  96              	 .cfi_def_cfa_offset 0
  97 0066 7047     	 bx lr
  98              	 .cfi_endproc
  99              	.LFE149:
 101              	 .text
 102              	.Letext0:
 103              	 .file 2 "c:\\infineon\\tools\\dave ide\\4.5.0.202105191637\\eclipse\\arm-gcc-49\\arm-none-eabi\\include\\machine\\_default_types.h"
 104              	 .file 3 "c:\\infineon\\tools\\dave ide\\4.5.0.202105191637\\eclipse\\arm-gcc-49\\arm-none-eabi\\include\\stdint.h"
 105              	 .file 4 "C:/Users/Rui Mendes/Desktop/DAVE/_Naive/_ForTesting/Dave/Generated/CMSIS_DSP/Include/arm_math.h"
 106              	 .file 5 "C:/Users/Rui Mendes/Desktop/DAVE/_Naive/_ForTesting/Libraries/CMSIS/Include/cmsis_gcc.h"