   1              	 .syntax unified
   2              	 .cpu cortex-m4
   3              	 .eabi_attribute 27,3
   4              	 .fpu fpv4-sp-d16
   5              	 .eabi_attribute 20,1
   6              	 .eabi_attribute 21,1
   7              	 .eabi_attribute 23,3
   8              	 .eabi_attribute 24,1
   9              	 .eabi_attribute 25,1
  10              	 .eabi_attribute 26,1
  11              	 .eabi_attribute 30,6
  12              	 .eabi_attribute 34,1
  13              	 .eabi_attribute 18,4
  14              	 .thumb
  15              	 .file "adc_queue_conf.c"
  16              	 .text
  17              	.Ltext0:
  18              	 .cfi_sections .debug_frame
  19              	 .global ADC_QUEUE_0_reqsrc_config_0
  20              	 .section .rodata.ADC_QUEUE_0_reqsrc_config_0,"a",%progbits
  21              	 .align 2
  24              	ADC_QUEUE_0_reqsrc_config_0:
  25 0000 00000000 	 .space 16
  25      00000000 
  25      00000000 
  25      00000000 
  26              	 .global ADC_QUEUE_0_init_config_0
  27              	 .section .rodata.ADC_QUEUE_0_init_config_0,"a",%progbits
  28              	 .align 2
  31              	ADC_QUEUE_0_init_config_0:
  32 0000 00000000 	 .space 12
  32      00000000 
  32      00000000 
  33              	 .global ADC_QUEUE_0
  34              	 .section .data.ADC_QUEUE_0,"aw",%progbits
  35              	 .align 2
  38              	ADC_QUEUE_0:
  39 0000 00       	 .byte 0
  40 0001 00       	 .byte 0
  41 0002 0000     	 .space 2
  42 0004 00000000 	 .word ADC_QUEUE_0_init_config_0
  43 0008 00000000 	 .word GLOBAL_ADC_0
  44 000c 00440040 	 .word 1073759232
  45 0010 01       	 .byte 1
  46 0011 000000   	 .space 3
  47 0014 00000000 	 .word ADC_QUEUE_0_reqsrc_config_0
  48 0018 00       	 .byte 0
  49 0019 02       	 .byte 2
  50 001a 00       	 .byte 0
  51 001b 00       	 .byte 0
  52 001c 00       	 .byte 0
  53 001d 000000   	 .space 3
  54              	 .comm adc_queue_list_ch_index_0,96,4
  55              	 .comm adc_queue_list_pos_index_0,96,4
  56              	 .section .text.ADC_QUEUE_0_ReqSrcEventHandler,"ax",%progbits
  57              	 .align 2
  58              	 .global ADC_QUEUE_0_ReqSrcEventHandler
  59              	 .thumb
  60              	 .thumb_func
  62              	ADC_QUEUE_0_ReqSrcEventHandler:
  63              	.LFB255:
  64              	 .file 1 "../Dave/Generated/ADC_QUEUE/adc_queue_conf.c"
   1:../Dave/Generated/ADC_QUEUE/adc_queue_conf.c **** /**************************************************************************************************
   2:../Dave/Generated/ADC_QUEUE/adc_queue_conf.c **** * DAVE APP Name : ADC_QUEUE       APP Version: 4.0.22
   3:../Dave/Generated/ADC_QUEUE/adc_queue_conf.c **** *
   4:../Dave/Generated/ADC_QUEUE/adc_queue_conf.c **** * NOTE:
   5:../Dave/Generated/ADC_QUEUE/adc_queue_conf.c **** * This file is generated by DAVE. Any manual modification done to this file will be lost when the c
   6:../Dave/Generated/ADC_QUEUE/adc_queue_conf.c **** ***************************************************************************************************
   7:../Dave/Generated/ADC_QUEUE/adc_queue_conf.c **** 
   8:../Dave/Generated/ADC_QUEUE/adc_queue_conf.c **** /**
   9:../Dave/Generated/ADC_QUEUE/adc_queue_conf.c ****  * @cond
  10:../Dave/Generated/ADC_QUEUE/adc_queue_conf.c ****  **************************************************************************************************
  11:../Dave/Generated/ADC_QUEUE/adc_queue_conf.c ****  *
  12:../Dave/Generated/ADC_QUEUE/adc_queue_conf.c ****  * Copyright (c) 2015-2020, Infineon Technologies AG
  13:../Dave/Generated/ADC_QUEUE/adc_queue_conf.c ****  * All rights reserved.
  14:../Dave/Generated/ADC_QUEUE/adc_queue_conf.c ****  *
  15:../Dave/Generated/ADC_QUEUE/adc_queue_conf.c ****  * Redistribution and use in source and binary forms, with or without modification,are permitted pr
  16:../Dave/Generated/ADC_QUEUE/adc_queue_conf.c ****  * following conditions are met:
  17:../Dave/Generated/ADC_QUEUE/adc_queue_conf.c ****  *
  18:../Dave/Generated/ADC_QUEUE/adc_queue_conf.c ****  *   Redistributions of source code must retain the above copyright notice, this list of conditions
  19:../Dave/Generated/ADC_QUEUE/adc_queue_conf.c ****  *   disclaimer.
  20:../Dave/Generated/ADC_QUEUE/adc_queue_conf.c ****  *
  21:../Dave/Generated/ADC_QUEUE/adc_queue_conf.c ****  *   Redistributions in binary form must reproduce the above copyright notice, this list of conditi
  22:../Dave/Generated/ADC_QUEUE/adc_queue_conf.c ****  *   following disclaimer in the documentation and/or other materials provided with the distributio
  23:../Dave/Generated/ADC_QUEUE/adc_queue_conf.c ****  *
  24:../Dave/Generated/ADC_QUEUE/adc_queue_conf.c ****  *   Neither the name of the copyright holders nor the names of its contributors may be used to end
  25:../Dave/Generated/ADC_QUEUE/adc_queue_conf.c ****  *   products derived from this software without specific prior written permission.
  26:../Dave/Generated/ADC_QUEUE/adc_queue_conf.c ****  *
  27:../Dave/Generated/ADC_QUEUE/adc_queue_conf.c ****  * THIS SOFTWARE IS PROVIDED BY THE COPYRIGHT HOLDERS AND CONTRIBUTORS "AS IS" AND ANY EXPRESS OR I
  28:../Dave/Generated/ADC_QUEUE/adc_queue_conf.c ****  * INCLUDING, BUT NOT LIMITED TO, THE IMPLIED WARRANTIES OF MERCHANTABILITY AND FITNESS FOR A PARTI
  29:../Dave/Generated/ADC_QUEUE/adc_queue_conf.c ****  * DISCLAIMED. IN NO EVENT SHALL THE COPYRIGHT HOLDER OR CONTRIBUTORS BE LIABLE  FOR ANY DIRECT, IN
  30:../Dave/Generated/ADC_QUEUE/adc_queue_conf.c ****  * SPECIAL, EXEMPLARY, OR CONSEQUENTIAL DAMAGES (INCLUDING, BUT NOT LIMITED TO, PROCUREMENT OF SUBS
  31:../Dave/Generated/ADC_QUEUE/adc_queue_conf.c ****  * SERVICES; LOSS OF USE, DATA, OR PROFITS; OR BUSINESS INTERRUPTION) HOWEVER CAUSED AND ON ANY THE
  32:../Dave/Generated/ADC_QUEUE/adc_queue_conf.c ****  * WHETHER IN CONTRACT, STRICT LIABILITY,OR TORT (INCLUDING NEGLIGENCE OR OTHERWISE) ARISING IN ANY
  33:../Dave/Generated/ADC_QUEUE/adc_queue_conf.c ****  * USE OF THIS SOFTWARE, EVEN IF ADVISED OF THE POSSIBILITY OF SUCH DAMAGE.
  34:../Dave/Generated/ADC_QUEUE/adc_queue_conf.c ****  *
  35:../Dave/Generated/ADC_QUEUE/adc_queue_conf.c ****  * To improve the quality of the software, users are encouraged to share modifications, enhancement
  36:../Dave/Generated/ADC_QUEUE/adc_queue_conf.c ****  * with Infineon Technologies AG (dave@infineon.com).
  37:../Dave/Generated/ADC_QUEUE/adc_queue_conf.c ****  **************************************************************************************************
  38:../Dave/Generated/ADC_QUEUE/adc_queue_conf.c ****  *
  39:../Dave/Generated/ADC_QUEUE/adc_queue_conf.c ****  * Change History
  40:../Dave/Generated/ADC_QUEUE/adc_queue_conf.c ****  * --------------
  41:../Dave/Generated/ADC_QUEUE/adc_queue_conf.c ****  *
  42:../Dave/Generated/ADC_QUEUE/adc_queue_conf.c ****  * 2015-02-16:
  43:../Dave/Generated/ADC_QUEUE/adc_queue_conf.c ****  *     - Initial version for DAVEv4.<BR>
  44:../Dave/Generated/ADC_QUEUE/adc_queue_conf.c ****  *
  45:../Dave/Generated/ADC_QUEUE/adc_queue_conf.c ****  * 2015-04-27:
  46:../Dave/Generated/ADC_QUEUE/adc_queue_conf.c ****  *     - Optimized the ADC_QUEUE_AllEntriesInserted.<BR>
  47:../Dave/Generated/ADC_QUEUE/adc_queue_conf.c ****  *
  48:../Dave/Generated/ADC_QUEUE/adc_queue_conf.c ****  * 2015-06-20:
  49:../Dave/Generated/ADC_QUEUE/adc_queue_conf.c ****  *     - Updated the copyright section.<BR>
  50:../Dave/Generated/ADC_QUEUE/adc_queue_conf.c ****  *    
  51:../Dave/Generated/ADC_QUEUE/adc_queue_conf.c ****  * 2015-06-26:
  52:../Dave/Generated/ADC_QUEUE/adc_queue_conf.c ****  *     - Added flushing of all the queue entries before inserting to the Hardware buffer.<BR>
  53:../Dave/Generated/ADC_QUEUE/adc_queue_conf.c ****  *
  54:../Dave/Generated/ADC_QUEUE/adc_queue_conf.c ****  * 2015-07-09:
  55:../Dave/Generated/ADC_QUEUE/adc_queue_conf.c ****  *     - Documentation updated.<BR>
  56:../Dave/Generated/ADC_QUEUE/adc_queue_conf.c ****  *
  57:../Dave/Generated/ADC_QUEUE/adc_queue_conf.c ****  * 2015-07-31:
  58:../Dave/Generated/ADC_QUEUE/adc_queue_conf.c ****  *     - Updated the APP to support new devices.<BR>
  59:../Dave/Generated/ADC_QUEUE/adc_queue_conf.c ****  *
  60:../Dave/Generated/ADC_QUEUE/adc_queue_conf.c ****  * 2015-10-01:
  61:../Dave/Generated/ADC_QUEUE/adc_queue_conf.c ****  *     - Iclass signal added to the APP.<BR>
  62:../Dave/Generated/ADC_QUEUE/adc_queue_conf.c ****  *
  63:../Dave/Generated/ADC_QUEUE/adc_queue_conf.c ****  * 2015-10-08:
  64:../Dave/Generated/ADC_QUEUE/adc_queue_conf.c ****  *     - Added support for XMC4700/XMC4800 devices.<BR>
  65:../Dave/Generated/ADC_QUEUE/adc_queue_conf.c ****  *
  66:../Dave/Generated/ADC_QUEUE/adc_queue_conf.c ****  * 2015-12-15:     
  67:../Dave/Generated/ADC_QUEUE/adc_queue_conf.c ****  *          - Added support for XMC4300 devices.<BR>
  68:../Dave/Generated/ADC_QUEUE/adc_queue_conf.c ****  *          - Updated the APP to optimize the request source callback.<BR>
  69:../Dave/Generated/ADC_QUEUE/adc_queue_conf.c ****  *          - APIs touched are ADC_QUEUE_InsertQueueEntry(), ADC_QUEUE_ResetListContents(), 
  70:../Dave/Generated/ADC_QUEUE/adc_queue_conf.c ****  *            ADC_QUEUE_ReqSrcEventHandler().<BR>       
  71:../Dave/Generated/ADC_QUEUE/adc_queue_conf.c ****  *
  72:../Dave/Generated/ADC_QUEUE/adc_queue_conf.c ****  * 2016-01-19:
  73:../Dave/Generated/ADC_QUEUE/adc_queue_conf.c ****  *          - Added new APIs ADC_QUEUE_EnableArbitration() and ADC_QUEUE_DisableArbitration().<BR>
  74:../Dave/Generated/ADC_QUEUE/adc_queue_conf.c ****  *
  75:../Dave/Generated/ADC_QUEUE/adc_queue_conf.c ****  * 2016-04-03:
  76:../Dave/Generated/ADC_QUEUE/adc_queue_conf.c ****  *          - Total conversion time now includes post calibration time as well for XMC1x.<BR>
  77:../Dave/Generated/ADC_QUEUE/adc_queue_conf.c ****  *
  78:../Dave/Generated/ADC_QUEUE/adc_queue_conf.c ****  * 2016-08-18:
  79:../Dave/Generated/ADC_QUEUE/adc_queue_conf.c ****  *     - Minimum sample time at low frequencies changed to incorporate Errata ADC_AI.H006 and ADC_A
  80:../Dave/Generated/ADC_QUEUE/adc_queue_conf.c ****  *
  81:../Dave/Generated/ADC_QUEUE/adc_queue_conf.c ****  * @endcond
  82:../Dave/Generated/ADC_QUEUE/adc_queue_conf.c ****  *
  83:../Dave/Generated/ADC_QUEUE/adc_queue_conf.c ****  */
  84:../Dave/Generated/ADC_QUEUE/adc_queue_conf.c **** 
  85:../Dave/Generated/ADC_QUEUE/adc_queue_conf.c **** /**************************************************************************************************
  86:../Dave/Generated/ADC_QUEUE/adc_queue_conf.c ****  * HEADER FILES                                                                                    
  87:../Dave/Generated/ADC_QUEUE/adc_queue_conf.c ****  **************************************************************************************************
  88:../Dave/Generated/ADC_QUEUE/adc_queue_conf.c **** #include "adc_queue.h"
  89:../Dave/Generated/ADC_QUEUE/adc_queue_conf.c **** 
  90:../Dave/Generated/ADC_QUEUE/adc_queue_conf.c **** /**************************************************************************************************
  91:../Dave/Generated/ADC_QUEUE/adc_queue_conf.c ****  * DATA STRUCTURES
  92:../Dave/Generated/ADC_QUEUE/adc_queue_conf.c ****  **************************************************************************************************
  93:../Dave/Generated/ADC_QUEUE/adc_queue_conf.c **** /**
  94:../Dave/Generated/ADC_QUEUE/adc_queue_conf.c ****  * @ingroup ADC_QUEUE_datastructures
  95:../Dave/Generated/ADC_QUEUE/adc_queue_conf.c ****  * @{
  96:../Dave/Generated/ADC_QUEUE/adc_queue_conf.c ****  */
  97:../Dave/Generated/ADC_QUEUE/adc_queue_conf.c **** 
  98:../Dave/Generated/ADC_QUEUE/adc_queue_conf.c **** /**
  99:../Dave/Generated/ADC_QUEUE/adc_queue_conf.c ****  * ADC_QUEUE ISR Handle for ADC_QUEUE_0
 100:../Dave/Generated/ADC_QUEUE/adc_queue_conf.c ****  */
 101:../Dave/Generated/ADC_QUEUE/adc_queue_conf.c **** const ADC_QUEUE_ISR_t ADC_QUEUE_0_reqsrc_config_0 =
 102:../Dave/Generated/ADC_QUEUE/adc_queue_conf.c **** {
 103:../Dave/Generated/ADC_QUEUE/adc_queue_conf.c ****   .node_id          = 0U,
 104:../Dave/Generated/ADC_QUEUE/adc_queue_conf.c ****   .priority         = 0U,
 105:../Dave/Generated/ADC_QUEUE/adc_queue_conf.c ****   .sub_priority     = 0U,
 106:../Dave/Generated/ADC_QUEUE/adc_queue_conf.c ****   .interrupt_enable = (bool)false 
 107:../Dave/Generated/ADC_QUEUE/adc_queue_conf.c **** };
 108:../Dave/Generated/ADC_QUEUE/adc_queue_conf.c **** 
 109:../Dave/Generated/ADC_QUEUE/adc_queue_conf.c **** /**
 110:../Dave/Generated/ADC_QUEUE/adc_queue_conf.c ****  * ADC QUEUE LLD Handle for configuring the ADC_QUEUE_0
 111:../Dave/Generated/ADC_QUEUE/adc_queue_conf.c ****  */
 112:../Dave/Generated/ADC_QUEUE/adc_queue_conf.c **** const XMC_VADC_QUEUE_CONFIG_t ADC_QUEUE_0_init_config_0 =
 113:../Dave/Generated/ADC_QUEUE/adc_queue_conf.c **** {
 114:../Dave/Generated/ADC_QUEUE/adc_queue_conf.c ****   .conv_start_mode  = (uint32_t) XMC_VADC_STARTMODE_WFS, 		/* Conversion start mode WFS/CIR/CNR*/
 115:../Dave/Generated/ADC_QUEUE/adc_queue_conf.c ****   .req_src_priority = (uint32_t) XMC_VADC_GROUP_RS_PRIORITY_0, /*The queue request source priority 
 116:../Dave/Generated/ADC_QUEUE/adc_queue_conf.c ****   .trigger_signal   = (uint32_t) XMC_VADC_REQ_TR_A, 			/*If trigger needed the signal input*/
 117:../Dave/Generated/ADC_QUEUE/adc_queue_conf.c ****   .trigger_edge     = (uint32_t) XMC_VADC_TRIGGER_EDGE_NONE,   /*Trigger edge needed if trigger ena
 118:../Dave/Generated/ADC_QUEUE/adc_queue_conf.c ****   .gate_signal      = (uint32_t) XMC_VADC_REQ_GT_A,            /*If gating needed the signal input*
 119:../Dave/Generated/ADC_QUEUE/adc_queue_conf.c ****   .timer_mode       = (uint32_t) 0,                            /* Disabled equidistant sampling*/
 120:../Dave/Generated/ADC_QUEUE/adc_queue_conf.c ****   .external_trigger = (uint32_t) 0 						/*External trigger Enabled/Disabled*/  
 121:../Dave/Generated/ADC_QUEUE/adc_queue_conf.c **** };
 122:../Dave/Generated/ADC_QUEUE/adc_queue_conf.c **** 
 123:../Dave/Generated/ADC_QUEUE/adc_queue_conf.c **** /**
 124:../Dave/Generated/ADC_QUEUE/adc_queue_conf.c ****  * ADC_QUEUE Handle for configuring the ADC_QUEUE_0
 125:../Dave/Generated/ADC_QUEUE/adc_queue_conf.c ****  */
 126:../Dave/Generated/ADC_QUEUE/adc_queue_conf.c **** ADC_QUEUE_t ADC_QUEUE_0 =
 127:../Dave/Generated/ADC_QUEUE/adc_queue_conf.c **** {
 128:../Dave/Generated/ADC_QUEUE/adc_queue_conf.c ****   .iclass_config_handle = {
 129:../Dave/Generated/ADC_QUEUE/adc_queue_conf.c ****                            .sample_time_std_conv= (uint32_t) 0, /*The required STCS value.*/
 130:../Dave/Generated/ADC_QUEUE/adc_queue_conf.c ****                            .conversion_mode_standard        = (uint32_t) XMC_VADC_CONVMODE_12BIT, /
 131:../Dave/Generated/ADC_QUEUE/adc_queue_conf.c ****                           },
 132:../Dave/Generated/ADC_QUEUE/adc_queue_conf.c ****   .group_handle         = (XMC_VADC_GROUP_t*)(void*)VADC_G0, /* Group pointer for ADC_QUEUE_0*/
 133:../Dave/Generated/ADC_QUEUE/adc_queue_conf.c ****   .queue_config_handle  = (XMC_VADC_QUEUE_CONFIG_t*) &ADC_QUEUE_0_init_config_0, /* Queue configura
 134:../Dave/Generated/ADC_QUEUE/adc_queue_conf.c ****   .global_handle        = (GLOBAL_ADC_t *) &GLOBAL_ADC_0, /*The GLOBAL_ADC App handle*/ 
 135:../Dave/Generated/ADC_QUEUE/adc_queue_conf.c ****   .rs_intr_handle       = (ADC_QUEUE_ISR_t*) &ADC_QUEUE_0_reqsrc_config_0, /* The request source in
 136:../Dave/Generated/ADC_QUEUE/adc_queue_conf.c ****   .gating_mode          = XMC_VADC_GATEMODE_IGNORE,     /*Gating edge needed if gate enabled*/
 137:../Dave/Generated/ADC_QUEUE/adc_queue_conf.c ****   .srv_req_node         = XMC_VADC_SR_GROUP_SR0, /*Service Request line for Request source Event */
 138:../Dave/Generated/ADC_QUEUE/adc_queue_conf.c ****   .init_status			= ADC_QUEUE_UNINITIALIZED, /* ADC_QUEUE_0 INIT status*/
 139:../Dave/Generated/ADC_QUEUE/adc_queue_conf.c ****   .instance_number      = (uint8_t) 0,   /* APP Instance number for ADC_QUEUE_0*/
 140:../Dave/Generated/ADC_QUEUE/adc_queue_conf.c ****   .iclass_num           = (uint8_t) 0,   /* The selected ICLASS configuration for ADC_QUEUE_0*/
 141:../Dave/Generated/ADC_QUEUE/adc_queue_conf.c ****   .group_index          = (uint8_t) 0    /* The Group index for ADC_QUEUE_0*/
 142:../Dave/Generated/ADC_QUEUE/adc_queue_conf.c **** };
 143:../Dave/Generated/ADC_QUEUE/adc_queue_conf.c **** 
 144:../Dave/Generated/ADC_QUEUE/adc_queue_conf.c **** ADC_QUEUE_ENTRY_t adc_queue_list_ch_index_0[ADC_QUEUE_NUM_CHANNELS];
 145:../Dave/Generated/ADC_QUEUE/adc_queue_conf.c **** ADC_QUEUE_ENTRY_t adc_queue_list_pos_index_0[ADC_QUEUE_NUM_CHANNELS];
 146:../Dave/Generated/ADC_QUEUE/adc_queue_conf.c **** /**
 147:../Dave/Generated/ADC_QUEUE/adc_queue_conf.c ****  *@}
 148:../Dave/Generated/ADC_QUEUE/adc_queue_conf.c ****  */
 149:../Dave/Generated/ADC_QUEUE/adc_queue_conf.c **** 
 150:../Dave/Generated/ADC_QUEUE/adc_queue_conf.c **** 
 151:../Dave/Generated/ADC_QUEUE/adc_queue_conf.c **** /**
 152:../Dave/Generated/ADC_QUEUE/adc_queue_conf.c ****  * This function invokes the Request source handler for ADC_QUEUE_0
 153:../Dave/Generated/ADC_QUEUE/adc_queue_conf.c ****  */
 154:../Dave/Generated/ADC_QUEUE/adc_queue_conf.c **** void ADC_QUEUE_0_ReqSrcEventHandler(void)
 155:../Dave/Generated/ADC_QUEUE/adc_queue_conf.c **** {
  65              	 .loc 1 155 0
  66              	 .cfi_startproc
  67              	 
  68              	 
  69 0000 80B5     	 push {r7,lr}
  70              	.LCFI0:
  71              	 .cfi_def_cfa_offset 8
  72              	 .cfi_offset 7,-8
  73              	 .cfi_offset 14,-4
  74 0002 00AF     	 add r7,sp,#0
  75              	.LCFI1:
  76              	 .cfi_def_cfa_register 7
 156:../Dave/Generated/ADC_QUEUE/adc_queue_conf.c ****   ADC_QUEUE_ReqSrcEventHandler(&ADC_QUEUE_0);
  77              	 .loc 1 156 0
  78 0004 0148     	 ldr r0,.L2
  79 0006 FFF7FEFF 	 bl ADC_QUEUE_ReqSrcEventHandler
 157:../Dave/Generated/ADC_QUEUE/adc_queue_conf.c **** }
  80              	 .loc 1 157 0
  81 000a 80BD     	 pop {r7,pc}
  82              	.L3:
  83              	 .align 2
  84              	.L2:
  85 000c 00000000 	 .word ADC_QUEUE_0
  86              	 .cfi_endproc
  87              	.LFE255:
  89              	 .section .text.ADC_QUEUE_lInitializeListToDefaults,"ax",%progbits
  90              	 .align 2
  91              	 .global ADC_QUEUE_lInitializeListToDefaults
  92              	 .thumb
  93              	 .thumb_func
  95              	ADC_QUEUE_lInitializeListToDefaults:
  96              	.LFB256:
 158:../Dave/Generated/ADC_QUEUE/adc_queue_conf.c **** 
 159:../Dave/Generated/ADC_QUEUE/adc_queue_conf.c **** 
 160:../Dave/Generated/ADC_QUEUE/adc_queue_conf.c **** 
 161:../Dave/Generated/ADC_QUEUE/adc_queue_conf.c **** /* API generated to initialise list pointers and clear its contents*/
 162:../Dave/Generated/ADC_QUEUE/adc_queue_conf.c **** void ADC_QUEUE_lInitializeListToDefaults(uint8_t instance_num)
 163:../Dave/Generated/ADC_QUEUE/adc_queue_conf.c **** {
  97              	 .loc 1 163 0
  98              	 .cfi_startproc
  99              	 
 100              	 
 101 0000 80B5     	 push {r7,lr}
 102              	.LCFI2:
 103              	 .cfi_def_cfa_offset 8
 104              	 .cfi_offset 7,-8
 105              	 .cfi_offset 14,-4
 106 0002 82B0     	 sub sp,sp,#8
 107              	.LCFI3:
 108              	 .cfi_def_cfa_offset 16
 109 0004 00AF     	 add r7,sp,#0
 110              	.LCFI4:
 111              	 .cfi_def_cfa_register 7
 112 0006 0346     	 mov r3,r0
 113 0008 FB71     	 strb r3,[r7,#7]
 164:../Dave/Generated/ADC_QUEUE/adc_queue_conf.c **** 
 165:../Dave/Generated/ADC_QUEUE/adc_queue_conf.c ****   /* Initialise list pointers of APP Instance- ADC_QUEUE_0 */
 166:../Dave/Generated/ADC_QUEUE/adc_queue_conf.c ****   adc_queue_list_ptrs[0][0] = adc_queue_list_ch_index_0;
 114              	 .loc 1 166 0
 115 000a 064B     	 ldr r3,.L5
 116 000c 064A     	 ldr r2,.L5+4
 117 000e 1A60     	 str r2,[r3]
 167:../Dave/Generated/ADC_QUEUE/adc_queue_conf.c ****   adc_queue_list_ptrs[0][1] = adc_queue_list_pos_index_0;
 118              	 .loc 1 167 0
 119 0010 044B     	 ldr r3,.L5
 120 0012 064A     	 ldr r2,.L5+8
 121 0014 5A60     	 str r2,[r3,#4]
 168:../Dave/Generated/ADC_QUEUE/adc_queue_conf.c ****  
 169:../Dave/Generated/ADC_QUEUE/adc_queue_conf.c ****   /* Reset channels */
 170:../Dave/Generated/ADC_QUEUE/adc_queue_conf.c ****   ADC_QUEUE_ResetListContents(instance_num);
 122              	 .loc 1 170 0
 123 0016 FB79     	 ldrb r3,[r7,#7]
 124 0018 1846     	 mov r0,r3
 125 001a FFF7FEFF 	 bl ADC_QUEUE_ResetListContents
 171:../Dave/Generated/ADC_QUEUE/adc_queue_conf.c **** }
 126              	 .loc 1 171 0
 127 001e 0837     	 adds r7,r7,#8
 128              	.LCFI5:
 129              	 .cfi_def_cfa_offset 8
 130 0020 BD46     	 mov sp,r7
 131              	.LCFI6:
 132              	 .cfi_def_cfa_register 13
 133              	 
 134 0022 80BD     	 pop {r7,pc}
 135              	.L6:
 136              	 .align 2
 137              	.L5:
 138 0024 00000000 	 .word adc_queue_list_ptrs
 139 0028 00000000 	 .word adc_queue_list_ch_index_0
 140 002c 00000000 	 .word adc_queue_list_pos_index_0
 141              	 .cfi_endproc
 142              	.LFE256:
 144              	 .text
 145              	.Letext0:
 146              	 .file 2 "c:\\infineon\\tools\\dave ide\\4.5.0.202105191637\\eclipse\\arm-gcc-49\\arm-none-eabi\\include\\machine\\_default_types.h"
 147              	 .file 3 "c:\\infineon\\tools\\dave ide\\4.5.0.202105191637\\eclipse\\arm-gcc-49\\arm-none-eabi\\include\\stdint.h"
 148              	 .file 4 "C:/Users/Rui Mendes/Desktop/DAVE/_Naive/_ForTesting/Libraries/CMSIS/Infineon/XMC4500_series/Include/XMC4500.h"
 149              	 .file 5 "C:/Users/Rui Mendes/Desktop/DAVE/_Naive/_ForTesting/Libraries/XMCLib/inc/xmc_vadc.h"
 150              	 .file 6 "C:/Users/Rui Mendes/Desktop/DAVE/_Naive/_ForTesting/Dave/Generated/GLOBAL_ADC/global_adc.h"
 151              	 .file 7 "../Dave/Generated/ADC_QUEUE/adc_queue.h"
 152              	 .file 8 "C:/Users/Rui Mendes/Desktop/DAVE/_Naive/_ForTesting/Libraries/CMSIS/Include/cmsis_gcc.h"
 153              	 .file 9 "C:/Users/Rui Mendes/Desktop/DAVE/_Naive/_ForTesting/Libraries/CMSIS/Include/core_cm4.h"
 154              	 .file 10 "C:/Users/Rui Mendes/Desktop/DAVE/_Naive/_ForTesting/Libraries/CMSIS/Infineon/XMC4500_series/Include/system_XMC4500.h"
 155              	 .file 11 "C:/Users/Rui Mendes/Desktop/DAVE/_Naive/_ForTesting/Dave/Generated/GLOBAL_ADC/global_adc_extern.h"
 156              	 .file 12 "../Dave/Generated/ADC_QUEUE/adc_queue_extern.h"