   1              	 .syntax unified
   2              	 .cpu cortex-m4
   3              	 .eabi_attribute 27,3
   4              	 .fpu fpv4-sp-d16
   5              	 .eabi_attribute 20,1
   6              	 .eabi_attribute 21,1
   7              	 .eabi_attribute 23,3
   8              	 .eabi_attribute 24,1
   9              	 .eabi_attribute 25,1
  10              	 .eabi_attribute 26,1
  11              	 .eabi_attribute 30,6
  12              	 .eabi_attribute 34,1
  13              	 .eabi_attribute 18,4
  14              	 .thumb
  15              	 .file "arm_sin_q15.c"
  16              	 .text
  17              	.Ltext0:
  18              	 .cfi_sections .debug_frame
  19              	 .section .text.arm_sin_q15,"ax",%progbits
  20              	 .align 2
  21              	 .global arm_sin_q15
  22              	 .thumb
  23              	 .thumb_func
  25              	arm_sin_q15:
  26              	.LFB149:
  27              	 .file 1 "../Dave/Generated/CMSIS_DSP/Source/FastMathFunctions/arm_sin_q15.c"
   1:../Dave/Generated/CMSIS_DSP/Source/FastMathFunctions/arm_sin_q15.c **** /* ----------------------------------------------------------------------
   2:../Dave/Generated/CMSIS_DSP/Source/FastMathFunctions/arm_sin_q15.c ****  * Project:      CMSIS DSP Library
   3:../Dave/Generated/CMSIS_DSP/Source/FastMathFunctions/arm_sin_q15.c ****  * Title:        arm_sin_q15.c
   4:../Dave/Generated/CMSIS_DSP/Source/FastMathFunctions/arm_sin_q15.c ****  * Description:  Fast sine calculation for Q15 values
   5:../Dave/Generated/CMSIS_DSP/Source/FastMathFunctions/arm_sin_q15.c ****  *
   6:../Dave/Generated/CMSIS_DSP/Source/FastMathFunctions/arm_sin_q15.c ****  * $Date:        18. March 2019
   7:../Dave/Generated/CMSIS_DSP/Source/FastMathFunctions/arm_sin_q15.c ****  * $Revision:    V1.6.0
   8:../Dave/Generated/CMSIS_DSP/Source/FastMathFunctions/arm_sin_q15.c ****  *
   9:../Dave/Generated/CMSIS_DSP/Source/FastMathFunctions/arm_sin_q15.c ****  * Target Processor: Cortex-M cores
  10:../Dave/Generated/CMSIS_DSP/Source/FastMathFunctions/arm_sin_q15.c ****  * -------------------------------------------------------------------- */
  11:../Dave/Generated/CMSIS_DSP/Source/FastMathFunctions/arm_sin_q15.c **** /*
  12:../Dave/Generated/CMSIS_DSP/Source/FastMathFunctions/arm_sin_q15.c ****  * Copyright (C) 2010-2019 ARM Limited or its affiliates. All rights reserved.
  13:../Dave/Generated/CMSIS_DSP/Source/FastMathFunctions/arm_sin_q15.c ****  *
  14:../Dave/Generated/CMSIS_DSP/Source/FastMathFunctions/arm_sin_q15.c ****  * SPDX-License-Identifier: Apache-2.0
  15:../Dave/Generated/CMSIS_DSP/Source/FastMathFunctions/arm_sin_q15.c ****  *
  16:../Dave/Generated/CMSIS_DSP/Source/FastMathFunctions/arm_sin_q15.c ****  * Licensed under the Apache License, Version 2.0 (the License); you may
  17:../Dave/Generated/CMSIS_DSP/Source/FastMathFunctions/arm_sin_q15.c ****  * not use this file except in compliance with the License.
  18:../Dave/Generated/CMSIS_DSP/Source/FastMathFunctions/arm_sin_q15.c ****  * You may obtain a copy of the License at
  19:../Dave/Generated/CMSIS_DSP/Source/FastMathFunctions/arm_sin_q15.c ****  *
  20:../Dave/Generated/CMSIS_DSP/Source/FastMathFunctions/arm_sin_q15.c ****  * www.apache.org/licenses/LICENSE-2.0
  21:../Dave/Generated/CMSIS_DSP/Source/FastMathFunctions/arm_sin_q15.c ****  *
  22:../Dave/Generated/CMSIS_DSP/Source/FastMathFunctions/arm_sin_q15.c ****  * Unless required by applicable law or agreed to in writing, software
  23:../Dave/Generated/CMSIS_DSP/Source/FastMathFunctions/arm_sin_q15.c ****  * distributed under the License is distributed on an AS IS BASIS, WITHOUT
  24:../Dave/Generated/CMSIS_DSP/Source/FastMathFunctions/arm_sin_q15.c ****  * WARRANTIES OR CONDITIONS OF ANY KIND, either express or implied.
  25:../Dave/Generated/CMSIS_DSP/Source/FastMathFunctions/arm_sin_q15.c ****  * See the License for the specific language governing permissions and
  26:../Dave/Generated/CMSIS_DSP/Source/FastMathFunctions/arm_sin_q15.c ****  * limitations under the License.
  27:../Dave/Generated/CMSIS_DSP/Source/FastMathFunctions/arm_sin_q15.c ****  */
  28:../Dave/Generated/CMSIS_DSP/Source/FastMathFunctions/arm_sin_q15.c **** 
  29:../Dave/Generated/CMSIS_DSP/Source/FastMathFunctions/arm_sin_q15.c **** #include "CMSIS_DSP/cmsis_dsp.h"
  30:../Dave/Generated/CMSIS_DSP/Source/FastMathFunctions/arm_sin_q15.c **** #include "CMSIS_DSP/Include/arm_common_tables.h"
  31:../Dave/Generated/CMSIS_DSP/Source/FastMathFunctions/arm_sin_q15.c **** 
  32:../Dave/Generated/CMSIS_DSP/Source/FastMathFunctions/arm_sin_q15.c **** /**
  33:../Dave/Generated/CMSIS_DSP/Source/FastMathFunctions/arm_sin_q15.c ****   @ingroup groupFastMath
  34:../Dave/Generated/CMSIS_DSP/Source/FastMathFunctions/arm_sin_q15.c ****  */
  35:../Dave/Generated/CMSIS_DSP/Source/FastMathFunctions/arm_sin_q15.c **** 
  36:../Dave/Generated/CMSIS_DSP/Source/FastMathFunctions/arm_sin_q15.c **** /**
  37:../Dave/Generated/CMSIS_DSP/Source/FastMathFunctions/arm_sin_q15.c ****   @addtogroup sin
  38:../Dave/Generated/CMSIS_DSP/Source/FastMathFunctions/arm_sin_q15.c ****   @{
  39:../Dave/Generated/CMSIS_DSP/Source/FastMathFunctions/arm_sin_q15.c ****  */
  40:../Dave/Generated/CMSIS_DSP/Source/FastMathFunctions/arm_sin_q15.c **** 
  41:../Dave/Generated/CMSIS_DSP/Source/FastMathFunctions/arm_sin_q15.c **** /**
  42:../Dave/Generated/CMSIS_DSP/Source/FastMathFunctions/arm_sin_q15.c ****   @brief         Fast approximation to the trigonometric sine function for Q15 data.
  43:../Dave/Generated/CMSIS_DSP/Source/FastMathFunctions/arm_sin_q15.c ****   @param[in]     x  Scaled input value in radians
  44:../Dave/Generated/CMSIS_DSP/Source/FastMathFunctions/arm_sin_q15.c ****   @return        sin(x)
  45:../Dave/Generated/CMSIS_DSP/Source/FastMathFunctions/arm_sin_q15.c **** 
  46:../Dave/Generated/CMSIS_DSP/Source/FastMathFunctions/arm_sin_q15.c ****   The Q15 input value is in the range [0 +0.9999] and is mapped to a radian value in the range [0 2
  47:../Dave/Generated/CMSIS_DSP/Source/FastMathFunctions/arm_sin_q15.c ****  */
  48:../Dave/Generated/CMSIS_DSP/Source/FastMathFunctions/arm_sin_q15.c **** 
  49:../Dave/Generated/CMSIS_DSP/Source/FastMathFunctions/arm_sin_q15.c **** q15_t arm_sin_q15(
  50:../Dave/Generated/CMSIS_DSP/Source/FastMathFunctions/arm_sin_q15.c ****   q15_t x)
  51:../Dave/Generated/CMSIS_DSP/Source/FastMathFunctions/arm_sin_q15.c **** {
  28              	 .loc 1 51 0
  29              	 .cfi_startproc
  30              	 
  31              	 
  32              	 
  33 0000 80B4     	 push {r7}
  34              	.LCFI0:
  35              	 .cfi_def_cfa_offset 4
  36              	 .cfi_offset 7,-4
  37 0002 87B0     	 sub sp,sp,#28
  38              	.LCFI1:
  39              	 .cfi_def_cfa_offset 32
  40 0004 00AF     	 add r7,sp,#0
  41              	.LCFI2:
  42              	 .cfi_def_cfa_register 7
  43 0006 0346     	 mov r3,r0
  44 0008 FB80     	 strh r3,[r7,#6]
  52:../Dave/Generated/CMSIS_DSP/Source/FastMathFunctions/arm_sin_q15.c ****   q15_t sinVal;                                  /* Temporary input, output variables */
  53:../Dave/Generated/CMSIS_DSP/Source/FastMathFunctions/arm_sin_q15.c ****   int32_t index;                                 /* Index variable */
  54:../Dave/Generated/CMSIS_DSP/Source/FastMathFunctions/arm_sin_q15.c ****   q15_t a, b;                                    /* Two nearest output values */
  55:../Dave/Generated/CMSIS_DSP/Source/FastMathFunctions/arm_sin_q15.c ****   q15_t fract;                                   /* Temporary values for fractional values */
  56:../Dave/Generated/CMSIS_DSP/Source/FastMathFunctions/arm_sin_q15.c **** 
  57:../Dave/Generated/CMSIS_DSP/Source/FastMathFunctions/arm_sin_q15.c ****   
  58:../Dave/Generated/CMSIS_DSP/Source/FastMathFunctions/arm_sin_q15.c ****   if (x < 0)
  45              	 .loc 1 58 0
  46 000a B7F90630 	 ldrsh r3,[r7,#6]
  47 000e 002B     	 cmp r3,#0
  48 0010 04DA     	 bge .L2
  59:../Dave/Generated/CMSIS_DSP/Source/FastMathFunctions/arm_sin_q15.c ****   { /* convert negative numbers to corresponding positive ones */
  60:../Dave/Generated/CMSIS_DSP/Source/FastMathFunctions/arm_sin_q15.c ****     x = (uint16_t)x + 0x8000;
  49              	 .loc 1 60 0
  50 0012 FB88     	 ldrh r3,[r7,#6]
  51 0014 A3F50043 	 sub r3,r3,#32768
  52 0018 9BB2     	 uxth r3,r3
  53 001a FB80     	 strh r3,[r7,#6]
  54              	.L2:
  61:../Dave/Generated/CMSIS_DSP/Source/FastMathFunctions/arm_sin_q15.c ****   }
  62:../Dave/Generated/CMSIS_DSP/Source/FastMathFunctions/arm_sin_q15.c **** 
  63:../Dave/Generated/CMSIS_DSP/Source/FastMathFunctions/arm_sin_q15.c ****   /* Calculate the nearest index */
  64:../Dave/Generated/CMSIS_DSP/Source/FastMathFunctions/arm_sin_q15.c ****   index = (uint32_t)x >> FAST_MATH_Q15_SHIFT;
  55              	 .loc 1 64 0
  56 001c B7F90630 	 ldrsh r3,[r7,#6]
  57 0020 9B09     	 lsrs r3,r3,#6
  58 0022 7B61     	 str r3,[r7,#20]
  65:../Dave/Generated/CMSIS_DSP/Source/FastMathFunctions/arm_sin_q15.c **** 
  66:../Dave/Generated/CMSIS_DSP/Source/FastMathFunctions/arm_sin_q15.c ****   /* Calculation of fractional value */
  67:../Dave/Generated/CMSIS_DSP/Source/FastMathFunctions/arm_sin_q15.c ****   fract = (x - (index << FAST_MATH_Q15_SHIFT)) << 9;
  59              	 .loc 1 67 0
  60 0024 B7F90620 	 ldrsh r2,[r7,#6]
  61 0028 7B69     	 ldr r3,[r7,#20]
  62 002a 9B01     	 lsls r3,r3,#6
  63 002c D31A     	 subs r3,r2,r3
  64 002e 5B02     	 lsls r3,r3,#9
  65 0030 7B82     	 strh r3,[r7,#18]
  68:../Dave/Generated/CMSIS_DSP/Source/FastMathFunctions/arm_sin_q15.c **** 
  69:../Dave/Generated/CMSIS_DSP/Source/FastMathFunctions/arm_sin_q15.c ****   /* Read two nearest values of input value from the sin table */
  70:../Dave/Generated/CMSIS_DSP/Source/FastMathFunctions/arm_sin_q15.c ****   a = sinTable_q15[index];
  66              	 .loc 1 70 0
  67 0032 164A     	 ldr r2,.L4
  68 0034 7B69     	 ldr r3,[r7,#20]
  69 0036 32F81330 	 ldrh r3,[r2,r3,lsl#1]
  70 003a 3B82     	 strh r3,[r7,#16]
  71:../Dave/Generated/CMSIS_DSP/Source/FastMathFunctions/arm_sin_q15.c ****   b = sinTable_q15[index+1];
  71              	 .loc 1 71 0
  72 003c 7B69     	 ldr r3,[r7,#20]
  73 003e 0133     	 adds r3,r3,#1
  74 0040 124A     	 ldr r2,.L4
  75 0042 32F81330 	 ldrh r3,[r2,r3,lsl#1]
  76 0046 FB81     	 strh r3,[r7,#14]
  72:../Dave/Generated/CMSIS_DSP/Source/FastMathFunctions/arm_sin_q15.c **** 
  73:../Dave/Generated/CMSIS_DSP/Source/FastMathFunctions/arm_sin_q15.c ****   /* Linear interpolation process */
  74:../Dave/Generated/CMSIS_DSP/Source/FastMathFunctions/arm_sin_q15.c ****   sinVal = (q31_t) (0x8000 - fract) * a >> 16;
  77              	 .loc 1 74 0
  78 0048 B7F91230 	 ldrsh r3,[r7,#18]
  79 004c C3F50043 	 rsb r3,r3,#32768
  80 0050 B7F91020 	 ldrsh r2,[r7,#16]
  81 0054 02FB03F3 	 mul r3,r2,r3
  82 0058 1B14     	 asrs r3,r3,#16
  83 005a BB81     	 strh r3,[r7,#12]
  75:../Dave/Generated/CMSIS_DSP/Source/FastMathFunctions/arm_sin_q15.c ****   sinVal = (q15_t) ((((q31_t) sinVal << 16) + ((q31_t) fract * b)) >> 16);
  84              	 .loc 1 75 0
  85 005c B7F90C30 	 ldrsh r3,[r7,#12]
  86 0060 1A04     	 lsls r2,r3,#16
  87 0062 B7F91230 	 ldrsh r3,[r7,#18]
  88 0066 B7F90E10 	 ldrsh r1,[r7,#14]
  89 006a 01FB03F3 	 mul r3,r1,r3
  90 006e 1344     	 add r3,r3,r2
  91 0070 1B14     	 asrs r3,r3,#16
  92 0072 BB81     	 strh r3,[r7,#12]
  76:../Dave/Generated/CMSIS_DSP/Source/FastMathFunctions/arm_sin_q15.c **** 
  77:../Dave/Generated/CMSIS_DSP/Source/FastMathFunctions/arm_sin_q15.c ****   /* Return output value */
  78:../Dave/Generated/CMSIS_DSP/Source/FastMathFunctions/arm_sin_q15.c ****   return (sinVal << 1);
  93              	 .loc 1 78 0
  94 0074 B7F90C30 	 ldrsh r3,[r7,#12]
  95 0078 5B00     	 lsls r3,r3,#1
  96 007a 9BB2     	 uxth r3,r3
  97 007c 1BB2     	 sxth r3,r3
  79:../Dave/Generated/CMSIS_DSP/Source/FastMathFunctions/arm_sin_q15.c **** }
  98              	 .loc 1 79 0
  99 007e 1846     	 mov r0,r3
 100 0080 1C37     	 adds r7,r7,#28
 101              	.LCFI3:
 102              	 .cfi_def_cfa_offset 4
 103 0082 BD46     	 mov sp,r7
 104              	.LCFI4:
 105              	 .cfi_def_cfa_register 13
 106              	 
 107 0084 5DF8047B 	 ldr r7,[sp],#4
 108              	.LCFI5:
 109              	 .cfi_restore 7
 110              	 .cfi_def_cfa_offset 0
 111 0088 7047     	 bx lr
 112              	.L5:
 113 008a 00BF     	 .align 2
 114              	.L4:
 115 008c 00000000 	 .word sinTable_q15
 116              	 .cfi_endproc
 117              	.LFE149:
 119              	 .text
 120              	.Letext0:
 121              	 .file 2 "c:\\infineon\\tools\\dave ide\\4.5.0.202105191637\\eclipse\\arm-gcc-49\\arm-none-eabi\\include\\machine\\_default_types.h"
 122              	 .file 3 "c:\\infineon\\tools\\dave ide\\4.5.0.202105191637\\eclipse\\arm-gcc-49\\arm-none-eabi\\include\\stdint.h"
 123              	 .file 4 "C:/Users/Rui Mendes/Desktop/DAVE/_Naive/_ForTesting/Dave/Generated/CMSIS_DSP/Include/arm_math.h"
 124              	 .file 5 "C:/Users/Rui Mendes/Desktop/DAVE/_Naive/_ForTesting/Libraries/CMSIS/Include/cmsis_gcc.h"
 125              	 .file 6 "C:/Users/Rui Mendes/Desktop/DAVE/_Naive/_ForTesting/Dave/Generated/CMSIS_DSP/Include/arm_common_tables.h"