   1              	 .syntax unified
   2              	 .cpu cortex-m4
   3              	 .eabi_attribute 27,3
   4              	 .fpu fpv4-sp-d16
   5              	 .eabi_attribute 20,1
   6              	 .eabi_attribute 21,1
   7              	 .eabi_attribute 23,3
   8              	 .eabi_attribute 24,1
   9              	 .eabi_attribute 25,1
  10              	 .eabi_attribute 26,1
  11              	 .eabi_attribute 30,6
  12              	 .eabi_attribute 34,1
  13              	 .eabi_attribute 18,4
  14              	 .thumb
  15              	 .file "arm_cos_f32.c"
  16              	 .text
  17              	.Ltext0:
  18              	 .cfi_sections .debug_frame
  19              	 .section .text.arm_cos_f32,"ax",%progbits
  20              	 .align 2
  21              	 .global arm_cos_f32
  22              	 .thumb
  23              	 .thumb_func
  25              	arm_cos_f32:
  26              	.LFB149:
  27              	 .file 1 "../Dave/Generated/CMSIS_DSP/Source/FastMathFunctions/arm_cos_f32.c"
   1:../Dave/Generated/CMSIS_DSP/Source/FastMathFunctions/arm_cos_f32.c **** /* ----------------------------------------------------------------------
   2:../Dave/Generated/CMSIS_DSP/Source/FastMathFunctions/arm_cos_f32.c ****  * Project:      CMSIS DSP Library
   3:../Dave/Generated/CMSIS_DSP/Source/FastMathFunctions/arm_cos_f32.c ****  * Title:        arm_cos_f32.c
   4:../Dave/Generated/CMSIS_DSP/Source/FastMathFunctions/arm_cos_f32.c ****  * Description:  Fast cosine calculation for floating-point values
   5:../Dave/Generated/CMSIS_DSP/Source/FastMathFunctions/arm_cos_f32.c ****  *
   6:../Dave/Generated/CMSIS_DSP/Source/FastMathFunctions/arm_cos_f32.c ****  * $Date:        18. March 2019
   7:../Dave/Generated/CMSIS_DSP/Source/FastMathFunctions/arm_cos_f32.c ****  * $Revision:    V1.6.0
   8:../Dave/Generated/CMSIS_DSP/Source/FastMathFunctions/arm_cos_f32.c ****  *
   9:../Dave/Generated/CMSIS_DSP/Source/FastMathFunctions/arm_cos_f32.c ****  * Target Processor: Cortex-M cores
  10:../Dave/Generated/CMSIS_DSP/Source/FastMathFunctions/arm_cos_f32.c ****  * -------------------------------------------------------------------- */
  11:../Dave/Generated/CMSIS_DSP/Source/FastMathFunctions/arm_cos_f32.c **** /*
  12:../Dave/Generated/CMSIS_DSP/Source/FastMathFunctions/arm_cos_f32.c ****  * Copyright (C) 2010-2019 ARM Limited or its affiliates. All rights reserved.
  13:../Dave/Generated/CMSIS_DSP/Source/FastMathFunctions/arm_cos_f32.c ****  *
  14:../Dave/Generated/CMSIS_DSP/Source/FastMathFunctions/arm_cos_f32.c ****  * SPDX-License-Identifier: Apache-2.0
  15:../Dave/Generated/CMSIS_DSP/Source/FastMathFunctions/arm_cos_f32.c ****  *
  16:../Dave/Generated/CMSIS_DSP/Source/FastMathFunctions/arm_cos_f32.c ****  * Licensed under the Apache License, Version 2.0 (the License); you may
  17:../Dave/Generated/CMSIS_DSP/Source/FastMathFunctions/arm_cos_f32.c ****  * not use this file except in compliance with the License.
  18:../Dave/Generated/CMSIS_DSP/Source/FastMathFunctions/arm_cos_f32.c ****  * You may obtain a copy of the License at
  19:../Dave/Generated/CMSIS_DSP/Source/FastMathFunctions/arm_cos_f32.c ****  *
  20:../Dave/Generated/CMSIS_DSP/Source/FastMathFunctions/arm_cos_f32.c ****  * www.apache.org/licenses/LICENSE-2.0
  21:../Dave/Generated/CMSIS_DSP/Source/FastMathFunctions/arm_cos_f32.c ****  *
  22:../Dave/Generated/CMSIS_DSP/Source/FastMathFunctions/arm_cos_f32.c ****  * Unless required by applicable law or agreed to in writing, software
  23:../Dave/Generated/CMSIS_DSP/Source/FastMathFunctions/arm_cos_f32.c ****  * distributed under the License is distributed on an AS IS BASIS, WITHOUT
  24:../Dave/Generated/CMSIS_DSP/Source/FastMathFunctions/arm_cos_f32.c ****  * WARRANTIES OR CONDITIONS OF ANY KIND, either express or implied.
  25:../Dave/Generated/CMSIS_DSP/Source/FastMathFunctions/arm_cos_f32.c ****  * See the License for the specific language governing permissions and
  26:../Dave/Generated/CMSIS_DSP/Source/FastMathFunctions/arm_cos_f32.c ****  * limitations under the License.
  27:../Dave/Generated/CMSIS_DSP/Source/FastMathFunctions/arm_cos_f32.c ****  */
  28:../Dave/Generated/CMSIS_DSP/Source/FastMathFunctions/arm_cos_f32.c **** 
  29:../Dave/Generated/CMSIS_DSP/Source/FastMathFunctions/arm_cos_f32.c **** #include "CMSIS_DSP/cmsis_dsp.h"
  30:../Dave/Generated/CMSIS_DSP/Source/FastMathFunctions/arm_cos_f32.c **** #include "CMSIS_DSP/Include/arm_common_tables.h"
  31:../Dave/Generated/CMSIS_DSP/Source/FastMathFunctions/arm_cos_f32.c **** 
  32:../Dave/Generated/CMSIS_DSP/Source/FastMathFunctions/arm_cos_f32.c **** /**
  33:../Dave/Generated/CMSIS_DSP/Source/FastMathFunctions/arm_cos_f32.c ****   @ingroup groupFastMath
  34:../Dave/Generated/CMSIS_DSP/Source/FastMathFunctions/arm_cos_f32.c ****  */
  35:../Dave/Generated/CMSIS_DSP/Source/FastMathFunctions/arm_cos_f32.c **** 
  36:../Dave/Generated/CMSIS_DSP/Source/FastMathFunctions/arm_cos_f32.c **** /**
  37:../Dave/Generated/CMSIS_DSP/Source/FastMathFunctions/arm_cos_f32.c ****   @defgroup cos Cosine
  38:../Dave/Generated/CMSIS_DSP/Source/FastMathFunctions/arm_cos_f32.c **** 
  39:../Dave/Generated/CMSIS_DSP/Source/FastMathFunctions/arm_cos_f32.c ****   Computes the trigonometric cosine function using a combination of table lookup
  40:../Dave/Generated/CMSIS_DSP/Source/FastMathFunctions/arm_cos_f32.c ****   and linear interpolation.  There are separate functions for
  41:../Dave/Generated/CMSIS_DSP/Source/FastMathFunctions/arm_cos_f32.c ****   Q15, Q31, and floating-point data types.
  42:../Dave/Generated/CMSIS_DSP/Source/FastMathFunctions/arm_cos_f32.c ****   The input to the floating-point version is in radians while the
  43:../Dave/Generated/CMSIS_DSP/Source/FastMathFunctions/arm_cos_f32.c ****   fixed-point Q15 and Q31 have a scaled input with the range
  44:../Dave/Generated/CMSIS_DSP/Source/FastMathFunctions/arm_cos_f32.c ****   [0 +0.9999] mapping to [0 2*pi).  The fixed-point range is chosen so that a
  45:../Dave/Generated/CMSIS_DSP/Source/FastMathFunctions/arm_cos_f32.c ****   value of 2*pi wraps around to 0.
  46:../Dave/Generated/CMSIS_DSP/Source/FastMathFunctions/arm_cos_f32.c **** 
  47:../Dave/Generated/CMSIS_DSP/Source/FastMathFunctions/arm_cos_f32.c ****   The implementation is based on table lookup using 256 values together with linear interpolation.
  48:../Dave/Generated/CMSIS_DSP/Source/FastMathFunctions/arm_cos_f32.c ****   The steps used are:
  49:../Dave/Generated/CMSIS_DSP/Source/FastMathFunctions/arm_cos_f32.c ****    -# Calculation of the nearest integer table index
  50:../Dave/Generated/CMSIS_DSP/Source/FastMathFunctions/arm_cos_f32.c ****    -# Compute the fractional portion (fract) of the table index.
  51:../Dave/Generated/CMSIS_DSP/Source/FastMathFunctions/arm_cos_f32.c ****    -# The final result equals <code>(1.0f-fract)*a + fract*b;</code>
  52:../Dave/Generated/CMSIS_DSP/Source/FastMathFunctions/arm_cos_f32.c **** 
  53:../Dave/Generated/CMSIS_DSP/Source/FastMathFunctions/arm_cos_f32.c ****   where
  54:../Dave/Generated/CMSIS_DSP/Source/FastMathFunctions/arm_cos_f32.c ****   <pre>
  55:../Dave/Generated/CMSIS_DSP/Source/FastMathFunctions/arm_cos_f32.c ****      a = Table[index];
  56:../Dave/Generated/CMSIS_DSP/Source/FastMathFunctions/arm_cos_f32.c ****      b = Table[index+1];
  57:../Dave/Generated/CMSIS_DSP/Source/FastMathFunctions/arm_cos_f32.c ****   </pre>
  58:../Dave/Generated/CMSIS_DSP/Source/FastMathFunctions/arm_cos_f32.c ****  */
  59:../Dave/Generated/CMSIS_DSP/Source/FastMathFunctions/arm_cos_f32.c **** 
  60:../Dave/Generated/CMSIS_DSP/Source/FastMathFunctions/arm_cos_f32.c **** /**
  61:../Dave/Generated/CMSIS_DSP/Source/FastMathFunctions/arm_cos_f32.c ****   @addtogroup cos
  62:../Dave/Generated/CMSIS_DSP/Source/FastMathFunctions/arm_cos_f32.c ****   @{
  63:../Dave/Generated/CMSIS_DSP/Source/FastMathFunctions/arm_cos_f32.c ****  */
  64:../Dave/Generated/CMSIS_DSP/Source/FastMathFunctions/arm_cos_f32.c **** 
  65:../Dave/Generated/CMSIS_DSP/Source/FastMathFunctions/arm_cos_f32.c **** /**
  66:../Dave/Generated/CMSIS_DSP/Source/FastMathFunctions/arm_cos_f32.c ****   @brief         Fast approximation to the trigonometric cosine function for floating-point data.
  67:../Dave/Generated/CMSIS_DSP/Source/FastMathFunctions/arm_cos_f32.c ****   @param[in]     x  input value in radians
  68:../Dave/Generated/CMSIS_DSP/Source/FastMathFunctions/arm_cos_f32.c ****   @return        cos(x)
  69:../Dave/Generated/CMSIS_DSP/Source/FastMathFunctions/arm_cos_f32.c ****  */
  70:../Dave/Generated/CMSIS_DSP/Source/FastMathFunctions/arm_cos_f32.c **** float32_t arm_cos_f32(
  71:../Dave/Generated/CMSIS_DSP/Source/FastMathFunctions/arm_cos_f32.c ****   float32_t x)
  72:../Dave/Generated/CMSIS_DSP/Source/FastMathFunctions/arm_cos_f32.c **** {
  28              	 .loc 1 72 0
  29              	 .cfi_startproc
  30              	 
  31              	 
  32              	 
  33 0000 80B4     	 push {r7}
  34              	.LCFI0:
  35              	 .cfi_def_cfa_offset 4
  36              	 .cfi_offset 7,-4
  37 0002 8BB0     	 sub sp,sp,#44
  38              	.LCFI1:
  39              	 .cfi_def_cfa_offset 48
  40 0004 00AF     	 add r7,sp,#0
  41              	.LCFI2:
  42              	 .cfi_def_cfa_register 7
  43 0006 7860     	 str r0,[r7,#4]
  73:../Dave/Generated/CMSIS_DSP/Source/FastMathFunctions/arm_cos_f32.c ****   float32_t cosVal, fract, in;                   /* Temporary input, output variables */
  74:../Dave/Generated/CMSIS_DSP/Source/FastMathFunctions/arm_cos_f32.c ****   uint16_t index;                                /* Index variable */
  75:../Dave/Generated/CMSIS_DSP/Source/FastMathFunctions/arm_cos_f32.c ****   float32_t a, b;                                /* Two nearest output values */
  76:../Dave/Generated/CMSIS_DSP/Source/FastMathFunctions/arm_cos_f32.c ****   int32_t n;
  77:../Dave/Generated/CMSIS_DSP/Source/FastMathFunctions/arm_cos_f32.c ****   float32_t findex;
  78:../Dave/Generated/CMSIS_DSP/Source/FastMathFunctions/arm_cos_f32.c **** 
  79:../Dave/Generated/CMSIS_DSP/Source/FastMathFunctions/arm_cos_f32.c ****   /* input x is in radians */
  80:../Dave/Generated/CMSIS_DSP/Source/FastMathFunctions/arm_cos_f32.c ****   /* Scale input to [0 1] range from [0 2*PI] , divide input by 2*pi, add 0.25 (pi/2) to read sine 
  81:../Dave/Generated/CMSIS_DSP/Source/FastMathFunctions/arm_cos_f32.c ****   in = x * 0.159154943092f + 0.25f;
  44              	 .loc 1 81 0
  45 0008 D7ED017A 	 flds s15,[r7,#4]
  46 000c 9FED3B7A 	 flds s14,.L7
  47 0010 67EE877A 	 fmuls s15,s15,s14
  48 0014 B5EE007A 	 fconsts s14,#80
  49 0018 77EE877A 	 fadds s15,s15,s14
  50 001c C7ED067A 	 fsts s15,[r7,#24]
  82:../Dave/Generated/CMSIS_DSP/Source/FastMathFunctions/arm_cos_f32.c **** 
  83:../Dave/Generated/CMSIS_DSP/Source/FastMathFunctions/arm_cos_f32.c ****   /* Calculation of floor value of input */
  84:../Dave/Generated/CMSIS_DSP/Source/FastMathFunctions/arm_cos_f32.c ****   n = (int32_t) in;
  51              	 .loc 1 84 0
  52 0020 D7ED067A 	 flds s15,[r7,#24]
  53 0024 FDEEE77A 	 ftosizs s15,s15
  54 0028 17EE903A 	 fmrs r3,s15
  55 002c 3B62     	 str r3,[r7,#32]
  85:../Dave/Generated/CMSIS_DSP/Source/FastMathFunctions/arm_cos_f32.c **** 
  86:../Dave/Generated/CMSIS_DSP/Source/FastMathFunctions/arm_cos_f32.c ****   /* Make negative values towards -infinity */
  87:../Dave/Generated/CMSIS_DSP/Source/FastMathFunctions/arm_cos_f32.c ****   if (in < 0.0f)
  56              	 .loc 1 87 0
  57 002e D7ED067A 	 flds s15,[r7,#24]
  58 0032 F5EEC07A 	 fcmpezs s15
  59 0036 F1EE10FA 	 fmstat
  60 003a 02D5     	 bpl .L2
  88:../Dave/Generated/CMSIS_DSP/Source/FastMathFunctions/arm_cos_f32.c ****   {
  89:../Dave/Generated/CMSIS_DSP/Source/FastMathFunctions/arm_cos_f32.c ****     n--;
  61              	 .loc 1 89 0
  62 003c 3B6A     	 ldr r3,[r7,#32]
  63 003e 013B     	 subs r3,r3,#1
  64 0040 3B62     	 str r3,[r7,#32]
  65              	.L2:
  90:../Dave/Generated/CMSIS_DSP/Source/FastMathFunctions/arm_cos_f32.c ****   }
  91:../Dave/Generated/CMSIS_DSP/Source/FastMathFunctions/arm_cos_f32.c **** 
  92:../Dave/Generated/CMSIS_DSP/Source/FastMathFunctions/arm_cos_f32.c ****   /* Map input value to [0 1] */
  93:../Dave/Generated/CMSIS_DSP/Source/FastMathFunctions/arm_cos_f32.c ****   in = in - (float32_t) n;
  66              	 .loc 1 93 0
  67 0042 3B6A     	 ldr r3,[r7,#32]
  68 0044 07EE903A 	 fmsr s15,r3
  69 0048 F8EEE77A 	 fsitos s15,s15
  70 004c 97ED067A 	 flds s14,[r7,#24]
  71 0050 77EE677A 	 fsubs s15,s14,s15
  72 0054 C7ED067A 	 fsts s15,[r7,#24]
  94:../Dave/Generated/CMSIS_DSP/Source/FastMathFunctions/arm_cos_f32.c **** 
  95:../Dave/Generated/CMSIS_DSP/Source/FastMathFunctions/arm_cos_f32.c ****   /* Calculation of index of the table */
  96:../Dave/Generated/CMSIS_DSP/Source/FastMathFunctions/arm_cos_f32.c ****   findex = (float32_t)FAST_MATH_TABLE_SIZE * in;
  73              	 .loc 1 96 0
  74 0058 D7ED067A 	 flds s15,[r7,#24]
  75 005c 9FED287A 	 flds s14,.L7+4
  76 0060 67EE877A 	 fmuls s15,s15,s14
  77 0064 C7ED077A 	 fsts s15,[r7,#28]
  97:../Dave/Generated/CMSIS_DSP/Source/FastMathFunctions/arm_cos_f32.c ****   index = (uint16_t)findex;
  78              	 .loc 1 97 0
  79 0068 D7ED077A 	 flds s15,[r7,#28]
  80 006c FCEEE77A 	 ftouizs s15,s15
  81 0070 C7ED007A 	 fsts s15,[r7]
  82 0074 3B88     	 ldrh r3,[r7]
  83 0076 FB84     	 strh r3,[r7,#38]
  98:../Dave/Generated/CMSIS_DSP/Source/FastMathFunctions/arm_cos_f32.c **** 
  99:../Dave/Generated/CMSIS_DSP/Source/FastMathFunctions/arm_cos_f32.c ****   /* when "in" is exactly 1, we need to rotate the index down to 0 */
 100:../Dave/Generated/CMSIS_DSP/Source/FastMathFunctions/arm_cos_f32.c ****   if (index >= FAST_MATH_TABLE_SIZE) {
  84              	 .loc 1 100 0
  85 0078 FB8C     	 ldrh r3,[r7,#38]
  86 007a B3F5007F 	 cmp r3,#512
  87 007e 09D3     	 bcc .L4
 101:../Dave/Generated/CMSIS_DSP/Source/FastMathFunctions/arm_cos_f32.c ****     index = 0;
  88              	 .loc 1 101 0
  89 0080 0023     	 movs r3,#0
  90 0082 FB84     	 strh r3,[r7,#38]
 102:../Dave/Generated/CMSIS_DSP/Source/FastMathFunctions/arm_cos_f32.c ****     findex -= (float32_t)FAST_MATH_TABLE_SIZE;
  91              	 .loc 1 102 0
  92 0084 D7ED077A 	 flds s15,[r7,#28]
  93 0088 9FED1D7A 	 flds s14,.L7+4
  94 008c 77EEC77A 	 fsubs s15,s15,s14
  95 0090 C7ED077A 	 fsts s15,[r7,#28]
  96              	.L4:
 103:../Dave/Generated/CMSIS_DSP/Source/FastMathFunctions/arm_cos_f32.c ****   }
 104:../Dave/Generated/CMSIS_DSP/Source/FastMathFunctions/arm_cos_f32.c **** 
 105:../Dave/Generated/CMSIS_DSP/Source/FastMathFunctions/arm_cos_f32.c ****   /* fractional value calculation */
 106:../Dave/Generated/CMSIS_DSP/Source/FastMathFunctions/arm_cos_f32.c ****   fract = findex - (float32_t) index;
  97              	 .loc 1 106 0
  98 0094 FB8C     	 ldrh r3,[r7,#38]
  99 0096 07EE903A 	 fmsr s15,r3
 100 009a F8EE677A 	 fuitos s15,s15
 101 009e 97ED077A 	 flds s14,[r7,#28]
 102 00a2 77EE677A 	 fsubs s15,s14,s15
 103 00a6 C7ED057A 	 fsts s15,[r7,#20]
 107:../Dave/Generated/CMSIS_DSP/Source/FastMathFunctions/arm_cos_f32.c **** 
 108:../Dave/Generated/CMSIS_DSP/Source/FastMathFunctions/arm_cos_f32.c ****   /* Read two nearest values of input value from the cos table */
 109:../Dave/Generated/CMSIS_DSP/Source/FastMathFunctions/arm_cos_f32.c ****   a = sinTable_f32[index];
 104              	 .loc 1 109 0
 105 00aa FB8C     	 ldrh r3,[r7,#38]
 106 00ac 154A     	 ldr r2,.L7+8
 107 00ae 9B00     	 lsls r3,r3,#2
 108 00b0 1344     	 add r3,r3,r2
 109 00b2 1B68     	 ldr r3,[r3]
 110 00b4 3B61     	 str r3,[r7,#16]
 110:../Dave/Generated/CMSIS_DSP/Source/FastMathFunctions/arm_cos_f32.c ****   b = sinTable_f32[index+1];
 111              	 .loc 1 110 0
 112 00b6 FB8C     	 ldrh r3,[r7,#38]
 113 00b8 0133     	 adds r3,r3,#1
 114 00ba 124A     	 ldr r2,.L7+8
 115 00bc 9B00     	 lsls r3,r3,#2
 116 00be 1344     	 add r3,r3,r2
 117 00c0 1B68     	 ldr r3,[r3]
 118 00c2 FB60     	 str r3,[r7,#12]
 111:../Dave/Generated/CMSIS_DSP/Source/FastMathFunctions/arm_cos_f32.c **** 
 112:../Dave/Generated/CMSIS_DSP/Source/FastMathFunctions/arm_cos_f32.c ****   /* Linear interpolation process */
 113:../Dave/Generated/CMSIS_DSP/Source/FastMathFunctions/arm_cos_f32.c ****   cosVal = (1.0f - fract) * a + fract * b;
 119              	 .loc 1 113 0
 120 00c4 B7EE007A 	 fconsts s14,#112
 121 00c8 D7ED057A 	 flds s15,[r7,#20]
 122 00cc 37EE677A 	 fsubs s14,s14,s15
 123 00d0 D7ED047A 	 flds s15,[r7,#16]
 124 00d4 27EE277A 	 fmuls s14,s14,s15
 125 00d8 D7ED056A 	 flds s13,[r7,#20]
 126 00dc D7ED037A 	 flds s15,[r7,#12]
 127 00e0 66EEA77A 	 fmuls s15,s13,s15
 128 00e4 77EE277A 	 fadds s15,s14,s15
 129 00e8 C7ED027A 	 fsts s15,[r7,#8]
 114:../Dave/Generated/CMSIS_DSP/Source/FastMathFunctions/arm_cos_f32.c **** 
 115:../Dave/Generated/CMSIS_DSP/Source/FastMathFunctions/arm_cos_f32.c ****   /* Return output value */
 116:../Dave/Generated/CMSIS_DSP/Source/FastMathFunctions/arm_cos_f32.c ****   return (cosVal);
 130              	 .loc 1 116 0
 131 00ec BB68     	 ldr r3,[r7,#8]
 117:../Dave/Generated/CMSIS_DSP/Source/FastMathFunctions/arm_cos_f32.c **** }
 132              	 .loc 1 117 0
 133 00ee 1846     	 mov r0,r3
 134 00f0 2C37     	 adds r7,r7,#44
 135              	.LCFI3:
 136              	 .cfi_def_cfa_offset 4
 137 00f2 BD46     	 mov sp,r7
 138              	.LCFI4:
 139              	 .cfi_def_cfa_register 13
 140              	 
 141 00f4 5DF8047B 	 ldr r7,[sp],#4
 142              	.LCFI5:
 143              	 .cfi_restore 7
 144              	 .cfi_def_cfa_offset 0
 145 00f8 7047     	 bx lr
 146              	.L8:
 147 00fa 00BF     	 .align 2
 148              	.L7:
 149 00fc 83F9223E 	 .word 1042479491
 150 0100 00000044 	 .word 1140850688
 151 0104 00000000 	 .word sinTable_f32
 152              	 .cfi_endproc
 153              	.LFE149:
 155              	 .text
 156              	.Letext0:
 157              	 .file 2 "c:\\infineon\\tools\\dave ide\\4.5.0.202105191637\\eclipse\\arm-gcc-49\\arm-none-eabi\\include\\machine\\_default_types.h"
 158              	 .file 3 "c:\\infineon\\tools\\dave ide\\4.5.0.202105191637\\eclipse\\arm-gcc-49\\arm-none-eabi\\include\\stdint.h"
 159              	 .file 4 "C:/Users/Rui Mendes/Desktop/DAVE/_Naive/_ForTesting/Dave/Generated/CMSIS_DSP/Include/arm_math.h"
 160              	 .file 5 "C:/Users/Rui Mendes/Desktop/DAVE/_Naive/_ForTesting/Libraries/CMSIS/Include/cmsis_gcc.h"
 161              	 .file 6 "C:/Users/Rui Mendes/Desktop/DAVE/_Naive/_ForTesting/Dave/Generated/CMSIS_DSP/Include/arm_common_tables.h"