   1              	 .syntax unified
   2              	 .cpu cortex-m4
   3              	 .eabi_attribute 27,3
   4              	 .fpu fpv4-sp-d16
   5              	 .eabi_attribute 20,1
   6              	 .eabi_attribute 21,1
   7              	 .eabi_attribute 23,3
   8              	 .eabi_attribute 24,1
   9              	 .eabi_attribute 25,1
  10              	 .eabi_attribute 26,1
  11              	 .eabi_attribute 30,6
  12              	 .eabi_attribute 34,1
  13              	 .eabi_attribute 18,4
  14              	 .thumb
  15              	 .file "lib_ascii.c"
  16              	 .text
  17              	.Ltext0:
  18              	 .cfi_sections .debug_frame
  19              	 .section .text.ASCII_IsAlpha,"ax",%progbits
  20              	 .align 2
  21              	 .global ASCII_IsAlpha
  22              	 .thumb
  23              	 .thumb_func
  25              	ASCII_IsAlpha:
  26              	.LFB0:
  27              	 .file 1 "../Dave/Generated/UCPROBE/lib_ascii.c"
   1:../Dave/Generated/UCPROBE/lib_ascii.c **** /*
   2:../Dave/Generated/UCPROBE/lib_ascii.c **** ***************************************************************************************************
   3:../Dave/Generated/UCPROBE/lib_ascii.c **** *                                                uC/LIB
   4:../Dave/Generated/UCPROBE/lib_ascii.c **** *                                        CUSTOM LIBRARY MODULES
   5:../Dave/Generated/UCPROBE/lib_ascii.c **** *
   6:../Dave/Generated/UCPROBE/lib_ascii.c **** *                         (c) Copyright 2004-2014; Micrium, Inc.; Weston, FL
   7:../Dave/Generated/UCPROBE/lib_ascii.c **** *
   8:../Dave/Generated/UCPROBE/lib_ascii.c **** *                  All rights reserved.  Protected by international copyright laws.
   9:../Dave/Generated/UCPROBE/lib_ascii.c **** *
  10:../Dave/Generated/UCPROBE/lib_ascii.c **** *                  uC/LIB is provided in source form to registered licensees ONLY.  It is
  11:../Dave/Generated/UCPROBE/lib_ascii.c **** *                  illegal to distribute this source code to any third party unless you receive
  12:../Dave/Generated/UCPROBE/lib_ascii.c **** *                  written permission by an authorized Micrium representative.  Knowledge of
  13:../Dave/Generated/UCPROBE/lib_ascii.c **** *                  the source code may NOT be used to develop a similar product.
  14:../Dave/Generated/UCPROBE/lib_ascii.c **** *
  15:../Dave/Generated/UCPROBE/lib_ascii.c **** *                  Please help us continue to provide the Embedded community with the finest
  16:../Dave/Generated/UCPROBE/lib_ascii.c **** *                  software available.  Your honesty is greatly appreciated.
  17:../Dave/Generated/UCPROBE/lib_ascii.c **** *
  18:../Dave/Generated/UCPROBE/lib_ascii.c **** *                  You can find our product's user manual, API reference, release notes and
  19:../Dave/Generated/UCPROBE/lib_ascii.c **** *                  more information at: https://doc.micrium.com
  20:../Dave/Generated/UCPROBE/lib_ascii.c **** *
  21:../Dave/Generated/UCPROBE/lib_ascii.c **** *                  You can contact us at: http://www.micrium.com
  22:../Dave/Generated/UCPROBE/lib_ascii.c **** ***************************************************************************************************
  23:../Dave/Generated/UCPROBE/lib_ascii.c **** */
  24:../Dave/Generated/UCPROBE/lib_ascii.c **** 
  25:../Dave/Generated/UCPROBE/lib_ascii.c **** /*
  26:../Dave/Generated/UCPROBE/lib_ascii.c **** ***************************************************************************************************
  27:../Dave/Generated/UCPROBE/lib_ascii.c **** *
  28:../Dave/Generated/UCPROBE/lib_ascii.c **** *                                     ASCII CHARACTER OPERATIONS
  29:../Dave/Generated/UCPROBE/lib_ascii.c **** *
  30:../Dave/Generated/UCPROBE/lib_ascii.c **** * Filename      : lib_ascii.c
  31:../Dave/Generated/UCPROBE/lib_ascii.c **** * Version       : V1.38.01
  32:../Dave/Generated/UCPROBE/lib_ascii.c **** * Programmer(s) : BAN
  33:../Dave/Generated/UCPROBE/lib_ascii.c **** *                 ITJ
  34:../Dave/Generated/UCPROBE/lib_ascii.c **** ***************************************************************************************************
  35:../Dave/Generated/UCPROBE/lib_ascii.c **** * Note(s)       : (1) NO compiler-supplied standard library functions are used in library or produc
  36:../Dave/Generated/UCPROBE/lib_ascii.c **** *
  37:../Dave/Generated/UCPROBE/lib_ascii.c **** *                     (a) ALL standard library functions are implemented in the custom library modu
  38:../Dave/Generated/UCPROBE/lib_ascii.c **** *
  39:../Dave/Generated/UCPROBE/lib_ascii.c **** *                         (1) \<Custom Library Directory>\lib_*.*
  40:../Dave/Generated/UCPROBE/lib_ascii.c **** *
  41:../Dave/Generated/UCPROBE/lib_ascii.c **** *                         (2) \<Custom Library Directory>\Ports\<cpu>\<compiler>\lib*_a.*
  42:../Dave/Generated/UCPROBE/lib_ascii.c **** *
  43:../Dave/Generated/UCPROBE/lib_ascii.c **** *                               where
  44:../Dave/Generated/UCPROBE/lib_ascii.c **** *                                       <Custom Library Directory>      directory path for custom l
  45:../Dave/Generated/UCPROBE/lib_ascii.c **** *                                       <cpu>                           directory name for specific
  46:../Dave/Generated/UCPROBE/lib_ascii.c **** *                                       <compiler>                      directory name for specific
  47:../Dave/Generated/UCPROBE/lib_ascii.c **** *
  48:../Dave/Generated/UCPROBE/lib_ascii.c **** *                     (b) Product-specific library functions are implemented in individual products
  49:../Dave/Generated/UCPROBE/lib_ascii.c **** *
  50:../Dave/Generated/UCPROBE/lib_ascii.c **** *
  51:../Dave/Generated/UCPROBE/lib_ascii.c **** *                 (2) (a) ECMA-6 '7-Bit coded Character Set' (6th edition), which corresponds to th
  52:../Dave/Generated/UCPROBE/lib_ascii.c **** *                         3rd edition of ISO 646, specifies several versions of a 7-bit character s
  53:../Dave/Generated/UCPROBE/lib_ascii.c **** *
  54:../Dave/Generated/UCPROBE/lib_ascii.c **** *                         (1) THE GENERAL VERSION, which allows characters at 0x23 and 0x24 to be g
  55:../Dave/Generated/UCPROBE/lib_ascii.c **** *                             set alternate form and allows the characters 0x40, 0x5B, 0x5D, 0x60, 
  56:../Dave/Generated/UCPROBE/lib_ascii.c **** *                             0x7D to be assigned a "unique graphic character" or to be declared as
  57:../Dave/Generated/UCPROBE/lib_ascii.c **** *                             All other characters are explicitly specified.
  58:../Dave/Generated/UCPROBE/lib_ascii.c **** *
  59:../Dave/Generated/UCPROBE/lib_ascii.c **** *                         (2) THE INTERNATIONAL REFERENCE VERSION, which explicitly specifies all c
  60:../Dave/Generated/UCPROBE/lib_ascii.c **** *                             in the 7-bit character set.
  61:../Dave/Generated/UCPROBE/lib_ascii.c **** *
  62:../Dave/Generated/UCPROBE/lib_ascii.c **** *                         (3) NATIONAL & APPLICATION-ORIENTED VERSIONS, which may be derived from t
  63:../Dave/Generated/UCPROBE/lib_ascii.c **** *                             standard in specified ways.
  64:../Dave/Generated/UCPROBE/lib_ascii.c **** *
  65:../Dave/Generated/UCPROBE/lib_ascii.c **** *                     (b) The character set represented in this file reproduces the Internation Ref
  66:../Dave/Generated/UCPROBE/lib_ascii.c **** *                         Version.  This is identical to the 7-bit character set which occupies Uni
  67:../Dave/Generated/UCPROBE/lib_ascii.c **** *                         characters 0x0000 through 0x007F.  The character names are taken from v5.
  68:../Dave/Generated/UCPROBE/lib_ascii.c **** *                         Unicode specification, with certain abbreviations so that the resulting #
  69:../Dave/Generated/UCPROBE/lib_ascii.c **** *                         names will not violate ANSI C naming restriction :
  70:../Dave/Generated/UCPROBE/lib_ascii.c **** *
  71:../Dave/Generated/UCPROBE/lib_ascii.c **** *                         (1) For the Latin capital & lowercase letters, the name components 'LETTE
  72:../Dave/Generated/UCPROBE/lib_ascii.c **** *                             & 'LETTER_SMALL' are replaced by 'UPPER' & 'LOWER', respectively.
  73:../Dave/Generated/UCPROBE/lib_ascii.c **** ***************************************************************************************************
  74:../Dave/Generated/UCPROBE/lib_ascii.c **** */
  75:../Dave/Generated/UCPROBE/lib_ascii.c **** 
  76:../Dave/Generated/UCPROBE/lib_ascii.c **** 
  77:../Dave/Generated/UCPROBE/lib_ascii.c **** /*
  78:../Dave/Generated/UCPROBE/lib_ascii.c **** ***************************************************************************************************
  79:../Dave/Generated/UCPROBE/lib_ascii.c **** *                                            INCLUDE FILES
  80:../Dave/Generated/UCPROBE/lib_ascii.c **** ***************************************************************************************************
  81:../Dave/Generated/UCPROBE/lib_ascii.c **** */
  82:../Dave/Generated/UCPROBE/lib_ascii.c **** 
  83:../Dave/Generated/UCPROBE/lib_ascii.c **** #define    MICRIUM_SOURCE
  84:../Dave/Generated/UCPROBE/lib_ascii.c **** #define    LIB_ASCII_MODULE
  85:../Dave/Generated/UCPROBE/lib_ascii.c **** #include  "lib_ascii.h"
  86:../Dave/Generated/UCPROBE/lib_ascii.c **** 
  87:../Dave/Generated/UCPROBE/lib_ascii.c **** 
  88:../Dave/Generated/UCPROBE/lib_ascii.c **** /*
  89:../Dave/Generated/UCPROBE/lib_ascii.c **** ***************************************************************************************************
  90:../Dave/Generated/UCPROBE/lib_ascii.c **** *                                            LOCAL DEFINES
  91:../Dave/Generated/UCPROBE/lib_ascii.c **** ***************************************************************************************************
  92:../Dave/Generated/UCPROBE/lib_ascii.c **** */
  93:../Dave/Generated/UCPROBE/lib_ascii.c **** 
  94:../Dave/Generated/UCPROBE/lib_ascii.c **** 
  95:../Dave/Generated/UCPROBE/lib_ascii.c **** /*
  96:../Dave/Generated/UCPROBE/lib_ascii.c **** ***************************************************************************************************
  97:../Dave/Generated/UCPROBE/lib_ascii.c **** *                                           LOCAL CONSTANTS
  98:../Dave/Generated/UCPROBE/lib_ascii.c **** ***************************************************************************************************
  99:../Dave/Generated/UCPROBE/lib_ascii.c **** */
 100:../Dave/Generated/UCPROBE/lib_ascii.c **** 
 101:../Dave/Generated/UCPROBE/lib_ascii.c **** 
 102:../Dave/Generated/UCPROBE/lib_ascii.c **** /*
 103:../Dave/Generated/UCPROBE/lib_ascii.c **** ***************************************************************************************************
 104:../Dave/Generated/UCPROBE/lib_ascii.c **** *                                          LOCAL DATA TYPES
 105:../Dave/Generated/UCPROBE/lib_ascii.c **** ***************************************************************************************************
 106:../Dave/Generated/UCPROBE/lib_ascii.c **** */
 107:../Dave/Generated/UCPROBE/lib_ascii.c **** 
 108:../Dave/Generated/UCPROBE/lib_ascii.c **** 
 109:../Dave/Generated/UCPROBE/lib_ascii.c **** /*
 110:../Dave/Generated/UCPROBE/lib_ascii.c **** ***************************************************************************************************
 111:../Dave/Generated/UCPROBE/lib_ascii.c **** *                                            LOCAL TABLES
 112:../Dave/Generated/UCPROBE/lib_ascii.c **** ***************************************************************************************************
 113:../Dave/Generated/UCPROBE/lib_ascii.c **** */
 114:../Dave/Generated/UCPROBE/lib_ascii.c **** 
 115:../Dave/Generated/UCPROBE/lib_ascii.c **** 
 116:../Dave/Generated/UCPROBE/lib_ascii.c **** /*
 117:../Dave/Generated/UCPROBE/lib_ascii.c **** ***************************************************************************************************
 118:../Dave/Generated/UCPROBE/lib_ascii.c **** *                                       LOCAL GLOBAL VARIABLES
 119:../Dave/Generated/UCPROBE/lib_ascii.c **** ***************************************************************************************************
 120:../Dave/Generated/UCPROBE/lib_ascii.c **** */
 121:../Dave/Generated/UCPROBE/lib_ascii.c **** 
 122:../Dave/Generated/UCPROBE/lib_ascii.c **** 
 123:../Dave/Generated/UCPROBE/lib_ascii.c **** /*
 124:../Dave/Generated/UCPROBE/lib_ascii.c **** ***************************************************************************************************
 125:../Dave/Generated/UCPROBE/lib_ascii.c **** *                                      LOCAL FUNCTION PROTOTYPES
 126:../Dave/Generated/UCPROBE/lib_ascii.c **** ***************************************************************************************************
 127:../Dave/Generated/UCPROBE/lib_ascii.c **** */
 128:../Dave/Generated/UCPROBE/lib_ascii.c **** 
 129:../Dave/Generated/UCPROBE/lib_ascii.c **** 
 130:../Dave/Generated/UCPROBE/lib_ascii.c **** /*
 131:../Dave/Generated/UCPROBE/lib_ascii.c **** ***************************************************************************************************
 132:../Dave/Generated/UCPROBE/lib_ascii.c **** *                                     LOCAL CONFIGURATION ERRORS
 133:../Dave/Generated/UCPROBE/lib_ascii.c **** ***************************************************************************************************
 134:../Dave/Generated/UCPROBE/lib_ascii.c **** */
 135:../Dave/Generated/UCPROBE/lib_ascii.c **** 
 136:../Dave/Generated/UCPROBE/lib_ascii.c **** 
 137:../Dave/Generated/UCPROBE/lib_ascii.c **** /*
 138:../Dave/Generated/UCPROBE/lib_ascii.c **** ***************************************************************************************************
 139:../Dave/Generated/UCPROBE/lib_ascii.c **** *                                           ASCII_IsAlpha()
 140:../Dave/Generated/UCPROBE/lib_ascii.c **** *
 141:../Dave/Generated/UCPROBE/lib_ascii.c **** * Description : Determine whether a character is an alphabetic character.
 142:../Dave/Generated/UCPROBE/lib_ascii.c **** *
 143:../Dave/Generated/UCPROBE/lib_ascii.c **** * Argument(s) : c           Character to examine.
 144:../Dave/Generated/UCPROBE/lib_ascii.c **** *
 145:../Dave/Generated/UCPROBE/lib_ascii.c **** * Return(s)   : DEF_YES, if character is     an alphabetic character.
 146:../Dave/Generated/UCPROBE/lib_ascii.c **** *
 147:../Dave/Generated/UCPROBE/lib_ascii.c **** *               DEF_NO,     if character is NOT an alphabetic character.
 148:../Dave/Generated/UCPROBE/lib_ascii.c **** *
 149:../Dave/Generated/UCPROBE/lib_ascii.c **** * Caller(s)   : Application.
 150:../Dave/Generated/UCPROBE/lib_ascii.c **** *
 151:../Dave/Generated/UCPROBE/lib_ascii.c **** * Note(s)     : (1) ISO/IEC 9899:TC2, Section 7.4.1.2.(2) states that "isalpha() returns true only 
 152:../Dave/Generated/UCPROBE/lib_ascii.c **** *                   characters for which isupper() or islower() is true".
 153:../Dave/Generated/UCPROBE/lib_ascii.c **** ***************************************************************************************************
 154:../Dave/Generated/UCPROBE/lib_ascii.c **** */
 155:../Dave/Generated/UCPROBE/lib_ascii.c **** 
 156:../Dave/Generated/UCPROBE/lib_ascii.c **** CPU_BOOLEAN  ASCII_IsAlpha (CPU_CHAR  c)
 157:../Dave/Generated/UCPROBE/lib_ascii.c **** {
  28              	 .loc 1 157 0
  29              	 .cfi_startproc
  30              	 
  31              	 
  32              	 
  33 0000 80B4     	 push {r7}
  34              	.LCFI0:
  35              	 .cfi_def_cfa_offset 4
  36              	 .cfi_offset 7,-4
  37 0002 85B0     	 sub sp,sp,#20
  38              	.LCFI1:
  39              	 .cfi_def_cfa_offset 24
  40 0004 00AF     	 add r7,sp,#0
  41              	.LCFI2:
  42              	 .cfi_def_cfa_register 7
  43 0006 0346     	 mov r3,r0
  44 0008 FB71     	 strb r3,[r7,#7]
 158:../Dave/Generated/UCPROBE/lib_ascii.c ****     CPU_BOOLEAN  alpha;
 159:../Dave/Generated/UCPROBE/lib_ascii.c **** 
 160:../Dave/Generated/UCPROBE/lib_ascii.c **** 
 161:../Dave/Generated/UCPROBE/lib_ascii.c ****     alpha = ASCII_IS_ALPHA(c);
  45              	 .loc 1 161 0
  46 000a FB79     	 ldrb r3,[r7,#7]
  47 000c 402B     	 cmp r3,#64
  48 000e 02D9     	 bls .L2
  49              	 .loc 1 161 0 is_stmt 0 discriminator 1
  50 0010 FB79     	 ldrb r3,[r7,#7]
  51 0012 5A2B     	 cmp r3,#90
  52 0014 05D9     	 bls .L3
  53              	.L2:
  54              	 .loc 1 161 0 discriminator 4
  55 0016 FB79     	 ldrb r3,[r7,#7]
  56 0018 602B     	 cmp r3,#96
  57 001a 04D9     	 bls .L4
  58              	 .loc 1 161 0 discriminator 5
  59 001c FB79     	 ldrb r3,[r7,#7]
  60 001e 7A2B     	 cmp r3,#122
  61 0020 01D8     	 bhi .L4
  62              	.L3:
  63              	 .loc 1 161 0 discriminator 7
  64 0022 0123     	 movs r3,#1
  65 0024 00E0     	 b .L5
  66              	.L4:
  67              	 .loc 1 161 0 discriminator 8
  68 0026 0023     	 movs r3,#0
  69              	.L5:
  70              	 .loc 1 161 0 discriminator 10
  71 0028 FB73     	 strb r3,[r7,#15]
 162:../Dave/Generated/UCPROBE/lib_ascii.c **** 
 163:../Dave/Generated/UCPROBE/lib_ascii.c ****     return (alpha);
  72              	 .loc 1 163 0 is_stmt 1 discriminator 10
  73 002a FB7B     	 ldrb r3,[r7,#15]
 164:../Dave/Generated/UCPROBE/lib_ascii.c **** }
  74              	 .loc 1 164 0 discriminator 10
  75 002c 1846     	 mov r0,r3
  76 002e 1437     	 adds r7,r7,#20
  77              	.LCFI3:
  78              	 .cfi_def_cfa_offset 4
  79 0030 BD46     	 mov sp,r7
  80              	.LCFI4:
  81              	 .cfi_def_cfa_register 13
  82              	 
  83 0032 5DF8047B 	 ldr r7,[sp],#4
  84              	.LCFI5:
  85              	 .cfi_restore 7
  86              	 .cfi_def_cfa_offset 0
  87 0036 7047     	 bx lr
  88              	 .cfi_endproc
  89              	.LFE0:
  91              	 .section .text.ASCII_IsAlphaNum,"ax",%progbits
  92              	 .align 2
  93              	 .global ASCII_IsAlphaNum
  94              	 .thumb
  95              	 .thumb_func
  97              	ASCII_IsAlphaNum:
  98              	.LFB1:
 165:../Dave/Generated/UCPROBE/lib_ascii.c **** 
 166:../Dave/Generated/UCPROBE/lib_ascii.c **** 
 167:../Dave/Generated/UCPROBE/lib_ascii.c **** /*
 168:../Dave/Generated/UCPROBE/lib_ascii.c **** ***************************************************************************************************
 169:../Dave/Generated/UCPROBE/lib_ascii.c **** *                                         ASCII_IsAlphaNum()
 170:../Dave/Generated/UCPROBE/lib_ascii.c **** *
 171:../Dave/Generated/UCPROBE/lib_ascii.c **** * Description : Determine whether a character is an alphanumeric character.
 172:../Dave/Generated/UCPROBE/lib_ascii.c **** *
 173:../Dave/Generated/UCPROBE/lib_ascii.c **** * Argument(s) : c           Character to examine.
 174:../Dave/Generated/UCPROBE/lib_ascii.c **** *
 175:../Dave/Generated/UCPROBE/lib_ascii.c **** * Return(s)   : DEF_YES, if character is     an alphanumeric character.
 176:../Dave/Generated/UCPROBE/lib_ascii.c **** *
 177:../Dave/Generated/UCPROBE/lib_ascii.c **** *               DEF_NO,     if character is NOT an alphanumeric character.
 178:../Dave/Generated/UCPROBE/lib_ascii.c **** *
 179:../Dave/Generated/UCPROBE/lib_ascii.c **** * Caller(s)   : Application.
 180:../Dave/Generated/UCPROBE/lib_ascii.c **** *
 181:../Dave/Generated/UCPROBE/lib_ascii.c **** * Note(s)     : (1) ISO/IEC 9899:TC2, Section 7.4.1.1.(2) states that "isalnum() ... tests for any 
 182:../Dave/Generated/UCPROBE/lib_ascii.c **** *                   for which isalpha() or isdigit() is true".
 183:../Dave/Generated/UCPROBE/lib_ascii.c **** ***************************************************************************************************
 184:../Dave/Generated/UCPROBE/lib_ascii.c **** */
 185:../Dave/Generated/UCPROBE/lib_ascii.c **** 
 186:../Dave/Generated/UCPROBE/lib_ascii.c **** CPU_BOOLEAN  ASCII_IsAlphaNum (CPU_CHAR  c)
 187:../Dave/Generated/UCPROBE/lib_ascii.c **** {
  99              	 .loc 1 187 0
 100              	 .cfi_startproc
 101              	 
 102              	 
 103              	 
 104 0000 80B4     	 push {r7}
 105              	.LCFI6:
 106              	 .cfi_def_cfa_offset 4
 107              	 .cfi_offset 7,-4
 108 0002 85B0     	 sub sp,sp,#20
 109              	.LCFI7:
 110              	 .cfi_def_cfa_offset 24
 111 0004 00AF     	 add r7,sp,#0
 112              	.LCFI8:
 113              	 .cfi_def_cfa_register 7
 114 0006 0346     	 mov r3,r0
 115 0008 FB71     	 strb r3,[r7,#7]
 188:../Dave/Generated/UCPROBE/lib_ascii.c ****     CPU_BOOLEAN  alpha_num;
 189:../Dave/Generated/UCPROBE/lib_ascii.c **** 
 190:../Dave/Generated/UCPROBE/lib_ascii.c **** 
 191:../Dave/Generated/UCPROBE/lib_ascii.c ****     alpha_num = ASCII_IS_ALPHA_NUM(c);
 116              	 .loc 1 191 0
 117 000a FB79     	 ldrb r3,[r7,#7]
 118 000c 402B     	 cmp r3,#64
 119 000e 02D9     	 bls .L8
 120              	 .loc 1 191 0 is_stmt 0 discriminator 1
 121 0010 FB79     	 ldrb r3,[r7,#7]
 122 0012 5A2B     	 cmp r3,#90
 123 0014 0BD9     	 bls .L9
 124              	.L8:
 125              	 .loc 1 191 0 discriminator 4
 126 0016 FB79     	 ldrb r3,[r7,#7]
 127 0018 602B     	 cmp r3,#96
 128 001a 02D9     	 bls .L10
 129              	 .loc 1 191 0 discriminator 5
 130 001c FB79     	 ldrb r3,[r7,#7]
 131 001e 7A2B     	 cmp r3,#122
 132 0020 05D9     	 bls .L9
 133              	.L10:
 134              	 .loc 1 191 0 discriminator 8
 135 0022 FB79     	 ldrb r3,[r7,#7]
 136 0024 2F2B     	 cmp r3,#47
 137 0026 04D9     	 bls .L11
 138              	 .loc 1 191 0 discriminator 9
 139 0028 FB79     	 ldrb r3,[r7,#7]
 140 002a 392B     	 cmp r3,#57
 141 002c 01D8     	 bhi .L11
 142              	.L9:
 143              	 .loc 1 191 0 discriminator 11
 144 002e 0123     	 movs r3,#1
 145 0030 00E0     	 b .L12
 146              	.L11:
 147              	 .loc 1 191 0 discriminator 12
 148 0032 0023     	 movs r3,#0
 149              	.L12:
 150              	 .loc 1 191 0 discriminator 14
 151 0034 FB73     	 strb r3,[r7,#15]
 192:../Dave/Generated/UCPROBE/lib_ascii.c **** 
 193:../Dave/Generated/UCPROBE/lib_ascii.c ****     return (alpha_num);
 152              	 .loc 1 193 0 is_stmt 1 discriminator 14
 153 0036 FB7B     	 ldrb r3,[r7,#15]
 194:../Dave/Generated/UCPROBE/lib_ascii.c **** }
 154              	 .loc 1 194 0 discriminator 14
 155 0038 1846     	 mov r0,r3
 156 003a 1437     	 adds r7,r7,#20
 157              	.LCFI9:
 158              	 .cfi_def_cfa_offset 4
 159 003c BD46     	 mov sp,r7
 160              	.LCFI10:
 161              	 .cfi_def_cfa_register 13
 162              	 
 163 003e 5DF8047B 	 ldr r7,[sp],#4
 164              	.LCFI11:
 165              	 .cfi_restore 7
 166              	 .cfi_def_cfa_offset 0
 167 0042 7047     	 bx lr
 168              	 .cfi_endproc
 169              	.LFE1:
 171              	 .section .text.ASCII_IsLower,"ax",%progbits
 172              	 .align 2
 173              	 .global ASCII_IsLower
 174              	 .thumb
 175              	 .thumb_func
 177              	ASCII_IsLower:
 178              	.LFB2:
 195:../Dave/Generated/UCPROBE/lib_ascii.c **** 
 196:../Dave/Generated/UCPROBE/lib_ascii.c **** 
 197:../Dave/Generated/UCPROBE/lib_ascii.c **** /*
 198:../Dave/Generated/UCPROBE/lib_ascii.c **** ***************************************************************************************************
 199:../Dave/Generated/UCPROBE/lib_ascii.c **** *                                           ASCII_IsLower()
 200:../Dave/Generated/UCPROBE/lib_ascii.c **** *
 201:../Dave/Generated/UCPROBE/lib_ascii.c **** * Description : Determine whether a character is a lowercase alphabetic character.
 202:../Dave/Generated/UCPROBE/lib_ascii.c **** *
 203:../Dave/Generated/UCPROBE/lib_ascii.c **** * Argument(s) : c           Character to examine.
 204:../Dave/Generated/UCPROBE/lib_ascii.c **** *
 205:../Dave/Generated/UCPROBE/lib_ascii.c **** * Return(s)   : DEF_YES, if character is     a lowercase alphabetic character.
 206:../Dave/Generated/UCPROBE/lib_ascii.c **** *
 207:../Dave/Generated/UCPROBE/lib_ascii.c **** *               DEF_NO,     if character is NOT a lowercase alphabetic character.
 208:../Dave/Generated/UCPROBE/lib_ascii.c **** *
 209:../Dave/Generated/UCPROBE/lib_ascii.c **** * Caller(s)   : Application.
 210:../Dave/Generated/UCPROBE/lib_ascii.c **** *
 211:../Dave/Generated/UCPROBE/lib_ascii.c **** * Note(s)     : (1) ISO/IEC 9899:TC2, Section 7.4.1.7.(2)  states that "islower() returns true only
 212:../Dave/Generated/UCPROBE/lib_ascii.c **** *                   the lowercase letters".
 213:../Dave/Generated/UCPROBE/lib_ascii.c **** ***************************************************************************************************
 214:../Dave/Generated/UCPROBE/lib_ascii.c **** */
 215:../Dave/Generated/UCPROBE/lib_ascii.c **** 
 216:../Dave/Generated/UCPROBE/lib_ascii.c **** CPU_BOOLEAN  ASCII_IsLower (CPU_CHAR  c)
 217:../Dave/Generated/UCPROBE/lib_ascii.c **** {
 179              	 .loc 1 217 0
 180              	 .cfi_startproc
 181              	 
 182              	 
 183              	 
 184 0000 80B4     	 push {r7}
 185              	.LCFI12:
 186              	 .cfi_def_cfa_offset 4
 187              	 .cfi_offset 7,-4
 188 0002 85B0     	 sub sp,sp,#20
 189              	.LCFI13:
 190              	 .cfi_def_cfa_offset 24
 191 0004 00AF     	 add r7,sp,#0
 192              	.LCFI14:
 193              	 .cfi_def_cfa_register 7
 194 0006 0346     	 mov r3,r0
 195 0008 FB71     	 strb r3,[r7,#7]
 218:../Dave/Generated/UCPROBE/lib_ascii.c ****     CPU_BOOLEAN  lower;
 219:../Dave/Generated/UCPROBE/lib_ascii.c **** 
 220:../Dave/Generated/UCPROBE/lib_ascii.c **** 
 221:../Dave/Generated/UCPROBE/lib_ascii.c ****     lower = ASCII_IS_LOWER(c);
 196              	 .loc 1 221 0
 197 000a FB79     	 ldrb r3,[r7,#7]
 198 000c 602B     	 cmp r3,#96
 199 000e 04D9     	 bls .L15
 200              	 .loc 1 221 0 is_stmt 0 discriminator 1
 201 0010 FB79     	 ldrb r3,[r7,#7]
 202 0012 7A2B     	 cmp r3,#122
 203 0014 01D8     	 bhi .L15
 204              	 .loc 1 221 0 discriminator 3
 205 0016 0123     	 movs r3,#1
 206 0018 00E0     	 b .L16
 207              	.L15:
 208              	 .loc 1 221 0 discriminator 4
 209 001a 0023     	 movs r3,#0
 210              	.L16:
 211              	 .loc 1 221 0 discriminator 6
 212 001c FB73     	 strb r3,[r7,#15]
 222:../Dave/Generated/UCPROBE/lib_ascii.c **** 
 223:../Dave/Generated/UCPROBE/lib_ascii.c ****     return (lower);
 213              	 .loc 1 223 0 is_stmt 1 discriminator 6
 214 001e FB7B     	 ldrb r3,[r7,#15]
 224:../Dave/Generated/UCPROBE/lib_ascii.c **** }
 215              	 .loc 1 224 0 discriminator 6
 216 0020 1846     	 mov r0,r3
 217 0022 1437     	 adds r7,r7,#20
 218              	.LCFI15:
 219              	 .cfi_def_cfa_offset 4
 220 0024 BD46     	 mov sp,r7
 221              	.LCFI16:
 222              	 .cfi_def_cfa_register 13
 223              	 
 224 0026 5DF8047B 	 ldr r7,[sp],#4
 225              	.LCFI17:
 226              	 .cfi_restore 7
 227              	 .cfi_def_cfa_offset 0
 228 002a 7047     	 bx lr
 229              	 .cfi_endproc
 230              	.LFE2:
 232              	 .section .text.ASCII_IsUpper,"ax",%progbits
 233              	 .align 2
 234              	 .global ASCII_IsUpper
 235              	 .thumb
 236              	 .thumb_func
 238              	ASCII_IsUpper:
 239              	.LFB3:
 225:../Dave/Generated/UCPROBE/lib_ascii.c **** 
 226:../Dave/Generated/UCPROBE/lib_ascii.c **** 
 227:../Dave/Generated/UCPROBE/lib_ascii.c **** /*
 228:../Dave/Generated/UCPROBE/lib_ascii.c **** ***************************************************************************************************
 229:../Dave/Generated/UCPROBE/lib_ascii.c **** *                                           ASCII_IsUpper()
 230:../Dave/Generated/UCPROBE/lib_ascii.c **** *
 231:../Dave/Generated/UCPROBE/lib_ascii.c **** * Description : Determine whether a character is an uppercase alphabetic character.
 232:../Dave/Generated/UCPROBE/lib_ascii.c **** *
 233:../Dave/Generated/UCPROBE/lib_ascii.c **** * Argument(s) : c           Character to examine.
 234:../Dave/Generated/UCPROBE/lib_ascii.c **** *
 235:../Dave/Generated/UCPROBE/lib_ascii.c **** * Return(s)   : DEF_YES, if character is     an uppercase alphabetic character.
 236:../Dave/Generated/UCPROBE/lib_ascii.c **** *
 237:../Dave/Generated/UCPROBE/lib_ascii.c **** *               DEF_NO,     if character is NOT an uppercase alphabetic character.
 238:../Dave/Generated/UCPROBE/lib_ascii.c **** *
 239:../Dave/Generated/UCPROBE/lib_ascii.c **** * Caller(s)   : Application.
 240:../Dave/Generated/UCPROBE/lib_ascii.c **** *
 241:../Dave/Generated/UCPROBE/lib_ascii.c **** * Note(s)     : (1) ISO/IEC 9899:TC2, Section 7.4.1.11.(2) states that "isupper() returns true only
 242:../Dave/Generated/UCPROBE/lib_ascii.c **** *                   the uppercase letters".
 243:../Dave/Generated/UCPROBE/lib_ascii.c **** ***************************************************************************************************
 244:../Dave/Generated/UCPROBE/lib_ascii.c **** */
 245:../Dave/Generated/UCPROBE/lib_ascii.c **** 
 246:../Dave/Generated/UCPROBE/lib_ascii.c **** CPU_BOOLEAN  ASCII_IsUpper (CPU_CHAR  c)
 247:../Dave/Generated/UCPROBE/lib_ascii.c **** {
 240              	 .loc 1 247 0
 241              	 .cfi_startproc
 242              	 
 243              	 
 244              	 
 245 0000 80B4     	 push {r7}
 246              	.LCFI18:
 247              	 .cfi_def_cfa_offset 4
 248              	 .cfi_offset 7,-4
 249 0002 85B0     	 sub sp,sp,#20
 250              	.LCFI19:
 251              	 .cfi_def_cfa_offset 24
 252 0004 00AF     	 add r7,sp,#0
 253              	.LCFI20:
 254              	 .cfi_def_cfa_register 7
 255 0006 0346     	 mov r3,r0
 256 0008 FB71     	 strb r3,[r7,#7]
 248:../Dave/Generated/UCPROBE/lib_ascii.c ****     CPU_BOOLEAN  upper;
 249:../Dave/Generated/UCPROBE/lib_ascii.c **** 
 250:../Dave/Generated/UCPROBE/lib_ascii.c **** 
 251:../Dave/Generated/UCPROBE/lib_ascii.c ****     upper = ASCII_IS_UPPER(c);
 257              	 .loc 1 251 0
 258 000a FB79     	 ldrb r3,[r7,#7]
 259 000c 402B     	 cmp r3,#64
 260 000e 04D9     	 bls .L19
 261              	 .loc 1 251 0 is_stmt 0 discriminator 1
 262 0010 FB79     	 ldrb r3,[r7,#7]
 263 0012 5A2B     	 cmp r3,#90
 264 0014 01D8     	 bhi .L19
 265              	 .loc 1 251 0 discriminator 3
 266 0016 0123     	 movs r3,#1
 267 0018 00E0     	 b .L20
 268              	.L19:
 269              	 .loc 1 251 0 discriminator 4
 270 001a 0023     	 movs r3,#0
 271              	.L20:
 272              	 .loc 1 251 0 discriminator 6
 273 001c FB73     	 strb r3,[r7,#15]
 252:../Dave/Generated/UCPROBE/lib_ascii.c **** 
 253:../Dave/Generated/UCPROBE/lib_ascii.c ****     return (upper);
 274              	 .loc 1 253 0 is_stmt 1 discriminator 6
 275 001e FB7B     	 ldrb r3,[r7,#15]
 254:../Dave/Generated/UCPROBE/lib_ascii.c **** }
 276              	 .loc 1 254 0 discriminator 6
 277 0020 1846     	 mov r0,r3
 278 0022 1437     	 adds r7,r7,#20
 279              	.LCFI21:
 280              	 .cfi_def_cfa_offset 4
 281 0024 BD46     	 mov sp,r7
 282              	.LCFI22:
 283              	 .cfi_def_cfa_register 13
 284              	 
 285 0026 5DF8047B 	 ldr r7,[sp],#4
 286              	.LCFI23:
 287              	 .cfi_restore 7
 288              	 .cfi_def_cfa_offset 0
 289 002a 7047     	 bx lr
 290              	 .cfi_endproc
 291              	.LFE3:
 293              	 .section .text.ASCII_IsDig,"ax",%progbits
 294              	 .align 2
 295              	 .global ASCII_IsDig
 296              	 .thumb
 297              	 .thumb_func
 299              	ASCII_IsDig:
 300              	.LFB4:
 255:../Dave/Generated/UCPROBE/lib_ascii.c **** 
 256:../Dave/Generated/UCPROBE/lib_ascii.c **** 
 257:../Dave/Generated/UCPROBE/lib_ascii.c **** /*
 258:../Dave/Generated/UCPROBE/lib_ascii.c **** ***************************************************************************************************
 259:../Dave/Generated/UCPROBE/lib_ascii.c **** *                                            ASCII_IsDig()
 260:../Dave/Generated/UCPROBE/lib_ascii.c **** *
 261:../Dave/Generated/UCPROBE/lib_ascii.c **** * Description : Determine whether a character is a decimal-digit character.
 262:../Dave/Generated/UCPROBE/lib_ascii.c **** *
 263:../Dave/Generated/UCPROBE/lib_ascii.c **** * Argument(s) : c           Character to examine.
 264:../Dave/Generated/UCPROBE/lib_ascii.c **** *
 265:../Dave/Generated/UCPROBE/lib_ascii.c **** * Return(s)   : DEF_YES, if character is     a decimal-digit character.
 266:../Dave/Generated/UCPROBE/lib_ascii.c **** *
 267:../Dave/Generated/UCPROBE/lib_ascii.c **** *               DEF_NO,     if character is NOT a decimal-digit character.
 268:../Dave/Generated/UCPROBE/lib_ascii.c **** *
 269:../Dave/Generated/UCPROBE/lib_ascii.c **** * Caller(s)   : Application.
 270:../Dave/Generated/UCPROBE/lib_ascii.c **** *
 271:../Dave/Generated/UCPROBE/lib_ascii.c **** * Note(s)     : (1) ISO/IEC 9899:TC2, Section 7.4.1.5.(2)  states that "isdigit()  ... tests for an
 272:../Dave/Generated/UCPROBE/lib_ascii.c **** *                   decimal-digit character".
 273:../Dave/Generated/UCPROBE/lib_ascii.c **** ***************************************************************************************************
 274:../Dave/Generated/UCPROBE/lib_ascii.c **** */
 275:../Dave/Generated/UCPROBE/lib_ascii.c **** 
 276:../Dave/Generated/UCPROBE/lib_ascii.c **** CPU_BOOLEAN  ASCII_IsDig (CPU_CHAR  c)
 277:../Dave/Generated/UCPROBE/lib_ascii.c **** {
 301              	 .loc 1 277 0
 302              	 .cfi_startproc
 303              	 
 304              	 
 305              	 
 306 0000 80B4     	 push {r7}
 307              	.LCFI24:
 308              	 .cfi_def_cfa_offset 4
 309              	 .cfi_offset 7,-4
 310 0002 85B0     	 sub sp,sp,#20
 311              	.LCFI25:
 312              	 .cfi_def_cfa_offset 24
 313 0004 00AF     	 add r7,sp,#0
 314              	.LCFI26:
 315              	 .cfi_def_cfa_register 7
 316 0006 0346     	 mov r3,r0
 317 0008 FB71     	 strb r3,[r7,#7]
 278:../Dave/Generated/UCPROBE/lib_ascii.c ****     CPU_BOOLEAN  dig;
 279:../Dave/Generated/UCPROBE/lib_ascii.c **** 
 280:../Dave/Generated/UCPROBE/lib_ascii.c **** 
 281:../Dave/Generated/UCPROBE/lib_ascii.c ****     dig = ASCII_IS_DIG(c);
 318              	 .loc 1 281 0
 319 000a FB79     	 ldrb r3,[r7,#7]
 320 000c 2F2B     	 cmp r3,#47
 321 000e 04D9     	 bls .L23
 322              	 .loc 1 281 0 is_stmt 0 discriminator 1
 323 0010 FB79     	 ldrb r3,[r7,#7]
 324 0012 392B     	 cmp r3,#57
 325 0014 01D8     	 bhi .L23
 326              	 .loc 1 281 0 discriminator 3
 327 0016 0123     	 movs r3,#1
 328 0018 00E0     	 b .L24
 329              	.L23:
 330              	 .loc 1 281 0 discriminator 4
 331 001a 0023     	 movs r3,#0
 332              	.L24:
 333              	 .loc 1 281 0 discriminator 6
 334 001c FB73     	 strb r3,[r7,#15]
 282:../Dave/Generated/UCPROBE/lib_ascii.c **** 
 283:../Dave/Generated/UCPROBE/lib_ascii.c ****     return (dig);
 335              	 .loc 1 283 0 is_stmt 1 discriminator 6
 336 001e FB7B     	 ldrb r3,[r7,#15]
 284:../Dave/Generated/UCPROBE/lib_ascii.c **** }
 337              	 .loc 1 284 0 discriminator 6
 338 0020 1846     	 mov r0,r3
 339 0022 1437     	 adds r7,r7,#20
 340              	.LCFI27:
 341              	 .cfi_def_cfa_offset 4
 342 0024 BD46     	 mov sp,r7
 343              	.LCFI28:
 344              	 .cfi_def_cfa_register 13
 345              	 
 346 0026 5DF8047B 	 ldr r7,[sp],#4
 347              	.LCFI29:
 348              	 .cfi_restore 7
 349              	 .cfi_def_cfa_offset 0
 350 002a 7047     	 bx lr
 351              	 .cfi_endproc
 352              	.LFE4:
 354              	 .section .text.ASCII_IsDigOct,"ax",%progbits
 355              	 .align 2
 356              	 .global ASCII_IsDigOct
 357              	 .thumb
 358              	 .thumb_func
 360              	ASCII_IsDigOct:
 361              	.LFB5:
 285:../Dave/Generated/UCPROBE/lib_ascii.c **** 
 286:../Dave/Generated/UCPROBE/lib_ascii.c **** 
 287:../Dave/Generated/UCPROBE/lib_ascii.c **** /*
 288:../Dave/Generated/UCPROBE/lib_ascii.c **** ***************************************************************************************************
 289:../Dave/Generated/UCPROBE/lib_ascii.c **** *                                          ASCII_IsDigOct()
 290:../Dave/Generated/UCPROBE/lib_ascii.c **** *
 291:../Dave/Generated/UCPROBE/lib_ascii.c **** * Description : Determine whether a character is an octal-digit character.
 292:../Dave/Generated/UCPROBE/lib_ascii.c **** *
 293:../Dave/Generated/UCPROBE/lib_ascii.c **** * Argument(s) : c           Character to examine.
 294:../Dave/Generated/UCPROBE/lib_ascii.c **** *
 295:../Dave/Generated/UCPROBE/lib_ascii.c **** * Return(s)   : DEF_YES, if character is     an octal-digit character.
 296:../Dave/Generated/UCPROBE/lib_ascii.c **** *
 297:../Dave/Generated/UCPROBE/lib_ascii.c **** *               DEF_NO,     if character is NOT an octal-digit character.
 298:../Dave/Generated/UCPROBE/lib_ascii.c **** *
 299:../Dave/Generated/UCPROBE/lib_ascii.c **** * Caller(s)   : Application.
 300:../Dave/Generated/UCPROBE/lib_ascii.c **** *
 301:../Dave/Generated/UCPROBE/lib_ascii.c **** * Note(s)     : none.
 302:../Dave/Generated/UCPROBE/lib_ascii.c **** ***************************************************************************************************
 303:../Dave/Generated/UCPROBE/lib_ascii.c **** */
 304:../Dave/Generated/UCPROBE/lib_ascii.c **** 
 305:../Dave/Generated/UCPROBE/lib_ascii.c **** CPU_BOOLEAN  ASCII_IsDigOct (CPU_CHAR  c)
 306:../Dave/Generated/UCPROBE/lib_ascii.c **** {
 362              	 .loc 1 306 0
 363              	 .cfi_startproc
 364              	 
 365              	 
 366              	 
 367 0000 80B4     	 push {r7}
 368              	.LCFI30:
 369              	 .cfi_def_cfa_offset 4
 370              	 .cfi_offset 7,-4
 371 0002 85B0     	 sub sp,sp,#20
 372              	.LCFI31:
 373              	 .cfi_def_cfa_offset 24
 374 0004 00AF     	 add r7,sp,#0
 375              	.LCFI32:
 376              	 .cfi_def_cfa_register 7
 377 0006 0346     	 mov r3,r0
 378 0008 FB71     	 strb r3,[r7,#7]
 307:../Dave/Generated/UCPROBE/lib_ascii.c ****     CPU_BOOLEAN  dig_oct;
 308:../Dave/Generated/UCPROBE/lib_ascii.c **** 
 309:../Dave/Generated/UCPROBE/lib_ascii.c **** 
 310:../Dave/Generated/UCPROBE/lib_ascii.c ****     dig_oct = ASCII_IS_DIG_OCT(c);
 379              	 .loc 1 310 0
 380 000a FB79     	 ldrb r3,[r7,#7]
 381 000c 2F2B     	 cmp r3,#47
 382 000e 04D9     	 bls .L27
 383              	 .loc 1 310 0 is_stmt 0 discriminator 1
 384 0010 FB79     	 ldrb r3,[r7,#7]
 385 0012 372B     	 cmp r3,#55
 386 0014 01D8     	 bhi .L27
 387              	 .loc 1 310 0 discriminator 3
 388 0016 0123     	 movs r3,#1
 389 0018 00E0     	 b .L28
 390              	.L27:
 391              	 .loc 1 310 0 discriminator 4
 392 001a 0023     	 movs r3,#0
 393              	.L28:
 394              	 .loc 1 310 0 discriminator 6
 395 001c FB73     	 strb r3,[r7,#15]
 311:../Dave/Generated/UCPROBE/lib_ascii.c **** 
 312:../Dave/Generated/UCPROBE/lib_ascii.c ****     return (dig_oct);
 396              	 .loc 1 312 0 is_stmt 1 discriminator 6
 397 001e FB7B     	 ldrb r3,[r7,#15]
 313:../Dave/Generated/UCPROBE/lib_ascii.c **** }
 398              	 .loc 1 313 0 discriminator 6
 399 0020 1846     	 mov r0,r3
 400 0022 1437     	 adds r7,r7,#20
 401              	.LCFI33:
 402              	 .cfi_def_cfa_offset 4
 403 0024 BD46     	 mov sp,r7
 404              	.LCFI34:
 405              	 .cfi_def_cfa_register 13
 406              	 
 407 0026 5DF8047B 	 ldr r7,[sp],#4
 408              	.LCFI35:
 409              	 .cfi_restore 7
 410              	 .cfi_def_cfa_offset 0
 411 002a 7047     	 bx lr
 412              	 .cfi_endproc
 413              	.LFE5:
 415              	 .section .text.ASCII_IsDigHex,"ax",%progbits
 416              	 .align 2
 417              	 .global ASCII_IsDigHex
 418              	 .thumb
 419              	 .thumb_func
 421              	ASCII_IsDigHex:
 422              	.LFB6:
 314:../Dave/Generated/UCPROBE/lib_ascii.c **** 
 315:../Dave/Generated/UCPROBE/lib_ascii.c **** 
 316:../Dave/Generated/UCPROBE/lib_ascii.c **** /*
 317:../Dave/Generated/UCPROBE/lib_ascii.c **** ***************************************************************************************************
 318:../Dave/Generated/UCPROBE/lib_ascii.c **** *                                          ASCII_IsDigHex()
 319:../Dave/Generated/UCPROBE/lib_ascii.c **** *
 320:../Dave/Generated/UCPROBE/lib_ascii.c **** * Description : Determine whether a character is a hexadecimal-digit character.
 321:../Dave/Generated/UCPROBE/lib_ascii.c **** *
 322:../Dave/Generated/UCPROBE/lib_ascii.c **** * Argument(s) : c           Character to examine.
 323:../Dave/Generated/UCPROBE/lib_ascii.c **** *
 324:../Dave/Generated/UCPROBE/lib_ascii.c **** * Return(s)   : DEF_YES, if character is     a hexadecimal-digit character.
 325:../Dave/Generated/UCPROBE/lib_ascii.c **** *
 326:../Dave/Generated/UCPROBE/lib_ascii.c **** *               DEF_NO,     if character is NOT a hexadecimal-digit character.
 327:../Dave/Generated/UCPROBE/lib_ascii.c **** *
 328:../Dave/Generated/UCPROBE/lib_ascii.c **** * Caller(s)   : Application.
 329:../Dave/Generated/UCPROBE/lib_ascii.c **** *
 330:../Dave/Generated/UCPROBE/lib_ascii.c **** * Note(s)     : (1) ISO/IEC 9899:TC2, Section 7.4.1.12.(2) states that "isxdigit() ... tests for an
 331:../Dave/Generated/UCPROBE/lib_ascii.c **** *                   hexadecimal-digit character".
 332:../Dave/Generated/UCPROBE/lib_ascii.c **** ***************************************************************************************************
 333:../Dave/Generated/UCPROBE/lib_ascii.c **** */
 334:../Dave/Generated/UCPROBE/lib_ascii.c **** 
 335:../Dave/Generated/UCPROBE/lib_ascii.c **** CPU_BOOLEAN  ASCII_IsDigHex (CPU_CHAR  c)
 336:../Dave/Generated/UCPROBE/lib_ascii.c **** {
 423              	 .loc 1 336 0
 424              	 .cfi_startproc
 425              	 
 426              	 
 427              	 
 428 0000 80B4     	 push {r7}
 429              	.LCFI36:
 430              	 .cfi_def_cfa_offset 4
 431              	 .cfi_offset 7,-4
 432 0002 85B0     	 sub sp,sp,#20
 433              	.LCFI37:
 434              	 .cfi_def_cfa_offset 24
 435 0004 00AF     	 add r7,sp,#0
 436              	.LCFI38:
 437              	 .cfi_def_cfa_register 7
 438 0006 0346     	 mov r3,r0
 439 0008 FB71     	 strb r3,[r7,#7]
 337:../Dave/Generated/UCPROBE/lib_ascii.c ****     CPU_BOOLEAN  dig_hex;
 338:../Dave/Generated/UCPROBE/lib_ascii.c **** 
 339:../Dave/Generated/UCPROBE/lib_ascii.c **** 
 340:../Dave/Generated/UCPROBE/lib_ascii.c ****     dig_hex = ASCII_IS_DIG_HEX(c);
 440              	 .loc 1 340 0
 441 000a FB79     	 ldrb r3,[r7,#7]
 442 000c 2F2B     	 cmp r3,#47
 443 000e 02D9     	 bls .L31
 444              	 .loc 1 340 0 is_stmt 0 discriminator 1
 445 0010 FB79     	 ldrb r3,[r7,#7]
 446 0012 392B     	 cmp r3,#57
 447 0014 0BD9     	 bls .L32
 448              	.L31:
 449              	 .loc 1 340 0 discriminator 4
 450 0016 FB79     	 ldrb r3,[r7,#7]
 451 0018 402B     	 cmp r3,#64
 452 001a 02D9     	 bls .L33
 453              	 .loc 1 340 0 discriminator 5
 454 001c FB79     	 ldrb r3,[r7,#7]
 455 001e 462B     	 cmp r3,#70
 456 0020 05D9     	 bls .L32
 457              	.L33:
 458              	 .loc 1 340 0 discriminator 8
 459 0022 FB79     	 ldrb r3,[r7,#7]
 460 0024 602B     	 cmp r3,#96
 461 0026 04D9     	 bls .L34
 462              	 .loc 1 340 0 discriminator 9
 463 0028 FB79     	 ldrb r3,[r7,#7]
 464 002a 662B     	 cmp r3,#102
 465 002c 01D8     	 bhi .L34
 466              	.L32:
 467              	 .loc 1 340 0 discriminator 11
 468 002e 0123     	 movs r3,#1
 469 0030 00E0     	 b .L35
 470              	.L34:
 471              	 .loc 1 340 0 discriminator 12
 472 0032 0023     	 movs r3,#0
 473              	.L35:
 474              	 .loc 1 340 0 discriminator 14
 475 0034 FB73     	 strb r3,[r7,#15]
 341:../Dave/Generated/UCPROBE/lib_ascii.c **** 
 342:../Dave/Generated/UCPROBE/lib_ascii.c ****     return (dig_hex);
 476              	 .loc 1 342 0 is_stmt 1 discriminator 14
 477 0036 FB7B     	 ldrb r3,[r7,#15]
 343:../Dave/Generated/UCPROBE/lib_ascii.c **** }
 478              	 .loc 1 343 0 discriminator 14
 479 0038 1846     	 mov r0,r3
 480 003a 1437     	 adds r7,r7,#20
 481              	.LCFI39:
 482              	 .cfi_def_cfa_offset 4
 483 003c BD46     	 mov sp,r7
 484              	.LCFI40:
 485              	 .cfi_def_cfa_register 13
 486              	 
 487 003e 5DF8047B 	 ldr r7,[sp],#4
 488              	.LCFI41:
 489              	 .cfi_restore 7
 490              	 .cfi_def_cfa_offset 0
 491 0042 7047     	 bx lr
 492              	 .cfi_endproc
 493              	.LFE6:
 495              	 .section .text.ASCII_IsBlank,"ax",%progbits
 496              	 .align 2
 497              	 .global ASCII_IsBlank
 498              	 .thumb
 499              	 .thumb_func
 501              	ASCII_IsBlank:
 502              	.LFB7:
 344:../Dave/Generated/UCPROBE/lib_ascii.c **** 
 345:../Dave/Generated/UCPROBE/lib_ascii.c **** 
 346:../Dave/Generated/UCPROBE/lib_ascii.c **** /*
 347:../Dave/Generated/UCPROBE/lib_ascii.c **** ***************************************************************************************************
 348:../Dave/Generated/UCPROBE/lib_ascii.c **** *                                           ASCII_IsBlank()
 349:../Dave/Generated/UCPROBE/lib_ascii.c **** *
 350:../Dave/Generated/UCPROBE/lib_ascii.c **** * Description : Determine whether a character is a standard blank character.
 351:../Dave/Generated/UCPROBE/lib_ascii.c **** *
 352:../Dave/Generated/UCPROBE/lib_ascii.c **** * Argument(s) : c           Character to examine.
 353:../Dave/Generated/UCPROBE/lib_ascii.c **** *
 354:../Dave/Generated/UCPROBE/lib_ascii.c **** * Return(s)   : DEF_YES, if character is     a standard blank character.
 355:../Dave/Generated/UCPROBE/lib_ascii.c **** *
 356:../Dave/Generated/UCPROBE/lib_ascii.c **** *               DEF_NO,     if character is NOT a standard blank character.
 357:../Dave/Generated/UCPROBE/lib_ascii.c **** *
 358:../Dave/Generated/UCPROBE/lib_ascii.c **** * Caller(s)   : Application.
 359:../Dave/Generated/UCPROBE/lib_ascii.c **** *
 360:../Dave/Generated/UCPROBE/lib_ascii.c **** * Note(s)     : (1) (a) ISO/IEC 9899:TC2, Section 7.4.1.3.(2) states that "isblank() returns true o
 361:../Dave/Generated/UCPROBE/lib_ascii.c **** *                       the standard blank characters".
 362:../Dave/Generated/UCPROBE/lib_ascii.c **** *
 363:../Dave/Generated/UCPROBE/lib_ascii.c **** *                   (b) ISO/IEC 9899:TC2, Section 7.4.1.3.(2) defines "the standard blank character
 364:../Dave/Generated/UCPROBE/lib_ascii.c **** *                       the "space (' '), and horizontal tab ('\t')".
 365:../Dave/Generated/UCPROBE/lib_ascii.c **** ***************************************************************************************************
 366:../Dave/Generated/UCPROBE/lib_ascii.c **** */
 367:../Dave/Generated/UCPROBE/lib_ascii.c **** 
 368:../Dave/Generated/UCPROBE/lib_ascii.c **** CPU_BOOLEAN  ASCII_IsBlank (CPU_CHAR  c)
 369:../Dave/Generated/UCPROBE/lib_ascii.c **** {
 503              	 .loc 1 369 0
 504              	 .cfi_startproc
 505              	 
 506              	 
 507              	 
 508 0000 80B4     	 push {r7}
 509              	.LCFI42:
 510              	 .cfi_def_cfa_offset 4
 511              	 .cfi_offset 7,-4
 512 0002 85B0     	 sub sp,sp,#20
 513              	.LCFI43:
 514              	 .cfi_def_cfa_offset 24
 515 0004 00AF     	 add r7,sp,#0
 516              	.LCFI44:
 517              	 .cfi_def_cfa_register 7
 518 0006 0346     	 mov r3,r0
 519 0008 FB71     	 strb r3,[r7,#7]
 370:../Dave/Generated/UCPROBE/lib_ascii.c ****     CPU_BOOLEAN  blank;
 371:../Dave/Generated/UCPROBE/lib_ascii.c **** 
 372:../Dave/Generated/UCPROBE/lib_ascii.c **** 
 373:../Dave/Generated/UCPROBE/lib_ascii.c ****     blank = ASCII_IS_BLANK(c);
 520              	 .loc 1 373 0
 521 000a FB79     	 ldrb r3,[r7,#7]
 522 000c 202B     	 cmp r3,#32
 523 000e 02D0     	 beq .L38
 524              	 .loc 1 373 0 is_stmt 0 discriminator 2
 525 0010 FB79     	 ldrb r3,[r7,#7]
 526 0012 092B     	 cmp r3,#9
 527 0014 01D1     	 bne .L39
 528              	.L38:
 529              	 .loc 1 373 0 discriminator 3
 530 0016 0123     	 movs r3,#1
 531 0018 00E0     	 b .L40
 532              	.L39:
 533              	 .loc 1 373 0 discriminator 4
 534 001a 0023     	 movs r3,#0
 535              	.L40:
 536              	 .loc 1 373 0 discriminator 6
 537 001c FB73     	 strb r3,[r7,#15]
 374:../Dave/Generated/UCPROBE/lib_ascii.c **** 
 375:../Dave/Generated/UCPROBE/lib_ascii.c ****     return (blank);
 538              	 .loc 1 375 0 is_stmt 1 discriminator 6
 539 001e FB7B     	 ldrb r3,[r7,#15]
 376:../Dave/Generated/UCPROBE/lib_ascii.c **** }
 540              	 .loc 1 376 0 discriminator 6
 541 0020 1846     	 mov r0,r3
 542 0022 1437     	 adds r7,r7,#20
 543              	.LCFI45:
 544              	 .cfi_def_cfa_offset 4
 545 0024 BD46     	 mov sp,r7
 546              	.LCFI46:
 547              	 .cfi_def_cfa_register 13
 548              	 
 549 0026 5DF8047B 	 ldr r7,[sp],#4
 550              	.LCFI47:
 551              	 .cfi_restore 7
 552              	 .cfi_def_cfa_offset 0
 553 002a 7047     	 bx lr
 554              	 .cfi_endproc
 555              	.LFE7:
 557              	 .section .text.ASCII_IsSpace,"ax",%progbits
 558              	 .align 2
 559              	 .global ASCII_IsSpace
 560              	 .thumb
 561              	 .thumb_func
 563              	ASCII_IsSpace:
 564              	.LFB8:
 377:../Dave/Generated/UCPROBE/lib_ascii.c **** 
 378:../Dave/Generated/UCPROBE/lib_ascii.c **** 
 379:../Dave/Generated/UCPROBE/lib_ascii.c **** /*
 380:../Dave/Generated/UCPROBE/lib_ascii.c **** ***************************************************************************************************
 381:../Dave/Generated/UCPROBE/lib_ascii.c **** *                                           ASCII_IsSpace()
 382:../Dave/Generated/UCPROBE/lib_ascii.c **** *
 383:../Dave/Generated/UCPROBE/lib_ascii.c **** * Description : Determine whether a character is a white-space character.
 384:../Dave/Generated/UCPROBE/lib_ascii.c **** *
 385:../Dave/Generated/UCPROBE/lib_ascii.c **** * Argument(s) : c           Character to examine.
 386:../Dave/Generated/UCPROBE/lib_ascii.c **** *
 387:../Dave/Generated/UCPROBE/lib_ascii.c **** * Return(s)   : DEF_YES, if character is     a white-space character.
 388:../Dave/Generated/UCPROBE/lib_ascii.c **** *
 389:../Dave/Generated/UCPROBE/lib_ascii.c **** *               DEF_NO,     if character is NOT a white-space character.
 390:../Dave/Generated/UCPROBE/lib_ascii.c **** *
 391:../Dave/Generated/UCPROBE/lib_ascii.c **** * Caller(s)   : Application.
 392:../Dave/Generated/UCPROBE/lib_ascii.c **** *
 393:../Dave/Generated/UCPROBE/lib_ascii.c **** * Note(s)     : (1) (a) ISO/IEC 9899:TC2, Section 7.4.1.10.(2) states that "isspace() returns true 
 394:../Dave/Generated/UCPROBE/lib_ascii.c **** *                       for the standard white-space characters".
 395:../Dave/Generated/UCPROBE/lib_ascii.c **** *
 396:../Dave/Generated/UCPROBE/lib_ascii.c **** *                   (b) ISO/IEC 9899:TC2, Section 7.4.1.10.(2) defines "the standard white-space ch
 397:../Dave/Generated/UCPROBE/lib_ascii.c **** *                       as the "space (' '), form feed ('\f'), new-line ('\n'), carriage return ('\
 398:../Dave/Generated/UCPROBE/lib_ascii.c **** *                       horizontal tab ('\t'), and vertical tab ('\v')".
 399:../Dave/Generated/UCPROBE/lib_ascii.c **** ***************************************************************************************************
 400:../Dave/Generated/UCPROBE/lib_ascii.c **** */
 401:../Dave/Generated/UCPROBE/lib_ascii.c **** 
 402:../Dave/Generated/UCPROBE/lib_ascii.c **** CPU_BOOLEAN  ASCII_IsSpace (CPU_CHAR  c)
 403:../Dave/Generated/UCPROBE/lib_ascii.c **** {
 565              	 .loc 1 403 0
 566              	 .cfi_startproc
 567              	 
 568              	 
 569              	 
 570 0000 80B4     	 push {r7}
 571              	.LCFI48:
 572              	 .cfi_def_cfa_offset 4
 573              	 .cfi_offset 7,-4
 574 0002 85B0     	 sub sp,sp,#20
 575              	.LCFI49:
 576              	 .cfi_def_cfa_offset 24
 577 0004 00AF     	 add r7,sp,#0
 578              	.LCFI50:
 579              	 .cfi_def_cfa_register 7
 580 0006 0346     	 mov r3,r0
 581 0008 FB71     	 strb r3,[r7,#7]
 404:../Dave/Generated/UCPROBE/lib_ascii.c ****     CPU_BOOLEAN  space;
 405:../Dave/Generated/UCPROBE/lib_ascii.c **** 
 406:../Dave/Generated/UCPROBE/lib_ascii.c **** 
 407:../Dave/Generated/UCPROBE/lib_ascii.c ****     space = ASCII_IS_SPACE(c);
 582              	 .loc 1 407 0
 583 000a FB79     	 ldrb r3,[r7,#7]
 584 000c 202B     	 cmp r3,#32
 585 000e 0ED0     	 beq .L43
 586              	 .loc 1 407 0 is_stmt 0 discriminator 2
 587 0010 FB79     	 ldrb r3,[r7,#7]
 588 0012 0D2B     	 cmp r3,#13
 589 0014 0BD0     	 beq .L43
 590              	 .loc 1 407 0 discriminator 4
 591 0016 FB79     	 ldrb r3,[r7,#7]
 592 0018 0A2B     	 cmp r3,#10
 593 001a 08D0     	 beq .L43
 594              	 .loc 1 407 0 discriminator 6
 595 001c FB79     	 ldrb r3,[r7,#7]
 596 001e 0C2B     	 cmp r3,#12
 597 0020 05D0     	 beq .L43
 598              	 .loc 1 407 0 discriminator 8
 599 0022 FB79     	 ldrb r3,[r7,#7]
 600 0024 092B     	 cmp r3,#9
 601 0026 02D0     	 beq .L43
 602              	 .loc 1 407 0 discriminator 10
 603 0028 FB79     	 ldrb r3,[r7,#7]
 604 002a 0B2B     	 cmp r3,#11
 605 002c 01D1     	 bne .L44
 606              	.L43:
 607              	 .loc 1 407 0 discriminator 11
 608 002e 0123     	 movs r3,#1
 609 0030 00E0     	 b .L45
 610              	.L44:
 611              	 .loc 1 407 0 discriminator 12
 612 0032 0023     	 movs r3,#0
 613              	.L45:
 614              	 .loc 1 407 0 discriminator 14
 615 0034 FB73     	 strb r3,[r7,#15]
 408:../Dave/Generated/UCPROBE/lib_ascii.c **** 
 409:../Dave/Generated/UCPROBE/lib_ascii.c ****     return (space);
 616              	 .loc 1 409 0 is_stmt 1 discriminator 14
 617 0036 FB7B     	 ldrb r3,[r7,#15]
 410:../Dave/Generated/UCPROBE/lib_ascii.c **** }
 618              	 .loc 1 410 0 discriminator 14
 619 0038 1846     	 mov r0,r3
 620 003a 1437     	 adds r7,r7,#20
 621              	.LCFI51:
 622              	 .cfi_def_cfa_offset 4
 623 003c BD46     	 mov sp,r7
 624              	.LCFI52:
 625              	 .cfi_def_cfa_register 13
 626              	 
 627 003e 5DF8047B 	 ldr r7,[sp],#4
 628              	.LCFI53:
 629              	 .cfi_restore 7
 630              	 .cfi_def_cfa_offset 0
 631 0042 7047     	 bx lr
 632              	 .cfi_endproc
 633              	.LFE8:
 635              	 .section .text.ASCII_IsPrint,"ax",%progbits
 636              	 .align 2
 637              	 .global ASCII_IsPrint
 638              	 .thumb
 639              	 .thumb_func
 641              	ASCII_IsPrint:
 642              	.LFB9:
 411:../Dave/Generated/UCPROBE/lib_ascii.c **** 
 412:../Dave/Generated/UCPROBE/lib_ascii.c **** 
 413:../Dave/Generated/UCPROBE/lib_ascii.c **** /*
 414:../Dave/Generated/UCPROBE/lib_ascii.c **** ***************************************************************************************************
 415:../Dave/Generated/UCPROBE/lib_ascii.c **** *                                           ASCII_IsPrint()
 416:../Dave/Generated/UCPROBE/lib_ascii.c **** *
 417:../Dave/Generated/UCPROBE/lib_ascii.c **** * Description : Determine whether a character is a printing character.
 418:../Dave/Generated/UCPROBE/lib_ascii.c **** *
 419:../Dave/Generated/UCPROBE/lib_ascii.c **** * Argument(s) : c           Character to examine.
 420:../Dave/Generated/UCPROBE/lib_ascii.c **** *
 421:../Dave/Generated/UCPROBE/lib_ascii.c **** * Return(s)   : DEF_YES, if character is     a printing character.
 422:../Dave/Generated/UCPROBE/lib_ascii.c **** *
 423:../Dave/Generated/UCPROBE/lib_ascii.c **** *               DEF_NO,     if character is NOT a printing character.
 424:../Dave/Generated/UCPROBE/lib_ascii.c **** *
 425:../Dave/Generated/UCPROBE/lib_ascii.c **** * Caller(s)   : Application.
 426:../Dave/Generated/UCPROBE/lib_ascii.c **** *
 427:../Dave/Generated/UCPROBE/lib_ascii.c **** * Note(s)     : (1) (a) ISO/IEC 9899:TC2, Section 7.4.1.8.(2) states that "isprint() ... tests for 
 428:../Dave/Generated/UCPROBE/lib_ascii.c **** *                       printing character including space (' ')".
 429:../Dave/Generated/UCPROBE/lib_ascii.c **** *
 430:../Dave/Generated/UCPROBE/lib_ascii.c **** *                   (b) ISO/IEC 9899:TC2, Section 7.4.(3), Note 169, states that in "the seven-bit 
 431:../Dave/Generated/UCPROBE/lib_ascii.c **** *                       ASCII character set, the printing characters are those whose values lie fro
 432:../Dave/Generated/UCPROBE/lib_ascii.c **** *                       0x20 (space) through 0x7E (tilde)".
 433:../Dave/Generated/UCPROBE/lib_ascii.c **** ***************************************************************************************************
 434:../Dave/Generated/UCPROBE/lib_ascii.c **** */
 435:../Dave/Generated/UCPROBE/lib_ascii.c **** 
 436:../Dave/Generated/UCPROBE/lib_ascii.c **** CPU_BOOLEAN  ASCII_IsPrint (CPU_CHAR  c)
 437:../Dave/Generated/UCPROBE/lib_ascii.c **** {
 643              	 .loc 1 437 0
 644              	 .cfi_startproc
 645              	 
 646              	 
 647              	 
 648 0000 80B4     	 push {r7}
 649              	.LCFI54:
 650              	 .cfi_def_cfa_offset 4
 651              	 .cfi_offset 7,-4
 652 0002 85B0     	 sub sp,sp,#20
 653              	.LCFI55:
 654              	 .cfi_def_cfa_offset 24
 655 0004 00AF     	 add r7,sp,#0
 656              	.LCFI56:
 657              	 .cfi_def_cfa_register 7
 658 0006 0346     	 mov r3,r0
 659 0008 FB71     	 strb r3,[r7,#7]
 438:../Dave/Generated/UCPROBE/lib_ascii.c ****     CPU_BOOLEAN  print;
 439:../Dave/Generated/UCPROBE/lib_ascii.c **** 
 440:../Dave/Generated/UCPROBE/lib_ascii.c **** 
 441:../Dave/Generated/UCPROBE/lib_ascii.c ****     print = ASCII_IS_PRINT(c);
 660              	 .loc 1 441 0
 661 000a FB79     	 ldrb r3,[r7,#7]
 662 000c 1F2B     	 cmp r3,#31
 663 000e 04D9     	 bls .L48
 664              	 .loc 1 441 0 is_stmt 0 discriminator 1
 665 0010 FB79     	 ldrb r3,[r7,#7]
 666 0012 7E2B     	 cmp r3,#126
 667 0014 01D8     	 bhi .L48
 668              	 .loc 1 441 0 discriminator 3
 669 0016 0123     	 movs r3,#1
 670 0018 00E0     	 b .L49
 671              	.L48:
 672              	 .loc 1 441 0 discriminator 4
 673 001a 0023     	 movs r3,#0
 674              	.L49:
 675              	 .loc 1 441 0 discriminator 6
 676 001c FB73     	 strb r3,[r7,#15]
 442:../Dave/Generated/UCPROBE/lib_ascii.c **** 
 443:../Dave/Generated/UCPROBE/lib_ascii.c ****     return (print);
 677              	 .loc 1 443 0 is_stmt 1 discriminator 6
 678 001e FB7B     	 ldrb r3,[r7,#15]
 444:../Dave/Generated/UCPROBE/lib_ascii.c **** }
 679              	 .loc 1 444 0 discriminator 6
 680 0020 1846     	 mov r0,r3
 681 0022 1437     	 adds r7,r7,#20
 682              	.LCFI57:
 683              	 .cfi_def_cfa_offset 4
 684 0024 BD46     	 mov sp,r7
 685              	.LCFI58:
 686              	 .cfi_def_cfa_register 13
 687              	 
 688 0026 5DF8047B 	 ldr r7,[sp],#4
 689              	.LCFI59:
 690              	 .cfi_restore 7
 691              	 .cfi_def_cfa_offset 0
 692 002a 7047     	 bx lr
 693              	 .cfi_endproc
 694              	.LFE9:
 696              	 .section .text.ASCII_IsGraph,"ax",%progbits
 697              	 .align 2
 698              	 .global ASCII_IsGraph
 699              	 .thumb
 700              	 .thumb_func
 702              	ASCII_IsGraph:
 703              	.LFB10:
 445:../Dave/Generated/UCPROBE/lib_ascii.c **** 
 446:../Dave/Generated/UCPROBE/lib_ascii.c **** 
 447:../Dave/Generated/UCPROBE/lib_ascii.c **** /*
 448:../Dave/Generated/UCPROBE/lib_ascii.c **** ***************************************************************************************************
 449:../Dave/Generated/UCPROBE/lib_ascii.c **** *                                           ASCII_IsGraph()
 450:../Dave/Generated/UCPROBE/lib_ascii.c **** *
 451:../Dave/Generated/UCPROBE/lib_ascii.c **** * Description : Determine whether a character is any printing character except a space character.
 452:../Dave/Generated/UCPROBE/lib_ascii.c **** *
 453:../Dave/Generated/UCPROBE/lib_ascii.c **** * Argument(s) : c           Character to examine.
 454:../Dave/Generated/UCPROBE/lib_ascii.c **** *
 455:../Dave/Generated/UCPROBE/lib_ascii.c **** * Return(s)   : DEF_YES, if character is     a graphic character.
 456:../Dave/Generated/UCPROBE/lib_ascii.c **** *
 457:../Dave/Generated/UCPROBE/lib_ascii.c **** *               DEF_NO,     if character is NOT a graphic character.
 458:../Dave/Generated/UCPROBE/lib_ascii.c **** *
 459:../Dave/Generated/UCPROBE/lib_ascii.c **** * Caller(s)   : Application.
 460:../Dave/Generated/UCPROBE/lib_ascii.c **** *
 461:../Dave/Generated/UCPROBE/lib_ascii.c **** * Note(s)     : (1) (a) ISO/IEC 9899:TC2, Section 7.4.1.6.(2) states that "isgraph() ... tests for 
 462:../Dave/Generated/UCPROBE/lib_ascii.c **** *                       printing character except space (' ')".
 463:../Dave/Generated/UCPROBE/lib_ascii.c **** *
 464:../Dave/Generated/UCPROBE/lib_ascii.c **** *                   (b) ISO/IEC 9899:TC2, Section 7.4.(3), Note 169, states that in "the seven-bit 
 465:../Dave/Generated/UCPROBE/lib_ascii.c **** *                       ASCII character set, the printing characters are those whose values lie fro
 466:../Dave/Generated/UCPROBE/lib_ascii.c **** *                       0x20 (space) through 0x7E (tilde)".
 467:../Dave/Generated/UCPROBE/lib_ascii.c **** ***************************************************************************************************
 468:../Dave/Generated/UCPROBE/lib_ascii.c **** */
 469:../Dave/Generated/UCPROBE/lib_ascii.c **** 
 470:../Dave/Generated/UCPROBE/lib_ascii.c **** CPU_BOOLEAN  ASCII_IsGraph (CPU_CHAR  c)
 471:../Dave/Generated/UCPROBE/lib_ascii.c **** {
 704              	 .loc 1 471 0
 705              	 .cfi_startproc
 706              	 
 707              	 
 708              	 
 709 0000 80B4     	 push {r7}
 710              	.LCFI60:
 711              	 .cfi_def_cfa_offset 4
 712              	 .cfi_offset 7,-4
 713 0002 85B0     	 sub sp,sp,#20
 714              	.LCFI61:
 715              	 .cfi_def_cfa_offset 24
 716 0004 00AF     	 add r7,sp,#0
 717              	.LCFI62:
 718              	 .cfi_def_cfa_register 7
 719 0006 0346     	 mov r3,r0
 720 0008 FB71     	 strb r3,[r7,#7]
 472:../Dave/Generated/UCPROBE/lib_ascii.c ****     CPU_BOOLEAN  graph;
 473:../Dave/Generated/UCPROBE/lib_ascii.c **** 
 474:../Dave/Generated/UCPROBE/lib_ascii.c **** 
 475:../Dave/Generated/UCPROBE/lib_ascii.c ****     graph = ASCII_IS_GRAPH(c);
 721              	 .loc 1 475 0
 722 000a FB79     	 ldrb r3,[r7,#7]
 723 000c 202B     	 cmp r3,#32
 724 000e 04D9     	 bls .L52
 725              	 .loc 1 475 0 is_stmt 0 discriminator 1
 726 0010 FB79     	 ldrb r3,[r7,#7]
 727 0012 7E2B     	 cmp r3,#126
 728 0014 01D8     	 bhi .L52
 729              	 .loc 1 475 0 discriminator 3
 730 0016 0123     	 movs r3,#1
 731 0018 00E0     	 b .L53
 732              	.L52:
 733              	 .loc 1 475 0 discriminator 4
 734 001a 0023     	 movs r3,#0
 735              	.L53:
 736              	 .loc 1 475 0 discriminator 6
 737 001c FB73     	 strb r3,[r7,#15]
 476:../Dave/Generated/UCPROBE/lib_ascii.c **** 
 477:../Dave/Generated/UCPROBE/lib_ascii.c ****     return (graph);
 738              	 .loc 1 477 0 is_stmt 1 discriminator 6
 739 001e FB7B     	 ldrb r3,[r7,#15]
 478:../Dave/Generated/UCPROBE/lib_ascii.c **** }
 740              	 .loc 1 478 0 discriminator 6
 741 0020 1846     	 mov r0,r3
 742 0022 1437     	 adds r7,r7,#20
 743              	.LCFI63:
 744              	 .cfi_def_cfa_offset 4
 745 0024 BD46     	 mov sp,r7
 746              	.LCFI64:
 747              	 .cfi_def_cfa_register 13
 748              	 
 749 0026 5DF8047B 	 ldr r7,[sp],#4
 750              	.LCFI65:
 751              	 .cfi_restore 7
 752              	 .cfi_def_cfa_offset 0
 753 002a 7047     	 bx lr
 754              	 .cfi_endproc
 755              	.LFE10:
 757              	 .section .text.ASCII_IsPunct,"ax",%progbits
 758              	 .align 2
 759              	 .global ASCII_IsPunct
 760              	 .thumb
 761              	 .thumb_func
 763              	ASCII_IsPunct:
 764              	.LFB11:
 479:../Dave/Generated/UCPROBE/lib_ascii.c **** 
 480:../Dave/Generated/UCPROBE/lib_ascii.c **** 
 481:../Dave/Generated/UCPROBE/lib_ascii.c **** /*
 482:../Dave/Generated/UCPROBE/lib_ascii.c **** ***************************************************************************************************
 483:../Dave/Generated/UCPROBE/lib_ascii.c **** *                                           ASCII_IsPunct()
 484:../Dave/Generated/UCPROBE/lib_ascii.c **** *
 485:../Dave/Generated/UCPROBE/lib_ascii.c **** * Description : Determine whether a character is a punctuation character.
 486:../Dave/Generated/UCPROBE/lib_ascii.c **** *
 487:../Dave/Generated/UCPROBE/lib_ascii.c **** * Argument(s) : c           Character to examine.
 488:../Dave/Generated/UCPROBE/lib_ascii.c **** *
 489:../Dave/Generated/UCPROBE/lib_ascii.c **** * Return(s)   : DEF_YES, if character is     a punctuation character.
 490:../Dave/Generated/UCPROBE/lib_ascii.c **** *
 491:../Dave/Generated/UCPROBE/lib_ascii.c **** *               DEF_NO,     if character is NOT a punctuation character.
 492:../Dave/Generated/UCPROBE/lib_ascii.c **** *
 493:../Dave/Generated/UCPROBE/lib_ascii.c **** * Caller(s)   : Application.
 494:../Dave/Generated/UCPROBE/lib_ascii.c **** *
 495:../Dave/Generated/UCPROBE/lib_ascii.c **** * Note(s)     : (1) ISO/IEC 9899:TC2, Section 7.4.1.9.(2) states that "ispunct() returns true for e
 496:../Dave/Generated/UCPROBE/lib_ascii.c **** *                   printing character for which neither isspace() nor isalnum() is true".
 497:../Dave/Generated/UCPROBE/lib_ascii.c **** ***************************************************************************************************
 498:../Dave/Generated/UCPROBE/lib_ascii.c **** */
 499:../Dave/Generated/UCPROBE/lib_ascii.c **** 
 500:../Dave/Generated/UCPROBE/lib_ascii.c **** CPU_BOOLEAN  ASCII_IsPunct (CPU_CHAR  c)
 501:../Dave/Generated/UCPROBE/lib_ascii.c **** {
 765              	 .loc 1 501 0
 766              	 .cfi_startproc
 767              	 
 768              	 
 769              	 
 770 0000 80B4     	 push {r7}
 771              	.LCFI66:
 772              	 .cfi_def_cfa_offset 4
 773              	 .cfi_offset 7,-4
 774 0002 85B0     	 sub sp,sp,#20
 775              	.LCFI67:
 776              	 .cfi_def_cfa_offset 24
 777 0004 00AF     	 add r7,sp,#0
 778              	.LCFI68:
 779              	 .cfi_def_cfa_register 7
 780 0006 0346     	 mov r3,r0
 781 0008 FB71     	 strb r3,[r7,#7]
 502:../Dave/Generated/UCPROBE/lib_ascii.c ****     CPU_BOOLEAN  punct;
 503:../Dave/Generated/UCPROBE/lib_ascii.c **** 
 504:../Dave/Generated/UCPROBE/lib_ascii.c **** 
 505:../Dave/Generated/UCPROBE/lib_ascii.c ****     punct = ASCII_IS_PUNCT(c);
 782              	 .loc 1 505 0
 783 000a FB79     	 ldrb r3,[r7,#7]
 784 000c 1F2B     	 cmp r3,#31
 785 000e 28D9     	 bls .L56
 786              	 .loc 1 505 0 is_stmt 0 discriminator 1
 787 0010 FB79     	 ldrb r3,[r7,#7]
 788 0012 7E2B     	 cmp r3,#126
 789 0014 25D8     	 bhi .L56
 790              	 .loc 1 505 0 discriminator 3
 791 0016 FB79     	 ldrb r3,[r7,#7]
 792 0018 202B     	 cmp r3,#32
 793 001a 22D0     	 beq .L56
 794              	 .loc 1 505 0 discriminator 5
 795 001c FB79     	 ldrb r3,[r7,#7]
 796 001e 0D2B     	 cmp r3,#13
 797 0020 1FD0     	 beq .L56
 798              	 .loc 1 505 0 discriminator 7
 799 0022 FB79     	 ldrb r3,[r7,#7]
 800 0024 0A2B     	 cmp r3,#10
 801 0026 1CD0     	 beq .L56
 802              	 .loc 1 505 0 discriminator 9
 803 0028 FB79     	 ldrb r3,[r7,#7]
 804 002a 0C2B     	 cmp r3,#12
 805 002c 19D0     	 beq .L56
 806              	 .loc 1 505 0 discriminator 11
 807 002e FB79     	 ldrb r3,[r7,#7]
 808 0030 092B     	 cmp r3,#9
 809 0032 16D0     	 beq .L56
 810              	 .loc 1 505 0 discriminator 13
 811 0034 FB79     	 ldrb r3,[r7,#7]
 812 0036 0B2B     	 cmp r3,#11
 813 0038 13D0     	 beq .L56
 814              	 .loc 1 505 0 discriminator 15
 815 003a FB79     	 ldrb r3,[r7,#7]
 816 003c 402B     	 cmp r3,#64
 817 003e 02D9     	 bls .L57
 818              	 .loc 1 505 0 discriminator 18
 819 0040 FB79     	 ldrb r3,[r7,#7]
 820 0042 5A2B     	 cmp r3,#90
 821 0044 0DD9     	 bls .L56
 822              	.L57:
 823              	 .loc 1 505 0 discriminator 19
 824 0046 FB79     	 ldrb r3,[r7,#7]
 825 0048 602B     	 cmp r3,#96
 826 004a 02D9     	 bls .L58
 827              	 .loc 1 505 0 discriminator 22
 828 004c FB79     	 ldrb r3,[r7,#7]
 829 004e 7A2B     	 cmp r3,#122
 830 0050 07D9     	 bls .L56
 831              	.L58:
 832              	 .loc 1 505 0 discriminator 23
 833 0052 FB79     	 ldrb r3,[r7,#7]
 834 0054 2F2B     	 cmp r3,#47
 835 0056 02D9     	 bls .L59
 836              	 .loc 1 505 0 discriminator 26
 837 0058 FB79     	 ldrb r3,[r7,#7]
 838 005a 392B     	 cmp r3,#57
 839 005c 01D9     	 bls .L56
 840              	.L59:
 841              	 .loc 1 505 0 discriminator 27
 842 005e 0123     	 movs r3,#1
 843 0060 00E0     	 b .L60
 844              	.L56:
 845              	 .loc 1 505 0 discriminator 28
 846 0062 0023     	 movs r3,#0
 847              	.L60:
 848              	 .loc 1 505 0 discriminator 30
 849 0064 FB73     	 strb r3,[r7,#15]
 506:../Dave/Generated/UCPROBE/lib_ascii.c **** 
 507:../Dave/Generated/UCPROBE/lib_ascii.c ****     return (punct);
 850              	 .loc 1 507 0 is_stmt 1 discriminator 30
 851 0066 FB7B     	 ldrb r3,[r7,#15]
 508:../Dave/Generated/UCPROBE/lib_ascii.c **** }
 852              	 .loc 1 508 0 discriminator 30
 853 0068 1846     	 mov r0,r3
 854 006a 1437     	 adds r7,r7,#20
 855              	.LCFI69:
 856              	 .cfi_def_cfa_offset 4
 857 006c BD46     	 mov sp,r7
 858              	.LCFI70:
 859              	 .cfi_def_cfa_register 13
 860              	 
 861 006e 5DF8047B 	 ldr r7,[sp],#4
 862              	.LCFI71:
 863              	 .cfi_restore 7
 864              	 .cfi_def_cfa_offset 0
 865 0072 7047     	 bx lr
 866              	 .cfi_endproc
 867              	.LFE11:
 869              	 .section .text.ASCII_IsCtrl,"ax",%progbits
 870              	 .align 2
 871              	 .global ASCII_IsCtrl
 872              	 .thumb
 873              	 .thumb_func
 875              	ASCII_IsCtrl:
 876              	.LFB12:
 509:../Dave/Generated/UCPROBE/lib_ascii.c **** 
 510:../Dave/Generated/UCPROBE/lib_ascii.c **** 
 511:../Dave/Generated/UCPROBE/lib_ascii.c **** /*
 512:../Dave/Generated/UCPROBE/lib_ascii.c **** ***************************************************************************************************
 513:../Dave/Generated/UCPROBE/lib_ascii.c **** *                                           ASCII_IsCtrl()
 514:../Dave/Generated/UCPROBE/lib_ascii.c **** *
 515:../Dave/Generated/UCPROBE/lib_ascii.c **** * Description : Determine whether a character is a control character.
 516:../Dave/Generated/UCPROBE/lib_ascii.c **** *
 517:../Dave/Generated/UCPROBE/lib_ascii.c **** * Argument(s) : c           Character to examine.
 518:../Dave/Generated/UCPROBE/lib_ascii.c **** *
 519:../Dave/Generated/UCPROBE/lib_ascii.c **** * Return(s)   : DEF_YES, if character is     a control character.
 520:../Dave/Generated/UCPROBE/lib_ascii.c **** *
 521:../Dave/Generated/UCPROBE/lib_ascii.c **** *               DEF_NO,     if character is NOT a control character.
 522:../Dave/Generated/UCPROBE/lib_ascii.c **** *
 523:../Dave/Generated/UCPROBE/lib_ascii.c **** * Caller(s)   : Application.
 524:../Dave/Generated/UCPROBE/lib_ascii.c **** *
 525:../Dave/Generated/UCPROBE/lib_ascii.c **** * Note(s)     : (1) (a) ISO/IEC 9899:TC2, Section 7.4.1.4.(2) states that "iscntrl() ... tests for 
 526:../Dave/Generated/UCPROBE/lib_ascii.c **** *                       control character".
 527:../Dave/Generated/UCPROBE/lib_ascii.c **** *
 528:../Dave/Generated/UCPROBE/lib_ascii.c **** *                   (b) ISO/IEC 9899:TC2, Section 7.4.(3), Note 169, states that in "the seven-bit 
 529:../Dave/Generated/UCPROBE/lib_ascii.c **** *                       ASCII character set, ... the control characters are those whose values lie 
 530:../Dave/Generated/UCPROBE/lib_ascii.c **** *                       0 (NUL) through 0x1F (US), and the character 0x7F (DEL)".
 531:../Dave/Generated/UCPROBE/lib_ascii.c **** ***************************************************************************************************
 532:../Dave/Generated/UCPROBE/lib_ascii.c **** */
 533:../Dave/Generated/UCPROBE/lib_ascii.c **** 
 534:../Dave/Generated/UCPROBE/lib_ascii.c **** CPU_BOOLEAN  ASCII_IsCtrl (CPU_CHAR  c)
 535:../Dave/Generated/UCPROBE/lib_ascii.c **** {
 877              	 .loc 1 535 0
 878              	 .cfi_startproc
 879              	 
 880              	 
 881              	 
 882 0000 80B4     	 push {r7}
 883              	.LCFI72:
 884              	 .cfi_def_cfa_offset 4
 885              	 .cfi_offset 7,-4
 886 0002 85B0     	 sub sp,sp,#20
 887              	.LCFI73:
 888              	 .cfi_def_cfa_offset 24
 889 0004 00AF     	 add r7,sp,#0
 890              	.LCFI74:
 891              	 .cfi_def_cfa_register 7
 892 0006 0346     	 mov r3,r0
 893 0008 FB71     	 strb r3,[r7,#7]
 536:../Dave/Generated/UCPROBE/lib_ascii.c ****     CPU_BOOLEAN  ctrl;
 537:../Dave/Generated/UCPROBE/lib_ascii.c **** 
 538:../Dave/Generated/UCPROBE/lib_ascii.c **** 
 539:../Dave/Generated/UCPROBE/lib_ascii.c ****     ctrl = ASCII_IS_CTRL(c);
 894              	 .loc 1 539 0
 895 000a FB79     	 ldrb r3,[r7,#7]
 896 000c 5BB2     	 sxtb r3,r3
 897 000e 002B     	 cmp r3,#0
 898 0010 02DB     	 blt .L63
 899              	 .loc 1 539 0 is_stmt 0 discriminator 1
 900 0012 FB79     	 ldrb r3,[r7,#7]
 901 0014 1F2B     	 cmp r3,#31
 902 0016 02D9     	 bls .L64
 903              	.L63:
 904              	 .loc 1 539 0 discriminator 4
 905 0018 FB79     	 ldrb r3,[r7,#7]
 906 001a 7F2B     	 cmp r3,#127
 907 001c 01D1     	 bne .L65
 908              	.L64:
 909              	 .loc 1 539 0 discriminator 5
 910 001e 0123     	 movs r3,#1
 911 0020 00E0     	 b .L66
 912              	.L65:
 913              	 .loc 1 539 0 discriminator 6
 914 0022 0023     	 movs r3,#0
 915              	.L66:
 916              	 .loc 1 539 0 discriminator 8
 917 0024 FB73     	 strb r3,[r7,#15]
 540:../Dave/Generated/UCPROBE/lib_ascii.c **** 
 541:../Dave/Generated/UCPROBE/lib_ascii.c ****     return (ctrl);
 918              	 .loc 1 541 0 is_stmt 1 discriminator 8
 919 0026 FB7B     	 ldrb r3,[r7,#15]
 542:../Dave/Generated/UCPROBE/lib_ascii.c **** }
 920              	 .loc 1 542 0 discriminator 8
 921 0028 1846     	 mov r0,r3
 922 002a 1437     	 adds r7,r7,#20
 923              	.LCFI75:
 924              	 .cfi_def_cfa_offset 4
 925 002c BD46     	 mov sp,r7
 926              	.LCFI76:
 927              	 .cfi_def_cfa_register 13
 928              	 
 929 002e 5DF8047B 	 ldr r7,[sp],#4
 930              	.LCFI77:
 931              	 .cfi_restore 7
 932              	 .cfi_def_cfa_offset 0
 933 0032 7047     	 bx lr
 934              	 .cfi_endproc
 935              	.LFE12:
 937              	 .section .text.ASCII_ToLower,"ax",%progbits
 938              	 .align 2
 939              	 .global ASCII_ToLower
 940              	 .thumb
 941              	 .thumb_func
 943              	ASCII_ToLower:
 944              	.LFB13:
 543:../Dave/Generated/UCPROBE/lib_ascii.c **** 
 544:../Dave/Generated/UCPROBE/lib_ascii.c **** 
 545:../Dave/Generated/UCPROBE/lib_ascii.c **** /*
 546:../Dave/Generated/UCPROBE/lib_ascii.c **** ***************************************************************************************************
 547:../Dave/Generated/UCPROBE/lib_ascii.c **** *                                           ASCII_ToLower()
 548:../Dave/Generated/UCPROBE/lib_ascii.c **** *
 549:../Dave/Generated/UCPROBE/lib_ascii.c **** * Description : Convert uppercase alphabetic character to its corresponding lowercase alphabetic ch
 550:../Dave/Generated/UCPROBE/lib_ascii.c **** *
 551:../Dave/Generated/UCPROBE/lib_ascii.c **** * Argument(s) : c           Character to convert.
 552:../Dave/Generated/UCPROBE/lib_ascii.c **** *
 553:../Dave/Generated/UCPROBE/lib_ascii.c **** * Return(s)   : Lowercase equivalent of 'c', if character 'c' is an uppercase character (see Note #
 554:../Dave/Generated/UCPROBE/lib_ascii.c **** *
 555:../Dave/Generated/UCPROBE/lib_ascii.c **** *               Character 'c',               otherwise                                  (see Note #
 556:../Dave/Generated/UCPROBE/lib_ascii.c **** *
 557:../Dave/Generated/UCPROBE/lib_ascii.c **** * Caller(s)   : Application.
 558:../Dave/Generated/UCPROBE/lib_ascii.c **** *
 559:../Dave/Generated/UCPROBE/lib_ascii.c **** * Note(s)     : (1) (a) ISO/IEC 9899:TC2, Section 7.4.2.1.(2) states that "tolower() ... converts a
 560:../Dave/Generated/UCPROBE/lib_ascii.c **** *                       uppercase letter to a corresponding lowercase letter".
 561:../Dave/Generated/UCPROBE/lib_ascii.c **** *
 562:../Dave/Generated/UCPROBE/lib_ascii.c **** *                   (b) ISO/IEC 9899:TC2, Section 7.4.2.1.(3) states that :
 563:../Dave/Generated/UCPROBE/lib_ascii.c **** *
 564:../Dave/Generated/UCPROBE/lib_ascii.c **** *                       (1) (A) "if the argument is a character for which isupper() is true and the
 565:../Dave/Generated/UCPROBE/lib_ascii.c **** *                                one or more corresponding characters ... for which islower() is tr
 566:../Dave/Generated/UCPROBE/lib_ascii.c **** *                           (B) "tolower() ... returns one of the corresponding characters;" ...
 567:../Dave/Generated/UCPROBE/lib_ascii.c **** *
 568:../Dave/Generated/UCPROBE/lib_ascii.c **** *                       (2) "otherwise, the argument is returned unchanged."
 569:../Dave/Generated/UCPROBE/lib_ascii.c **** ***************************************************************************************************
 570:../Dave/Generated/UCPROBE/lib_ascii.c **** */
 571:../Dave/Generated/UCPROBE/lib_ascii.c **** 
 572:../Dave/Generated/UCPROBE/lib_ascii.c **** CPU_CHAR  ASCII_ToLower (CPU_CHAR  c)
 573:../Dave/Generated/UCPROBE/lib_ascii.c **** {
 945              	 .loc 1 573 0
 946              	 .cfi_startproc
 947              	 
 948              	 
 949              	 
 950 0000 80B4     	 push {r7}
 951              	.LCFI78:
 952              	 .cfi_def_cfa_offset 4
 953              	 .cfi_offset 7,-4
 954 0002 85B0     	 sub sp,sp,#20
 955              	.LCFI79:
 956              	 .cfi_def_cfa_offset 24
 957 0004 00AF     	 add r7,sp,#0
 958              	.LCFI80:
 959              	 .cfi_def_cfa_register 7
 960 0006 0346     	 mov r3,r0
 961 0008 FB71     	 strb r3,[r7,#7]
 574:../Dave/Generated/UCPROBE/lib_ascii.c ****     CPU_CHAR  lower;
 575:../Dave/Generated/UCPROBE/lib_ascii.c **** 
 576:../Dave/Generated/UCPROBE/lib_ascii.c **** 
 577:../Dave/Generated/UCPROBE/lib_ascii.c ****     lower = ASCII_TO_LOWER(c);
 962              	 .loc 1 577 0
 963 000a FB79     	 ldrb r3,[r7,#7]
 964 000c 402B     	 cmp r3,#64
 965 000e 06D9     	 bls .L69
 966              	 .loc 1 577 0 is_stmt 0 discriminator 1
 967 0010 FB79     	 ldrb r3,[r7,#7]
 968 0012 5A2B     	 cmp r3,#90
 969 0014 03D8     	 bhi .L69
 970              	 .loc 1 577 0 discriminator 3
 971 0016 FB79     	 ldrb r3,[r7,#7]
 972 0018 2033     	 adds r3,r3,#32
 973 001a DBB2     	 uxtb r3,r3
 974 001c 00E0     	 b .L70
 975              	.L69:
 976              	 .loc 1 577 0 discriminator 4
 977 001e FB79     	 ldrb r3,[r7,#7]
 978              	.L70:
 979              	 .loc 1 577 0 discriminator 6
 980 0020 FB73     	 strb r3,[r7,#15]
 578:../Dave/Generated/UCPROBE/lib_ascii.c **** 
 579:../Dave/Generated/UCPROBE/lib_ascii.c ****     return (lower);
 981              	 .loc 1 579 0 is_stmt 1 discriminator 6
 982 0022 FB7B     	 ldrb r3,[r7,#15]
 580:../Dave/Generated/UCPROBE/lib_ascii.c **** }
 983              	 .loc 1 580 0 discriminator 6
 984 0024 1846     	 mov r0,r3
 985 0026 1437     	 adds r7,r7,#20
 986              	.LCFI81:
 987              	 .cfi_def_cfa_offset 4
 988 0028 BD46     	 mov sp,r7
 989              	.LCFI82:
 990              	 .cfi_def_cfa_register 13
 991              	 
 992 002a 5DF8047B 	 ldr r7,[sp],#4
 993              	.LCFI83:
 994              	 .cfi_restore 7
 995              	 .cfi_def_cfa_offset 0
 996 002e 7047     	 bx lr
 997              	 .cfi_endproc
 998              	.LFE13:
 1000              	 .section .text.ASCII_ToUpper,"ax",%progbits
 1001              	 .align 2
 1002              	 .global ASCII_ToUpper
 1003              	 .thumb
 1004              	 .thumb_func
 1006              	ASCII_ToUpper:
 1007              	.LFB14:
 581:../Dave/Generated/UCPROBE/lib_ascii.c **** 
 582:../Dave/Generated/UCPROBE/lib_ascii.c **** 
 583:../Dave/Generated/UCPROBE/lib_ascii.c **** /*
 584:../Dave/Generated/UCPROBE/lib_ascii.c **** ***************************************************************************************************
 585:../Dave/Generated/UCPROBE/lib_ascii.c **** *                                           ASCII_ToUpper()
 586:../Dave/Generated/UCPROBE/lib_ascii.c **** *
 587:../Dave/Generated/UCPROBE/lib_ascii.c **** * Description : Convert lowercase alphabetic character to its corresponding uppercase alphabetic ch
 588:../Dave/Generated/UCPROBE/lib_ascii.c **** *
 589:../Dave/Generated/UCPROBE/lib_ascii.c **** * Argument(s) : c           Character to convert.
 590:../Dave/Generated/UCPROBE/lib_ascii.c **** *
 591:../Dave/Generated/UCPROBE/lib_ascii.c **** * Return(s)   : Uppercase equivalent of 'c', if character 'c' is a lowercase character (see Note #1
 592:../Dave/Generated/UCPROBE/lib_ascii.c **** *
 593:../Dave/Generated/UCPROBE/lib_ascii.c **** *               Character 'c',               otherwise                                 (see Note #1
 594:../Dave/Generated/UCPROBE/lib_ascii.c **** *
 595:../Dave/Generated/UCPROBE/lib_ascii.c **** * Caller(s)   : Application.
 596:../Dave/Generated/UCPROBE/lib_ascii.c **** *
 597:../Dave/Generated/UCPROBE/lib_ascii.c **** * Note(s)     : (1) (a) ISO/IEC 9899:TC2, Section 7.4.2.2.(2) states that "toupper() ... converts a
 598:../Dave/Generated/UCPROBE/lib_ascii.c **** *                       lowercase letter to a corresponding uppercase letter".
 599:../Dave/Generated/UCPROBE/lib_ascii.c **** *
 600:../Dave/Generated/UCPROBE/lib_ascii.c **** *                   (b) ISO/IEC 9899:TC2, Section 7.4.2.2.(3) states that :
 601:../Dave/Generated/UCPROBE/lib_ascii.c **** *
 602:../Dave/Generated/UCPROBE/lib_ascii.c **** *                       (1) (A) "if the argument is a character for which islower() is true and the
 603:../Dave/Generated/UCPROBE/lib_ascii.c **** *                                one or more corresponding characters ... for which isupper() is tr
 604:../Dave/Generated/UCPROBE/lib_ascii.c **** *                           (B) "toupper() ... returns one of the corresponding characters;" ...
 605:../Dave/Generated/UCPROBE/lib_ascii.c **** *
 606:../Dave/Generated/UCPROBE/lib_ascii.c **** *                       (2) "otherwise, the argument is returned unchanged."
 607:../Dave/Generated/UCPROBE/lib_ascii.c **** ***************************************************************************************************
 608:../Dave/Generated/UCPROBE/lib_ascii.c **** */
 609:../Dave/Generated/UCPROBE/lib_ascii.c **** 
 610:../Dave/Generated/UCPROBE/lib_ascii.c **** CPU_CHAR  ASCII_ToUpper (CPU_CHAR  c)
 611:../Dave/Generated/UCPROBE/lib_ascii.c **** {
 1008              	 .loc 1 611 0
 1009              	 .cfi_startproc
 1010              	 
 1011              	 
 1012              	 
 1013 0000 80B4     	 push {r7}
 1014              	.LCFI84:
 1015              	 .cfi_def_cfa_offset 4
 1016              	 .cfi_offset 7,-4
 1017 0002 85B0     	 sub sp,sp,#20
 1018              	.LCFI85:
 1019              	 .cfi_def_cfa_offset 24
 1020 0004 00AF     	 add r7,sp,#0
 1021              	.LCFI86:
 1022              	 .cfi_def_cfa_register 7
 1023 0006 0346     	 mov r3,r0
 1024 0008 FB71     	 strb r3,[r7,#7]
 612:../Dave/Generated/UCPROBE/lib_ascii.c ****     CPU_CHAR  upper;
 613:../Dave/Generated/UCPROBE/lib_ascii.c **** 
 614:../Dave/Generated/UCPROBE/lib_ascii.c **** 
 615:../Dave/Generated/UCPROBE/lib_ascii.c ****     upper = ASCII_TO_UPPER(c);
 1025              	 .loc 1 615 0
 1026 000a FB79     	 ldrb r3,[r7,#7]
 1027 000c 602B     	 cmp r3,#96
 1028 000e 06D9     	 bls .L73
 1029              	 .loc 1 615 0 is_stmt 0 discriminator 1
 1030 0010 FB79     	 ldrb r3,[r7,#7]
 1031 0012 7A2B     	 cmp r3,#122
 1032 0014 03D8     	 bhi .L73
 1033              	 .loc 1 615 0 discriminator 3
 1034 0016 FB79     	 ldrb r3,[r7,#7]
 1035 0018 203B     	 subs r3,r3,#32
 1036 001a DBB2     	 uxtb r3,r3
 1037 001c 00E0     	 b .L74
 1038              	.L73:
 1039              	 .loc 1 615 0 discriminator 4
 1040 001e FB79     	 ldrb r3,[r7,#7]
 1041              	.L74:
 1042              	 .loc 1 615 0 discriminator 6
 1043 0020 FB73     	 strb r3,[r7,#15]
 616:../Dave/Generated/UCPROBE/lib_ascii.c **** 
 617:../Dave/Generated/UCPROBE/lib_ascii.c ****     return (upper);
 1044              	 .loc 1 617 0 is_stmt 1 discriminator 6
 1045 0022 FB7B     	 ldrb r3,[r7,#15]
 618:../Dave/Generated/UCPROBE/lib_ascii.c **** }
 1046              	 .loc 1 618 0 discriminator 6
 1047 0024 1846     	 mov r0,r3
 1048 0026 1437     	 adds r7,r7,#20
 1049              	.LCFI87:
 1050              	 .cfi_def_cfa_offset 4
 1051 0028 BD46     	 mov sp,r7
 1052              	.LCFI88:
 1053              	 .cfi_def_cfa_register 13
 1054              	 
 1055 002a 5DF8047B 	 ldr r7,[sp],#4
 1056              	.LCFI89:
 1057              	 .cfi_restore 7
 1058              	 .cfi_def_cfa_offset 0
 1059 002e 7047     	 bx lr
 1060              	 .cfi_endproc
 1061              	.LFE14:
 1063              	 .section .text.ASCII_Cmp,"ax",%progbits
 1064              	 .align 2
 1065              	 .global ASCII_Cmp
 1066              	 .thumb
 1067              	 .thumb_func
 1069              	ASCII_Cmp:
 1070              	.LFB15:
 619:../Dave/Generated/UCPROBE/lib_ascii.c **** 
 620:../Dave/Generated/UCPROBE/lib_ascii.c **** 
 621:../Dave/Generated/UCPROBE/lib_ascii.c **** /*
 622:../Dave/Generated/UCPROBE/lib_ascii.c **** ***************************************************************************************************
 623:../Dave/Generated/UCPROBE/lib_ascii.c **** *                                             ASCII_Cmp()
 624:../Dave/Generated/UCPROBE/lib_ascii.c **** *
 625:../Dave/Generated/UCPROBE/lib_ascii.c **** * Description : Determine if two characters are identical (case-insensitive).
 626:../Dave/Generated/UCPROBE/lib_ascii.c **** *
 627:../Dave/Generated/UCPROBE/lib_ascii.c **** * Argument(s) : c1          First  character.
 628:../Dave/Generated/UCPROBE/lib_ascii.c **** *
 629:../Dave/Generated/UCPROBE/lib_ascii.c **** *               c2          Second character.
 630:../Dave/Generated/UCPROBE/lib_ascii.c **** *
 631:../Dave/Generated/UCPROBE/lib_ascii.c **** * Return(s)   : DEF_YES, if the characters are     identical.
 632:../Dave/Generated/UCPROBE/lib_ascii.c **** *
 633:../Dave/Generated/UCPROBE/lib_ascii.c **** *               DEF_NO,  if the characters are NOT identical.
 634:../Dave/Generated/UCPROBE/lib_ascii.c **** *
 635:../Dave/Generated/UCPROBE/lib_ascii.c **** * Caller(s)   : Application.
 636:../Dave/Generated/UCPROBE/lib_ascii.c **** *
 637:../Dave/Generated/UCPROBE/lib_ascii.c **** * Note(s)     : none.
 638:../Dave/Generated/UCPROBE/lib_ascii.c **** ***************************************************************************************************
 639:../Dave/Generated/UCPROBE/lib_ascii.c **** */
 640:../Dave/Generated/UCPROBE/lib_ascii.c **** 
 641:../Dave/Generated/UCPROBE/lib_ascii.c **** CPU_BOOLEAN  ASCII_Cmp (CPU_CHAR  c1,
 642:../Dave/Generated/UCPROBE/lib_ascii.c ****                         CPU_CHAR  c2)
 643:../Dave/Generated/UCPROBE/lib_ascii.c **** {
 1071              	 .loc 1 643 0
 1072              	 .cfi_startproc
 1073              	 
 1074              	 
 1075 0000 80B5     	 push {r7,lr}
 1076              	.LCFI90:
 1077              	 .cfi_def_cfa_offset 8
 1078              	 .cfi_offset 7,-8
 1079              	 .cfi_offset 14,-4
 1080 0002 84B0     	 sub sp,sp,#16
 1081              	.LCFI91:
 1082              	 .cfi_def_cfa_offset 24
 1083 0004 00AF     	 add r7,sp,#0
 1084              	.LCFI92:
 1085              	 .cfi_def_cfa_register 7
 1086 0006 0346     	 mov r3,r0
 1087 0008 0A46     	 mov r2,r1
 1088 000a FB71     	 strb r3,[r7,#7]
 1089 000c 1346     	 mov r3,r2
 1090 000e BB71     	 strb r3,[r7,#6]
 644:../Dave/Generated/UCPROBE/lib_ascii.c ****     CPU_CHAR     c1_upper;
 645:../Dave/Generated/UCPROBE/lib_ascii.c ****     CPU_CHAR     c2_upper;
 646:../Dave/Generated/UCPROBE/lib_ascii.c ****     CPU_BOOLEAN  cmp;
 647:../Dave/Generated/UCPROBE/lib_ascii.c **** 
 648:../Dave/Generated/UCPROBE/lib_ascii.c **** 
 649:../Dave/Generated/UCPROBE/lib_ascii.c ****     c1_upper =  ASCII_ToUpper(c1);
 1091              	 .loc 1 649 0
 1092 0010 FB79     	 ldrb r3,[r7,#7]
 1093 0012 1846     	 mov r0,r3
 1094 0014 FFF7FEFF 	 bl ASCII_ToUpper
 1095 0018 0346     	 mov r3,r0
 1096 001a FB73     	 strb r3,[r7,#15]
 650:../Dave/Generated/UCPROBE/lib_ascii.c ****     c2_upper =  ASCII_ToUpper(c2);
 1097              	 .loc 1 650 0
 1098 001c BB79     	 ldrb r3,[r7,#6]
 1099 001e 1846     	 mov r0,r3
 1100 0020 FFF7FEFF 	 bl ASCII_ToUpper
 1101 0024 0346     	 mov r3,r0
 1102 0026 BB73     	 strb r3,[r7,#14]
 651:../Dave/Generated/UCPROBE/lib_ascii.c ****     cmp      = (c1_upper == c2_upper) ? (DEF_YES) : (DEF_NO);
 1103              	 .loc 1 651 0
 1104 0028 FA7B     	 ldrb r2,[r7,#15]
 1105 002a BB7B     	 ldrb r3,[r7,#14]
 1106 002c 9A42     	 cmp r2,r3
 1107 002e 01D1     	 bne .L77
 1108              	 .loc 1 651 0 is_stmt 0 discriminator 1
 1109 0030 0123     	 movs r3,#1
 1110 0032 00E0     	 b .L78
 1111              	.L77:
 1112              	 .loc 1 651 0 discriminator 2
 1113 0034 0023     	 movs r3,#0
 1114              	.L78:
 1115              	 .loc 1 651 0 discriminator 4
 1116 0036 7B73     	 strb r3,[r7,#13]
 652:../Dave/Generated/UCPROBE/lib_ascii.c **** 
 653:../Dave/Generated/UCPROBE/lib_ascii.c ****     return (cmp);
 1117              	 .loc 1 653 0 is_stmt 1 discriminator 4
 1118 0038 7B7B     	 ldrb r3,[r7,#13]
 654:../Dave/Generated/UCPROBE/lib_ascii.c **** }
 1119              	 .loc 1 654 0 discriminator 4
 1120 003a 1846     	 mov r0,r3
 1121 003c 1037     	 adds r7,r7,#16
 1122              	.LCFI93:
 1123              	 .cfi_def_cfa_offset 8
 1124 003e BD46     	 mov sp,r7
 1125              	.LCFI94:
 1126              	 .cfi_def_cfa_register 13
 1127              	 
 1128 0040 80BD     	 pop {r7,pc}
 1129              	 .cfi_endproc
 1130              	.LFE15:
 1132              	 .text
 1133              	.Letext0:
 1134              	 .file 2 "../Dave/Generated/UCPROBE/cpu.h"