   1              	 .syntax unified
   2              	 .cpu cortex-m4
   3              	 .eabi_attribute 27,3
   4              	 .fpu fpv4-sp-d16
   5              	 .eabi_attribute 20,1
   6              	 .eabi_attribute 21,1
   7              	 .eabi_attribute 23,3
   8              	 .eabi_attribute 24,1
   9              	 .eabi_attribute 25,1
  10              	 .eabi_attribute 26,1
  11              	 .eabi_attribute 30,6
  12              	 .eabi_attribute 34,1
  13              	 .eabi_attribute 18,4
  14              	 .thumb
  15              	 .file "lib_str.c"
  16              	 .text
  17              	.Ltext0:
  18              	 .cfi_sections .debug_frame
  19              	 .section .rodata.Str_MultOvfThTbl_Int32U,"a",%progbits
  20              	 .align 2
  23              	Str_MultOvfThTbl_Int32U:
  24 0000 FFFFFFFF 	 .word -1
  25 0004 FFFFFFFF 	 .word -1
  26 0008 FFFFFF7F 	 .word 2147483647
  27 000c 55555555 	 .word 1431655765
  28 0010 FFFFFF3F 	 .word 1073741823
  29 0014 33333333 	 .word 858993459
  30 0018 AAAAAA2A 	 .word 715827882
  31 001c 24499224 	 .word 613566756
  32 0020 FFFFFF1F 	 .word 536870911
  33 0024 1CC7711C 	 .word 477218588
  34 0028 99999919 	 .word 429496729
  35 002c 74D14517 	 .word 390451572
  36 0030 55555515 	 .word 357913941
  37 0034 133BB113 	 .word 330382099
  38 0038 92244912 	 .word 306783378
  39 003c 11111111 	 .word 286331153
  40 0040 FFFFFF0F 	 .word 268435455
  41 0044 0F0F0F0F 	 .word 252645135
  42 0048 8EE3380E 	 .word 238609294
  43 004c 5E43790D 	 .word 226050910
  44 0050 CCCCCC0C 	 .word 214748364
  45 0054 0CC3300C 	 .word 204522252
  46 0058 BAE8A20B 	 .word 195225786
  47 005c 2C64210B 	 .word 186737708
  48 0060 AAAAAA0A 	 .word 178956970
  49 0064 A3703D0A 	 .word 171798691
  50 0068 899DD809 	 .word 165191049
  51 006c 5E427B09 	 .word 159072862
  52 0070 49922409 	 .word 153391689
  53 0074 B0DCD308 	 .word 148102320
  54 0078 88888808 	 .word 143165576
  55 007c 84104208 	 .word 138547332
  56 0080 FFFFFF07 	 .word 134217727
  57 0084 7CF0C107 	 .word 130150524
  58 0088 87878707 	 .word 126322567
  59 008c 07755007 	 .word 122713351
  60 0090 C7711C07 	 .word 119304647
  61              	 .section .text.Str_Len,"ax",%progbits
  62              	 .align 2
  63              	 .global Str_Len
  64              	 .thumb
  65              	 .thumb_func
  67              	Str_Len:
  68              	.LFB0:
  69              	 .file 1 "../Dave/Generated/UCPROBE/lib_str.c"
   1:../Dave/Generated/UCPROBE/lib_str.c **** /*
   2:../Dave/Generated/UCPROBE/lib_str.c **** ***************************************************************************************************
   3:../Dave/Generated/UCPROBE/lib_str.c **** *                                                uC/LIB
   4:../Dave/Generated/UCPROBE/lib_str.c **** *                                        CUSTOM LIBRARY MODULES
   5:../Dave/Generated/UCPROBE/lib_str.c **** *
   6:../Dave/Generated/UCPROBE/lib_str.c **** *                         (c) Copyright 2004-2014; Micrium, Inc.; Weston, FL
   7:../Dave/Generated/UCPROBE/lib_str.c **** *
   8:../Dave/Generated/UCPROBE/lib_str.c **** *                  All rights reserved.  Protected by international copyright laws.
   9:../Dave/Generated/UCPROBE/lib_str.c **** *
  10:../Dave/Generated/UCPROBE/lib_str.c **** *                  uC/LIB is provided in source form to registered licensees ONLY.  It is
  11:../Dave/Generated/UCPROBE/lib_str.c **** *                  illegal to distribute this source code to any third party unless you receive
  12:../Dave/Generated/UCPROBE/lib_str.c **** *                  written permission by an authorized Micrium representative.  Knowledge of
  13:../Dave/Generated/UCPROBE/lib_str.c **** *                  the source code may NOT be used to develop a similar product.
  14:../Dave/Generated/UCPROBE/lib_str.c **** *
  15:../Dave/Generated/UCPROBE/lib_str.c **** *                  Please help us continue to provide the Embedded community with the finest
  16:../Dave/Generated/UCPROBE/lib_str.c **** *                  software available.  Your honesty is greatly appreciated.
  17:../Dave/Generated/UCPROBE/lib_str.c **** *
  18:../Dave/Generated/UCPROBE/lib_str.c **** *                  You can find our product's user manual, API reference, release notes and
  19:../Dave/Generated/UCPROBE/lib_str.c **** *                  more information at: https://doc.micrium.com
  20:../Dave/Generated/UCPROBE/lib_str.c **** *
  21:../Dave/Generated/UCPROBE/lib_str.c **** *                  You can contact us at: http://www.micrium.com
  22:../Dave/Generated/UCPROBE/lib_str.c **** ***************************************************************************************************
  23:../Dave/Generated/UCPROBE/lib_str.c **** */
  24:../Dave/Generated/UCPROBE/lib_str.c **** 
  25:../Dave/Generated/UCPROBE/lib_str.c **** /*
  26:../Dave/Generated/UCPROBE/lib_str.c **** ***************************************************************************************************
  27:../Dave/Generated/UCPROBE/lib_str.c **** *
  28:../Dave/Generated/UCPROBE/lib_str.c **** *                                       ASCII STRING MANAGEMENT
  29:../Dave/Generated/UCPROBE/lib_str.c **** *
  30:../Dave/Generated/UCPROBE/lib_str.c **** * Filename      : lib_str.c
  31:../Dave/Generated/UCPROBE/lib_str.c **** * Version       : V1.38.01
  32:../Dave/Generated/UCPROBE/lib_str.c **** * Programmer(s) : ITJ
  33:../Dave/Generated/UCPROBE/lib_str.c **** *                 BAN
  34:../Dave/Generated/UCPROBE/lib_str.c **** *                 JDH
  35:../Dave/Generated/UCPROBE/lib_str.c **** ***************************************************************************************************
  36:../Dave/Generated/UCPROBE/lib_str.c **** * Note(s)       : (1) NO compiler-supplied standard library functions are used in library or produc
  37:../Dave/Generated/UCPROBE/lib_str.c **** *
  38:../Dave/Generated/UCPROBE/lib_str.c **** *                     (a) ALL standard library functions are implemented in the custom library modu
  39:../Dave/Generated/UCPROBE/lib_str.c **** *
  40:../Dave/Generated/UCPROBE/lib_str.c **** *                         (1) \<Custom Library Directory>\lib_*.*
  41:../Dave/Generated/UCPROBE/lib_str.c **** *
  42:../Dave/Generated/UCPROBE/lib_str.c **** *                         (2) \<Custom Library Directory>\Ports\<cpu>\<compiler>\lib*_a.*
  43:../Dave/Generated/UCPROBE/lib_str.c **** *
  44:../Dave/Generated/UCPROBE/lib_str.c **** *                               where
  45:../Dave/Generated/UCPROBE/lib_str.c **** *                                       <Custom Library Directory>      directory path for custom l
  46:../Dave/Generated/UCPROBE/lib_str.c **** *                                       <cpu>                           directory name for specific
  47:../Dave/Generated/UCPROBE/lib_str.c **** *                                       <compiler>                      directory name for specific
  48:../Dave/Generated/UCPROBE/lib_str.c **** *
  49:../Dave/Generated/UCPROBE/lib_str.c **** *                     (b) Product-specific library functions are implemented in individual products
  50:../Dave/Generated/UCPROBE/lib_str.c **** *
  51:../Dave/Generated/UCPROBE/lib_str.c **** ***************************************************************************************************
  52:../Dave/Generated/UCPROBE/lib_str.c **** * Notice(s)     : (1) The Institute of Electrical and Electronics Engineers and The Open Group, hav
  53:../Dave/Generated/UCPROBE/lib_str.c **** *                     us permission to reprint portions of their documentation.  Portions of this t
  54:../Dave/Generated/UCPROBE/lib_str.c **** *                     reprinted and reproduced in electronic form from the IEEE Std 1003.1, 2004 Ed
  55:../Dave/Generated/UCPROBE/lib_str.c **** *                     Standard for Information Technology -- Portable Operating System Interface (P
  56:../Dave/Generated/UCPROBE/lib_str.c **** *                     The Open Group Base Specifications Issue 6, Copyright (C) 2001-2004 by the In
  57:../Dave/Generated/UCPROBE/lib_str.c **** *                     of Electrical and Electronics Engineers, Inc and The Open Group.  In the even
  58:../Dave/Generated/UCPROBE/lib_str.c **** *                     discrepancy between these versions and the original IEEE and The Open Group S
  59:../Dave/Generated/UCPROBE/lib_str.c **** *                     the original IEEE and The Open Group Standard is the referee document.  The o
  60:../Dave/Generated/UCPROBE/lib_str.c **** *                     Standard can be obtained online at http://www.opengroup.org/unix/online.html.
  61:../Dave/Generated/UCPROBE/lib_str.c **** ***************************************************************************************************
  62:../Dave/Generated/UCPROBE/lib_str.c **** */
  63:../Dave/Generated/UCPROBE/lib_str.c **** 
  64:../Dave/Generated/UCPROBE/lib_str.c **** 
  65:../Dave/Generated/UCPROBE/lib_str.c **** /*
  66:../Dave/Generated/UCPROBE/lib_str.c **** ***************************************************************************************************
  67:../Dave/Generated/UCPROBE/lib_str.c **** *                                            INCLUDE FILES
  68:../Dave/Generated/UCPROBE/lib_str.c **** ***************************************************************************************************
  69:../Dave/Generated/UCPROBE/lib_str.c **** */
  70:../Dave/Generated/UCPROBE/lib_str.c **** 
  71:../Dave/Generated/UCPROBE/lib_str.c **** #define    MICRIUM_SOURCE
  72:../Dave/Generated/UCPROBE/lib_str.c **** #define    LIB_STR_MODULE
  73:../Dave/Generated/UCPROBE/lib_str.c **** #include  "lib_str.h"
  74:../Dave/Generated/UCPROBE/lib_str.c **** 
  75:../Dave/Generated/UCPROBE/lib_str.c **** 
  76:../Dave/Generated/UCPROBE/lib_str.c **** /*
  77:../Dave/Generated/UCPROBE/lib_str.c **** ***************************************************************************************************
  78:../Dave/Generated/UCPROBE/lib_str.c **** *                                            LOCAL DEFINES
  79:../Dave/Generated/UCPROBE/lib_str.c **** ***************************************************************************************************
  80:../Dave/Generated/UCPROBE/lib_str.c **** */
  81:../Dave/Generated/UCPROBE/lib_str.c **** 
  82:../Dave/Generated/UCPROBE/lib_str.c **** 
  83:../Dave/Generated/UCPROBE/lib_str.c **** /*
  84:../Dave/Generated/UCPROBE/lib_str.c **** ***************************************************************************************************
  85:../Dave/Generated/UCPROBE/lib_str.c **** *                                           LOCAL CONSTANTS
  86:../Dave/Generated/UCPROBE/lib_str.c **** ***************************************************************************************************
  87:../Dave/Generated/UCPROBE/lib_str.c **** */
  88:../Dave/Generated/UCPROBE/lib_str.c **** 
  89:../Dave/Generated/UCPROBE/lib_str.c **** 
  90:../Dave/Generated/UCPROBE/lib_str.c **** /*
  91:../Dave/Generated/UCPROBE/lib_str.c **** ***************************************************************************************************
  92:../Dave/Generated/UCPROBE/lib_str.c **** *                                          LOCAL DATA TYPES
  93:../Dave/Generated/UCPROBE/lib_str.c **** ***************************************************************************************************
  94:../Dave/Generated/UCPROBE/lib_str.c **** */
  95:../Dave/Generated/UCPROBE/lib_str.c **** 
  96:../Dave/Generated/UCPROBE/lib_str.c **** 
  97:../Dave/Generated/UCPROBE/lib_str.c **** /*
  98:../Dave/Generated/UCPROBE/lib_str.c **** ***************************************************************************************************
  99:../Dave/Generated/UCPROBE/lib_str.c **** *                                            LOCAL TABLES
 100:../Dave/Generated/UCPROBE/lib_str.c **** ***************************************************************************************************
 101:../Dave/Generated/UCPROBE/lib_str.c **** */
 102:../Dave/Generated/UCPROBE/lib_str.c **** 
 103:../Dave/Generated/UCPROBE/lib_str.c **** static  const  CPU_INT32U  Str_MultOvfThTbl_Int32U[] = {
 104:../Dave/Generated/UCPROBE/lib_str.c ****    (CPU_INT32U) DEF_INT_32U_MAX_VAL,                /*                Invalid base  0.  */
 105:../Dave/Generated/UCPROBE/lib_str.c ****    (CPU_INT32U)(DEF_INT_32U_MAX_VAL /  1u),         /*                Invalid base  1.  */
 106:../Dave/Generated/UCPROBE/lib_str.c ****    (CPU_INT32U)(DEF_INT_32U_MAX_VAL /  2u),         /* 32-bit mult ovf th for base  2.  */
 107:../Dave/Generated/UCPROBE/lib_str.c ****    (CPU_INT32U)(DEF_INT_32U_MAX_VAL /  3u),         /* 32-bit mult ovf th for base  3.  */
 108:../Dave/Generated/UCPROBE/lib_str.c ****    (CPU_INT32U)(DEF_INT_32U_MAX_VAL /  4u),         /* 32-bit mult ovf th for base  4.  */
 109:../Dave/Generated/UCPROBE/lib_str.c ****    (CPU_INT32U)(DEF_INT_32U_MAX_VAL /  5u),         /* 32-bit mult ovf th for base  5.  */
 110:../Dave/Generated/UCPROBE/lib_str.c ****    (CPU_INT32U)(DEF_INT_32U_MAX_VAL /  6u),         /* 32-bit mult ovf th for base  6.  */
 111:../Dave/Generated/UCPROBE/lib_str.c ****    (CPU_INT32U)(DEF_INT_32U_MAX_VAL /  7u),         /* 32-bit mult ovf th for base  7.  */
 112:../Dave/Generated/UCPROBE/lib_str.c ****    (CPU_INT32U)(DEF_INT_32U_MAX_VAL /  8u),         /* 32-bit mult ovf th for base  8.  */
 113:../Dave/Generated/UCPROBE/lib_str.c ****    (CPU_INT32U)(DEF_INT_32U_MAX_VAL /  9u),         /* 32-bit mult ovf th for base  9.  */
 114:../Dave/Generated/UCPROBE/lib_str.c ****    (CPU_INT32U)(DEF_INT_32U_MAX_VAL / 10u),         /* 32-bit mult ovf th for base 10.  */
 115:../Dave/Generated/UCPROBE/lib_str.c ****    (CPU_INT32U)(DEF_INT_32U_MAX_VAL / 11u),         /* 32-bit mult ovf th for base 11.  */
 116:../Dave/Generated/UCPROBE/lib_str.c ****    (CPU_INT32U)(DEF_INT_32U_MAX_VAL / 12u),         /* 32-bit mult ovf th for base 12.  */
 117:../Dave/Generated/UCPROBE/lib_str.c ****    (CPU_INT32U)(DEF_INT_32U_MAX_VAL / 13u),         /* 32-bit mult ovf th for base 13.  */
 118:../Dave/Generated/UCPROBE/lib_str.c ****    (CPU_INT32U)(DEF_INT_32U_MAX_VAL / 14u),         /* 32-bit mult ovf th for base 14.  */
 119:../Dave/Generated/UCPROBE/lib_str.c ****    (CPU_INT32U)(DEF_INT_32U_MAX_VAL / 15u),         /* 32-bit mult ovf th for base 15.  */
 120:../Dave/Generated/UCPROBE/lib_str.c ****    (CPU_INT32U)(DEF_INT_32U_MAX_VAL / 16u),         /* 32-bit mult ovf th for base 16.  */
 121:../Dave/Generated/UCPROBE/lib_str.c ****    (CPU_INT32U)(DEF_INT_32U_MAX_VAL / 17u),         /* 32-bit mult ovf th for base 17.  */
 122:../Dave/Generated/UCPROBE/lib_str.c ****    (CPU_INT32U)(DEF_INT_32U_MAX_VAL / 18u),         /* 32-bit mult ovf th for base 18.  */
 123:../Dave/Generated/UCPROBE/lib_str.c ****    (CPU_INT32U)(DEF_INT_32U_MAX_VAL / 19u),         /* 32-bit mult ovf th for base 19.  */
 124:../Dave/Generated/UCPROBE/lib_str.c ****    (CPU_INT32U)(DEF_INT_32U_MAX_VAL / 20u),         /* 32-bit mult ovf th for base 20.  */
 125:../Dave/Generated/UCPROBE/lib_str.c ****    (CPU_INT32U)(DEF_INT_32U_MAX_VAL / 21u),         /* 32-bit mult ovf th for base 21.  */
 126:../Dave/Generated/UCPROBE/lib_str.c ****    (CPU_INT32U)(DEF_INT_32U_MAX_VAL / 22u),         /* 32-bit mult ovf th for base 22.  */
 127:../Dave/Generated/UCPROBE/lib_str.c ****    (CPU_INT32U)(DEF_INT_32U_MAX_VAL / 23u),         /* 32-bit mult ovf th for base 23.  */
 128:../Dave/Generated/UCPROBE/lib_str.c ****    (CPU_INT32U)(DEF_INT_32U_MAX_VAL / 24u),         /* 32-bit mult ovf th for base 24.  */
 129:../Dave/Generated/UCPROBE/lib_str.c ****    (CPU_INT32U)(DEF_INT_32U_MAX_VAL / 25u),         /* 32-bit mult ovf th for base 25.  */
 130:../Dave/Generated/UCPROBE/lib_str.c ****    (CPU_INT32U)(DEF_INT_32U_MAX_VAL / 26u),         /* 32-bit mult ovf th for base 26.  */
 131:../Dave/Generated/UCPROBE/lib_str.c ****    (CPU_INT32U)(DEF_INT_32U_MAX_VAL / 27u),         /* 32-bit mult ovf th for base 27.  */
 132:../Dave/Generated/UCPROBE/lib_str.c ****    (CPU_INT32U)(DEF_INT_32U_MAX_VAL / 28u),         /* 32-bit mult ovf th for base 28.  */
 133:../Dave/Generated/UCPROBE/lib_str.c ****    (CPU_INT32U)(DEF_INT_32U_MAX_VAL / 29u),         /* 32-bit mult ovf th for base 29.  */
 134:../Dave/Generated/UCPROBE/lib_str.c ****    (CPU_INT32U)(DEF_INT_32U_MAX_VAL / 30u),         /* 32-bit mult ovf th for base 30.  */
 135:../Dave/Generated/UCPROBE/lib_str.c ****    (CPU_INT32U)(DEF_INT_32U_MAX_VAL / 31u),         /* 32-bit mult ovf th for base 31.  */
 136:../Dave/Generated/UCPROBE/lib_str.c ****    (CPU_INT32U)(DEF_INT_32U_MAX_VAL / 32u),         /* 32-bit mult ovf th for base 32.  */
 137:../Dave/Generated/UCPROBE/lib_str.c ****    (CPU_INT32U)(DEF_INT_32U_MAX_VAL / 33u),         /* 32-bit mult ovf th for base 33.  */
 138:../Dave/Generated/UCPROBE/lib_str.c ****    (CPU_INT32U)(DEF_INT_32U_MAX_VAL / 34u),         /* 32-bit mult ovf th for base 34.  */
 139:../Dave/Generated/UCPROBE/lib_str.c ****    (CPU_INT32U)(DEF_INT_32U_MAX_VAL / 35u),         /* 32-bit mult ovf th for base 35.  */
 140:../Dave/Generated/UCPROBE/lib_str.c ****    (CPU_INT32U)(DEF_INT_32U_MAX_VAL / 36u)          /* 32-bit mult ovf th for base 36.  */
 141:../Dave/Generated/UCPROBE/lib_str.c **** };
 142:../Dave/Generated/UCPROBE/lib_str.c **** 
 143:../Dave/Generated/UCPROBE/lib_str.c **** 
 144:../Dave/Generated/UCPROBE/lib_str.c **** /*
 145:../Dave/Generated/UCPROBE/lib_str.c **** ***************************************************************************************************
 146:../Dave/Generated/UCPROBE/lib_str.c **** *                                       LOCAL GLOBAL VARIABLES
 147:../Dave/Generated/UCPROBE/lib_str.c **** ***************************************************************************************************
 148:../Dave/Generated/UCPROBE/lib_str.c **** */
 149:../Dave/Generated/UCPROBE/lib_str.c **** 
 150:../Dave/Generated/UCPROBE/lib_str.c **** 
 151:../Dave/Generated/UCPROBE/lib_str.c **** /*
 152:../Dave/Generated/UCPROBE/lib_str.c **** ***************************************************************************************************
 153:../Dave/Generated/UCPROBE/lib_str.c **** *                                      LOCAL FUNCTION PROTOTYPES
 154:../Dave/Generated/UCPROBE/lib_str.c **** ***************************************************************************************************
 155:../Dave/Generated/UCPROBE/lib_str.c **** */
 156:../Dave/Generated/UCPROBE/lib_str.c **** 
 157:../Dave/Generated/UCPROBE/lib_str.c **** static  CPU_CHAR    *Str_FmtNbr_Int32  (       CPU_INT32U     nbr,
 158:../Dave/Generated/UCPROBE/lib_str.c ****                                                CPU_INT08U     nbr_dig,
 159:../Dave/Generated/UCPROBE/lib_str.c ****                                                CPU_INT08U     nbr_base,
 160:../Dave/Generated/UCPROBE/lib_str.c ****                                                CPU_BOOLEAN    nbr_neg,
 161:../Dave/Generated/UCPROBE/lib_str.c ****                                                CPU_CHAR       lead_char,
 162:../Dave/Generated/UCPROBE/lib_str.c ****                                                CPU_BOOLEAN    lower_case,
 163:../Dave/Generated/UCPROBE/lib_str.c ****                                                CPU_BOOLEAN    nul,
 164:../Dave/Generated/UCPROBE/lib_str.c ****                                                CPU_CHAR      *pstr);
 165:../Dave/Generated/UCPROBE/lib_str.c **** 
 166:../Dave/Generated/UCPROBE/lib_str.c **** static  CPU_INT32U   Str_ParseNbr_Int32(const  CPU_CHAR      *pstr,
 167:../Dave/Generated/UCPROBE/lib_str.c ****                                                CPU_CHAR     **pstr_next,
 168:../Dave/Generated/UCPROBE/lib_str.c ****                                                CPU_INT08U     nbr_base,
 169:../Dave/Generated/UCPROBE/lib_str.c ****                                                CPU_BOOLEAN    nbr_signed,
 170:../Dave/Generated/UCPROBE/lib_str.c ****                                                CPU_BOOLEAN   *pnbr_neg);
 171:../Dave/Generated/UCPROBE/lib_str.c **** 
 172:../Dave/Generated/UCPROBE/lib_str.c **** 
 173:../Dave/Generated/UCPROBE/lib_str.c **** /*
 174:../Dave/Generated/UCPROBE/lib_str.c **** ***************************************************************************************************
 175:../Dave/Generated/UCPROBE/lib_str.c **** *                                     LOCAL CONFIGURATION ERRORS
 176:../Dave/Generated/UCPROBE/lib_str.c **** ***************************************************************************************************
 177:../Dave/Generated/UCPROBE/lib_str.c **** */
 178:../Dave/Generated/UCPROBE/lib_str.c **** 
 179:../Dave/Generated/UCPROBE/lib_str.c **** 
 180:../Dave/Generated/UCPROBE/lib_str.c **** /*
 181:../Dave/Generated/UCPROBE/lib_str.c **** ***************************************************************************************************
 182:../Dave/Generated/UCPROBE/lib_str.c **** *                                              Str_Len()
 183:../Dave/Generated/UCPROBE/lib_str.c **** *
 184:../Dave/Generated/UCPROBE/lib_str.c **** * Description : Calculate length of a string.
 185:../Dave/Generated/UCPROBE/lib_str.c **** *
 186:../Dave/Generated/UCPROBE/lib_str.c **** * Argument(s) : pstr        Pointer to string (see Note #1).
 187:../Dave/Generated/UCPROBE/lib_str.c **** *
 188:../Dave/Generated/UCPROBE/lib_str.c **** * Return(s)   : Length of string; number of characters in string before terminating NULL character
 189:../Dave/Generated/UCPROBE/lib_str.c **** *                   (see Note #2b1).
 190:../Dave/Generated/UCPROBE/lib_str.c **** *
 191:../Dave/Generated/UCPROBE/lib_str.c **** * Caller(s)   : Application.
 192:../Dave/Generated/UCPROBE/lib_str.c **** *
 193:../Dave/Generated/UCPROBE/lib_str.c **** * Note(s)     : (1) String buffer NOT modified.
 194:../Dave/Generated/UCPROBE/lib_str.c **** *
 195:../Dave/Generated/UCPROBE/lib_str.c **** *               (2) (a) IEEE Std 1003.1, 2004 Edition, Section 'strlen() : DESCRIPTION' states that
 196:../Dave/Generated/UCPROBE/lib_str.c **** *
 197:../Dave/Generated/UCPROBE/lib_str.c **** *                       (1) "The strlen() function shall compute the number of bytes in the string 
 198:../Dave/Generated/UCPROBE/lib_str.c **** *                            which 's' ('pstr') points," ...
 199:../Dave/Generated/UCPROBE/lib_str.c **** *                       (2) "not including the terminating null byte."
 200:../Dave/Generated/UCPROBE/lib_str.c **** *
 201:../Dave/Generated/UCPROBE/lib_str.c **** *                   (b) IEEE Std 1003.1, 2004 Edition, Section 'strlen() : RETURN VALUE' states tha
 202:../Dave/Generated/UCPROBE/lib_str.c **** *
 203:../Dave/Generated/UCPROBE/lib_str.c **** *                       (1) "The strlen() function shall return the length of 's' ('pstr');" ...
 204:../Dave/Generated/UCPROBE/lib_str.c **** *                       (2) "no return value shall be reserved to indicate an error."
 205:../Dave/Generated/UCPROBE/lib_str.c **** *
 206:../Dave/Generated/UCPROBE/lib_str.c **** *               (3) String length calculation terminates when :
 207:../Dave/Generated/UCPROBE/lib_str.c **** *
 208:../Dave/Generated/UCPROBE/lib_str.c **** *                   (a) String pointer points to NULL.
 209:../Dave/Generated/UCPROBE/lib_str.c **** *                       (1) String buffer overlaps with NULL address.
 210:../Dave/Generated/UCPROBE/lib_str.c **** *                       (2) String length calculated for string up to but NOT beyond or including
 211:../Dave/Generated/UCPROBE/lib_str.c **** *                           the NULL address.
 212:../Dave/Generated/UCPROBE/lib_str.c **** *
 213:../Dave/Generated/UCPROBE/lib_str.c **** *                   (b) Terminating NULL character found.
 214:../Dave/Generated/UCPROBE/lib_str.c **** *                       (1) String length calculated for string up to but NOT           including
 215:../Dave/Generated/UCPROBE/lib_str.c **** *                           the NULL character (see Note #2a2).
 216:../Dave/Generated/UCPROBE/lib_str.c **** ***************************************************************************************************
 217:../Dave/Generated/UCPROBE/lib_str.c **** */
 218:../Dave/Generated/UCPROBE/lib_str.c **** 
 219:../Dave/Generated/UCPROBE/lib_str.c **** CPU_SIZE_T  Str_Len (const  CPU_CHAR  *pstr)
 220:../Dave/Generated/UCPROBE/lib_str.c **** {
  70              	 .loc 1 220 0
  71              	 .cfi_startproc
  72              	 
  73              	 
  74 0000 80B5     	 push {r7,lr}
  75              	.LCFI0:
  76              	 .cfi_def_cfa_offset 8
  77              	 .cfi_offset 7,-8
  78              	 .cfi_offset 14,-4
  79 0002 84B0     	 sub sp,sp,#16
  80              	.LCFI1:
  81              	 .cfi_def_cfa_offset 24
  82 0004 00AF     	 add r7,sp,#0
  83              	.LCFI2:
  84              	 .cfi_def_cfa_register 7
  85 0006 7860     	 str r0,[r7,#4]
 221:../Dave/Generated/UCPROBE/lib_str.c ****     CPU_SIZE_T  len;
 222:../Dave/Generated/UCPROBE/lib_str.c **** 
 223:../Dave/Generated/UCPROBE/lib_str.c **** 
 224:../Dave/Generated/UCPROBE/lib_str.c ****     len = Str_Len_N(pstr,
  86              	 .loc 1 224 0
  87 0008 7868     	 ldr r0,[r7,#4]
  88 000a 4FF0FF31 	 mov r1,#-1
  89 000e FFF7FEFF 	 bl Str_Len_N
  90 0012 F860     	 str r0,[r7,#12]
 225:../Dave/Generated/UCPROBE/lib_str.c ****                     DEF_INT_CPU_U_MAX_VAL);
 226:../Dave/Generated/UCPROBE/lib_str.c **** 
 227:../Dave/Generated/UCPROBE/lib_str.c ****     return (len);
  91              	 .loc 1 227 0
  92 0014 FB68     	 ldr r3,[r7,#12]
 228:../Dave/Generated/UCPROBE/lib_str.c **** }
  93              	 .loc 1 228 0
  94 0016 1846     	 mov r0,r3
  95 0018 1037     	 adds r7,r7,#16
  96              	.LCFI3:
  97              	 .cfi_def_cfa_offset 8
  98 001a BD46     	 mov sp,r7
  99              	.LCFI4:
 100              	 .cfi_def_cfa_register 13
 101              	 
 102 001c 80BD     	 pop {r7,pc}
 103              	 .cfi_endproc
 104              	.LFE0:
 106 001e 00BF     	 .section .text.Str_Len_N,"ax",%progbits
 107              	 .align 2
 108              	 .global Str_Len_N
 109              	 .thumb
 110              	 .thumb_func
 112              	Str_Len_N:
 113              	.LFB1:
 229:../Dave/Generated/UCPROBE/lib_str.c **** 
 230:../Dave/Generated/UCPROBE/lib_str.c **** 
 231:../Dave/Generated/UCPROBE/lib_str.c **** /*
 232:../Dave/Generated/UCPROBE/lib_str.c **** ***************************************************************************************************
 233:../Dave/Generated/UCPROBE/lib_str.c **** *                                             Str_Len_N()
 234:../Dave/Generated/UCPROBE/lib_str.c **** *
 235:../Dave/Generated/UCPROBE/lib_str.c **** * Description : Calculate length of a string, up to a maximum number of characters.
 236:../Dave/Generated/UCPROBE/lib_str.c **** *
 237:../Dave/Generated/UCPROBE/lib_str.c **** * Argument(s) : pstr        Pointer to string (see Note #1).
 238:../Dave/Generated/UCPROBE/lib_str.c **** *
 239:../Dave/Generated/UCPROBE/lib_str.c **** *               len_max     Maximum number of characters to search (see Note #3c).
 240:../Dave/Generated/UCPROBE/lib_str.c **** *
 241:../Dave/Generated/UCPROBE/lib_str.c **** * Return(s)   : Length of string; number of characters in string before terminating NULL character,
 242:../Dave/Generated/UCPROBE/lib_str.c **** *                   if terminating NULL character     found (see Note #2b1).
 243:../Dave/Generated/UCPROBE/lib_str.c **** *
 244:../Dave/Generated/UCPROBE/lib_str.c **** *               Requested maximum number of characters to search,
 245:../Dave/Generated/UCPROBE/lib_str.c **** *                   if terminating NULL character NOT found (see Note #3c).
 246:../Dave/Generated/UCPROBE/lib_str.c **** *
 247:../Dave/Generated/UCPROBE/lib_str.c **** * Caller(s)   : Application.
 248:../Dave/Generated/UCPROBE/lib_str.c **** *
 249:../Dave/Generated/UCPROBE/lib_str.c **** * Note(s)     : (1) String buffer NOT modified.
 250:../Dave/Generated/UCPROBE/lib_str.c **** *
 251:../Dave/Generated/UCPROBE/lib_str.c **** *               (2) (a) IEEE Std 1003.1, 2004 Edition, Section 'strlen() : DESCRIPTION' states that
 252:../Dave/Generated/UCPROBE/lib_str.c **** *
 253:../Dave/Generated/UCPROBE/lib_str.c **** *                       (1) "The strlen() function shall compute the number of bytes in the string 
 254:../Dave/Generated/UCPROBE/lib_str.c **** *                            which 's' ('pstr') points," ...
 255:../Dave/Generated/UCPROBE/lib_str.c **** *                       (2) "not including the terminating null byte."
 256:../Dave/Generated/UCPROBE/lib_str.c **** *
 257:../Dave/Generated/UCPROBE/lib_str.c **** *                   (b) IEEE Std 1003.1, 2004 Edition, Section 'strlen() : RETURN VALUE' states tha
 258:../Dave/Generated/UCPROBE/lib_str.c **** *
 259:../Dave/Generated/UCPROBE/lib_str.c **** *                       (1) "The strlen() function shall return the length of 's' ('pstr');" ...
 260:../Dave/Generated/UCPROBE/lib_str.c **** *                       (2) "no return value shall be reserved to indicate an error."
 261:../Dave/Generated/UCPROBE/lib_str.c **** *
 262:../Dave/Generated/UCPROBE/lib_str.c **** *               (3) String length calculation terminates when :
 263:../Dave/Generated/UCPROBE/lib_str.c **** *
 264:../Dave/Generated/UCPROBE/lib_str.c **** *                   (a) String pointer points to NULL.
 265:../Dave/Generated/UCPROBE/lib_str.c **** *                       (1) String buffer overlaps with NULL address.
 266:../Dave/Generated/UCPROBE/lib_str.c **** *                       (2) String length calculated for string up to but NOT beyond or including
 267:../Dave/Generated/UCPROBE/lib_str.c **** *                           the NULL address.
 268:../Dave/Generated/UCPROBE/lib_str.c **** *
 269:../Dave/Generated/UCPROBE/lib_str.c **** *                   (b) Terminating NULL character found.
 270:../Dave/Generated/UCPROBE/lib_str.c **** *                       (1) String length calculated for string up to but NOT           including
 271:../Dave/Generated/UCPROBE/lib_str.c **** *                           the NULL character (see Note #2a2).
 272:../Dave/Generated/UCPROBE/lib_str.c **** *
 273:../Dave/Generated/UCPROBE/lib_str.c **** *                   (c) 'len_max' number of characters searched.
 274:../Dave/Generated/UCPROBE/lib_str.c **** *                       (1) 'len_max' number of characters does NOT include the terminating NULL ch
 275:../Dave/Generated/UCPROBE/lib_str.c **** ***************************************************************************************************
 276:../Dave/Generated/UCPROBE/lib_str.c **** */
 277:../Dave/Generated/UCPROBE/lib_str.c **** 
 278:../Dave/Generated/UCPROBE/lib_str.c **** CPU_SIZE_T  Str_Len_N (const  CPU_CHAR    *pstr,
 279:../Dave/Generated/UCPROBE/lib_str.c ****                               CPU_SIZE_T   len_max)
 280:../Dave/Generated/UCPROBE/lib_str.c **** {
 114              	 .loc 1 280 0
 115              	 .cfi_startproc
 116              	 
 117              	 
 118              	 
 119 0000 80B4     	 push {r7}
 120              	.LCFI5:
 121              	 .cfi_def_cfa_offset 4
 122              	 .cfi_offset 7,-4
 123 0002 85B0     	 sub sp,sp,#20
 124              	.LCFI6:
 125              	 .cfi_def_cfa_offset 24
 126 0004 00AF     	 add r7,sp,#0
 127              	.LCFI7:
 128              	 .cfi_def_cfa_register 7
 129 0006 7860     	 str r0,[r7,#4]
 130 0008 3960     	 str r1,[r7]
 281:../Dave/Generated/UCPROBE/lib_str.c ****     const  CPU_CHAR    *pstr_len;
 282:../Dave/Generated/UCPROBE/lib_str.c ****            CPU_SIZE_T   len;
 283:../Dave/Generated/UCPROBE/lib_str.c **** 
 284:../Dave/Generated/UCPROBE/lib_str.c **** 
 285:../Dave/Generated/UCPROBE/lib_str.c ****     pstr_len = pstr;
 131              	 .loc 1 285 0
 132 000a 7B68     	 ldr r3,[r7,#4]
 133 000c FB60     	 str r3,[r7,#12]
 286:../Dave/Generated/UCPROBE/lib_str.c ****     len      = 0u;
 134              	 .loc 1 286 0
 135 000e 0023     	 movs r3,#0
 136 0010 BB60     	 str r3,[r7,#8]
 287:../Dave/Generated/UCPROBE/lib_str.c ****     while (( pstr_len != (const CPU_CHAR *)  0 ) &&             /* Calc str len until NULL ptr (see
 137              	 .loc 1 287 0
 138 0012 05E0     	 b .L4
 139              	.L6:
 288:../Dave/Generated/UCPROBE/lib_str.c ****            (*pstr_len != (      CPU_CHAR  )'\0') &&             /* ... or NULL char found      (see
 289:../Dave/Generated/UCPROBE/lib_str.c ****            ( len      <  (      CPU_SIZE_T)len_max)) {          /* ... or max nbr chars srch'd (see
 290:../Dave/Generated/UCPROBE/lib_str.c ****         pstr_len++;
 140              	 .loc 1 290 0
 141 0014 FB68     	 ldr r3,[r7,#12]
 142 0016 0133     	 adds r3,r3,#1
 143 0018 FB60     	 str r3,[r7,#12]
 291:../Dave/Generated/UCPROBE/lib_str.c ****         len++;
 144              	 .loc 1 291 0
 145 001a BB68     	 ldr r3,[r7,#8]
 146 001c 0133     	 adds r3,r3,#1
 147 001e BB60     	 str r3,[r7,#8]
 148              	.L4:
 287:../Dave/Generated/UCPROBE/lib_str.c ****     while (( pstr_len != (const CPU_CHAR *)  0 ) &&             /* Calc str len until NULL ptr (see
 149              	 .loc 1 287 0
 150 0020 FB68     	 ldr r3,[r7,#12]
 151 0022 002B     	 cmp r3,#0
 152 0024 07D0     	 beq .L5
 288:../Dave/Generated/UCPROBE/lib_str.c ****            (*pstr_len != (      CPU_CHAR  )'\0') &&             /* ... or NULL char found      (see
 153              	 .loc 1 288 0 discriminator 1
 154 0026 FB68     	 ldr r3,[r7,#12]
 155 0028 1B78     	 ldrb r3,[r3]
 287:../Dave/Generated/UCPROBE/lib_str.c ****     while (( pstr_len != (const CPU_CHAR *)  0 ) &&             /* Calc str len until NULL ptr (see
 156              	 .loc 1 287 0 discriminator 1
 157 002a 002B     	 cmp r3,#0
 158 002c 03D0     	 beq .L5
 288:../Dave/Generated/UCPROBE/lib_str.c ****            (*pstr_len != (      CPU_CHAR  )'\0') &&             /* ... or NULL char found      (see
 159              	 .loc 1 288 0
 160 002e BA68     	 ldr r2,[r7,#8]
 161 0030 3B68     	 ldr r3,[r7]
 162 0032 9A42     	 cmp r2,r3
 163 0034 EED3     	 bcc .L6
 164              	.L5:
 292:../Dave/Generated/UCPROBE/lib_str.c ****     }
 293:../Dave/Generated/UCPROBE/lib_str.c **** 
 294:../Dave/Generated/UCPROBE/lib_str.c ****     return (len);                                               /* Rtn str len (see Note #3b1).    
 165              	 .loc 1 294 0
 166 0036 BB68     	 ldr r3,[r7,#8]
 295:../Dave/Generated/UCPROBE/lib_str.c **** }
 167              	 .loc 1 295 0
 168 0038 1846     	 mov r0,r3
 169 003a 1437     	 adds r7,r7,#20
 170              	.LCFI8:
 171              	 .cfi_def_cfa_offset 4
 172 003c BD46     	 mov sp,r7
 173              	.LCFI9:
 174              	 .cfi_def_cfa_register 13
 175              	 
 176 003e 5DF8047B 	 ldr r7,[sp],#4
 177              	.LCFI10:
 178              	 .cfi_restore 7
 179              	 .cfi_def_cfa_offset 0
 180 0042 7047     	 bx lr
 181              	 .cfi_endproc
 182              	.LFE1:
 184              	 .section .text.Str_Copy,"ax",%progbits
 185              	 .align 2
 186              	 .global Str_Copy
 187              	 .thumb
 188              	 .thumb_func
 190              	Str_Copy:
 191              	.LFB2:
 296:../Dave/Generated/UCPROBE/lib_str.c **** 
 297:../Dave/Generated/UCPROBE/lib_str.c **** 
 298:../Dave/Generated/UCPROBE/lib_str.c **** /*
 299:../Dave/Generated/UCPROBE/lib_str.c **** ***************************************************************************************************
 300:../Dave/Generated/UCPROBE/lib_str.c **** *                                             Str_Copy()
 301:../Dave/Generated/UCPROBE/lib_str.c **** *
 302:../Dave/Generated/UCPROBE/lib_str.c **** * Description : Copy source string to destination string buffer.
 303:../Dave/Generated/UCPROBE/lib_str.c **** *
 304:../Dave/Generated/UCPROBE/lib_str.c **** * Argument(s) : pstr_dest   Pointer to destination string buffer to receive source string copy   (s
 305:../Dave/Generated/UCPROBE/lib_str.c **** *
 306:../Dave/Generated/UCPROBE/lib_str.c **** *               pstr_src    Pointer to source      string to copy into destination string buffer (s
 307:../Dave/Generated/UCPROBE/lib_str.c **** *
 308:../Dave/Generated/UCPROBE/lib_str.c **** * Return(s)   : Pointer to destination string, if NO error(s) [see Note #2b1].
 309:../Dave/Generated/UCPROBE/lib_str.c **** *
 310:../Dave/Generated/UCPROBE/lib_str.c **** *               Pointer to NULL,               otherwise      (see Note #2b2A).
 311:../Dave/Generated/UCPROBE/lib_str.c **** *
 312:../Dave/Generated/UCPROBE/lib_str.c **** * Caller(s)   : Application.
 313:../Dave/Generated/UCPROBE/lib_str.c **** *
 314:../Dave/Generated/UCPROBE/lib_str.c **** * Note(s)     : (1) (a) Destination buffer size NOT validated; buffer overruns MUST be prevented by
 315:../Dave/Generated/UCPROBE/lib_str.c **** *
 316:../Dave/Generated/UCPROBE/lib_str.c **** *                       (1) Destination buffer size MUST be large enough to accommodate the entire 
 317:../Dave/Generated/UCPROBE/lib_str.c **** *                           string size including the terminating NULL character.
 318:../Dave/Generated/UCPROBE/lib_str.c **** *
 319:../Dave/Generated/UCPROBE/lib_str.c **** *                   (b) Source buffer NOT modified.
 320:../Dave/Generated/UCPROBE/lib_str.c **** *
 321:../Dave/Generated/UCPROBE/lib_str.c **** *               (2) (a) IEEE Std 1003.1, 2004 Edition, Section 'strcpy() : DESCRIPTION' states that
 322:../Dave/Generated/UCPROBE/lib_str.c **** *
 323:../Dave/Generated/UCPROBE/lib_str.c **** *                       (1) "The strcpy() function shall copy the string pointed to by 's2' ('pstr_
 324:../Dave/Generated/UCPROBE/lib_str.c **** *                            ... into the array pointed to by 's1' ('pstr_dest')" ...
 325:../Dave/Generated/UCPROBE/lib_str.c **** *                       (2) "(including the terminating null byte)."
 326:../Dave/Generated/UCPROBE/lib_str.c **** *
 327:../Dave/Generated/UCPROBE/lib_str.c **** *                   (b) IEEE Std 1003.1, 2004 Edition, Section 'strcpy() : RETURN VALUE' states tha
 328:../Dave/Generated/UCPROBE/lib_str.c **** *
 329:../Dave/Generated/UCPROBE/lib_str.c **** *                       (1) "The strcpy() function shall return 's1' ('pstr_dest');" ...
 330:../Dave/Generated/UCPROBE/lib_str.c **** *                       (2) "no return value is reserved to indicate an error."
 331:../Dave/Generated/UCPROBE/lib_str.c **** *                           (A) #### This requirement is intentionally NOT implemented in order to 
 332:../Dave/Generated/UCPROBE/lib_str.c **** *                               NULL for any error(s).
 333:../Dave/Generated/UCPROBE/lib_str.c **** *
 334:../Dave/Generated/UCPROBE/lib_str.c **** *                   (c) IEEE Std 1003.1, 2004 Edition, Section 'strcpy() : DESCRIPTION' states that
 335:../Dave/Generated/UCPROBE/lib_str.c **** *                       copying takes place between objects that overlap, the behavior is undefined
 336:../Dave/Generated/UCPROBE/lib_str.c **** *
 337:../Dave/Generated/UCPROBE/lib_str.c **** *               (3) String copy terminates when :
 338:../Dave/Generated/UCPROBE/lib_str.c **** *
 339:../Dave/Generated/UCPROBE/lib_str.c **** *                   (a) Destination/Source string pointer(s) are passed NULL pointers.
 340:../Dave/Generated/UCPROBE/lib_str.c **** *                       (1) No string copy performed; NULL pointer returned.
 341:../Dave/Generated/UCPROBE/lib_str.c **** *
 342:../Dave/Generated/UCPROBE/lib_str.c **** *                   (b) Destination/Source string pointer(s) point to NULL.
 343:../Dave/Generated/UCPROBE/lib_str.c **** *                       (1) String buffer(s) overlap with NULL address; NULL pointer returned.
 344:../Dave/Generated/UCPROBE/lib_str.c **** *
 345:../Dave/Generated/UCPROBE/lib_str.c **** *                   (c) Source string's terminating NULL character found.
 346:../Dave/Generated/UCPROBE/lib_str.c **** *                       (1) Entire source string copied into destination string buffer (see Note #2
 347:../Dave/Generated/UCPROBE/lib_str.c **** ***************************************************************************************************
 348:../Dave/Generated/UCPROBE/lib_str.c **** */
 349:../Dave/Generated/UCPROBE/lib_str.c **** 
 350:../Dave/Generated/UCPROBE/lib_str.c **** CPU_CHAR  *Str_Copy (       CPU_CHAR  *pstr_dest,
 351:../Dave/Generated/UCPROBE/lib_str.c ****                      const  CPU_CHAR  *pstr_src)
 352:../Dave/Generated/UCPROBE/lib_str.c **** {
 192              	 .loc 1 352 0
 193              	 .cfi_startproc
 194              	 
 195              	 
 196 0000 80B5     	 push {r7,lr}
 197              	.LCFI11:
 198              	 .cfi_def_cfa_offset 8
 199              	 .cfi_offset 7,-8
 200              	 .cfi_offset 14,-4
 201 0002 84B0     	 sub sp,sp,#16
 202              	.LCFI12:
 203              	 .cfi_def_cfa_offset 24
 204 0004 00AF     	 add r7,sp,#0
 205              	.LCFI13:
 206              	 .cfi_def_cfa_register 7
 207 0006 7860     	 str r0,[r7,#4]
 208 0008 3960     	 str r1,[r7]
 353:../Dave/Generated/UCPROBE/lib_str.c ****     CPU_CHAR  *pstr_rtn;
 354:../Dave/Generated/UCPROBE/lib_str.c **** 
 355:../Dave/Generated/UCPROBE/lib_str.c **** 
 356:../Dave/Generated/UCPROBE/lib_str.c ****     pstr_rtn = Str_Copy_N(pstr_dest,
 209              	 .loc 1 356 0
 210 000a 7868     	 ldr r0,[r7,#4]
 211 000c 3968     	 ldr r1,[r7]
 212 000e 4FF0FF32 	 mov r2,#-1
 213 0012 FFF7FEFF 	 bl Str_Copy_N
 214 0016 F860     	 str r0,[r7,#12]
 357:../Dave/Generated/UCPROBE/lib_str.c ****                           pstr_src,
 358:../Dave/Generated/UCPROBE/lib_str.c ****                           DEF_INT_CPU_U_MAX_VAL);
 359:../Dave/Generated/UCPROBE/lib_str.c **** 
 360:../Dave/Generated/UCPROBE/lib_str.c ****     return (pstr_rtn);
 215              	 .loc 1 360 0
 216 0018 FB68     	 ldr r3,[r7,#12]
 361:../Dave/Generated/UCPROBE/lib_str.c **** }
 217              	 .loc 1 361 0
 218 001a 1846     	 mov r0,r3
 219 001c 1037     	 adds r7,r7,#16
 220              	.LCFI14:
 221              	 .cfi_def_cfa_offset 8
 222 001e BD46     	 mov sp,r7
 223              	.LCFI15:
 224              	 .cfi_def_cfa_register 13
 225              	 
 226 0020 80BD     	 pop {r7,pc}
 227              	 .cfi_endproc
 228              	.LFE2:
 230 0022 00BF     	 .section .text.Str_Copy_N,"ax",%progbits
 231              	 .align 2
 232              	 .global Str_Copy_N
 233              	 .thumb
 234              	 .thumb_func
 236              	Str_Copy_N:
 237              	.LFB3:
 362:../Dave/Generated/UCPROBE/lib_str.c **** 
 363:../Dave/Generated/UCPROBE/lib_str.c **** 
 364:../Dave/Generated/UCPROBE/lib_str.c **** /*
 365:../Dave/Generated/UCPROBE/lib_str.c **** ***************************************************************************************************
 366:../Dave/Generated/UCPROBE/lib_str.c **** *                                            Str_Copy_N()
 367:../Dave/Generated/UCPROBE/lib_str.c **** *
 368:../Dave/Generated/UCPROBE/lib_str.c **** * Description : Copy source string to destination string buffer, up to a maximum number of characte
 369:../Dave/Generated/UCPROBE/lib_str.c **** *
 370:../Dave/Generated/UCPROBE/lib_str.c **** * Argument(s) : pstr_dest   Pointer to destination string buffer to receive source string copy   (s
 371:../Dave/Generated/UCPROBE/lib_str.c **** *
 372:../Dave/Generated/UCPROBE/lib_str.c **** *               pstr_src    Pointer to source      string to copy into destination string buffer (s
 373:../Dave/Generated/UCPROBE/lib_str.c **** *
 374:../Dave/Generated/UCPROBE/lib_str.c **** *               len_max     Maximum number of characters  to copy (see Notes #2a2 & #3d).
 375:../Dave/Generated/UCPROBE/lib_str.c **** *
 376:../Dave/Generated/UCPROBE/lib_str.c **** * Return(s)   : Pointer to destination string, if NO error(s) [see Note #2b1].
 377:../Dave/Generated/UCPROBE/lib_str.c **** *
 378:../Dave/Generated/UCPROBE/lib_str.c **** *               Pointer to NULL,               otherwise      (see Note #2b2A).
 379:../Dave/Generated/UCPROBE/lib_str.c **** *
 380:../Dave/Generated/UCPROBE/lib_str.c **** * Caller(s)   : Application.
 381:../Dave/Generated/UCPROBE/lib_str.c **** *
 382:../Dave/Generated/UCPROBE/lib_str.c **** * Note(s)     : (1) (a) Destination buffer size NOT validated; buffer overruns MUST be prevented by
 383:../Dave/Generated/UCPROBE/lib_str.c **** *
 384:../Dave/Generated/UCPROBE/lib_str.c **** *                       (1) Destination buffer size MUST be large enough to accommodate the entire 
 385:../Dave/Generated/UCPROBE/lib_str.c **** *                           string size including the terminating NULL character.
 386:../Dave/Generated/UCPROBE/lib_str.c **** *
 387:../Dave/Generated/UCPROBE/lib_str.c **** *                   (b) Source string buffer NOT modified.
 388:../Dave/Generated/UCPROBE/lib_str.c **** *
 389:../Dave/Generated/UCPROBE/lib_str.c **** *               (2) (a) (1) IEEE Std 1003.1, 2004 Edition, Section 'strncpy() : DESCRIPTION' states
 390:../Dave/Generated/UCPROBE/lib_str.c **** *
 391:../Dave/Generated/UCPROBE/lib_str.c **** *                           (A) "The strncpy() function shall copy ... the array pointed to by 's2'
 392:../Dave/Generated/UCPROBE/lib_str.c **** *                               ('pstr_src') to the array pointed to by 's1' ('pstr_dest')"; ...
 393:../Dave/Generated/UCPROBE/lib_str.c **** *                           (B)  but "not more than 'n' ('len_max') bytes"                   ...
 394:../Dave/Generated/UCPROBE/lib_str.c **** *                           (C)  &   "(bytes that follow a null byte are not copied)".
 395:../Dave/Generated/UCPROBE/lib_str.c **** *
 396:../Dave/Generated/UCPROBE/lib_str.c **** *                       (2) (A) IEEE Std 1003.1, 2004 Edition, Section 'strncpy() : DESCRIPTION' ad
 397:../Dave/Generated/UCPROBE/lib_str.c **** *                              "if the array pointed to by 's2' ('pstr_src') is a string that is sh
 398:../Dave/Generated/UCPROBE/lib_str.c **** *                               than 'n' ('len_max') bytes, null bytes shall be appended to the cop
 399:../Dave/Generated/UCPROBE/lib_str.c **** *                               the array pointed to by 's1' ('pstr_dest'), until 'n' ('len_max') b
 400:../Dave/Generated/UCPROBE/lib_str.c **** *                               in all are written."
 401:../Dave/Generated/UCPROBE/lib_str.c **** *
 402:../Dave/Generated/UCPROBE/lib_str.c **** *                               (1) #### Since Str_Copy() limits the maximum number of characters t
 403:../Dave/Generated/UCPROBE/lib_str.c **** *                                   via Str_Copy_N() by the CPU's maximum number of addressable cha
 404:../Dave/Generated/UCPROBE/lib_str.c **** *                                   this requirement is intentionally NOT implemented to avoid appe
 405:../Dave/Generated/UCPROBE/lib_str.c **** *                                   a potentially large number of unnecessary terminating NULL char
 406:../Dave/Generated/UCPROBE/lib_str.c **** *
 407:../Dave/Generated/UCPROBE/lib_str.c **** *                           (B) IEEE Std 1003.1, 2004 Edition, Section 'strncpy() : APPLICATION USA
 408:../Dave/Generated/UCPROBE/lib_str.c **** *                               states that "if there is no null byte in the first 'n' ('len_max') 
 409:../Dave/Generated/UCPROBE/lib_str.c **** *                               the array pointed to by 's2' ('pstr_src'), the result is not null-t
 410:../Dave/Generated/UCPROBE/lib_str.c **** *
 411:../Dave/Generated/UCPROBE/lib_str.c **** *                   (b) IEEE Std 1003.1, 2004 Edition, Section 'strncpy() : RETURN VALUE' states th
 412:../Dave/Generated/UCPROBE/lib_str.c **** *
 413:../Dave/Generated/UCPROBE/lib_str.c **** *                       (1) "The strncpy() function shall return 's1' ('pstr_dest');" ...
 414:../Dave/Generated/UCPROBE/lib_str.c **** *                       (2) "no return value is reserved to indicate an error."
 415:../Dave/Generated/UCPROBE/lib_str.c **** *                           (A) #### This requirement is intentionally ignored in order to return N
 416:../Dave/Generated/UCPROBE/lib_str.c **** *                               for any error(s).
 417:../Dave/Generated/UCPROBE/lib_str.c **** *
 418:../Dave/Generated/UCPROBE/lib_str.c **** *                   (c) IEEE Std 1003.1, 2004 Edition, Section 'strncpy() : DESCRIPTION' states tha
 419:../Dave/Generated/UCPROBE/lib_str.c **** *                       copying takes place between objects that overlap, the behavior is undefined
 420:../Dave/Generated/UCPROBE/lib_str.c **** *
 421:../Dave/Generated/UCPROBE/lib_str.c **** *               (3) String copy terminates when :
 422:../Dave/Generated/UCPROBE/lib_str.c **** *
 423:../Dave/Generated/UCPROBE/lib_str.c **** *                   (a) Destination/Source string pointer(s) are passed NULL pointers.
 424:../Dave/Generated/UCPROBE/lib_str.c **** *                       (1) No string copy performed; NULL pointer returned.
 425:../Dave/Generated/UCPROBE/lib_str.c **** *
 426:../Dave/Generated/UCPROBE/lib_str.c **** *                   (b) Destination/Source string pointer(s) point to NULL.
 427:../Dave/Generated/UCPROBE/lib_str.c **** *                       (1) String buffer(s) overlap with NULL address; NULL pointer returned.
 428:../Dave/Generated/UCPROBE/lib_str.c **** *
 429:../Dave/Generated/UCPROBE/lib_str.c **** *                   (c) Source string's terminating NULL character found.
 430:../Dave/Generated/UCPROBE/lib_str.c **** *                       (1) Entire source string copied into destination string buffer (see Note #2
 431:../Dave/Generated/UCPROBE/lib_str.c **** *
 432:../Dave/Generated/UCPROBE/lib_str.c **** *                   (d) 'len_max' number of characters copied.
 433:../Dave/Generated/UCPROBE/lib_str.c **** *                       (1) 'len_max' number of characters MAY include the terminating NULL charact
 434:../Dave/Generated/UCPROBE/lib_str.c **** *                           (see Note #2a1C).
 435:../Dave/Generated/UCPROBE/lib_str.c **** *                       (2) Null copies allowed (i.e. zero-length copies).
 436:../Dave/Generated/UCPROBE/lib_str.c **** *                           (A) No string copy performed; destination string returned  (see Note #2
 437:../Dave/Generated/UCPROBE/lib_str.c **** ***************************************************************************************************
 438:../Dave/Generated/UCPROBE/lib_str.c **** */
 439:../Dave/Generated/UCPROBE/lib_str.c **** 
 440:../Dave/Generated/UCPROBE/lib_str.c **** CPU_CHAR  *Str_Copy_N (       CPU_CHAR    *pstr_dest,
 441:../Dave/Generated/UCPROBE/lib_str.c ****                        const  CPU_CHAR    *pstr_src,
 442:../Dave/Generated/UCPROBE/lib_str.c ****                               CPU_SIZE_T   len_max)
 443:../Dave/Generated/UCPROBE/lib_str.c **** {
 238              	 .loc 1 443 0
 239              	 .cfi_startproc
 240              	 
 241              	 
 242              	 
 243 0000 80B4     	 push {r7}
 244              	.LCFI16:
 245              	 .cfi_def_cfa_offset 4
 246              	 .cfi_offset 7,-4
 247 0002 89B0     	 sub sp,sp,#36
 248              	.LCFI17:
 249              	 .cfi_def_cfa_offset 40
 250 0004 00AF     	 add r7,sp,#0
 251              	.LCFI18:
 252              	 .cfi_def_cfa_register 7
 253 0006 F860     	 str r0,[r7,#12]
 254 0008 B960     	 str r1,[r7,#8]
 255 000a 7A60     	 str r2,[r7,#4]
 444:../Dave/Generated/UCPROBE/lib_str.c ****            CPU_CHAR    *pstr_copy_dest;
 445:../Dave/Generated/UCPROBE/lib_str.c ****     const  CPU_CHAR    *pstr_copy_src;
 446:../Dave/Generated/UCPROBE/lib_str.c ****            CPU_SIZE_T   len_copy;
 447:../Dave/Generated/UCPROBE/lib_str.c **** 
 448:../Dave/Generated/UCPROBE/lib_str.c ****                                                                 /* Rtn NULL if str ptr(s) NULL (see
 449:../Dave/Generated/UCPROBE/lib_str.c ****     if (pstr_dest == (CPU_CHAR *)0) {
 256              	 .loc 1 449 0
 257 000c FB68     	 ldr r3,[r7,#12]
 258 000e 002B     	 cmp r3,#0
 259 0010 01D1     	 bne .L11
 450:../Dave/Generated/UCPROBE/lib_str.c ****         return ((CPU_CHAR *)0);
 260              	 .loc 1 450 0
 261 0012 0023     	 movs r3,#0
 262 0014 36E0     	 b .L12
 263              	.L11:
 451:../Dave/Generated/UCPROBE/lib_str.c ****     }
 452:../Dave/Generated/UCPROBE/lib_str.c ****     if (pstr_src  == (const CPU_CHAR *)0) {
 264              	 .loc 1 452 0
 265 0016 BB68     	 ldr r3,[r7,#8]
 266 0018 002B     	 cmp r3,#0
 267 001a 01D1     	 bne .L13
 453:../Dave/Generated/UCPROBE/lib_str.c ****         return ((CPU_CHAR *)0);
 268              	 .loc 1 453 0
 269 001c 0023     	 movs r3,#0
 270 001e 31E0     	 b .L12
 271              	.L13:
 454:../Dave/Generated/UCPROBE/lib_str.c ****     }
 455:../Dave/Generated/UCPROBE/lib_str.c **** 
 456:../Dave/Generated/UCPROBE/lib_str.c **** 
 457:../Dave/Generated/UCPROBE/lib_str.c ****     pstr_copy_dest = pstr_dest;
 272              	 .loc 1 457 0
 273 0020 FB68     	 ldr r3,[r7,#12]
 274 0022 FB61     	 str r3,[r7,#28]
 458:../Dave/Generated/UCPROBE/lib_str.c ****     pstr_copy_src  = pstr_src;
 275              	 .loc 1 458 0
 276 0024 BB68     	 ldr r3,[r7,#8]
 277 0026 BB61     	 str r3,[r7,#24]
 459:../Dave/Generated/UCPROBE/lib_str.c ****     len_copy       = 0u;
 278              	 .loc 1 459 0
 279 0028 0023     	 movs r3,#0
 280 002a 7B61     	 str r3,[r7,#20]
 460:../Dave/Generated/UCPROBE/lib_str.c **** 
 461:../Dave/Generated/UCPROBE/lib_str.c ****     while (( pstr_copy_dest != (      CPU_CHAR *)  0 ) &&       /* Copy str until NULL ptr(s)  [see
 281              	 .loc 1 461 0
 282 002c 0CE0     	 b .L14
 283              	.L16:
 462:../Dave/Generated/UCPROBE/lib_str.c ****            ( pstr_copy_src  != (const CPU_CHAR *)  0 ) &&
 463:../Dave/Generated/UCPROBE/lib_str.c ****            (*pstr_copy_src  != (      CPU_CHAR  )'\0') &&       /* ... or NULL char found      (see
 464:../Dave/Generated/UCPROBE/lib_str.c ****            ( len_copy       <  (      CPU_SIZE_T)len_max)) {    /* ... or max nbr chars copied (see
 465:../Dave/Generated/UCPROBE/lib_str.c ****        *pstr_copy_dest = *pstr_copy_src;
 284              	 .loc 1 465 0
 285 002e BB69     	 ldr r3,[r7,#24]
 286 0030 1A78     	 ldrb r2,[r3]
 287 0032 FB69     	 ldr r3,[r7,#28]
 288 0034 1A70     	 strb r2,[r3]
 466:../Dave/Generated/UCPROBE/lib_str.c ****         pstr_copy_dest++;
 289              	 .loc 1 466 0
 290 0036 FB69     	 ldr r3,[r7,#28]
 291 0038 0133     	 adds r3,r3,#1
 292 003a FB61     	 str r3,[r7,#28]
 467:../Dave/Generated/UCPROBE/lib_str.c ****         pstr_copy_src++;
 293              	 .loc 1 467 0
 294 003c BB69     	 ldr r3,[r7,#24]
 295 003e 0133     	 adds r3,r3,#1
 296 0040 BB61     	 str r3,[r7,#24]
 468:../Dave/Generated/UCPROBE/lib_str.c ****         len_copy++;
 297              	 .loc 1 468 0
 298 0042 7B69     	 ldr r3,[r7,#20]
 299 0044 0133     	 adds r3,r3,#1
 300 0046 7B61     	 str r3,[r7,#20]
 301              	.L14:
 461:../Dave/Generated/UCPROBE/lib_str.c ****            ( pstr_copy_src  != (const CPU_CHAR *)  0 ) &&
 302              	 .loc 1 461 0
 303 0048 FB69     	 ldr r3,[r7,#28]
 304 004a 002B     	 cmp r3,#0
 305 004c 0AD0     	 beq .L15
 461:../Dave/Generated/UCPROBE/lib_str.c ****            ( pstr_copy_src  != (const CPU_CHAR *)  0 ) &&
 306              	 .loc 1 461 0 is_stmt 0 discriminator 1
 307 004e BB69     	 ldr r3,[r7,#24]
 308 0050 002B     	 cmp r3,#0
 309 0052 07D0     	 beq .L15
 463:../Dave/Generated/UCPROBE/lib_str.c ****            ( len_copy       <  (      CPU_SIZE_T)len_max)) {    /* ... or max nbr chars copied (see
 310              	 .loc 1 463 0 is_stmt 1
 311 0054 BB69     	 ldr r3,[r7,#24]
 312 0056 1B78     	 ldrb r3,[r3]
 462:../Dave/Generated/UCPROBE/lib_str.c ****            (*pstr_copy_src  != (      CPU_CHAR  )'\0') &&       /* ... or NULL char found      (see
 313              	 .loc 1 462 0
 314 0058 002B     	 cmp r3,#0
 315 005a 03D0     	 beq .L15
 463:../Dave/Generated/UCPROBE/lib_str.c ****            ( len_copy       <  (      CPU_SIZE_T)len_max)) {    /* ... or max nbr chars copied (see
 316              	 .loc 1 463 0
 317 005c 7A69     	 ldr r2,[r7,#20]
 318 005e 7B68     	 ldr r3,[r7,#4]
 319 0060 9A42     	 cmp r2,r3
 320 0062 E4D3     	 bcc .L16
 321              	.L15:
 469:../Dave/Generated/UCPROBE/lib_str.c ****     }
 470:../Dave/Generated/UCPROBE/lib_str.c ****                                                                 /* Rtn NULL if NULL ptr(s) found  (
 471:../Dave/Generated/UCPROBE/lib_str.c ****     if ((pstr_copy_dest == (      CPU_CHAR *)0) ||
 322              	 .loc 1 471 0
 323 0064 FB69     	 ldr r3,[r7,#28]
 324 0066 002B     	 cmp r3,#0
 325 0068 02D0     	 beq .L17
 326              	 .loc 1 471 0 is_stmt 0 discriminator 1
 327 006a BB69     	 ldr r3,[r7,#24]
 328 006c 002B     	 cmp r3,#0
 329 006e 01D1     	 bne .L18
 330              	.L17:
 472:../Dave/Generated/UCPROBE/lib_str.c ****         (pstr_copy_src  == (const CPU_CHAR *)0)) {
 473:../Dave/Generated/UCPROBE/lib_str.c ****          return ((CPU_CHAR *)0);
 331              	 .loc 1 473 0 is_stmt 1
 332 0070 0023     	 movs r3,#0
 333 0072 07E0     	 b .L12
 334              	.L18:
 474:../Dave/Generated/UCPROBE/lib_str.c ****     }
 475:../Dave/Generated/UCPROBE/lib_str.c **** 
 476:../Dave/Generated/UCPROBE/lib_str.c ****     if (len_copy < len_max) {                                   /* If  copy str len < max buf len (
 335              	 .loc 1 476 0
 336 0074 7A69     	 ldr r2,[r7,#20]
 337 0076 7B68     	 ldr r3,[r7,#4]
 338 0078 9A42     	 cmp r2,r3
 339 007a 02D2     	 bcs .L19
 477:../Dave/Generated/UCPROBE/lib_str.c ****        *pstr_copy_dest = (CPU_CHAR)'\0';                        /* ... copy NULL char  (see Note #3
 340              	 .loc 1 477 0
 341 007c FB69     	 ldr r3,[r7,#28]
 342 007e 0022     	 movs r2,#0
 343 0080 1A70     	 strb r2,[r3]
 344              	.L19:
 478:../Dave/Generated/UCPROBE/lib_str.c ****     }
 479:../Dave/Generated/UCPROBE/lib_str.c **** 
 480:../Dave/Generated/UCPROBE/lib_str.c **** 
 481:../Dave/Generated/UCPROBE/lib_str.c ****     return (pstr_dest);                                         /* Rtn ptr to dest str (see Note #2
 345              	 .loc 1 481 0
 346 0082 FB68     	 ldr r3,[r7,#12]
 347              	.L12:
 482:../Dave/Generated/UCPROBE/lib_str.c **** }
 348              	 .loc 1 482 0
 349 0084 1846     	 mov r0,r3
 350 0086 2437     	 adds r7,r7,#36
 351              	.LCFI19:
 352              	 .cfi_def_cfa_offset 4
 353 0088 BD46     	 mov sp,r7
 354              	.LCFI20:
 355              	 .cfi_def_cfa_register 13
 356              	 
 357 008a 5DF8047B 	 ldr r7,[sp],#4
 358              	.LCFI21:
 359              	 .cfi_restore 7
 360              	 .cfi_def_cfa_offset 0
 361 008e 7047     	 bx lr
 362              	 .cfi_endproc
 363              	.LFE3:
 365              	 .section .text.Str_Cat,"ax",%progbits
 366              	 .align 2
 367              	 .global Str_Cat
 368              	 .thumb
 369              	 .thumb_func
 371              	Str_Cat:
 372              	.LFB4:
 483:../Dave/Generated/UCPROBE/lib_str.c **** 
 484:../Dave/Generated/UCPROBE/lib_str.c **** 
 485:../Dave/Generated/UCPROBE/lib_str.c **** /*
 486:../Dave/Generated/UCPROBE/lib_str.c **** ***************************************************************************************************
 487:../Dave/Generated/UCPROBE/lib_str.c **** *                                              Str_Cat()
 488:../Dave/Generated/UCPROBE/lib_str.c **** *
 489:../Dave/Generated/UCPROBE/lib_str.c **** * Description : Append concatenation string to destination string.
 490:../Dave/Generated/UCPROBE/lib_str.c **** *
 491:../Dave/Generated/UCPROBE/lib_str.c **** * Argument(s) : pstr_dest   Pointer to destination   string to append concatenation  string (see No
 492:../Dave/Generated/UCPROBE/lib_str.c **** *
 493:../Dave/Generated/UCPROBE/lib_str.c **** *               pstr_cat    Pointer to concatenation string to append to destination string (see No
 494:../Dave/Generated/UCPROBE/lib_str.c **** *
 495:../Dave/Generated/UCPROBE/lib_str.c **** * Return(s)   : Pointer to destination string, if NO error(s) [see Note #2b1].
 496:../Dave/Generated/UCPROBE/lib_str.c **** *
 497:../Dave/Generated/UCPROBE/lib_str.c **** *               Pointer to NULL,               otherwise      (see Note #2b2A).
 498:../Dave/Generated/UCPROBE/lib_str.c **** *
 499:../Dave/Generated/UCPROBE/lib_str.c **** * Caller(s)   : Application.
 500:../Dave/Generated/UCPROBE/lib_str.c **** *
 501:../Dave/Generated/UCPROBE/lib_str.c **** * Note(s)     : (1) (a) Destination buffer size NOT validated; buffer overruns MUST be prevented by
 502:../Dave/Generated/UCPROBE/lib_str.c **** *
 503:../Dave/Generated/UCPROBE/lib_str.c **** *                       (1) Destination buffer size MUST be large enough to accommodate the entire
 504:../Dave/Generated/UCPROBE/lib_str.c **** *                           concatenated string size including the terminating NULL character.
 505:../Dave/Generated/UCPROBE/lib_str.c **** *
 506:../Dave/Generated/UCPROBE/lib_str.c **** *                   (b) Concatenation string buffer NOT modified.
 507:../Dave/Generated/UCPROBE/lib_str.c **** *
 508:../Dave/Generated/UCPROBE/lib_str.c **** *               (2) (a) IEEE Std 1003.1, 2004 Edition, Section 'strcat() : DESCRIPTION' states that
 509:../Dave/Generated/UCPROBE/lib_str.c **** *
 510:../Dave/Generated/UCPROBE/lib_str.c **** *                       (1) "The strcat() function shall append a copy of the string pointed to by 
 511:../Dave/Generated/UCPROBE/lib_str.c **** *                           ('pstr_cat') ... to the end of the string pointed to by 's1' ('pstr_des
 512:../Dave/Generated/UCPROBE/lib_str.c **** *
 513:../Dave/Generated/UCPROBE/lib_str.c **** *                       (2) (A) "The initial byte of 's2' ('pstr_cat') overwrites the null byte at 
 514:../Dave/Generated/UCPROBE/lib_str.c **** *                                end of 's1' ('pstr_dest')."
 515:../Dave/Generated/UCPROBE/lib_str.c **** *                           (B)  A "terminating null byte" is appended at the end of the concatenat
 516:../Dave/Generated/UCPROBE/lib_str.c **** *                                destination strings.
 517:../Dave/Generated/UCPROBE/lib_str.c **** *
 518:../Dave/Generated/UCPROBE/lib_str.c **** *                   (b) IEEE Std 1003.1, 2004 Edition, Section 'strcat() : RETURN VALUE' states tha
 519:../Dave/Generated/UCPROBE/lib_str.c **** *
 520:../Dave/Generated/UCPROBE/lib_str.c **** *                       (1) "The strcat() function shall return 's1' ('pstr_dest');" ...
 521:../Dave/Generated/UCPROBE/lib_str.c **** *                       (2) "no return value shall be reserved to indicate an error."
 522:../Dave/Generated/UCPROBE/lib_str.c **** *                           (A) #### This requirement is intentionally NOT implemented in order to 
 523:../Dave/Generated/UCPROBE/lib_str.c **** *                               NULL for any error(s).
 524:../Dave/Generated/UCPROBE/lib_str.c **** *
 525:../Dave/Generated/UCPROBE/lib_str.c **** *                   (c) IEEE Std 1003.1, 2004 Edition, Section 'strcat() : DESCRIPTION' states that
 526:../Dave/Generated/UCPROBE/lib_str.c **** *                       copying takes place between objects that overlap, the behavior is undefined
 527:../Dave/Generated/UCPROBE/lib_str.c **** *
 528:../Dave/Generated/UCPROBE/lib_str.c **** *               (3) String concatenation terminates when :
 529:../Dave/Generated/UCPROBE/lib_str.c **** *
 530:../Dave/Generated/UCPROBE/lib_str.c **** *                   (a) Destination/Concatenation string pointer(s) are passed NULL pointers.
 531:../Dave/Generated/UCPROBE/lib_str.c **** *                       (1) No string concatenation performed; NULL pointer returned.
 532:../Dave/Generated/UCPROBE/lib_str.c **** *
 533:../Dave/Generated/UCPROBE/lib_str.c **** *                   (b) Destination/Concatenation string pointer(s) point to NULL.
 534:../Dave/Generated/UCPROBE/lib_str.c **** *                       (1) String buffer(s) overlap with NULL address; NULL pointer returned.
 535:../Dave/Generated/UCPROBE/lib_str.c **** *
 536:../Dave/Generated/UCPROBE/lib_str.c **** *                   (c) Concatenation string's terminating NULL character found.
 537:../Dave/Generated/UCPROBE/lib_str.c **** *                       (1) Entire concatenation string appended to destination string (see Note #2
 538:../Dave/Generated/UCPROBE/lib_str.c **** ***************************************************************************************************
 539:../Dave/Generated/UCPROBE/lib_str.c **** */
 540:../Dave/Generated/UCPROBE/lib_str.c **** 
 541:../Dave/Generated/UCPROBE/lib_str.c **** CPU_CHAR  *Str_Cat (       CPU_CHAR  *pstr_dest,
 542:../Dave/Generated/UCPROBE/lib_str.c ****                     const  CPU_CHAR  *pstr_cat)
 543:../Dave/Generated/UCPROBE/lib_str.c **** {
 373              	 .loc 1 543 0
 374              	 .cfi_startproc
 375              	 
 376              	 
 377 0000 80B5     	 push {r7,lr}
 378              	.LCFI22:
 379              	 .cfi_def_cfa_offset 8
 380              	 .cfi_offset 7,-8
 381              	 .cfi_offset 14,-4
 382 0002 84B0     	 sub sp,sp,#16
 383              	.LCFI23:
 384              	 .cfi_def_cfa_offset 24
 385 0004 00AF     	 add r7,sp,#0
 386              	.LCFI24:
 387              	 .cfi_def_cfa_register 7
 388 0006 7860     	 str r0,[r7,#4]
 389 0008 3960     	 str r1,[r7]
 544:../Dave/Generated/UCPROBE/lib_str.c ****     CPU_CHAR  *pstr_rtn;
 545:../Dave/Generated/UCPROBE/lib_str.c **** 
 546:../Dave/Generated/UCPROBE/lib_str.c **** 
 547:../Dave/Generated/UCPROBE/lib_str.c ****     pstr_rtn = Str_Cat_N(pstr_dest,
 390              	 .loc 1 547 0
 391 000a 7868     	 ldr r0,[r7,#4]
 392 000c 3968     	 ldr r1,[r7]
 393 000e 4FF0FF32 	 mov r2,#-1
 394 0012 FFF7FEFF 	 bl Str_Cat_N
 395 0016 F860     	 str r0,[r7,#12]
 548:../Dave/Generated/UCPROBE/lib_str.c ****                          pstr_cat,
 549:../Dave/Generated/UCPROBE/lib_str.c ****                          DEF_INT_CPU_U_MAX_VAL);
 550:../Dave/Generated/UCPROBE/lib_str.c **** 
 551:../Dave/Generated/UCPROBE/lib_str.c ****     return (pstr_rtn);
 396              	 .loc 1 551 0
 397 0018 FB68     	 ldr r3,[r7,#12]
 552:../Dave/Generated/UCPROBE/lib_str.c **** }
 398              	 .loc 1 552 0
 399 001a 1846     	 mov r0,r3
 400 001c 1037     	 adds r7,r7,#16
 401              	.LCFI25:
 402              	 .cfi_def_cfa_offset 8
 403 001e BD46     	 mov sp,r7
 404              	.LCFI26:
 405              	 .cfi_def_cfa_register 13
 406              	 
 407 0020 80BD     	 pop {r7,pc}
 408              	 .cfi_endproc
 409              	.LFE4:
 411 0022 00BF     	 .section .text.Str_Cat_N,"ax",%progbits
 412              	 .align 2
 413              	 .global Str_Cat_N
 414              	 .thumb
 415              	 .thumb_func
 417              	Str_Cat_N:
 418              	.LFB5:
 553:../Dave/Generated/UCPROBE/lib_str.c **** 
 554:../Dave/Generated/UCPROBE/lib_str.c **** 
 555:../Dave/Generated/UCPROBE/lib_str.c **** /*
 556:../Dave/Generated/UCPROBE/lib_str.c **** ***************************************************************************************************
 557:../Dave/Generated/UCPROBE/lib_str.c **** *                                             Str_Cat_N()
 558:../Dave/Generated/UCPROBE/lib_str.c **** *
 559:../Dave/Generated/UCPROBE/lib_str.c **** * Description : Append concatenation string to destination string, up to a maximum number of charac
 560:../Dave/Generated/UCPROBE/lib_str.c **** *
 561:../Dave/Generated/UCPROBE/lib_str.c **** * Argument(s) : pstr_dest   Pointer to destination   string to append concatenation  string (see No
 562:../Dave/Generated/UCPROBE/lib_str.c **** *
 563:../Dave/Generated/UCPROBE/lib_str.c **** *               pstr_cat    Pointer to concatenation string to append to destination string (see No
 564:../Dave/Generated/UCPROBE/lib_str.c **** *
 565:../Dave/Generated/UCPROBE/lib_str.c **** *               len_max     Maximum number of characters to concatenate (see Notes #2a1B & #3d).
 566:../Dave/Generated/UCPROBE/lib_str.c **** *
 567:../Dave/Generated/UCPROBE/lib_str.c **** * Return(s)   : Pointer to destination string, if NO error(s) [see Note #2b1].
 568:../Dave/Generated/UCPROBE/lib_str.c **** *
 569:../Dave/Generated/UCPROBE/lib_str.c **** *               Pointer to NULL,               otherwise      (see Note #2b2A).
 570:../Dave/Generated/UCPROBE/lib_str.c **** *
 571:../Dave/Generated/UCPROBE/lib_str.c **** * Caller(s)   : Application.
 572:../Dave/Generated/UCPROBE/lib_str.c **** *
 573:../Dave/Generated/UCPROBE/lib_str.c **** * Note(s)     : (1) (a) Destination buffer size NOT validated; buffer overruns MUST be prevented by
 574:../Dave/Generated/UCPROBE/lib_str.c **** *
 575:../Dave/Generated/UCPROBE/lib_str.c **** *                       (1) Destination buffer size MUST be large enough to accommodate the entire
 576:../Dave/Generated/UCPROBE/lib_str.c **** *                           concatenated string size including the terminating NULL character.
 577:../Dave/Generated/UCPROBE/lib_str.c **** *
 578:../Dave/Generated/UCPROBE/lib_str.c **** *                   (b) Concatenation string buffer NOT modified.
 579:../Dave/Generated/UCPROBE/lib_str.c **** *
 580:../Dave/Generated/UCPROBE/lib_str.c **** *               (2) (a) IEEE Std 1003.1, 2004 Edition, Section 'strncat() : DESCRIPTION' states tha
 581:../Dave/Generated/UCPROBE/lib_str.c **** *
 582:../Dave/Generated/UCPROBE/lib_str.c **** *                       (1) (A) "The strncat() function shall append ... the array pointed to by 's
 583:../Dave/Generated/UCPROBE/lib_str.c **** *                               ('pstr_cat') to the end of the string pointed to by 's1' ('pstr_des
 584:../Dave/Generated/UCPROBE/lib_str.c **** *                           (B)  but "not more than 'n' ('len_max') bytes".
 585:../Dave/Generated/UCPROBE/lib_str.c **** *
 586:../Dave/Generated/UCPROBE/lib_str.c **** *                       (2) (A) "The initial byte of 's2' ('pstr_cat') overwrites the null byte at 
 587:../Dave/Generated/UCPROBE/lib_str.c **** *                                end of 's1' ('pstr_dest')."
 588:../Dave/Generated/UCPROBE/lib_str.c **** *                           (B) "(a null byte and bytes that follow it are not appended)."
 589:../Dave/Generated/UCPROBE/lib_str.c **** *                           (C) "A terminating null byte is always appended to the result."
 590:../Dave/Generated/UCPROBE/lib_str.c **** *
 591:../Dave/Generated/UCPROBE/lib_str.c **** *                   (b) IEEE Std 1003.1, 2004 Edition, Section 'strncat() : RETURN VALUE' states th
 592:../Dave/Generated/UCPROBE/lib_str.c **** *
 593:../Dave/Generated/UCPROBE/lib_str.c **** *                       (1) "The strncat() function shall return 's1' ('pstr_dest');" ...
 594:../Dave/Generated/UCPROBE/lib_str.c **** *                       (2) "no return value shall be reserved to indicate an error."
 595:../Dave/Generated/UCPROBE/lib_str.c **** *                           (A) #### This requirement is intentionally NOT implemented in order to 
 596:../Dave/Generated/UCPROBE/lib_str.c **** *                               NULL for any error(s).
 597:../Dave/Generated/UCPROBE/lib_str.c **** *
 598:../Dave/Generated/UCPROBE/lib_str.c **** *                   (c) IEEE Std 1003.1, 2004 Edition, Section 'strncat() : DESCRIPTION' states tha
 599:../Dave/Generated/UCPROBE/lib_str.c **** *                       copying takes place between objects that overlap, the behavior is undefined
 600:../Dave/Generated/UCPROBE/lib_str.c **** *
 601:../Dave/Generated/UCPROBE/lib_str.c **** *               (3) String concatenation terminates when :
 602:../Dave/Generated/UCPROBE/lib_str.c **** *
 603:../Dave/Generated/UCPROBE/lib_str.c **** *                   (a) Destination/Concatenation string pointer(s) are passed NULL pointers.
 604:../Dave/Generated/UCPROBE/lib_str.c **** *                       (1) No string concatenation performed; NULL pointer returned.
 605:../Dave/Generated/UCPROBE/lib_str.c **** *
 606:../Dave/Generated/UCPROBE/lib_str.c **** *                   (b) Destination/Concatenation string pointer(s) point to NULL.
 607:../Dave/Generated/UCPROBE/lib_str.c **** *                       (1) String buffer(s) overlap with NULL address; NULL pointer returned.
 608:../Dave/Generated/UCPROBE/lib_str.c **** *
 609:../Dave/Generated/UCPROBE/lib_str.c **** *                   (c) Concatenation string's terminating NULL character found.
 610:../Dave/Generated/UCPROBE/lib_str.c **** *                       (1) Entire concatenation string appended to destination string (see Note #2
 611:../Dave/Generated/UCPROBE/lib_str.c **** *
 612:../Dave/Generated/UCPROBE/lib_str.c **** *                   (d) 'len_max' number of characters concatenated.
 613:../Dave/Generated/UCPROBE/lib_str.c **** *
 614:../Dave/Generated/UCPROBE/lib_str.c **** *                       (1) 'len_max' number of characters does NOT include the terminating NULL ch
 615:../Dave/Generated/UCPROBE/lib_str.c **** *                           (see Note #2a2).
 616:../Dave/Generated/UCPROBE/lib_str.c **** *
 617:../Dave/Generated/UCPROBE/lib_str.c **** *                       (2) Null concatenations allowed (i.e. zero-length concatenations).
 618:../Dave/Generated/UCPROBE/lib_str.c **** *                           (A) No string concatenation performed; destination string returned
 619:../Dave/Generated/UCPROBE/lib_str.c **** *                               (see Note #2b1).
 620:../Dave/Generated/UCPROBE/lib_str.c **** ***************************************************************************************************
 621:../Dave/Generated/UCPROBE/lib_str.c **** */
 622:../Dave/Generated/UCPROBE/lib_str.c **** 
 623:../Dave/Generated/UCPROBE/lib_str.c **** CPU_CHAR  *Str_Cat_N (       CPU_CHAR    *pstr_dest,
 624:../Dave/Generated/UCPROBE/lib_str.c ****                       const  CPU_CHAR    *pstr_cat,
 625:../Dave/Generated/UCPROBE/lib_str.c ****                              CPU_SIZE_T   len_max)
 626:../Dave/Generated/UCPROBE/lib_str.c **** {
 419              	 .loc 1 626 0
 420              	 .cfi_startproc
 421              	 
 422              	 
 423              	 
 424 0000 80B4     	 push {r7}
 425              	.LCFI27:
 426              	 .cfi_def_cfa_offset 4
 427              	 .cfi_offset 7,-4
 428 0002 89B0     	 sub sp,sp,#36
 429              	.LCFI28:
 430              	 .cfi_def_cfa_offset 40
 431 0004 00AF     	 add r7,sp,#0
 432              	.LCFI29:
 433              	 .cfi_def_cfa_register 7
 434 0006 F860     	 str r0,[r7,#12]
 435 0008 B960     	 str r1,[r7,#8]
 436 000a 7A60     	 str r2,[r7,#4]
 627:../Dave/Generated/UCPROBE/lib_str.c ****            CPU_CHAR    *pstr_cat_dest;
 628:../Dave/Generated/UCPROBE/lib_str.c ****     const  CPU_CHAR    *pstr_cat_src;
 629:../Dave/Generated/UCPROBE/lib_str.c ****            CPU_SIZE_T   len_cat;
 630:../Dave/Generated/UCPROBE/lib_str.c **** 
 631:../Dave/Generated/UCPROBE/lib_str.c ****                                                                 /* Rtn NULL if str ptr(s) NULL (see
 632:../Dave/Generated/UCPROBE/lib_str.c ****     if (pstr_dest == (CPU_CHAR *)0) {
 437              	 .loc 1 632 0
 438 000c FB68     	 ldr r3,[r7,#12]
 439 000e 002B     	 cmp r3,#0
 440 0010 01D1     	 bne .L23
 633:../Dave/Generated/UCPROBE/lib_str.c ****         return ((CPU_CHAR *)0);
 441              	 .loc 1 633 0
 442 0012 0023     	 movs r3,#0
 443 0014 47E0     	 b .L24
 444              	.L23:
 634:../Dave/Generated/UCPROBE/lib_str.c ****     }
 635:../Dave/Generated/UCPROBE/lib_str.c ****     if (pstr_cat  == (const CPU_CHAR *)0) {
 445              	 .loc 1 635 0
 446 0016 BB68     	 ldr r3,[r7,#8]
 447 0018 002B     	 cmp r3,#0
 448 001a 01D1     	 bne .L25
 636:../Dave/Generated/UCPROBE/lib_str.c ****         return ((CPU_CHAR *)0);
 449              	 .loc 1 636 0
 450 001c 0023     	 movs r3,#0
 451 001e 42E0     	 b .L24
 452              	.L25:
 637:../Dave/Generated/UCPROBE/lib_str.c ****     }
 638:../Dave/Generated/UCPROBE/lib_str.c **** 
 639:../Dave/Generated/UCPROBE/lib_str.c ****     if (len_max < 1) {                                          /* Rtn dest str if cat len = 0 (see
 453              	 .loc 1 639 0
 454 0020 7B68     	 ldr r3,[r7,#4]
 455 0022 002B     	 cmp r3,#0
 456 0024 01D1     	 bne .L26
 640:../Dave/Generated/UCPROBE/lib_str.c ****         return ((CPU_CHAR *)pstr_dest);
 457              	 .loc 1 640 0
 458 0026 FB68     	 ldr r3,[r7,#12]
 459 0028 3DE0     	 b .L24
 460              	.L26:
 641:../Dave/Generated/UCPROBE/lib_str.c ****     }
 642:../Dave/Generated/UCPROBE/lib_str.c **** 
 643:../Dave/Generated/UCPROBE/lib_str.c **** 
 644:../Dave/Generated/UCPROBE/lib_str.c ****     pstr_cat_dest = pstr_dest;
 461              	 .loc 1 644 0
 462 002a FB68     	 ldr r3,[r7,#12]
 463 002c FB61     	 str r3,[r7,#28]
 645:../Dave/Generated/UCPROBE/lib_str.c ****     while (( pstr_cat_dest != (CPU_CHAR *)  0 ) &&              /* Adv to end of cur dest str until
 464              	 .loc 1 645 0
 465 002e 02E0     	 b .L27
 466              	.L29:
 646:../Dave/Generated/UCPROBE/lib_str.c ****            (*pstr_cat_dest != (CPU_CHAR  )'\0')) {              /* ... or NULL char found..        
 647:../Dave/Generated/UCPROBE/lib_str.c ****         pstr_cat_dest++;
 467              	 .loc 1 647 0
 468 0030 FB69     	 ldr r3,[r7,#28]
 469 0032 0133     	 adds r3,r3,#1
 470 0034 FB61     	 str r3,[r7,#28]
 471              	.L27:
 645:../Dave/Generated/UCPROBE/lib_str.c ****     while (( pstr_cat_dest != (CPU_CHAR *)  0 ) &&              /* Adv to end of cur dest str until
 472              	 .loc 1 645 0
 473 0036 FB69     	 ldr r3,[r7,#28]
 474 0038 002B     	 cmp r3,#0
 475 003a 03D0     	 beq .L28
 646:../Dave/Generated/UCPROBE/lib_str.c ****            (*pstr_cat_dest != (CPU_CHAR  )'\0')) {              /* ... or NULL char found..        
 476              	 .loc 1 646 0 discriminator 1
 477 003c FB69     	 ldr r3,[r7,#28]
 478 003e 1B78     	 ldrb r3,[r3]
 645:../Dave/Generated/UCPROBE/lib_str.c ****     while (( pstr_cat_dest != (CPU_CHAR *)  0 ) &&              /* Adv to end of cur dest str until
 479              	 .loc 1 645 0 discriminator 1
 480 0040 002B     	 cmp r3,#0
 481 0042 F5D1     	 bne .L29
 482              	.L28:
 648:../Dave/Generated/UCPROBE/lib_str.c ****     }
 649:../Dave/Generated/UCPROBE/lib_str.c ****     if (pstr_cat_dest == (CPU_CHAR *)0) {                       /* Rtn NULL if NULL ptr found (see 
 483              	 .loc 1 649 0
 484 0044 FB69     	 ldr r3,[r7,#28]
 485 0046 002B     	 cmp r3,#0
 486 0048 01D1     	 bne .L30
 650:../Dave/Generated/UCPROBE/lib_str.c ****         return ((CPU_CHAR *)0);
 487              	 .loc 1 650 0
 488 004a 0023     	 movs r3,#0
 489 004c 2BE0     	 b .L24
 490              	.L30:
 651:../Dave/Generated/UCPROBE/lib_str.c ****     }
 652:../Dave/Generated/UCPROBE/lib_str.c **** 
 653:../Dave/Generated/UCPROBE/lib_str.c ****     pstr_cat_src = pstr_cat;
 491              	 .loc 1 653 0
 492 004e BB68     	 ldr r3,[r7,#8]
 493 0050 BB61     	 str r3,[r7,#24]
 654:../Dave/Generated/UCPROBE/lib_str.c ****     len_cat      = 0u;
 494              	 .loc 1 654 0
 495 0052 0023     	 movs r3,#0
 496 0054 7B61     	 str r3,[r7,#20]
 655:../Dave/Generated/UCPROBE/lib_str.c **** 
 656:../Dave/Generated/UCPROBE/lib_str.c ****     while (( pstr_cat_dest != (      CPU_CHAR *)  0 ) &&        /* Cat str until NULL ptr(s)  [see 
 497              	 .loc 1 656 0
 498 0056 0CE0     	 b .L31
 499              	.L33:
 657:../Dave/Generated/UCPROBE/lib_str.c ****            ( pstr_cat_src  != (const CPU_CHAR *)  0 ) &&
 658:../Dave/Generated/UCPROBE/lib_str.c ****            (*pstr_cat_src  != (      CPU_CHAR  )'\0') &&        /* ... or NULL char found     (see 
 659:../Dave/Generated/UCPROBE/lib_str.c ****            ( len_cat       <  (      CPU_SIZE_T)len_max)) {     /* ... or max nbr chars cat'd (see 
 660:../Dave/Generated/UCPROBE/lib_str.c ****        *pstr_cat_dest = *pstr_cat_src;
 500              	 .loc 1 660 0
 501 0058 BB69     	 ldr r3,[r7,#24]
 502 005a 1A78     	 ldrb r2,[r3]
 503 005c FB69     	 ldr r3,[r7,#28]
 504 005e 1A70     	 strb r2,[r3]
 661:../Dave/Generated/UCPROBE/lib_str.c ****         pstr_cat_dest++;
 505              	 .loc 1 661 0
 506 0060 FB69     	 ldr r3,[r7,#28]
 507 0062 0133     	 adds r3,r3,#1
 508 0064 FB61     	 str r3,[r7,#28]
 662:../Dave/Generated/UCPROBE/lib_str.c ****         pstr_cat_src++;
 509              	 .loc 1 662 0
 510 0066 BB69     	 ldr r3,[r7,#24]
 511 0068 0133     	 adds r3,r3,#1
 512 006a BB61     	 str r3,[r7,#24]
 663:../Dave/Generated/UCPROBE/lib_str.c ****         len_cat++;
 513              	 .loc 1 663 0
 514 006c 7B69     	 ldr r3,[r7,#20]
 515 006e 0133     	 adds r3,r3,#1
 516 0070 7B61     	 str r3,[r7,#20]
 517              	.L31:
 656:../Dave/Generated/UCPROBE/lib_str.c ****            ( pstr_cat_src  != (const CPU_CHAR *)  0 ) &&
 518              	 .loc 1 656 0
 519 0072 FB69     	 ldr r3,[r7,#28]
 520 0074 002B     	 cmp r3,#0
 521 0076 0AD0     	 beq .L32
 656:../Dave/Generated/UCPROBE/lib_str.c ****            ( pstr_cat_src  != (const CPU_CHAR *)  0 ) &&
 522              	 .loc 1 656 0 is_stmt 0 discriminator 1
 523 0078 BB69     	 ldr r3,[r7,#24]
 524 007a 002B     	 cmp r3,#0
 525 007c 07D0     	 beq .L32
 658:../Dave/Generated/UCPROBE/lib_str.c ****            ( len_cat       <  (      CPU_SIZE_T)len_max)) {     /* ... or max nbr chars cat'd (see 
 526              	 .loc 1 658 0 is_stmt 1
 527 007e BB69     	 ldr r3,[r7,#24]
 528 0080 1B78     	 ldrb r3,[r3]
 657:../Dave/Generated/UCPROBE/lib_str.c ****            (*pstr_cat_src  != (      CPU_CHAR  )'\0') &&        /* ... or NULL char found     (see 
 529              	 .loc 1 657 0
 530 0082 002B     	 cmp r3,#0
 531 0084 03D0     	 beq .L32
 658:../Dave/Generated/UCPROBE/lib_str.c ****            ( len_cat       <  (      CPU_SIZE_T)len_max)) {     /* ... or max nbr chars cat'd (see 
 532              	 .loc 1 658 0
 533 0086 7A69     	 ldr r2,[r7,#20]
 534 0088 7B68     	 ldr r3,[r7,#4]
 535 008a 9A42     	 cmp r2,r3
 536 008c E4D3     	 bcc .L33
 537              	.L32:
 664:../Dave/Generated/UCPROBE/lib_str.c ****     }
 665:../Dave/Generated/UCPROBE/lib_str.c ****                                                                 /* Rtn NULL if NULL ptr(s) found (s
 666:../Dave/Generated/UCPROBE/lib_str.c ****     if ((pstr_cat_dest == (      CPU_CHAR *)0) ||
 538              	 .loc 1 666 0
 539 008e FB69     	 ldr r3,[r7,#28]
 540 0090 002B     	 cmp r3,#0
 541 0092 02D0     	 beq .L34
 542              	 .loc 1 666 0 is_stmt 0 discriminator 1
 543 0094 BB69     	 ldr r3,[r7,#24]
 544 0096 002B     	 cmp r3,#0
 545 0098 01D1     	 bne .L35
 546              	.L34:
 667:../Dave/Generated/UCPROBE/lib_str.c ****         (pstr_cat_src  == (const CPU_CHAR *)0)) {
 668:../Dave/Generated/UCPROBE/lib_str.c ****          return ((CPU_CHAR *)0);
 547              	 .loc 1 668 0 is_stmt 1
 548 009a 0023     	 movs r3,#0
 549 009c 03E0     	 b .L24
 550              	.L35:
 669:../Dave/Generated/UCPROBE/lib_str.c ****     }
 670:../Dave/Generated/UCPROBE/lib_str.c **** 
 671:../Dave/Generated/UCPROBE/lib_str.c ****    *pstr_cat_dest = (CPU_CHAR)'\0';                             /* Append NULL char    (see Note #2
 551              	 .loc 1 671 0
 552 009e FB69     	 ldr r3,[r7,#28]
 553 00a0 0022     	 movs r2,#0
 554 00a2 1A70     	 strb r2,[r3]
 672:../Dave/Generated/UCPROBE/lib_str.c **** 
 673:../Dave/Generated/UCPROBE/lib_str.c **** 
 674:../Dave/Generated/UCPROBE/lib_str.c ****     return (pstr_dest);                                         /* Rtn ptr to dest str (see Note #2
 555              	 .loc 1 674 0
 556 00a4 FB68     	 ldr r3,[r7,#12]
 557              	.L24:
 675:../Dave/Generated/UCPROBE/lib_str.c **** }
 558              	 .loc 1 675 0
 559 00a6 1846     	 mov r0,r3
 560 00a8 2437     	 adds r7,r7,#36
 561              	.LCFI30:
 562              	 .cfi_def_cfa_offset 4
 563 00aa BD46     	 mov sp,r7
 564              	.LCFI31:
 565              	 .cfi_def_cfa_register 13
 566              	 
 567 00ac 5DF8047B 	 ldr r7,[sp],#4
 568              	.LCFI32:
 569              	 .cfi_restore 7
 570              	 .cfi_def_cfa_offset 0
 571 00b0 7047     	 bx lr
 572              	 .cfi_endproc
 573              	.LFE5:
 575 00b2 00BF     	 .section .text.Str_Cmp,"ax",%progbits
 576              	 .align 2
 577              	 .global Str_Cmp
 578              	 .thumb
 579              	 .thumb_func
 581              	Str_Cmp:
 582              	.LFB6:
 676:../Dave/Generated/UCPROBE/lib_str.c **** 
 677:../Dave/Generated/UCPROBE/lib_str.c **** 
 678:../Dave/Generated/UCPROBE/lib_str.c **** /*
 679:../Dave/Generated/UCPROBE/lib_str.c **** ***************************************************************************************************
 680:../Dave/Generated/UCPROBE/lib_str.c **** *                                              Str_Cmp()
 681:../Dave/Generated/UCPROBE/lib_str.c **** *
 682:../Dave/Generated/UCPROBE/lib_str.c **** * Description : Determine if two strings are identical.
 683:../Dave/Generated/UCPROBE/lib_str.c **** *
 684:../Dave/Generated/UCPROBE/lib_str.c **** * Argument(s) : p1_str      Pointer to first  string (see Note #1).
 685:../Dave/Generated/UCPROBE/lib_str.c **** *
 686:../Dave/Generated/UCPROBE/lib_str.c **** *               p2_str      Pointer to second string (see Note #1).
 687:../Dave/Generated/UCPROBE/lib_str.c **** *
 688:../Dave/Generated/UCPROBE/lib_str.c **** * Return(s)   : 0,              if strings are identical             (see Notes #3a1A, #3a2A, & #3b
 689:../Dave/Generated/UCPROBE/lib_str.c **** *
 690:../Dave/Generated/UCPROBE/lib_str.c **** *               Negative value, if 'p1_str' is less    than 'p2_str' (see Notes #3a1B1, #3a2B1, & #
 691:../Dave/Generated/UCPROBE/lib_str.c **** *
 692:../Dave/Generated/UCPROBE/lib_str.c **** *               Positive value, if 'p1_str' is greater than 'p2_str' (see Notes #3a1B2, #3a2B2, & #
 693:../Dave/Generated/UCPROBE/lib_str.c **** *
 694:../Dave/Generated/UCPROBE/lib_str.c **** *               See also Note #2b.
 695:../Dave/Generated/UCPROBE/lib_str.c **** *
 696:../Dave/Generated/UCPROBE/lib_str.c **** * Caller(s)   : Application.
 697:../Dave/Generated/UCPROBE/lib_str.c **** *
 698:../Dave/Generated/UCPROBE/lib_str.c **** * Note(s)     : (1) String buffers NOT modified.
 699:../Dave/Generated/UCPROBE/lib_str.c **** *
 700:../Dave/Generated/UCPROBE/lib_str.c **** *               (2) (a) IEEE Std 1003.1, 2004 Edition, Section 'strcmp() : DESCRIPTION' states that
 701:../Dave/Generated/UCPROBE/lib_str.c **** *                       strcmp() function shall compare the string pointed to by 's1' ('p1_str') to
 702:../Dave/Generated/UCPROBE/lib_str.c **** *                       string pointed to by 's2' ('p2_str)".
 703:../Dave/Generated/UCPROBE/lib_str.c **** *
 704:../Dave/Generated/UCPROBE/lib_str.c **** *                   (b) (1) IEEE Std 1003.1, 2004 Edition, Section 'strcmp() : RETURN VALUE' states
 705:../Dave/Generated/UCPROBE/lib_str.c **** *                          "upon successful completion, strcmp() shall return an integer greater th
 706:../Dave/Generated/UCPROBE/lib_str.c **** *                           equal to, or less than 0".
 707:../Dave/Generated/UCPROBE/lib_str.c **** *
 708:../Dave/Generated/UCPROBE/lib_str.c **** *                       (2) IEEE Std 1003.1, 2004 Edition, Section 'strcmp() : DESCRIPTION' adds th
 709:../Dave/Generated/UCPROBE/lib_str.c **** *                           sign of a non-zero return value shall be determined by the sign of the 
 710:../Dave/Generated/UCPROBE/lib_str.c **** *                           between the values of the first pair of bytes ... that differ in the st
 711:../Dave/Generated/UCPROBE/lib_str.c **** *                           being compared".
 712:../Dave/Generated/UCPROBE/lib_str.c **** *
 713:../Dave/Generated/UCPROBE/lib_str.c **** *               (3) String comparison terminates when :
 714:../Dave/Generated/UCPROBE/lib_str.c **** *
 715:../Dave/Generated/UCPROBE/lib_str.c **** *                   (a) (1) (A) BOTH string pointer(s) are passed NULL pointers.
 716:../Dave/Generated/UCPROBE/lib_str.c **** *                               (1) NULL strings identical; 0 returned.
 717:../Dave/Generated/UCPROBE/lib_str.c **** *
 718:../Dave/Generated/UCPROBE/lib_str.c **** *                           (B) (1) 'p1_str' passed a NULL pointer.
 719:../Dave/Generated/UCPROBE/lib_str.c **** *                                   (a) Return negative value of character pointed to by 'p2_str'.
 720:../Dave/Generated/UCPROBE/lib_str.c **** *
 721:../Dave/Generated/UCPROBE/lib_str.c **** *                               (2) 'p2_str' passed a NULL pointer.
 722:../Dave/Generated/UCPROBE/lib_str.c **** *                                   (a) Return positive value of character pointed to by 'p1_str'.
 723:../Dave/Generated/UCPROBE/lib_str.c **** *
 724:../Dave/Generated/UCPROBE/lib_str.c **** *                       (2) (A) BOTH strings point to NULL.
 725:../Dave/Generated/UCPROBE/lib_str.c **** *                               (1) Strings overlap with NULL address.
 726:../Dave/Generated/UCPROBE/lib_str.c **** *                               (2) Strings identical up to but NOT beyond or including the NULL ad
 727:../Dave/Generated/UCPROBE/lib_str.c **** *                                   0 returned.
 728:../Dave/Generated/UCPROBE/lib_str.c **** *
 729:../Dave/Generated/UCPROBE/lib_str.c **** *                           (B) (1) 'p1_str_cmp_next' points to NULL.
 730:../Dave/Generated/UCPROBE/lib_str.c **** *                                   (a) 'p1_str' overlaps with NULL address.
 731:../Dave/Generated/UCPROBE/lib_str.c **** *                                   (b) Strings compared up to but NOT beyond or including the NULL
 732:../Dave/Generated/UCPROBE/lib_str.c **** *                                   (c) Return negative value of character pointed to by 'p2_str_cm
 733:../Dave/Generated/UCPROBE/lib_str.c **** *
 734:../Dave/Generated/UCPROBE/lib_str.c **** *                               (2) 'p2_str_cmp_next' points to NULL.
 735:../Dave/Generated/UCPROBE/lib_str.c **** *                                   (a) 'p2_str' overlaps with NULL address.
 736:../Dave/Generated/UCPROBE/lib_str.c **** *                                   (b) Strings compared up to but NOT beyond or including the NULL
 737:../Dave/Generated/UCPROBE/lib_str.c **** *                                   (c) Return positive value of character pointed to by 'p1_str_cm
 738:../Dave/Generated/UCPROBE/lib_str.c **** *
 739:../Dave/Generated/UCPROBE/lib_str.c **** *                   (b) Terminating NULL character found in both strings.
 740:../Dave/Generated/UCPROBE/lib_str.c **** *                       (1) Strings identical; 0 returned.
 741:../Dave/Generated/UCPROBE/lib_str.c **** *                       (2) Only one NULL character test required in conditional since previous con
 742:../Dave/Generated/UCPROBE/lib_str.c **** *                           tested character equality.
 743:../Dave/Generated/UCPROBE/lib_str.c **** *
 744:../Dave/Generated/UCPROBE/lib_str.c **** *                   (c) Non-matching characters found.
 745:../Dave/Generated/UCPROBE/lib_str.c **** *                       (1) Return signed-integer difference of the character pointed to by 'p2_str
 746:../Dave/Generated/UCPROBE/lib_str.c **** *                           from the character pointed to by 'p1_str'.
 747:../Dave/Generated/UCPROBE/lib_str.c **** *
 748:../Dave/Generated/UCPROBE/lib_str.c **** *               (4) Since 16-bit signed arithmetic is performed to calculate a non-identical compar
 749:../Dave/Generated/UCPROBE/lib_str.c **** *                   return value, 'CPU_CHAR' native data type size MUST be 8-bit.
 750:../Dave/Generated/UCPROBE/lib_str.c **** ***************************************************************************************************
 751:../Dave/Generated/UCPROBE/lib_str.c **** */
 752:../Dave/Generated/UCPROBE/lib_str.c **** 
 753:../Dave/Generated/UCPROBE/lib_str.c **** CPU_INT16S  Str_Cmp (const  CPU_CHAR  *p1_str,
 754:../Dave/Generated/UCPROBE/lib_str.c ****                      const  CPU_CHAR  *p2_str)
 755:../Dave/Generated/UCPROBE/lib_str.c **** {
 583              	 .loc 1 755 0
 584              	 .cfi_startproc
 585              	 
 586              	 
 587 0000 80B5     	 push {r7,lr}
 588              	.LCFI33:
 589              	 .cfi_def_cfa_offset 8
 590              	 .cfi_offset 7,-8
 591              	 .cfi_offset 14,-4
 592 0002 84B0     	 sub sp,sp,#16
 593              	.LCFI34:
 594              	 .cfi_def_cfa_offset 24
 595 0004 00AF     	 add r7,sp,#0
 596              	.LCFI35:
 597              	 .cfi_def_cfa_register 7
 598 0006 7860     	 str r0,[r7,#4]
 599 0008 3960     	 str r1,[r7]
 756:../Dave/Generated/UCPROBE/lib_str.c ****     CPU_INT16S  cmp_val;
 757:../Dave/Generated/UCPROBE/lib_str.c **** 
 758:../Dave/Generated/UCPROBE/lib_str.c **** 
 759:../Dave/Generated/UCPROBE/lib_str.c ****     cmp_val = Str_Cmp_N(p1_str,
 600              	 .loc 1 759 0
 601 000a 7868     	 ldr r0,[r7,#4]
 602 000c 3968     	 ldr r1,[r7]
 603 000e 4FF0FF32 	 mov r2,#-1
 604 0012 FFF7FEFF 	 bl Str_Cmp_N
 605 0016 0346     	 mov r3,r0
 606 0018 FB81     	 strh r3,[r7,#14]
 760:../Dave/Generated/UCPROBE/lib_str.c ****                         p2_str,
 761:../Dave/Generated/UCPROBE/lib_str.c ****                         DEF_INT_CPU_U_MAX_VAL);
 762:../Dave/Generated/UCPROBE/lib_str.c **** 
 763:../Dave/Generated/UCPROBE/lib_str.c ****     return (cmp_val);
 607              	 .loc 1 763 0
 608 001a FB89     	 ldrh r3,[r7,#14]
 609 001c 1BB2     	 sxth r3,r3
 764:../Dave/Generated/UCPROBE/lib_str.c **** }
 610              	 .loc 1 764 0
 611 001e 1846     	 mov r0,r3
 612 0020 1037     	 adds r7,r7,#16
 613              	.LCFI36:
 614              	 .cfi_def_cfa_offset 8
 615 0022 BD46     	 mov sp,r7
 616              	.LCFI37:
 617              	 .cfi_def_cfa_register 13
 618              	 
 619 0024 80BD     	 pop {r7,pc}
 620              	 .cfi_endproc
 621              	.LFE6:
 623 0026 00BF     	 .section .text.Str_Cmp_N,"ax",%progbits
 624              	 .align 2
 625              	 .global Str_Cmp_N
 626              	 .thumb
 627              	 .thumb_func
 629              	Str_Cmp_N:
 630              	.LFB7:
 765:../Dave/Generated/UCPROBE/lib_str.c **** 
 766:../Dave/Generated/UCPROBE/lib_str.c **** 
 767:../Dave/Generated/UCPROBE/lib_str.c **** /*
 768:../Dave/Generated/UCPROBE/lib_str.c **** ***************************************************************************************************
 769:../Dave/Generated/UCPROBE/lib_str.c **** *                                             Str_Cmp_N()
 770:../Dave/Generated/UCPROBE/lib_str.c **** *
 771:../Dave/Generated/UCPROBE/lib_str.c **** * Description : Determine if two strings are identical for up to a maximum number of characters.
 772:../Dave/Generated/UCPROBE/lib_str.c **** *
 773:../Dave/Generated/UCPROBE/lib_str.c **** * Argument(s) : p1_str      Pointer to first  string (see Note #1).
 774:../Dave/Generated/UCPROBE/lib_str.c **** *
 775:../Dave/Generated/UCPROBE/lib_str.c **** *               p2_str      Pointer to second string (see Note #1).
 776:../Dave/Generated/UCPROBE/lib_str.c **** *
 777:../Dave/Generated/UCPROBE/lib_str.c **** *               len_max     Maximum number of characters to compare  (see Note  #3d).
 778:../Dave/Generated/UCPROBE/lib_str.c **** *
 779:../Dave/Generated/UCPROBE/lib_str.c **** * Return(s)   : 0,              if strings are identical             (see Notes #3a1A, #3a2A, #3b, 
 780:../Dave/Generated/UCPROBE/lib_str.c **** *
 781:../Dave/Generated/UCPROBE/lib_str.c **** *               Negative value, if 'p1_str' is less    than 'p2_str' (see Notes #3a1B1, #3a2B1, & #
 782:../Dave/Generated/UCPROBE/lib_str.c **** *
 783:../Dave/Generated/UCPROBE/lib_str.c **** *               Positive value, if 'p1_str' is greater than 'p2_str' (see Notes #3a1B2, #3a2B2, & #
 784:../Dave/Generated/UCPROBE/lib_str.c **** *
 785:../Dave/Generated/UCPROBE/lib_str.c **** *               See also Note #2b.
 786:../Dave/Generated/UCPROBE/lib_str.c **** *
 787:../Dave/Generated/UCPROBE/lib_str.c **** * Caller(s)   : Application.
 788:../Dave/Generated/UCPROBE/lib_str.c **** *
 789:../Dave/Generated/UCPROBE/lib_str.c **** * Note(s)     : (1) String buffers NOT modified.
 790:../Dave/Generated/UCPROBE/lib_str.c **** *
 791:../Dave/Generated/UCPROBE/lib_str.c **** *               (2) (a) IEEE Std 1003.1, 2004 Edition, Section 'strncmp() : DESCRIPTION' states tha
 792:../Dave/Generated/UCPROBE/lib_str.c **** *
 793:../Dave/Generated/UCPROBE/lib_str.c **** *                       (1) "The strncmp() function shall compare ... the array pointed to by 's1' 
 794:../Dave/Generated/UCPROBE/lib_str.c **** *                            to the array pointed to by 's2' ('p2_str)" ...
 795:../Dave/Generated/UCPROBE/lib_str.c **** *                       (2)  but "not more than 'n' ('len_max') bytes" of either array.
 796:../Dave/Generated/UCPROBE/lib_str.c **** *
 797:../Dave/Generated/UCPROBE/lib_str.c **** *                   (b) (1) IEEE Std 1003.1, 2004 Edition, Section 'strncmp() : RETURN VALUE' state
 798:../Dave/Generated/UCPROBE/lib_str.c **** *                          "upon successful completion, strncmp() shall return an integer greater t
 799:../Dave/Generated/UCPROBE/lib_str.c **** *                           equal to, or less than 0".
 800:../Dave/Generated/UCPROBE/lib_str.c **** *
 801:../Dave/Generated/UCPROBE/lib_str.c **** *                       (2) IEEE Std 1003.1, 2004 Edition, Section 'strncmp() : DESCRIPTION' adds t
 802:../Dave/Generated/UCPROBE/lib_str.c **** *                          "the sign of a non-zero return value is determined by the sign of the di
 803:../Dave/Generated/UCPROBE/lib_str.c **** *                           between the values of the first pair of bytes ... that differ in the st
 804:../Dave/Generated/UCPROBE/lib_str.c **** *                           being compared".
 805:../Dave/Generated/UCPROBE/lib_str.c **** *
 806:../Dave/Generated/UCPROBE/lib_str.c **** *               (3) String comparison terminates when :
 807:../Dave/Generated/UCPROBE/lib_str.c **** *
 808:../Dave/Generated/UCPROBE/lib_str.c **** *                   (a) (1) (A) BOTH string pointer(s) are passed NULL pointers.
 809:../Dave/Generated/UCPROBE/lib_str.c **** *                               (1) NULL strings identical; 0 returned.
 810:../Dave/Generated/UCPROBE/lib_str.c **** *
 811:../Dave/Generated/UCPROBE/lib_str.c **** *                           (B) (1) 'p1_str' passed a NULL pointer.
 812:../Dave/Generated/UCPROBE/lib_str.c **** *                                   (a) Return negative value of character pointed to by 'p2_str'.
 813:../Dave/Generated/UCPROBE/lib_str.c **** *
 814:../Dave/Generated/UCPROBE/lib_str.c **** *                               (2) 'p2_str' passed a NULL pointer.
 815:../Dave/Generated/UCPROBE/lib_str.c **** *                                   (a) Return positive value of character pointed to by 'p1_str'.
 816:../Dave/Generated/UCPROBE/lib_str.c **** *
 817:../Dave/Generated/UCPROBE/lib_str.c **** *                       (2) (A) BOTH strings point to NULL.
 818:../Dave/Generated/UCPROBE/lib_str.c **** *                               (1) Strings overlap with NULL address.
 819:../Dave/Generated/UCPROBE/lib_str.c **** *                               (2) Strings identical up to but NOT beyond or including the NULL ad
 820:../Dave/Generated/UCPROBE/lib_str.c **** *                                   0 returned.
 821:../Dave/Generated/UCPROBE/lib_str.c **** *
 822:../Dave/Generated/UCPROBE/lib_str.c **** *                           (B) (1) 'p1_str_cmp_next' points to NULL.
 823:../Dave/Generated/UCPROBE/lib_str.c **** *                                   (a) 'p1_str' overlaps with NULL address.
 824:../Dave/Generated/UCPROBE/lib_str.c **** *                                   (b) Strings compared up to but NOT beyond or including the NULL
 825:../Dave/Generated/UCPROBE/lib_str.c **** *                                   (c) Return negative value of character pointed to by 'p2_str_cm
 826:../Dave/Generated/UCPROBE/lib_str.c **** *
 827:../Dave/Generated/UCPROBE/lib_str.c **** *                               (2) 'p2_str_cmp_next' points to NULL.
 828:../Dave/Generated/UCPROBE/lib_str.c **** *                                   (a) 'p2_str' overlaps with NULL address.
 829:../Dave/Generated/UCPROBE/lib_str.c **** *                                   (b) Strings compared up to but NOT beyond or including the NULL
 830:../Dave/Generated/UCPROBE/lib_str.c **** *                                   (c) Return positive value of character pointed to by 'p1_str_cm
 831:../Dave/Generated/UCPROBE/lib_str.c **** *
 832:../Dave/Generated/UCPROBE/lib_str.c **** *                   (b) Terminating NULL character found in both strings.
 833:../Dave/Generated/UCPROBE/lib_str.c **** *                       (1) Strings identical; 0 returned.
 834:../Dave/Generated/UCPROBE/lib_str.c **** *                       (2) Only one NULL character test required in conditional since previous con
 835:../Dave/Generated/UCPROBE/lib_str.c **** *                           tested character equality.
 836:../Dave/Generated/UCPROBE/lib_str.c **** *
 837:../Dave/Generated/UCPROBE/lib_str.c **** *                   (c) Non-matching characters found.
 838:../Dave/Generated/UCPROBE/lib_str.c **** *                       (1) Return signed-integer difference of the character pointed to by 'p2_str
 839:../Dave/Generated/UCPROBE/lib_str.c **** *                           from the character pointed to by 'p1_str'.
 840:../Dave/Generated/UCPROBE/lib_str.c **** *
 841:../Dave/Generated/UCPROBE/lib_str.c **** *                   (d) (1) 'len_max' passed a zero length.
 842:../Dave/Generated/UCPROBE/lib_str.c **** *                           (A) Zero-length strings identical; 0 returned.
 843:../Dave/Generated/UCPROBE/lib_str.c **** *
 844:../Dave/Generated/UCPROBE/lib_str.c **** *                       (2) First 'len_max' number of characters identical.
 845:../Dave/Generated/UCPROBE/lib_str.c **** *                           (A) Strings identical; 0 returned.
 846:../Dave/Generated/UCPROBE/lib_str.c **** *
 847:../Dave/Generated/UCPROBE/lib_str.c **** *                       See also Note #2a2.
 848:../Dave/Generated/UCPROBE/lib_str.c **** *
 849:../Dave/Generated/UCPROBE/lib_str.c **** *               (4) Since 16-bit signed arithmetic is performed to calculate a non-identical compar
 850:../Dave/Generated/UCPROBE/lib_str.c **** *                   return value, 'CPU_CHAR' native data type size MUST be 8-bit.
 851:../Dave/Generated/UCPROBE/lib_str.c **** ***************************************************************************************************
 852:../Dave/Generated/UCPROBE/lib_str.c **** */
 853:../Dave/Generated/UCPROBE/lib_str.c **** 
 854:../Dave/Generated/UCPROBE/lib_str.c **** CPU_INT16S  Str_Cmp_N (const  CPU_CHAR    *p1_str,
 855:../Dave/Generated/UCPROBE/lib_str.c ****                        const  CPU_CHAR    *p2_str,
 856:../Dave/Generated/UCPROBE/lib_str.c ****                               CPU_SIZE_T   len_max)
 857:../Dave/Generated/UCPROBE/lib_str.c **** {
 631              	 .loc 1 857 0
 632              	 .cfi_startproc
 633              	 
 634              	 
 635              	 
 636 0000 80B4     	 push {r7}
 637              	.LCFI38:
 638              	 .cfi_def_cfa_offset 4
 639              	 .cfi_offset 7,-4
 640 0002 8BB0     	 sub sp,sp,#44
 641              	.LCFI39:
 642              	 .cfi_def_cfa_offset 48
 643 0004 00AF     	 add r7,sp,#0
 644              	.LCFI40:
 645              	 .cfi_def_cfa_register 7
 646 0006 F860     	 str r0,[r7,#12]
 647 0008 B960     	 str r1,[r7,#8]
 648 000a 7A60     	 str r2,[r7,#4]
 858:../Dave/Generated/UCPROBE/lib_str.c ****     const  CPU_CHAR    *p1_str_cmp;
 859:../Dave/Generated/UCPROBE/lib_str.c ****     const  CPU_CHAR    *p2_str_cmp;
 860:../Dave/Generated/UCPROBE/lib_str.c ****     const  CPU_CHAR    *p1_str_cmp_next;
 861:../Dave/Generated/UCPROBE/lib_str.c ****     const  CPU_CHAR    *p2_str_cmp_next;
 862:../Dave/Generated/UCPROBE/lib_str.c ****            CPU_INT16S   cmp_val;
 863:../Dave/Generated/UCPROBE/lib_str.c ****            CPU_SIZE_T   cmp_len;
 864:../Dave/Generated/UCPROBE/lib_str.c **** 
 865:../Dave/Generated/UCPROBE/lib_str.c **** 
 866:../Dave/Generated/UCPROBE/lib_str.c ****     if (len_max < 1) {                                          /* If cmp len = 0,        rtn 0    
 649              	 .loc 1 866 0
 650 000c 7B68     	 ldr r3,[r7,#4]
 651 000e 002B     	 cmp r3,#0
 652 0010 01D1     	 bne .L39
 867:../Dave/Generated/UCPROBE/lib_str.c ****         return (0);
 653              	 .loc 1 867 0
 654 0012 0023     	 movs r3,#0
 655 0014 7CE0     	 b .L40
 656              	.L39:
 868:../Dave/Generated/UCPROBE/lib_str.c ****     }
 869:../Dave/Generated/UCPROBE/lib_str.c **** 
 870:../Dave/Generated/UCPROBE/lib_str.c ****     if (p1_str == (const CPU_CHAR *)0) {
 657              	 .loc 1 870 0
 658 0016 FB68     	 ldr r3,[r7,#12]
 659 0018 002B     	 cmp r3,#0
 660 001a 0CD1     	 bne .L41
 871:../Dave/Generated/UCPROBE/lib_str.c ****         if (p2_str == (const CPU_CHAR *)0) {
 661              	 .loc 1 871 0
 662 001c BB68     	 ldr r3,[r7,#8]
 663 001e 002B     	 cmp r3,#0
 664 0020 01D1     	 bne .L42
 872:../Dave/Generated/UCPROBE/lib_str.c ****             return (0);                                         /* If BOTH str ptrs NULL, rtn 0    
 665              	 .loc 1 872 0
 666 0022 0023     	 movs r3,#0
 667 0024 74E0     	 b .L40
 668              	.L42:
 873:../Dave/Generated/UCPROBE/lib_str.c ****         }
 874:../Dave/Generated/UCPROBE/lib_str.c ****         cmp_val = (CPU_INT16S)((CPU_INT16S)0 - (CPU_INT16S)(*p2_str));
 669              	 .loc 1 874 0
 670 0026 BB68     	 ldr r3,[r7,#8]
 671 0028 1B78     	 ldrb r3,[r3]
 672 002a 9BB2     	 uxth r3,r3
 673 002c 5B42     	 negs r3,r3
 674 002e 9BB2     	 uxth r3,r3
 675 0030 FB82     	 strh r3,[r7,#22]
 875:../Dave/Generated/UCPROBE/lib_str.c ****         return (cmp_val);                                       /* If p1_str NULL, rtn neg p2_str v
 676              	 .loc 1 875 0
 677 0032 FB8A     	 ldrh r3,[r7,#22]
 678 0034 6CE0     	 b .L40
 679              	.L41:
 876:../Dave/Generated/UCPROBE/lib_str.c ****     }
 877:../Dave/Generated/UCPROBE/lib_str.c ****     if (p2_str == (const CPU_CHAR *)0) {
 680              	 .loc 1 877 0
 681 0036 BB68     	 ldr r3,[r7,#8]
 682 0038 002B     	 cmp r3,#0
 683 003a 04D1     	 bne .L43
 878:../Dave/Generated/UCPROBE/lib_str.c ****         cmp_val = (CPU_INT16S)(*p1_str);
 684              	 .loc 1 878 0
 685 003c FB68     	 ldr r3,[r7,#12]
 686 003e 1B78     	 ldrb r3,[r3]
 687 0040 FB82     	 strh r3,[r7,#22]
 879:../Dave/Generated/UCPROBE/lib_str.c ****         return (cmp_val);                                       /* If p2_str NULL, rtn pos p1_str v
 688              	 .loc 1 879 0
 689 0042 FB8A     	 ldrh r3,[r7,#22]
 690 0044 64E0     	 b .L40
 691              	.L43:
 880:../Dave/Generated/UCPROBE/lib_str.c ****     }
 881:../Dave/Generated/UCPROBE/lib_str.c **** 
 882:../Dave/Generated/UCPROBE/lib_str.c **** 
 883:../Dave/Generated/UCPROBE/lib_str.c ****     p1_str_cmp      = p1_str;
 692              	 .loc 1 883 0
 693 0046 FB68     	 ldr r3,[r7,#12]
 694 0048 7B62     	 str r3,[r7,#36]
 884:../Dave/Generated/UCPROBE/lib_str.c ****     p2_str_cmp      = p2_str;
 695              	 .loc 1 884 0
 696 004a BB68     	 ldr r3,[r7,#8]
 697 004c 3B62     	 str r3,[r7,#32]
 885:../Dave/Generated/UCPROBE/lib_str.c ****     p1_str_cmp_next = p1_str_cmp;
 698              	 .loc 1 885 0
 699 004e 7B6A     	 ldr r3,[r7,#36]
 700 0050 FB61     	 str r3,[r7,#28]
 886:../Dave/Generated/UCPROBE/lib_str.c ****     p2_str_cmp_next = p2_str_cmp;
 701              	 .loc 1 886 0
 702 0052 3B6A     	 ldr r3,[r7,#32]
 703 0054 BB61     	 str r3,[r7,#24]
 887:../Dave/Generated/UCPROBE/lib_str.c ****     p1_str_cmp_next++;
 704              	 .loc 1 887 0
 705 0056 FB69     	 ldr r3,[r7,#28]
 706 0058 0133     	 adds r3,r3,#1
 707 005a FB61     	 str r3,[r7,#28]
 888:../Dave/Generated/UCPROBE/lib_str.c ****     p2_str_cmp_next++;
 708              	 .loc 1 888 0
 709 005c BB69     	 ldr r3,[r7,#24]
 710 005e 0133     	 adds r3,r3,#1
 711 0060 BB61     	 str r3,[r7,#24]
 889:../Dave/Generated/UCPROBE/lib_str.c ****     cmp_len         = 0u;
 712              	 .loc 1 889 0
 713 0062 0023     	 movs r3,#0
 714 0064 3B61     	 str r3,[r7,#16]
 890:../Dave/Generated/UCPROBE/lib_str.c **** 
 891:../Dave/Generated/UCPROBE/lib_str.c ****     while ((*p1_str_cmp      == *p2_str_cmp)            &&      /* Cmp strs until non-matching char
 715              	 .loc 1 891 0
 716 0066 0EE0     	 b .L44
 717              	.L46:
 892:../Dave/Generated/UCPROBE/lib_str.c ****            (*p1_str_cmp      != (      CPU_CHAR  )'\0') &&      /* ... or NULL chars               
 893:../Dave/Generated/UCPROBE/lib_str.c ****            ( p1_str_cmp_next != (const CPU_CHAR *)  0 ) &&      /* ... or NULL ptr(s) found        
 894:../Dave/Generated/UCPROBE/lib_str.c ****            ( p2_str_cmp_next != (const CPU_CHAR *)  0 ) &&
 895:../Dave/Generated/UCPROBE/lib_str.c ****            ( cmp_len         <  (      CPU_SIZE_T)len_max)) {   /* ... or max nbr chars cmp'd      
 896:../Dave/Generated/UCPROBE/lib_str.c ****         p1_str_cmp++;
 718              	 .loc 1 896 0
 719 0068 7B6A     	 ldr r3,[r7,#36]
 720 006a 0133     	 adds r3,r3,#1
 721 006c 7B62     	 str r3,[r7,#36]
 897:../Dave/Generated/UCPROBE/lib_str.c ****         p2_str_cmp++;
 722              	 .loc 1 897 0
 723 006e 3B6A     	 ldr r3,[r7,#32]
 724 0070 0133     	 adds r3,r3,#1
 725 0072 3B62     	 str r3,[r7,#32]
 898:../Dave/Generated/UCPROBE/lib_str.c ****         p1_str_cmp_next++;
 726              	 .loc 1 898 0
 727 0074 FB69     	 ldr r3,[r7,#28]
 728 0076 0133     	 adds r3,r3,#1
 729 0078 FB61     	 str r3,[r7,#28]
 899:../Dave/Generated/UCPROBE/lib_str.c ****         p2_str_cmp_next++;
 730              	 .loc 1 899 0
 731 007a BB69     	 ldr r3,[r7,#24]
 732 007c 0133     	 adds r3,r3,#1
 733 007e BB61     	 str r3,[r7,#24]
 900:../Dave/Generated/UCPROBE/lib_str.c ****         cmp_len++;
 734              	 .loc 1 900 0
 735 0080 3B69     	 ldr r3,[r7,#16]
 736 0082 0133     	 adds r3,r3,#1
 737 0084 3B61     	 str r3,[r7,#16]
 738              	.L44:
 891:../Dave/Generated/UCPROBE/lib_str.c ****            (*p1_str_cmp      != (      CPU_CHAR  )'\0') &&      /* ... or NULL chars               
 739              	 .loc 1 891 0
 740 0086 7B6A     	 ldr r3,[r7,#36]
 741 0088 1A78     	 ldrb r2,[r3]
 742 008a 3B6A     	 ldr r3,[r7,#32]
 743 008c 1B78     	 ldrb r3,[r3]
 744 008e 9A42     	 cmp r2,r3
 745 0090 0DD1     	 bne .L45
 892:../Dave/Generated/UCPROBE/lib_str.c ****            ( p1_str_cmp_next != (const CPU_CHAR *)  0 ) &&      /* ... or NULL ptr(s) found        
 746              	 .loc 1 892 0 discriminator 1
 747 0092 7B6A     	 ldr r3,[r7,#36]
 748 0094 1B78     	 ldrb r3,[r3]
 891:../Dave/Generated/UCPROBE/lib_str.c ****            (*p1_str_cmp      != (      CPU_CHAR  )'\0') &&      /* ... or NULL chars               
 749              	 .loc 1 891 0 discriminator 1
 750 0096 002B     	 cmp r3,#0
 751 0098 09D0     	 beq .L45
 892:../Dave/Generated/UCPROBE/lib_str.c ****            ( p1_str_cmp_next != (const CPU_CHAR *)  0 ) &&      /* ... or NULL ptr(s) found        
 752              	 .loc 1 892 0
 753 009a FB69     	 ldr r3,[r7,#28]
 754 009c 002B     	 cmp r3,#0
 755 009e 06D0     	 beq .L45
 893:../Dave/Generated/UCPROBE/lib_str.c ****            ( p2_str_cmp_next != (const CPU_CHAR *)  0 ) &&
 756              	 .loc 1 893 0
 757 00a0 BB69     	 ldr r3,[r7,#24]
 758 00a2 002B     	 cmp r3,#0
 759 00a4 03D0     	 beq .L45
 894:../Dave/Generated/UCPROBE/lib_str.c ****            ( cmp_len         <  (      CPU_SIZE_T)len_max)) {   /* ... or max nbr chars cmp'd      
 760              	 .loc 1 894 0
 761 00a6 3A69     	 ldr r2,[r7,#16]
 762 00a8 7B68     	 ldr r3,[r7,#4]
 763 00aa 9A42     	 cmp r2,r3
 764 00ac DCD3     	 bcc .L46
 765              	.L45:
 901:../Dave/Generated/UCPROBE/lib_str.c ****     }
 902:../Dave/Generated/UCPROBE/lib_str.c **** 
 903:../Dave/Generated/UCPROBE/lib_str.c **** 
 904:../Dave/Generated/UCPROBE/lib_str.c ****     if (cmp_len == len_max) {                                   /* If strs     identical for max le
 766              	 .loc 1 904 0
 767 00ae 3A69     	 ldr r2,[r7,#16]
 768 00b0 7B68     	 ldr r3,[r7,#4]
 769 00b2 9A42     	 cmp r2,r3
 770 00b4 01D1     	 bne .L47
 905:../Dave/Generated/UCPROBE/lib_str.c ****         return (0);                                             /* ... rtn 0                 (see N
 771              	 .loc 1 905 0
 772 00b6 0023     	 movs r3,#0
 773 00b8 2AE0     	 b .L40
 774              	.L47:
 906:../Dave/Generated/UCPROBE/lib_str.c ****     }
 907:../Dave/Generated/UCPROBE/lib_str.c **** 
 908:../Dave/Generated/UCPROBE/lib_str.c ****     if (*p1_str_cmp != *p2_str_cmp) {                           /* If strs NOT identical, ...      
 775              	 .loc 1 908 0
 776 00ba 7B6A     	 ldr r3,[r7,#36]
 777 00bc 1A78     	 ldrb r2,[r3]
 778 00be 3B6A     	 ldr r3,[r7,#32]
 779 00c0 1B78     	 ldrb r3,[r3]
 780 00c2 9A42     	 cmp r2,r3
 781 00c4 09D0     	 beq .L48
 909:../Dave/Generated/UCPROBE/lib_str.c ****                                                                 /* ... calc & rtn char diff  (see N
 910:../Dave/Generated/UCPROBE/lib_str.c ****          cmp_val = (CPU_INT16S)((CPU_INT16S)(*p1_str_cmp) - (CPU_INT16S)(*p2_str_cmp));
 782              	 .loc 1 910 0
 783 00c6 7B6A     	 ldr r3,[r7,#36]
 784 00c8 1B78     	 ldrb r3,[r3]
 785 00ca 9AB2     	 uxth r2,r3
 786 00cc 3B6A     	 ldr r3,[r7,#32]
 787 00ce 1B78     	 ldrb r3,[r3]
 788 00d0 9BB2     	 uxth r3,r3
 789 00d2 D31A     	 subs r3,r2,r3
 790 00d4 9BB2     	 uxth r3,r3
 791 00d6 FB82     	 strh r3,[r7,#22]
 792 00d8 19E0     	 b .L49
 793              	.L48:
 911:../Dave/Generated/UCPROBE/lib_str.c **** 
 912:../Dave/Generated/UCPROBE/lib_str.c ****     } else if (*p1_str_cmp  == (CPU_CHAR)'\0') {                /* If NULL char(s) found, ...      
 794              	 .loc 1 912 0
 795 00da 7B6A     	 ldr r3,[r7,#36]
 796 00dc 1B78     	 ldrb r3,[r3]
 797 00de 002B     	 cmp r3,#0
 798 00e0 02D1     	 bne .L50
 913:../Dave/Generated/UCPROBE/lib_str.c ****          cmp_val = (CPU_INT16S)0;                               /* ... strs identical; rtn 0 (see N
 799              	 .loc 1 913 0
 800 00e2 0023     	 movs r3,#0
 801 00e4 FB82     	 strh r3,[r7,#22]
 802 00e6 12E0     	 b .L49
 803              	.L50:
 914:../Dave/Generated/UCPROBE/lib_str.c **** 
 915:../Dave/Generated/UCPROBE/lib_str.c ****     } else {
 916:../Dave/Generated/UCPROBE/lib_str.c ****         if (p1_str_cmp_next == (const CPU_CHAR *)0) {
 804              	 .loc 1 916 0
 805 00e8 FB69     	 ldr r3,[r7,#28]
 806 00ea 002B     	 cmp r3,#0
 807 00ec 0CD1     	 bne .L51
 917:../Dave/Generated/UCPROBE/lib_str.c ****             if (p2_str_cmp_next == (const CPU_CHAR *)0) {       /* If BOTH next str ptrs NULL, ... 
 808              	 .loc 1 917 0
 809 00ee BB69     	 ldr r3,[r7,#24]
 810 00f0 002B     	 cmp r3,#0
 811 00f2 02D1     	 bne .L52
 918:../Dave/Generated/UCPROBE/lib_str.c ****                 cmp_val = (CPU_INT16S)0;                        /* ... rtn 0                       
 812              	 .loc 1 918 0
 813 00f4 0023     	 movs r3,#0
 814 00f6 FB82     	 strh r3,[r7,#22]
 815 00f8 09E0     	 b .L49
 816              	.L52:
 919:../Dave/Generated/UCPROBE/lib_str.c ****             } else {                                            /* If p1_str_cmp_next NULL, ...    
 920:../Dave/Generated/UCPROBE/lib_str.c ****                                                                 /* ... rtn neg p2_str_cmp_next val 
 921:../Dave/Generated/UCPROBE/lib_str.c ****                 cmp_val = (CPU_INT16S)((CPU_INT16S)0 - (CPU_INT16S)(*p2_str_cmp_next));
 817              	 .loc 1 921 0
 818 00fa BB69     	 ldr r3,[r7,#24]
 819 00fc 1B78     	 ldrb r3,[r3]
 820 00fe 9BB2     	 uxth r3,r3
 821 0100 5B42     	 negs r3,r3
 822 0102 9BB2     	 uxth r3,r3
 823 0104 FB82     	 strh r3,[r7,#22]
 824 0106 02E0     	 b .L49
 825              	.L51:
 922:../Dave/Generated/UCPROBE/lib_str.c ****             }
 923:../Dave/Generated/UCPROBE/lib_str.c ****         } else {                                                /* If p2_str_cmp_next NULL, ...    
 924:../Dave/Generated/UCPROBE/lib_str.c ****             cmp_val = (CPU_INT16S)(*p1_str_cmp_next);           /* ... rtn pos p1_str_cmp_next val 
 826              	 .loc 1 924 0
 827 0108 FB69     	 ldr r3,[r7,#28]
 828 010a 1B78     	 ldrb r3,[r3]
 829 010c FB82     	 strh r3,[r7,#22]
 830              	.L49:
 925:../Dave/Generated/UCPROBE/lib_str.c ****         }
 926:../Dave/Generated/UCPROBE/lib_str.c ****     }
 927:../Dave/Generated/UCPROBE/lib_str.c **** 
 928:../Dave/Generated/UCPROBE/lib_str.c **** 
 929:../Dave/Generated/UCPROBE/lib_str.c ****     return (cmp_val);
 831              	 .loc 1 929 0
 832 010e FB8A     	 ldrh r3,[r7,#22]
 833              	.L40:
 834 0110 1BB2     	 sxth r3,r3
 930:../Dave/Generated/UCPROBE/lib_str.c **** }
 835              	 .loc 1 930 0
 836 0112 1846     	 mov r0,r3
 837 0114 2C37     	 adds r7,r7,#44
 838              	.LCFI41:
 839              	 .cfi_def_cfa_offset 4
 840 0116 BD46     	 mov sp,r7
 841              	.LCFI42:
 842              	 .cfi_def_cfa_register 13
 843              	 
 844 0118 5DF8047B 	 ldr r7,[sp],#4
 845              	.LCFI43:
 846              	 .cfi_restore 7
 847              	 .cfi_def_cfa_offset 0
 848 011c 7047     	 bx lr
 849              	 .cfi_endproc
 850              	.LFE7:
 852 011e 00BF     	 .section .text.Str_CmpIgnoreCase,"ax",%progbits
 853              	 .align 2
 854              	 .global Str_CmpIgnoreCase
 855              	 .thumb
 856              	 .thumb_func
 858              	Str_CmpIgnoreCase:
 859              	.LFB8:
 931:../Dave/Generated/UCPROBE/lib_str.c **** 
 932:../Dave/Generated/UCPROBE/lib_str.c **** 
 933:../Dave/Generated/UCPROBE/lib_str.c **** /*
 934:../Dave/Generated/UCPROBE/lib_str.c **** ***************************************************************************************************
 935:../Dave/Generated/UCPROBE/lib_str.c **** *                                         Str_CmpIgnoreCase()
 936:../Dave/Generated/UCPROBE/lib_str.c **** *
 937:../Dave/Generated/UCPROBE/lib_str.c **** * Description : Determine if two strings are identical, ignoring case.
 938:../Dave/Generated/UCPROBE/lib_str.c **** *
 939:../Dave/Generated/UCPROBE/lib_str.c **** * Argument(s) : p1_str      Pointer to first  string (see Note #1).
 940:../Dave/Generated/UCPROBE/lib_str.c **** *
 941:../Dave/Generated/UCPROBE/lib_str.c **** *               p2_str      Pointer to second string (see Note #1).
 942:../Dave/Generated/UCPROBE/lib_str.c **** *
 943:../Dave/Generated/UCPROBE/lib_str.c **** * Return(s)   : 0,              if strings are identical             (see Notes #3a1A, #3a2A, & #3b
 944:../Dave/Generated/UCPROBE/lib_str.c **** *
 945:../Dave/Generated/UCPROBE/lib_str.c **** *               Negative value, if 'p1_str' is less    than 'p2_str' (see Notes #3a1B1, #3a2B1, & #
 946:../Dave/Generated/UCPROBE/lib_str.c **** *
 947:../Dave/Generated/UCPROBE/lib_str.c **** *               Positive value, if 'p1_str' is greater than 'p2_str' (see Notes #3a1B2, #3a2B2, & #
 948:../Dave/Generated/UCPROBE/lib_str.c **** *
 949:../Dave/Generated/UCPROBE/lib_str.c **** *               See also Note #2b.
 950:../Dave/Generated/UCPROBE/lib_str.c **** *
 951:../Dave/Generated/UCPROBE/lib_str.c **** * Caller(s)   : Application.
 952:../Dave/Generated/UCPROBE/lib_str.c **** *
 953:../Dave/Generated/UCPROBE/lib_str.c **** * Note(s)     : (1) String buffers NOT modified.
 954:../Dave/Generated/UCPROBE/lib_str.c **** *
 955:../Dave/Generated/UCPROBE/lib_str.c **** *               (2) (a) IEEE Std 1003.1, 2004 Edition, Section 'strcasecmp() : DESCRIPTION' states 
 956:../Dave/Generated/UCPROBE/lib_str.c **** *
 957:../Dave/Generated/UCPROBE/lib_str.c **** *                       (1) (A) "The strcasecmp() function shall compare ... the string pointed to 
 958:../Dave/Generated/UCPROBE/lib_str.c **** *                                ('p1_str') to the string pointed to by 's2' ('p2_str')" ...
 959:../Dave/Generated/UCPROBE/lib_str.c **** *                           (B) "ignoring differences in case".
 960:../Dave/Generated/UCPROBE/lib_str.c **** *
 961:../Dave/Generated/UCPROBE/lib_str.c **** *                       (2) "strcasecmp() ... shall behave as if the strings had been converted to 
 962:../Dave/Generated/UCPROBE/lib_str.c **** *                            and then a byte comparison performed."
 963:../Dave/Generated/UCPROBE/lib_str.c **** *
 964:../Dave/Generated/UCPROBE/lib_str.c **** *                   (b) (1) IEEE Std 1003.1, 2004 Edition, Section 'strcasecmp() : RETURN VALUE' st
 965:../Dave/Generated/UCPROBE/lib_str.c **** *                          "upon successful completion, strcasecmp() shall return an integer greate
 966:../Dave/Generated/UCPROBE/lib_str.c **** *                           equal to, or less than 0".
 967:../Dave/Generated/UCPROBE/lib_str.c **** *
 968:../Dave/Generated/UCPROBE/lib_str.c **** *                       (2) IEEE Std 1003.1, 2004 Edition, Section 'strcmp() : DESCRIPTION' adds th
 969:../Dave/Generated/UCPROBE/lib_str.c **** *                           sign of a non-zero return value shall be determined by the sign of the 
 970:../Dave/Generated/UCPROBE/lib_str.c **** *                           between the values of the first pair of bytes ... that differ in the st
 971:../Dave/Generated/UCPROBE/lib_str.c **** *                           being compared".
 972:../Dave/Generated/UCPROBE/lib_str.c **** *
 973:../Dave/Generated/UCPROBE/lib_str.c **** *               (3) String comparison terminates when :
 974:../Dave/Generated/UCPROBE/lib_str.c **** *
 975:../Dave/Generated/UCPROBE/lib_str.c **** *                   (a) (1) (A) BOTH string pointer(s) are passed NULL pointers.
 976:../Dave/Generated/UCPROBE/lib_str.c **** *                               (1) NULL strings identical; 0 returned.
 977:../Dave/Generated/UCPROBE/lib_str.c **** *
 978:../Dave/Generated/UCPROBE/lib_str.c **** *                           (B) (1) 'p1_str' passed a NULL pointer.
 979:../Dave/Generated/UCPROBE/lib_str.c **** *                                   (a) Return negative value of character pointed to by 'p2_str', 
 980:../Dave/Generated/UCPROBE/lib_str.c **** *                                       to lower case (see Note #2a2).
 981:../Dave/Generated/UCPROBE/lib_str.c **** *
 982:../Dave/Generated/UCPROBE/lib_str.c **** *                               (2) 'p2_str' passed a NULL pointer.
 983:../Dave/Generated/UCPROBE/lib_str.c **** *                                   (a) Return positive value of character pointed to by 'p1_str', 
 984:../Dave/Generated/UCPROBE/lib_str.c **** *                                       to lower case (see Note #2a2).
 985:../Dave/Generated/UCPROBE/lib_str.c **** *
 986:../Dave/Generated/UCPROBE/lib_str.c **** *                       (2) (A) BOTH strings point to NULL.
 987:../Dave/Generated/UCPROBE/lib_str.c **** *                               (1) Strings overlap with NULL address.
 988:../Dave/Generated/UCPROBE/lib_str.c **** *                               (2) Strings identical up to but NOT beyond or including the NULL ad
 989:../Dave/Generated/UCPROBE/lib_str.c **** *                                   0 returned.
 990:../Dave/Generated/UCPROBE/lib_str.c **** *
 991:../Dave/Generated/UCPROBE/lib_str.c **** *                           (B) (1) 'p1_str_cmp_next' points to NULL.
 992:../Dave/Generated/UCPROBE/lib_str.c **** *                                   (a) 'p1_str' overlaps with NULL address.
 993:../Dave/Generated/UCPROBE/lib_str.c **** *                                   (b) Strings compared up to but NOT beyond or including the NULL
 994:../Dave/Generated/UCPROBE/lib_str.c **** *                                   (c) Return negative value of character pointed to by 'p2_str_cm
 995:../Dave/Generated/UCPROBE/lib_str.c **** *                                       converted to lower case (see Note #2a2).
 996:../Dave/Generated/UCPROBE/lib_str.c **** *
 997:../Dave/Generated/UCPROBE/lib_str.c **** *                               (2) 'p2_str_cmp_next' points to NULL.
 998:../Dave/Generated/UCPROBE/lib_str.c **** *                                   (a) 'p2_str' overlaps with NULL address.
 999:../Dave/Generated/UCPROBE/lib_str.c **** *                                   (b) Strings compared up to but NOT beyond or including the NULL
1000:../Dave/Generated/UCPROBE/lib_str.c **** *                                   (c) Return positive value of character pointed to by 'p1_str_cm
1001:../Dave/Generated/UCPROBE/lib_str.c **** *                                       converted to lower case (see Note #2a2).
1002:../Dave/Generated/UCPROBE/lib_str.c **** *
1003:../Dave/Generated/UCPROBE/lib_str.c **** *                   (b) Terminating NULL character found in both strings.
1004:../Dave/Generated/UCPROBE/lib_str.c **** *                       (1) Strings identical; 0 returned.
1005:../Dave/Generated/UCPROBE/lib_str.c **** *                       (2) Only one NULL character test required in conditional since previous con
1006:../Dave/Generated/UCPROBE/lib_str.c **** *                           tested character equality.
1007:../Dave/Generated/UCPROBE/lib_str.c **** *
1008:../Dave/Generated/UCPROBE/lib_str.c **** *                   (c) Non-matching characters found.
1009:../Dave/Generated/UCPROBE/lib_str.c **** *                       (1) Return signed-integer difference of the character pointed to by 'p2_str
1010:../Dave/Generated/UCPROBE/lib_str.c **** *                           converted to lower case, from the character pointed to by 'p1_str', con
1011:../Dave/Generated/UCPROBE/lib_str.c **** *                           to lower case.
1012:../Dave/Generated/UCPROBE/lib_str.c **** *
1013:../Dave/Generated/UCPROBE/lib_str.c **** *               (4) Since 16-bit signed arithmetic is performed to calculate a non-identical compar
1014:../Dave/Generated/UCPROBE/lib_str.c **** *                   return value, 'CPU_CHAR' native data type size MUST be 8-bit.
1015:../Dave/Generated/UCPROBE/lib_str.c **** ***************************************************************************************************
1016:../Dave/Generated/UCPROBE/lib_str.c **** */
1017:../Dave/Generated/UCPROBE/lib_str.c **** 
1018:../Dave/Generated/UCPROBE/lib_str.c **** CPU_INT16S  Str_CmpIgnoreCase (const  CPU_CHAR  *p1_str,
1019:../Dave/Generated/UCPROBE/lib_str.c ****                                const  CPU_CHAR  *p2_str)
1020:../Dave/Generated/UCPROBE/lib_str.c **** {
 860              	 .loc 1 1020 0
 861              	 .cfi_startproc
 862              	 
 863              	 
 864 0000 80B5     	 push {r7,lr}
 865              	.LCFI44:
 866              	 .cfi_def_cfa_offset 8
 867              	 .cfi_offset 7,-8
 868              	 .cfi_offset 14,-4
 869 0002 84B0     	 sub sp,sp,#16
 870              	.LCFI45:
 871              	 .cfi_def_cfa_offset 24
 872 0004 00AF     	 add r7,sp,#0
 873              	.LCFI46:
 874              	 .cfi_def_cfa_register 7
 875 0006 7860     	 str r0,[r7,#4]
 876 0008 3960     	 str r1,[r7]
1021:../Dave/Generated/UCPROBE/lib_str.c ****     CPU_INT16S  cmp_val;
1022:../Dave/Generated/UCPROBE/lib_str.c **** 
1023:../Dave/Generated/UCPROBE/lib_str.c **** 
1024:../Dave/Generated/UCPROBE/lib_str.c ****     cmp_val = Str_CmpIgnoreCase_N(p1_str,
 877              	 .loc 1 1024 0
 878 000a 7868     	 ldr r0,[r7,#4]
 879 000c 3968     	 ldr r1,[r7]
 880 000e 4FF0FF32 	 mov r2,#-1
 881 0012 FFF7FEFF 	 bl Str_CmpIgnoreCase_N
 882 0016 0346     	 mov r3,r0
 883 0018 FB81     	 strh r3,[r7,#14]
1025:../Dave/Generated/UCPROBE/lib_str.c ****                                   p2_str,
1026:../Dave/Generated/UCPROBE/lib_str.c ****                                   DEF_INT_CPU_U_MAX_VAL);
1027:../Dave/Generated/UCPROBE/lib_str.c **** 
1028:../Dave/Generated/UCPROBE/lib_str.c ****     return (cmp_val);
 884              	 .loc 1 1028 0
 885 001a FB89     	 ldrh r3,[r7,#14]
 886 001c 1BB2     	 sxth r3,r3
1029:../Dave/Generated/UCPROBE/lib_str.c **** }
 887              	 .loc 1 1029 0
 888 001e 1846     	 mov r0,r3
 889 0020 1037     	 adds r7,r7,#16
 890              	.LCFI47:
 891              	 .cfi_def_cfa_offset 8
 892 0022 BD46     	 mov sp,r7
 893              	.LCFI48:
 894              	 .cfi_def_cfa_register 13
 895              	 
 896 0024 80BD     	 pop {r7,pc}
 897              	 .cfi_endproc
 898              	.LFE8:
 900 0026 00BF     	 .section .text.Str_CmpIgnoreCase_N,"ax",%progbits
 901              	 .align 2
 902              	 .global Str_CmpIgnoreCase_N
 903              	 .thumb
 904              	 .thumb_func
 906              	Str_CmpIgnoreCase_N:
 907              	.LFB9:
1030:../Dave/Generated/UCPROBE/lib_str.c **** 
1031:../Dave/Generated/UCPROBE/lib_str.c **** 
1032:../Dave/Generated/UCPROBE/lib_str.c **** /*
1033:../Dave/Generated/UCPROBE/lib_str.c **** ***************************************************************************************************
1034:../Dave/Generated/UCPROBE/lib_str.c **** *                                        Str_CmpIgnoreCase_N()
1035:../Dave/Generated/UCPROBE/lib_str.c **** *
1036:../Dave/Generated/UCPROBE/lib_str.c **** * Description : Determine if two strings are identical for up to a maximum number of characters,
1037:../Dave/Generated/UCPROBE/lib_str.c **** *                   ignoring case.
1038:../Dave/Generated/UCPROBE/lib_str.c **** *
1039:../Dave/Generated/UCPROBE/lib_str.c **** * Argument(s) : p1_str      Pointer to first  string (see Note #1).
1040:../Dave/Generated/UCPROBE/lib_str.c **** *
1041:../Dave/Generated/UCPROBE/lib_str.c **** *               p2_str      Pointer to second string (see Note #1).
1042:../Dave/Generated/UCPROBE/lib_str.c **** *
1043:../Dave/Generated/UCPROBE/lib_str.c **** *               len_max     Maximum number of characters to compare  (see Note  #3d).
1044:../Dave/Generated/UCPROBE/lib_str.c **** *
1045:../Dave/Generated/UCPROBE/lib_str.c **** * Return(s)   : 0,              if strings are identical             (see Notes #3a1A, #3a2A, #3b, 
1046:../Dave/Generated/UCPROBE/lib_str.c **** *
1047:../Dave/Generated/UCPROBE/lib_str.c **** *               Negative value, if 'p1_str' is less    than 'p2_str' (see Notes #3a1B1, #3a2B1, & #
1048:../Dave/Generated/UCPROBE/lib_str.c **** *
1049:../Dave/Generated/UCPROBE/lib_str.c **** *               Positive value, if 'p1_str' is greater than 'p2_str' (see Notes #3a1B2, #3a2B2, & #
1050:../Dave/Generated/UCPROBE/lib_str.c **** *
1051:../Dave/Generated/UCPROBE/lib_str.c **** *               See also Note #2b.
1052:../Dave/Generated/UCPROBE/lib_str.c **** *
1053:../Dave/Generated/UCPROBE/lib_str.c **** * Caller(s)   : Application.
1054:../Dave/Generated/UCPROBE/lib_str.c **** *
1055:../Dave/Generated/UCPROBE/lib_str.c **** * Note(s)     : (1) String buffers NOT modified.
1056:../Dave/Generated/UCPROBE/lib_str.c **** *
1057:../Dave/Generated/UCPROBE/lib_str.c **** *               (2) (a) IEEE Std 1003.1, 2004 Edition, Section 'strncasecmp() : DESCRIPTION' states
1058:../Dave/Generated/UCPROBE/lib_str.c **** *
1059:../Dave/Generated/UCPROBE/lib_str.c **** *                       (1) (A) "The strncasecmp() function shall compare ... the string pointed to
1060:../Dave/Generated/UCPROBE/lib_str.c **** *                                ('p1_str') to the string pointed to by 's2' ('p2_str')" ...
1061:../Dave/Generated/UCPROBE/lib_str.c **** *                           (B) "ignoring differences in case"                           ...
1062:../Dave/Generated/UCPROBE/lib_str.c **** *                           (C)  but "not more than 'n' ('len_max') bytes" of either string.
1063:../Dave/Generated/UCPROBE/lib_str.c **** *
1064:../Dave/Generated/UCPROBE/lib_str.c **** *                       (2) "strncasecmp() shall behave as if the strings had been converted to low
1065:../Dave/Generated/UCPROBE/lib_str.c **** *                            and then a byte comparison performed."
1066:../Dave/Generated/UCPROBE/lib_str.c **** *
1067:../Dave/Generated/UCPROBE/lib_str.c **** *                   (b) (1) IEEE Std 1003.1, 2004 Edition, Section 'strncasecmp() : RETURN VALUE' s
1068:../Dave/Generated/UCPROBE/lib_str.c **** *                          "upon successful completion, strncasecmp() shall return an integer great
1069:../Dave/Generated/UCPROBE/lib_str.c **** *                           equal to, or less than 0".
1070:../Dave/Generated/UCPROBE/lib_str.c **** *
1071:../Dave/Generated/UCPROBE/lib_str.c **** *                       (2) IEEE Std 1003.1, 2004 Edition, Section 'strcmp() : DESCRIPTION' adds th
1072:../Dave/Generated/UCPROBE/lib_str.c **** *                           sign of a non-zero return value shall be determined by the sign of the 
1073:../Dave/Generated/UCPROBE/lib_str.c **** *                           between the values of the first pair of bytes ... that differ in the st
1074:../Dave/Generated/UCPROBE/lib_str.c **** *                           being compared".
1075:../Dave/Generated/UCPROBE/lib_str.c **** *
1076:../Dave/Generated/UCPROBE/lib_str.c **** *               (3) String comparison terminates when :
1077:../Dave/Generated/UCPROBE/lib_str.c **** *
1078:../Dave/Generated/UCPROBE/lib_str.c **** *                   (a) (1) (A) BOTH string pointer(s) are passed NULL pointers.
1079:../Dave/Generated/UCPROBE/lib_str.c **** *                               (1) NULL strings identical; 0 returned.
1080:../Dave/Generated/UCPROBE/lib_str.c **** *
1081:../Dave/Generated/UCPROBE/lib_str.c **** *                           (B) (1) 'p1_str' passed a NULL pointer.
1082:../Dave/Generated/UCPROBE/lib_str.c **** *                                   (a) Return negative value of character pointed to by 'p2_str', 
1083:../Dave/Generated/UCPROBE/lib_str.c **** *                                       to lower case (see Note #2a2).
1084:../Dave/Generated/UCPROBE/lib_str.c **** *
1085:../Dave/Generated/UCPROBE/lib_str.c **** *                               (2) 'p2_str' passed a NULL pointer.
1086:../Dave/Generated/UCPROBE/lib_str.c **** *                                   (a) Return positive value of character pointed to by 'p1_str', 
1087:../Dave/Generated/UCPROBE/lib_str.c **** *                                       to lower case (see Note #2a2).
1088:../Dave/Generated/UCPROBE/lib_str.c **** *
1089:../Dave/Generated/UCPROBE/lib_str.c **** *                       (2) (A) BOTH strings point to NULL.
1090:../Dave/Generated/UCPROBE/lib_str.c **** *                               (1) Strings overlap with NULL address.
1091:../Dave/Generated/UCPROBE/lib_str.c **** *                               (2) Strings identical up to but NOT beyond or including the NULL ad
1092:../Dave/Generated/UCPROBE/lib_str.c **** *                                   0 returned.
1093:../Dave/Generated/UCPROBE/lib_str.c **** *
1094:../Dave/Generated/UCPROBE/lib_str.c **** *                           (B) (1) 'p1_str_cmp_next' points to NULL.
1095:../Dave/Generated/UCPROBE/lib_str.c **** *                                   (a) 'p1_str' overlaps with NULL address.
1096:../Dave/Generated/UCPROBE/lib_str.c **** *                                   (b) Strings compared up to but NOT beyond or including the NULL
1097:../Dave/Generated/UCPROBE/lib_str.c **** *                                   (c) Return negative value of character pointed to by 'p2_str_cm
1098:../Dave/Generated/UCPROBE/lib_str.c **** *                                       converted to lower case (see Note #2a2).
1099:../Dave/Generated/UCPROBE/lib_str.c **** *
1100:../Dave/Generated/UCPROBE/lib_str.c **** *                               (2) 'p2_str_cmp_next' points to NULL.
1101:../Dave/Generated/UCPROBE/lib_str.c **** *                                   (a) 'p2_str' overlaps with NULL address.
1102:../Dave/Generated/UCPROBE/lib_str.c **** *                                   (b) Strings compared up to but NOT beyond or including the NULL
1103:../Dave/Generated/UCPROBE/lib_str.c **** *                                   (c) Return positive value of character pointed to by 'p1_str_cm
1104:../Dave/Generated/UCPROBE/lib_str.c **** *                                       converted to lower case (see Note #2a2).
1105:../Dave/Generated/UCPROBE/lib_str.c **** *
1106:../Dave/Generated/UCPROBE/lib_str.c **** *                   (b) Terminating NULL character found in both strings.
1107:../Dave/Generated/UCPROBE/lib_str.c **** *                       (1) Strings identical; 0 returned.
1108:../Dave/Generated/UCPROBE/lib_str.c **** *                       (2) Only one NULL character test required in conditional since previous con
1109:../Dave/Generated/UCPROBE/lib_str.c **** *                           tested character equality.
1110:../Dave/Generated/UCPROBE/lib_str.c **** *
1111:../Dave/Generated/UCPROBE/lib_str.c **** *                   (c) Non-matching characters found.
1112:../Dave/Generated/UCPROBE/lib_str.c **** *                       (1) Return signed-integer difference of the character pointed to by 'p2_str
1113:../Dave/Generated/UCPROBE/lib_str.c **** *                           converted to lower case, from the character pointed to by 'p1_str', con
1114:../Dave/Generated/UCPROBE/lib_str.c **** *                           to lower case.
1115:../Dave/Generated/UCPROBE/lib_str.c **** *
1116:../Dave/Generated/UCPROBE/lib_str.c **** *                   (d) (1) 'len_max' passed a zero length.
1117:../Dave/Generated/UCPROBE/lib_str.c **** *                           (A) Zero-length strings identical; 0 returned.
1118:../Dave/Generated/UCPROBE/lib_str.c **** *
1119:../Dave/Generated/UCPROBE/lib_str.c **** *                       (2) First 'len_max' number of characters identical.
1120:../Dave/Generated/UCPROBE/lib_str.c **** *                           (A) Strings identical; 0 returned.
1121:../Dave/Generated/UCPROBE/lib_str.c **** *
1122:../Dave/Generated/UCPROBE/lib_str.c **** *                       See also Note #2a1C.
1123:../Dave/Generated/UCPROBE/lib_str.c **** *$PAGE*
1124:../Dave/Generated/UCPROBE/lib_str.c **** *               (4) Since 16-bit signed arithmetic is performed to calculate a non-identical compar
1125:../Dave/Generated/UCPROBE/lib_str.c **** *                   return value, 'CPU_CHAR' native data type size MUST be 8-bit.
1126:../Dave/Generated/UCPROBE/lib_str.c **** ***************************************************************************************************
1127:../Dave/Generated/UCPROBE/lib_str.c **** */
1128:../Dave/Generated/UCPROBE/lib_str.c **** 
1129:../Dave/Generated/UCPROBE/lib_str.c **** CPU_INT16S  Str_CmpIgnoreCase_N (const  CPU_CHAR    *p1_str,
1130:../Dave/Generated/UCPROBE/lib_str.c ****                                  const  CPU_CHAR    *p2_str,
1131:../Dave/Generated/UCPROBE/lib_str.c ****                                         CPU_SIZE_T   len_max)
1132:../Dave/Generated/UCPROBE/lib_str.c **** {
 908              	 .loc 1 1132 0
 909              	 .cfi_startproc
 910              	 
 911              	 
 912 0000 80B5     	 push {r7,lr}
 913              	.LCFI49:
 914              	 .cfi_def_cfa_offset 8
 915              	 .cfi_offset 7,-8
 916              	 .cfi_offset 14,-4
 917 0002 8AB0     	 sub sp,sp,#40
 918              	.LCFI50:
 919              	 .cfi_def_cfa_offset 48
 920 0004 00AF     	 add r7,sp,#0
 921              	.LCFI51:
 922              	 .cfi_def_cfa_register 7
 923 0006 F860     	 str r0,[r7,#12]
 924 0008 B960     	 str r1,[r7,#8]
 925 000a 7A60     	 str r2,[r7,#4]
1133:../Dave/Generated/UCPROBE/lib_str.c ****     const  CPU_CHAR    *p1_str_cmp;
1134:../Dave/Generated/UCPROBE/lib_str.c ****     const  CPU_CHAR    *p2_str_cmp;
1135:../Dave/Generated/UCPROBE/lib_str.c ****     const  CPU_CHAR    *p1_str_cmp_next;
1136:../Dave/Generated/UCPROBE/lib_str.c ****     const  CPU_CHAR    *p2_str_cmp_next;
1137:../Dave/Generated/UCPROBE/lib_str.c ****            CPU_CHAR     char_1;
1138:../Dave/Generated/UCPROBE/lib_str.c ****            CPU_CHAR     char_2;
1139:../Dave/Generated/UCPROBE/lib_str.c ****            CPU_INT16S   cmp_val;
1140:../Dave/Generated/UCPROBE/lib_str.c ****            CPU_SIZE_T   cmp_len;
1141:../Dave/Generated/UCPROBE/lib_str.c **** 
1142:../Dave/Generated/UCPROBE/lib_str.c **** 
1143:../Dave/Generated/UCPROBE/lib_str.c ****     if (len_max < 1) {                                          /* If cmp len = 0,        rtn 0    
 926              	 .loc 1 1143 0
 927 000c 7B68     	 ldr r3,[r7,#4]
 928 000e 002B     	 cmp r3,#0
 929 0010 01D1     	 bne .L57
1144:../Dave/Generated/UCPROBE/lib_str.c ****         return (0);
 930              	 .loc 1 1144 0
 931 0012 0023     	 movs r3,#0
 932 0014 A9E0     	 b .L58
 933              	.L57:
1145:../Dave/Generated/UCPROBE/lib_str.c ****     }
1146:../Dave/Generated/UCPROBE/lib_str.c **** 
1147:../Dave/Generated/UCPROBE/lib_str.c ****     if (p1_str == (const CPU_CHAR *)0) {
 934              	 .loc 1 1147 0
 935 0016 FB68     	 ldr r3,[r7,#12]
 936 0018 002B     	 cmp r3,#0
 937 001a 12D1     	 bne .L59
1148:../Dave/Generated/UCPROBE/lib_str.c ****         if (p2_str == (const CPU_CHAR *)0) {
 938              	 .loc 1 1148 0
 939 001c BB68     	 ldr r3,[r7,#8]
 940 001e 002B     	 cmp r3,#0
 941 0020 01D1     	 bne .L60
1149:../Dave/Generated/UCPROBE/lib_str.c ****             return (0);                                         /* If BOTH str ptrs NULL, rtn 0    
 942              	 .loc 1 1149 0
 943 0022 0023     	 movs r3,#0
 944 0024 A1E0     	 b .L58
 945              	.L60:
1150:../Dave/Generated/UCPROBE/lib_str.c ****         }
1151:../Dave/Generated/UCPROBE/lib_str.c ****         char_2  =  ASCII_ToLower(*p2_str);
 946              	 .loc 1 1151 0
 947 0026 BB68     	 ldr r3,[r7,#8]
 948 0028 1B78     	 ldrb r3,[r3]
 949 002a 1846     	 mov r0,r3
 950 002c FFF7FEFF 	 bl ASCII_ToLower
 951 0030 0346     	 mov r3,r0
 952 0032 BB75     	 strb r3,[r7,#22]
1152:../Dave/Generated/UCPROBE/lib_str.c ****         cmp_val = (CPU_INT16S)((CPU_INT16S)0 - (CPU_INT16S)char_2);
 953              	 .loc 1 1152 0
 954 0034 BB7D     	 ldrb r3,[r7,#22]
 955 0036 9BB2     	 uxth r3,r3
 956 0038 5B42     	 negs r3,r3
 957 003a 9BB2     	 uxth r3,r3
 958 003c BB82     	 strh r3,[r7,#20]
1153:../Dave/Generated/UCPROBE/lib_str.c ****         return (cmp_val);                                       /* If p1_str NULL, rtn neg p2_str v
 959              	 .loc 1 1153 0
 960 003e BB8A     	 ldrh r3,[r7,#20]
 961 0040 93E0     	 b .L58
 962              	.L59:
1154:../Dave/Generated/UCPROBE/lib_str.c ****     }
1155:../Dave/Generated/UCPROBE/lib_str.c ****     if (p2_str == (const CPU_CHAR *)0) {
 963              	 .loc 1 1155 0
 964 0042 BB68     	 ldr r3,[r7,#8]
 965 0044 002B     	 cmp r3,#0
 966 0046 0AD1     	 bne .L61
1156:../Dave/Generated/UCPROBE/lib_str.c ****         char_1  =  ASCII_ToLower(*p1_str);
 967              	 .loc 1 1156 0
 968 0048 FB68     	 ldr r3,[r7,#12]
 969 004a 1B78     	 ldrb r3,[r3]
 970 004c 1846     	 mov r0,r3
 971 004e FFF7FEFF 	 bl ASCII_ToLower
 972 0052 0346     	 mov r3,r0
 973 0054 FB75     	 strb r3,[r7,#23]
1157:../Dave/Generated/UCPROBE/lib_str.c ****         cmp_val = (CPU_INT16S)char_1;
 974              	 .loc 1 1157 0
 975 0056 FB7D     	 ldrb r3,[r7,#23]
 976 0058 BB82     	 strh r3,[r7,#20]
1158:../Dave/Generated/UCPROBE/lib_str.c ****         return (cmp_val);                                       /* If p2_str NULL, rtn pos p1_str v
 977              	 .loc 1 1158 0
 978 005a BB8A     	 ldrh r3,[r7,#20]
 979 005c 85E0     	 b .L58
 980              	.L61:
1159:../Dave/Generated/UCPROBE/lib_str.c ****     }
1160:../Dave/Generated/UCPROBE/lib_str.c **** 
1161:../Dave/Generated/UCPROBE/lib_str.c **** 
1162:../Dave/Generated/UCPROBE/lib_str.c ****     p1_str_cmp      = p1_str;
 981              	 .loc 1 1162 0
 982 005e FB68     	 ldr r3,[r7,#12]
 983 0060 7B62     	 str r3,[r7,#36]
1163:../Dave/Generated/UCPROBE/lib_str.c ****     p2_str_cmp      = p2_str;
 984              	 .loc 1 1163 0
 985 0062 BB68     	 ldr r3,[r7,#8]
 986 0064 3B62     	 str r3,[r7,#32]
1164:../Dave/Generated/UCPROBE/lib_str.c ****     p1_str_cmp_next = p1_str_cmp;
 987              	 .loc 1 1164 0
 988 0066 7B6A     	 ldr r3,[r7,#36]
 989 0068 FB61     	 str r3,[r7,#28]
1165:../Dave/Generated/UCPROBE/lib_str.c ****     p2_str_cmp_next = p2_str_cmp;
 990              	 .loc 1 1165 0
 991 006a 3B6A     	 ldr r3,[r7,#32]
 992 006c BB61     	 str r3,[r7,#24]
1166:../Dave/Generated/UCPROBE/lib_str.c ****     p1_str_cmp_next++;
 993              	 .loc 1 1166 0
 994 006e FB69     	 ldr r3,[r7,#28]
 995 0070 0133     	 adds r3,r3,#1
 996 0072 FB61     	 str r3,[r7,#28]
1167:../Dave/Generated/UCPROBE/lib_str.c ****     p2_str_cmp_next++;
 997              	 .loc 1 1167 0
 998 0074 BB69     	 ldr r3,[r7,#24]
 999 0076 0133     	 adds r3,r3,#1
 1000 0078 BB61     	 str r3,[r7,#24]
1168:../Dave/Generated/UCPROBE/lib_str.c ****     char_1          = ASCII_ToLower(*p1_str_cmp);
 1001              	 .loc 1 1168 0
 1002 007a 7B6A     	 ldr r3,[r7,#36]
 1003 007c 1B78     	 ldrb r3,[r3]
 1004 007e 1846     	 mov r0,r3
 1005 0080 FFF7FEFF 	 bl ASCII_ToLower
 1006 0084 0346     	 mov r3,r0
 1007 0086 FB75     	 strb r3,[r7,#23]
1169:../Dave/Generated/UCPROBE/lib_str.c ****     char_2          = ASCII_ToLower(*p2_str_cmp);
 1008              	 .loc 1 1169 0
 1009 0088 3B6A     	 ldr r3,[r7,#32]
 1010 008a 1B78     	 ldrb r3,[r3]
 1011 008c 1846     	 mov r0,r3
 1012 008e FFF7FEFF 	 bl ASCII_ToLower
 1013 0092 0346     	 mov r3,r0
 1014 0094 BB75     	 strb r3,[r7,#22]
1170:../Dave/Generated/UCPROBE/lib_str.c ****     cmp_len         = 0u;
 1015              	 .loc 1 1170 0
 1016 0096 0023     	 movs r3,#0
 1017 0098 3B61     	 str r3,[r7,#16]
1171:../Dave/Generated/UCPROBE/lib_str.c **** 
1172:../Dave/Generated/UCPROBE/lib_str.c ****     while (( char_1          ==  char_2)                &&      /* Cmp strs until non-matching char
 1018              	 .loc 1 1172 0
 1019 009a 1CE0     	 b .L62
 1020              	.L64:
1173:../Dave/Generated/UCPROBE/lib_str.c ****            (*p1_str_cmp      != (      CPU_CHAR  )'\0') &&      /* ... or NULL chars               
1174:../Dave/Generated/UCPROBE/lib_str.c ****            ( p1_str_cmp_next != (const CPU_CHAR *)  0 ) &&      /* ... or NULL ptr(s) found        
1175:../Dave/Generated/UCPROBE/lib_str.c ****            ( p2_str_cmp_next != (const CPU_CHAR *)  0 ) &&
1176:../Dave/Generated/UCPROBE/lib_str.c ****            ( cmp_len         <  (      CPU_SIZE_T)len_max)) {   /* ... or max nbr chars cmp'd      
1177:../Dave/Generated/UCPROBE/lib_str.c ****         p1_str_cmp++;
 1021              	 .loc 1 1177 0
 1022 009c 7B6A     	 ldr r3,[r7,#36]
 1023 009e 0133     	 adds r3,r3,#1
 1024 00a0 7B62     	 str r3,[r7,#36]
1178:../Dave/Generated/UCPROBE/lib_str.c ****         p2_str_cmp++;
 1025              	 .loc 1 1178 0
 1026 00a2 3B6A     	 ldr r3,[r7,#32]
 1027 00a4 0133     	 adds r3,r3,#1
 1028 00a6 3B62     	 str r3,[r7,#32]
1179:../Dave/Generated/UCPROBE/lib_str.c ****         p1_str_cmp_next++;
 1029              	 .loc 1 1179 0
 1030 00a8 FB69     	 ldr r3,[r7,#28]
 1031 00aa 0133     	 adds r3,r3,#1
 1032 00ac FB61     	 str r3,[r7,#28]
1180:../Dave/Generated/UCPROBE/lib_str.c ****         p2_str_cmp_next++;
 1033              	 .loc 1 1180 0
 1034 00ae BB69     	 ldr r3,[r7,#24]
 1035 00b0 0133     	 adds r3,r3,#1
 1036 00b2 BB61     	 str r3,[r7,#24]
1181:../Dave/Generated/UCPROBE/lib_str.c ****         cmp_len++;
 1037              	 .loc 1 1181 0
 1038 00b4 3B69     	 ldr r3,[r7,#16]
 1039 00b6 0133     	 adds r3,r3,#1
 1040 00b8 3B61     	 str r3,[r7,#16]
1182:../Dave/Generated/UCPROBE/lib_str.c ****         char_1 = ASCII_ToLower(*p1_str_cmp);
 1041              	 .loc 1 1182 0
 1042 00ba 7B6A     	 ldr r3,[r7,#36]
 1043 00bc 1B78     	 ldrb r3,[r3]
 1044 00be 1846     	 mov r0,r3
 1045 00c0 FFF7FEFF 	 bl ASCII_ToLower
 1046 00c4 0346     	 mov r3,r0
 1047 00c6 FB75     	 strb r3,[r7,#23]
1183:../Dave/Generated/UCPROBE/lib_str.c ****         char_2 = ASCII_ToLower(*p2_str_cmp);
 1048              	 .loc 1 1183 0
 1049 00c8 3B6A     	 ldr r3,[r7,#32]
 1050 00ca 1B78     	 ldrb r3,[r3]
 1051 00cc 1846     	 mov r0,r3
 1052 00ce FFF7FEFF 	 bl ASCII_ToLower
 1053 00d2 0346     	 mov r3,r0
 1054 00d4 BB75     	 strb r3,[r7,#22]
 1055              	.L62:
1172:../Dave/Generated/UCPROBE/lib_str.c ****            (*p1_str_cmp      != (      CPU_CHAR  )'\0') &&      /* ... or NULL chars               
 1056              	 .loc 1 1172 0
 1057 00d6 FA7D     	 ldrb r2,[r7,#23]
 1058 00d8 BB7D     	 ldrb r3,[r7,#22]
 1059 00da 9A42     	 cmp r2,r3
 1060 00dc 0DD1     	 bne .L63
1173:../Dave/Generated/UCPROBE/lib_str.c ****            ( p1_str_cmp_next != (const CPU_CHAR *)  0 ) &&      /* ... or NULL ptr(s) found        
 1061              	 .loc 1 1173 0 discriminator 1
 1062 00de 7B6A     	 ldr r3,[r7,#36]
 1063 00e0 1B78     	 ldrb r3,[r3]
1172:../Dave/Generated/UCPROBE/lib_str.c ****            (*p1_str_cmp      != (      CPU_CHAR  )'\0') &&      /* ... or NULL chars               
 1064              	 .loc 1 1172 0 discriminator 1
 1065 00e2 002B     	 cmp r3,#0
 1066 00e4 09D0     	 beq .L63
1173:../Dave/Generated/UCPROBE/lib_str.c ****            ( p1_str_cmp_next != (const CPU_CHAR *)  0 ) &&      /* ... or NULL ptr(s) found        
 1067              	 .loc 1 1173 0
 1068 00e6 FB69     	 ldr r3,[r7,#28]
 1069 00e8 002B     	 cmp r3,#0
 1070 00ea 06D0     	 beq .L63
1174:../Dave/Generated/UCPROBE/lib_str.c ****            ( p2_str_cmp_next != (const CPU_CHAR *)  0 ) &&
 1071              	 .loc 1 1174 0
 1072 00ec BB69     	 ldr r3,[r7,#24]
 1073 00ee 002B     	 cmp r3,#0
 1074 00f0 03D0     	 beq .L63
1175:../Dave/Generated/UCPROBE/lib_str.c ****            ( cmp_len         <  (      CPU_SIZE_T)len_max)) {   /* ... or max nbr chars cmp'd      
 1075              	 .loc 1 1175 0
 1076 00f2 3A69     	 ldr r2,[r7,#16]
 1077 00f4 7B68     	 ldr r3,[r7,#4]
 1078 00f6 9A42     	 cmp r2,r3
 1079 00f8 D0D3     	 bcc .L64
 1080              	.L63:
1184:../Dave/Generated/UCPROBE/lib_str.c ****     }
1185:../Dave/Generated/UCPROBE/lib_str.c **** 
1186:../Dave/Generated/UCPROBE/lib_str.c **** 
1187:../Dave/Generated/UCPROBE/lib_str.c ****     if (cmp_len == len_max) {                                   /* If strs     identical for max le
 1081              	 .loc 1 1187 0
 1082 00fa 3A69     	 ldr r2,[r7,#16]
 1083 00fc 7B68     	 ldr r3,[r7,#4]
 1084 00fe 9A42     	 cmp r2,r3
 1085 0100 01D1     	 bne .L65
1188:../Dave/Generated/UCPROBE/lib_str.c ****         return (0);                                             /* ... rtn 0                 (see N
 1086              	 .loc 1 1188 0
 1087 0102 0023     	 movs r3,#0
 1088 0104 31E0     	 b .L58
 1089              	.L65:
1189:../Dave/Generated/UCPROBE/lib_str.c ****     }
1190:../Dave/Generated/UCPROBE/lib_str.c **** 
1191:../Dave/Generated/UCPROBE/lib_str.c ****     if (char_1 != char_2) {                                     /* If strs NOT identical, ...      
 1090              	 .loc 1 1191 0
 1091 0106 FA7D     	 ldrb r2,[r7,#23]
 1092 0108 BB7D     	 ldrb r3,[r7,#22]
 1093 010a 9A42     	 cmp r2,r3
 1094 010c 07D0     	 beq .L66
1192:../Dave/Generated/UCPROBE/lib_str.c ****                                                                 /* ... calc & rtn char diff  (see N
1193:../Dave/Generated/UCPROBE/lib_str.c ****          cmp_val = (CPU_INT16S)((CPU_INT16S)char_1 - (CPU_INT16S)char_2);
 1095              	 .loc 1 1193 0
 1096 010e FB7D     	 ldrb r3,[r7,#23]
 1097 0110 9AB2     	 uxth r2,r3
 1098 0112 BB7D     	 ldrb r3,[r7,#22]
 1099 0114 9BB2     	 uxth r3,r3
 1100 0116 D31A     	 subs r3,r2,r3
 1101 0118 9BB2     	 uxth r3,r3
 1102 011a BB82     	 strh r3,[r7,#20]
 1103 011c 24E0     	 b .L67
 1104              	.L66:
1194:../Dave/Generated/UCPROBE/lib_str.c **** 
1195:../Dave/Generated/UCPROBE/lib_str.c ****     } else if (char_1 == (CPU_CHAR)'\0') {                      /* If NULL char(s) found, ...      
 1105              	 .loc 1 1195 0
 1106 011e FB7D     	 ldrb r3,[r7,#23]
 1107 0120 002B     	 cmp r3,#0
 1108 0122 02D1     	 bne .L68
1196:../Dave/Generated/UCPROBE/lib_str.c ****          cmp_val = (CPU_INT16S)0;                               /* ... strs identical; rtn 0 (see N
 1109              	 .loc 1 1196 0
 1110 0124 0023     	 movs r3,#0
 1111 0126 BB82     	 strh r3,[r7,#20]
 1112 0128 1EE0     	 b .L67
 1113              	.L68:
1197:../Dave/Generated/UCPROBE/lib_str.c **** 
1198:../Dave/Generated/UCPROBE/lib_str.c ****     } else {
1199:../Dave/Generated/UCPROBE/lib_str.c ****         if (p1_str_cmp_next == (const CPU_CHAR *)0) {
 1114              	 .loc 1 1199 0
 1115 012a FB69     	 ldr r3,[r7,#28]
 1116 012c 002B     	 cmp r3,#0
 1117 012e 12D1     	 bne .L69
1200:../Dave/Generated/UCPROBE/lib_str.c ****             if (p2_str_cmp_next == (const CPU_CHAR *)0) {       /* If BOTH next str ptrs NULL, ... 
 1118              	 .loc 1 1200 0
 1119 0130 BB69     	 ldr r3,[r7,#24]
 1120 0132 002B     	 cmp r3,#0
 1121 0134 02D1     	 bne .L70
1201:../Dave/Generated/UCPROBE/lib_str.c ****                 cmp_val = (CPU_INT16S)0;                        /* ... rtn 0                       
 1122              	 .loc 1 1201 0
 1123 0136 0023     	 movs r3,#0
 1124 0138 BB82     	 strh r3,[r7,#20]
 1125 013a 15E0     	 b .L67
 1126              	.L70:
1202:../Dave/Generated/UCPROBE/lib_str.c ****             } else {                                            /* If p1_str_cmp_next NULL, ...    
1203:../Dave/Generated/UCPROBE/lib_str.c ****                 char_2  =  ASCII_ToLower(*p2_str_cmp_next);
 1127              	 .loc 1 1203 0
 1128 013c BB69     	 ldr r3,[r7,#24]
 1129 013e 1B78     	 ldrb r3,[r3]
 1130 0140 1846     	 mov r0,r3
 1131 0142 FFF7FEFF 	 bl ASCII_ToLower
 1132 0146 0346     	 mov r3,r0
 1133 0148 BB75     	 strb r3,[r7,#22]
1204:../Dave/Generated/UCPROBE/lib_str.c ****                                                                 /* ... rtn neg p2_str_cmp_next val 
1205:../Dave/Generated/UCPROBE/lib_str.c ****                 cmp_val = (CPU_INT16S)((CPU_INT16S)0 - (CPU_INT16S)char_2);
 1134              	 .loc 1 1205 0
 1135 014a BB7D     	 ldrb r3,[r7,#22]
 1136 014c 9BB2     	 uxth r3,r3
 1137 014e 5B42     	 negs r3,r3
 1138 0150 9BB2     	 uxth r3,r3
 1139 0152 BB82     	 strh r3,[r7,#20]
 1140 0154 08E0     	 b .L67
 1141              	.L69:
1206:../Dave/Generated/UCPROBE/lib_str.c ****             }
1207:../Dave/Generated/UCPROBE/lib_str.c ****         } else {                                                /* If p2_str_cmp_next NULL, ...    
1208:../Dave/Generated/UCPROBE/lib_str.c ****             char_1  =  ASCII_ToLower(*p1_str_cmp_next);
 1142              	 .loc 1 1208 0
 1143 0156 FB69     	 ldr r3,[r7,#28]
 1144 0158 1B78     	 ldrb r3,[r3]
 1145 015a 1846     	 mov r0,r3
 1146 015c FFF7FEFF 	 bl ASCII_ToLower
 1147 0160 0346     	 mov r3,r0
 1148 0162 FB75     	 strb r3,[r7,#23]
1209:../Dave/Generated/UCPROBE/lib_str.c ****             cmp_val = (CPU_INT16S)char_1;                       /* ... rtn pos p1_str_cmp_next val 
 1149              	 .loc 1 1209 0
 1150 0164 FB7D     	 ldrb r3,[r7,#23]
 1151 0166 BB82     	 strh r3,[r7,#20]
 1152              	.L67:
1210:../Dave/Generated/UCPROBE/lib_str.c ****         }
1211:../Dave/Generated/UCPROBE/lib_str.c ****     }
1212:../Dave/Generated/UCPROBE/lib_str.c **** 
1213:../Dave/Generated/UCPROBE/lib_str.c **** 
1214:../Dave/Generated/UCPROBE/lib_str.c ****     return (cmp_val);
 1153              	 .loc 1 1214 0
 1154 0168 BB8A     	 ldrh r3,[r7,#20]
 1155              	.L58:
 1156 016a 1BB2     	 sxth r3,r3
1215:../Dave/Generated/UCPROBE/lib_str.c **** }
 1157              	 .loc 1 1215 0
 1158 016c 1846     	 mov r0,r3
 1159 016e 2837     	 adds r7,r7,#40
 1160              	.LCFI52:
 1161              	 .cfi_def_cfa_offset 8
 1162 0170 BD46     	 mov sp,r7
 1163              	.LCFI53:
 1164              	 .cfi_def_cfa_register 13
 1165              	 
 1166 0172 80BD     	 pop {r7,pc}
 1167              	 .cfi_endproc
 1168              	.LFE9:
 1170              	 .section .text.Str_Char,"ax",%progbits
 1171              	 .align 2
 1172              	 .global Str_Char
 1173              	 .thumb
 1174              	 .thumb_func
 1176              	Str_Char:
 1177              	.LFB10:
1216:../Dave/Generated/UCPROBE/lib_str.c **** 
1217:../Dave/Generated/UCPROBE/lib_str.c **** 
1218:../Dave/Generated/UCPROBE/lib_str.c **** /*
1219:../Dave/Generated/UCPROBE/lib_str.c **** ***************************************************************************************************
1220:../Dave/Generated/UCPROBE/lib_str.c **** *                                             Str_Char()
1221:../Dave/Generated/UCPROBE/lib_str.c **** *
1222:../Dave/Generated/UCPROBE/lib_str.c **** * Description : Search string for first occurrence of specific character.
1223:../Dave/Generated/UCPROBE/lib_str.c **** *
1224:../Dave/Generated/UCPROBE/lib_str.c **** * Argument(s) : pstr            Pointer to string (see Note #1).
1225:../Dave/Generated/UCPROBE/lib_str.c **** *
1226:../Dave/Generated/UCPROBE/lib_str.c **** *               srch_char       Search character.
1227:../Dave/Generated/UCPROBE/lib_str.c **** *
1228:../Dave/Generated/UCPROBE/lib_str.c **** * Return(s)   : Pointer to first occurrence of search character in string, if any    (see Note #2b1
1229:../Dave/Generated/UCPROBE/lib_str.c **** *
1230:../Dave/Generated/UCPROBE/lib_str.c **** *               Pointer to NULL,                                           otherwise (see Note #2b2
1231:../Dave/Generated/UCPROBE/lib_str.c **** *
1232:../Dave/Generated/UCPROBE/lib_str.c **** * Caller(s)   : Application.
1233:../Dave/Generated/UCPROBE/lib_str.c **** *
1234:../Dave/Generated/UCPROBE/lib_str.c **** * Note(s)     : (1) String buffer NOT modified.
1235:../Dave/Generated/UCPROBE/lib_str.c **** *
1236:../Dave/Generated/UCPROBE/lib_str.c **** *               (2) (a) IEEE Std 1003.1, 2004 Edition, Section 'strchr() : DESCRIPTION' states that
1237:../Dave/Generated/UCPROBE/lib_str.c **** *
1238:../Dave/Generated/UCPROBE/lib_str.c **** *                       (1) "The strchr() function shall locate the first occurrence of 'c' ('srch_
1239:../Dave/Generated/UCPROBE/lib_str.c **** *                            ... in the string pointed to by 's' ('pstr')."
1240:../Dave/Generated/UCPROBE/lib_str.c **** *                       (2) "The terminating null byte is considered to be part of the string."
1241:../Dave/Generated/UCPROBE/lib_str.c **** *
1242:../Dave/Generated/UCPROBE/lib_str.c **** *                   (b) IEEE Std 1003.1, 2004 Edition, Section 'strchr() : RETURN VALUE' states tha
1243:../Dave/Generated/UCPROBE/lib_str.c **** *                       "upon completion, strchr() shall return" :
1244:../Dave/Generated/UCPROBE/lib_str.c **** *
1245:../Dave/Generated/UCPROBE/lib_str.c **** *                       (1) "a pointer to the byte," ...
1246:../Dave/Generated/UCPROBE/lib_str.c **** *                       (2) "or a null pointer if the byte was not found."
1247:../Dave/Generated/UCPROBE/lib_str.c **** *                           (A) #### Although NO strchr() specification states to return NULL for
1248:../Dave/Generated/UCPROBE/lib_str.c **** *                               any other reason(s), NULL is also returned for any error(s).
1249:../Dave/Generated/UCPROBE/lib_str.c **** *
1250:../Dave/Generated/UCPROBE/lib_str.c **** *               (3) String search terminates when :
1251:../Dave/Generated/UCPROBE/lib_str.c **** *
1252:../Dave/Generated/UCPROBE/lib_str.c **** *                   (a) String pointer passed a NULL pointer.
1253:../Dave/Generated/UCPROBE/lib_str.c **** *                       (1) No string search performed; NULL pointer returned.
1254:../Dave/Generated/UCPROBE/lib_str.c **** *
1255:../Dave/Generated/UCPROBE/lib_str.c **** *                   (b) String pointer points to NULL.
1256:../Dave/Generated/UCPROBE/lib_str.c **** *                       (1) String overlaps with NULL address; NULL pointer returned.
1257:../Dave/Generated/UCPROBE/lib_str.c **** *
1258:../Dave/Generated/UCPROBE/lib_str.c **** *                   (c) String's terminating NULL character found.
1259:../Dave/Generated/UCPROBE/lib_str.c **** *                       (1) Search character NOT found in search string; NULL pointer returned
1260:../Dave/Generated/UCPROBE/lib_str.c **** *                           (see Note #2b2).
1261:../Dave/Generated/UCPROBE/lib_str.c **** *                       (2) Applicable even if search character is the terminating NULL character
1262:../Dave/Generated/UCPROBE/lib_str.c **** *                           (see Note #2a2).
1263:../Dave/Generated/UCPROBE/lib_str.c **** *
1264:../Dave/Generated/UCPROBE/lib_str.c **** *                   (d) Search character found.
1265:../Dave/Generated/UCPROBE/lib_str.c **** *                       (1) Return pointer to first occurrence of search character in search string
1266:../Dave/Generated/UCPROBE/lib_str.c **** *                           (see Note #2a1).
1267:../Dave/Generated/UCPROBE/lib_str.c **** ***************************************************************************************************
1268:../Dave/Generated/UCPROBE/lib_str.c **** */
1269:../Dave/Generated/UCPROBE/lib_str.c **** 
1270:../Dave/Generated/UCPROBE/lib_str.c **** CPU_CHAR  *Str_Char (const  CPU_CHAR  *pstr,
1271:../Dave/Generated/UCPROBE/lib_str.c ****                             CPU_CHAR   srch_char)
1272:../Dave/Generated/UCPROBE/lib_str.c **** {
 1178              	 .loc 1 1272 0
 1179              	 .cfi_startproc
 1180              	 
 1181              	 
 1182 0000 80B5     	 push {r7,lr}
 1183              	.LCFI54:
 1184              	 .cfi_def_cfa_offset 8
 1185              	 .cfi_offset 7,-8
 1186              	 .cfi_offset 14,-4
 1187 0002 84B0     	 sub sp,sp,#16
 1188              	.LCFI55:
 1189              	 .cfi_def_cfa_offset 24
 1190 0004 00AF     	 add r7,sp,#0
 1191              	.LCFI56:
 1192              	 .cfi_def_cfa_register 7
 1193 0006 7860     	 str r0,[r7,#4]
 1194 0008 0B46     	 mov r3,r1
 1195 000a FB70     	 strb r3,[r7,#3]
1273:../Dave/Generated/UCPROBE/lib_str.c ****     CPU_CHAR  *pstr_rtn;
1274:../Dave/Generated/UCPROBE/lib_str.c **** 
1275:../Dave/Generated/UCPROBE/lib_str.c **** 
1276:../Dave/Generated/UCPROBE/lib_str.c ****     pstr_rtn = Str_Char_N(pstr,
 1196              	 .loc 1 1276 0
 1197 000c FB78     	 ldrb r3,[r7,#3]
 1198 000e 7868     	 ldr r0,[r7,#4]
 1199 0010 4FF0FF31 	 mov r1,#-1
 1200 0014 1A46     	 mov r2,r3
 1201 0016 FFF7FEFF 	 bl Str_Char_N
 1202 001a F860     	 str r0,[r7,#12]
1277:../Dave/Generated/UCPROBE/lib_str.c ****                           DEF_INT_CPU_U_MAX_VAL,
1278:../Dave/Generated/UCPROBE/lib_str.c ****                           srch_char);
1279:../Dave/Generated/UCPROBE/lib_str.c **** 
1280:../Dave/Generated/UCPROBE/lib_str.c ****     return (pstr_rtn);
 1203              	 .loc 1 1280 0
 1204 001c FB68     	 ldr r3,[r7,#12]
1281:../Dave/Generated/UCPROBE/lib_str.c **** }
 1205              	 .loc 1 1281 0
 1206 001e 1846     	 mov r0,r3
 1207 0020 1037     	 adds r7,r7,#16
 1208              	.LCFI57:
 1209              	 .cfi_def_cfa_offset 8
 1210 0022 BD46     	 mov sp,r7
 1211              	.LCFI58:
 1212              	 .cfi_def_cfa_register 13
 1213              	 
 1214 0024 80BD     	 pop {r7,pc}
 1215              	 .cfi_endproc
 1216              	.LFE10:
 1218 0026 00BF     	 .section .text.Str_Char_N,"ax",%progbits
 1219              	 .align 2
 1220              	 .global Str_Char_N
 1221              	 .thumb
 1222              	 .thumb_func
 1224              	Str_Char_N:
 1225              	.LFB11:
1282:../Dave/Generated/UCPROBE/lib_str.c **** 
1283:../Dave/Generated/UCPROBE/lib_str.c **** 
1284:../Dave/Generated/UCPROBE/lib_str.c **** /*
1285:../Dave/Generated/UCPROBE/lib_str.c **** ***************************************************************************************************
1286:../Dave/Generated/UCPROBE/lib_str.c **** *                                            Str_Char_N()
1287:../Dave/Generated/UCPROBE/lib_str.c **** *
1288:../Dave/Generated/UCPROBE/lib_str.c **** * Description : Search string for first occurrence of specific character, up to a maximum number
1289:../Dave/Generated/UCPROBE/lib_str.c **** *                   of characters.
1290:../Dave/Generated/UCPROBE/lib_str.c **** *
1291:../Dave/Generated/UCPROBE/lib_str.c **** * Argument(s) : pstr            Pointer to string (see Note #1).
1292:../Dave/Generated/UCPROBE/lib_str.c **** *
1293:../Dave/Generated/UCPROBE/lib_str.c **** *               len_max         Maximum number of characters to search (see Notes #2c & #3e).
1294:../Dave/Generated/UCPROBE/lib_str.c **** *
1295:../Dave/Generated/UCPROBE/lib_str.c **** *               srch_char       Search character.
1296:../Dave/Generated/UCPROBE/lib_str.c **** *
1297:../Dave/Generated/UCPROBE/lib_str.c **** * Return(s)   : Pointer to first occurrence of search character in string, if any    (see Note #2b1
1298:../Dave/Generated/UCPROBE/lib_str.c **** *
1299:../Dave/Generated/UCPROBE/lib_str.c **** *               Pointer to NULL,                                           otherwise (see Note #2b2
1300:../Dave/Generated/UCPROBE/lib_str.c **** *
1301:../Dave/Generated/UCPROBE/lib_str.c **** * Caller(s)   : Application.
1302:../Dave/Generated/UCPROBE/lib_str.c **** *
1303:../Dave/Generated/UCPROBE/lib_str.c **** * Note(s)     : (1) String buffer NOT modified.
1304:../Dave/Generated/UCPROBE/lib_str.c **** *
1305:../Dave/Generated/UCPROBE/lib_str.c **** *               (2) (a) IEEE Std 1003.1, 2004 Edition, Section 'strchr() : DESCRIPTION' states that
1306:../Dave/Generated/UCPROBE/lib_str.c **** *
1307:../Dave/Generated/UCPROBE/lib_str.c **** *                       (1) "The strchr() function shall locate the first occurrence of 'c' ('srch_
1308:../Dave/Generated/UCPROBE/lib_str.c **** *                            ... in the string pointed to by 's' ('pstr')."
1309:../Dave/Generated/UCPROBE/lib_str.c **** *                       (2) "The terminating null byte is considered to be part of the string."
1310:../Dave/Generated/UCPROBE/lib_str.c **** *
1311:../Dave/Generated/UCPROBE/lib_str.c **** *                   (b) IEEE Std 1003.1, 2004 Edition, Section 'strchr() : RETURN VALUE' states tha
1312:../Dave/Generated/UCPROBE/lib_str.c **** *                       "upon completion, strchr() shall return" :
1313:../Dave/Generated/UCPROBE/lib_str.c **** *
1314:../Dave/Generated/UCPROBE/lib_str.c **** *                       (1) "a pointer to the byte," ...
1315:../Dave/Generated/UCPROBE/lib_str.c **** *                       (2) "or a null pointer if the byte was not found."
1316:../Dave/Generated/UCPROBE/lib_str.c **** *                           (A) #### Although NO strchr() specification states to return NULL for
1317:../Dave/Generated/UCPROBE/lib_str.c **** *                               any other reason(s), NULL is also returned for any error(s).
1318:../Dave/Generated/UCPROBE/lib_str.c **** *
1319:../Dave/Generated/UCPROBE/lib_str.c **** *                   (c) Ideally, the 'len_max' argument would be the last argument in this function
1320:../Dave/Generated/UCPROBE/lib_str.c **** *                       argument list for consistency with all other custom string library function
1321:../Dave/Generated/UCPROBE/lib_str.c **** *                       However, the 'len_max' argument is sequentially ordered as the second argum
1322:../Dave/Generated/UCPROBE/lib_str.c **** *                       to comply with most standard library's strnchr() argument list.
1323:../Dave/Generated/UCPROBE/lib_str.c **** *
1324:../Dave/Generated/UCPROBE/lib_str.c **** *               (3) String search terminates when :
1325:../Dave/Generated/UCPROBE/lib_str.c **** *
1326:../Dave/Generated/UCPROBE/lib_str.c **** *                   (a) String pointer passed a NULL pointer.
1327:../Dave/Generated/UCPROBE/lib_str.c **** *                       (1) No string search performed; NULL pointer returned.
1328:../Dave/Generated/UCPROBE/lib_str.c **** *
1329:../Dave/Generated/UCPROBE/lib_str.c **** *                   (b) String pointer points to NULL.
1330:../Dave/Generated/UCPROBE/lib_str.c **** *                       (1) String overlaps with NULL address; NULL pointer returned.
1331:../Dave/Generated/UCPROBE/lib_str.c **** *
1332:../Dave/Generated/UCPROBE/lib_str.c **** *                   (c) String's terminating NULL character found.
1333:../Dave/Generated/UCPROBE/lib_str.c **** *                       (1) Search character NOT found in search string; NULL pointer returned
1334:../Dave/Generated/UCPROBE/lib_str.c **** *                           (see Note #2b2).
1335:../Dave/Generated/UCPROBE/lib_str.c **** *                       (2) Applicable even if search character is the terminating NULL character
1336:../Dave/Generated/UCPROBE/lib_str.c **** *                           (see Note #2a2).
1337:../Dave/Generated/UCPROBE/lib_str.c **** *
1338:../Dave/Generated/UCPROBE/lib_str.c **** *                   (d) Search character found.
1339:../Dave/Generated/UCPROBE/lib_str.c **** *                       (1) Return pointer to first occurrence of search character in search string
1340:../Dave/Generated/UCPROBE/lib_str.c **** *                           (see Note #2a1).
1341:../Dave/Generated/UCPROBE/lib_str.c **** *
1342:../Dave/Generated/UCPROBE/lib_str.c **** *                   (e) 'len_max' number of characters searched.
1343:../Dave/Generated/UCPROBE/lib_str.c **** *                       (1) Search character NOT found in search string within first 'len_max' numb
1344:../Dave/Generated/UCPROBE/lib_str.c **** *                           of characters; NULL pointer returned.
1345:../Dave/Generated/UCPROBE/lib_str.c **** *                       (2) 'len_max' number of characters MAY include terminating NULL character
1346:../Dave/Generated/UCPROBE/lib_str.c **** *                           (see Note #2a2).
1347:../Dave/Generated/UCPROBE/lib_str.c **** ***************************************************************************************************
1348:../Dave/Generated/UCPROBE/lib_str.c **** */
1349:../Dave/Generated/UCPROBE/lib_str.c **** 
1350:../Dave/Generated/UCPROBE/lib_str.c **** CPU_CHAR  *Str_Char_N (const  CPU_CHAR    *pstr,
1351:../Dave/Generated/UCPROBE/lib_str.c ****                               CPU_SIZE_T   len_max,
1352:../Dave/Generated/UCPROBE/lib_str.c ****                               CPU_CHAR     srch_char)
1353:../Dave/Generated/UCPROBE/lib_str.c **** {
 1226              	 .loc 1 1353 0
 1227              	 .cfi_startproc
 1228              	 
 1229              	 
 1230              	 
 1231 0000 80B4     	 push {r7}
 1232              	.LCFI59:
 1233              	 .cfi_def_cfa_offset 4
 1234              	 .cfi_offset 7,-4
 1235 0002 87B0     	 sub sp,sp,#28
 1236              	.LCFI60:
 1237              	 .cfi_def_cfa_offset 32
 1238 0004 00AF     	 add r7,sp,#0
 1239              	.LCFI61:
 1240              	 .cfi_def_cfa_register 7
 1241 0006 F860     	 str r0,[r7,#12]
 1242 0008 B960     	 str r1,[r7,#8]
 1243 000a 1346     	 mov r3,r2
 1244 000c FB71     	 strb r3,[r7,#7]
1354:../Dave/Generated/UCPROBE/lib_str.c ****     const  CPU_CHAR    *pstr_char;
1355:../Dave/Generated/UCPROBE/lib_str.c ****            CPU_SIZE_T   len_srch;
1356:../Dave/Generated/UCPROBE/lib_str.c **** 
1357:../Dave/Generated/UCPROBE/lib_str.c **** 
1358:../Dave/Generated/UCPROBE/lib_str.c ****     if (pstr == (const CPU_CHAR *)0) {                          /* Rtn NULL if srch str ptr NULL (s
 1245              	 .loc 1 1358 0
 1246 000e FB68     	 ldr r3,[r7,#12]
 1247 0010 002B     	 cmp r3,#0
 1248 0012 01D1     	 bne .L75
1359:../Dave/Generated/UCPROBE/lib_str.c ****         return ((CPU_CHAR *)0);
 1249              	 .loc 1 1359 0
 1250 0014 0023     	 movs r3,#0
 1251 0016 32E0     	 b .L76
 1252              	.L75:
1360:../Dave/Generated/UCPROBE/lib_str.c ****     }
1361:../Dave/Generated/UCPROBE/lib_str.c **** 
1362:../Dave/Generated/UCPROBE/lib_str.c ****     if (len_max < 1) {                                          /* Rtn NULL if srch len = 0      (s
 1253              	 .loc 1 1362 0
 1254 0018 BB68     	 ldr r3,[r7,#8]
 1255 001a 002B     	 cmp r3,#0
 1256 001c 01D1     	 bne .L77
1363:../Dave/Generated/UCPROBE/lib_str.c ****         return ((CPU_CHAR *)0);
 1257              	 .loc 1 1363 0
 1258 001e 0023     	 movs r3,#0
 1259 0020 2DE0     	 b .L76
 1260              	.L77:
1364:../Dave/Generated/UCPROBE/lib_str.c ****     }
1365:../Dave/Generated/UCPROBE/lib_str.c **** 
1366:../Dave/Generated/UCPROBE/lib_str.c **** 
1367:../Dave/Generated/UCPROBE/lib_str.c ****     pstr_char = pstr;
 1261              	 .loc 1 1367 0
 1262 0022 FB68     	 ldr r3,[r7,#12]
 1263 0024 7B61     	 str r3,[r7,#20]
1368:../Dave/Generated/UCPROBE/lib_str.c ****     len_srch  = 0u;
 1264              	 .loc 1 1368 0
 1265 0026 0023     	 movs r3,#0
 1266 0028 3B61     	 str r3,[r7,#16]
1369:../Dave/Generated/UCPROBE/lib_str.c **** 
1370:../Dave/Generated/UCPROBE/lib_str.c ****     while (( pstr_char != (const CPU_CHAR *)  0 )      &&       /* Srch str until NULL ptr     [see
 1267              	 .loc 1 1370 0
 1268 002a 05E0     	 b .L78
 1269              	.L80:
1371:../Dave/Generated/UCPROBE/lib_str.c ****            (*pstr_char != (      CPU_CHAR  )'\0')      &&       /* ... or NULL char            (see
1372:../Dave/Generated/UCPROBE/lib_str.c ****            (*pstr_char != (      CPU_CHAR  )srch_char) &&       /* ... or srch char found      (see
1373:../Dave/Generated/UCPROBE/lib_str.c ****            ( len_srch  <  (      CPU_SIZE_T)len_max)) {         /* ... or max nbr chars srch'd (see
1374:../Dave/Generated/UCPROBE/lib_str.c ****         pstr_char++;
 1270              	 .loc 1 1374 0
 1271 002c 7B69     	 ldr r3,[r7,#20]
 1272 002e 0133     	 adds r3,r3,#1
 1273 0030 7B61     	 str r3,[r7,#20]
1375:../Dave/Generated/UCPROBE/lib_str.c ****         len_srch++;
 1274              	 .loc 1 1375 0
 1275 0032 3B69     	 ldr r3,[r7,#16]
 1276 0034 0133     	 adds r3,r3,#1
 1277 0036 3B61     	 str r3,[r7,#16]
 1278              	.L78:
1370:../Dave/Generated/UCPROBE/lib_str.c ****            (*pstr_char != (      CPU_CHAR  )'\0')      &&       /* ... or NULL char            (see
 1279              	 .loc 1 1370 0
 1280 0038 7B69     	 ldr r3,[r7,#20]
 1281 003a 002B     	 cmp r3,#0
 1282 003c 0CD0     	 beq .L79
1371:../Dave/Generated/UCPROBE/lib_str.c ****            (*pstr_char != (      CPU_CHAR  )'\0')      &&       /* ... or NULL char            (see
 1283              	 .loc 1 1371 0 discriminator 1
 1284 003e 7B69     	 ldr r3,[r7,#20]
 1285 0040 1B78     	 ldrb r3,[r3]
1370:../Dave/Generated/UCPROBE/lib_str.c ****            (*pstr_char != (      CPU_CHAR  )'\0')      &&       /* ... or NULL char            (see
 1286              	 .loc 1 1370 0 discriminator 1
 1287 0042 002B     	 cmp r3,#0
 1288 0044 08D0     	 beq .L79
1372:../Dave/Generated/UCPROBE/lib_str.c ****            ( len_srch  <  (      CPU_SIZE_T)len_max)) {         /* ... or max nbr chars srch'd (see
 1289              	 .loc 1 1372 0
 1290 0046 7B69     	 ldr r3,[r7,#20]
 1291 0048 1B78     	 ldrb r3,[r3]
1371:../Dave/Generated/UCPROBE/lib_str.c ****            (*pstr_char != (      CPU_CHAR  )srch_char) &&       /* ... or srch char found      (see
 1292              	 .loc 1 1371 0
 1293 004a FA79     	 ldrb r2,[r7,#7]
 1294 004c 9A42     	 cmp r2,r3
 1295 004e 03D0     	 beq .L79
1372:../Dave/Generated/UCPROBE/lib_str.c ****            ( len_srch  <  (      CPU_SIZE_T)len_max)) {         /* ... or max nbr chars srch'd (see
 1296              	 .loc 1 1372 0
 1297 0050 3A69     	 ldr r2,[r7,#16]
 1298 0052 BB68     	 ldr r3,[r7,#8]
 1299 0054 9A42     	 cmp r2,r3
 1300 0056 E9D3     	 bcc .L80
 1301              	.L79:
1376:../Dave/Generated/UCPROBE/lib_str.c ****     }
1377:../Dave/Generated/UCPROBE/lib_str.c **** 
1378:../Dave/Generated/UCPROBE/lib_str.c **** 
1379:../Dave/Generated/UCPROBE/lib_str.c ****     if (pstr_char == (const CPU_CHAR *)0) {                     /* Rtn NULL if NULL ptr found      
 1302              	 .loc 1 1379 0
 1303 0058 7B69     	 ldr r3,[r7,#20]
 1304 005a 002B     	 cmp r3,#0
 1305 005c 01D1     	 bne .L81
1380:../Dave/Generated/UCPROBE/lib_str.c ****         return ((CPU_CHAR *)0);
 1306              	 .loc 1 1380 0
 1307 005e 0023     	 movs r3,#0
 1308 0060 0DE0     	 b .L76
 1309              	.L81:
1381:../Dave/Generated/UCPROBE/lib_str.c ****     }
1382:../Dave/Generated/UCPROBE/lib_str.c **** 
1383:../Dave/Generated/UCPROBE/lib_str.c ****     if (len_srch >= len_max) {                                  /* Rtn NULL if srch char NOT found 
 1310              	 .loc 1 1383 0
 1311 0062 3A69     	 ldr r2,[r7,#16]
 1312 0064 BB68     	 ldr r3,[r7,#8]
 1313 0066 9A42     	 cmp r2,r3
 1314 0068 01D3     	 bcc .L82
1384:../Dave/Generated/UCPROBE/lib_str.c ****         return ((CPU_CHAR *)0);                                 /* ... within max nbr of chars     
 1315              	 .loc 1 1384 0
 1316 006a 0023     	 movs r3,#0
 1317 006c 07E0     	 b .L76
 1318              	.L82:
1385:../Dave/Generated/UCPROBE/lib_str.c ****     }
1386:../Dave/Generated/UCPROBE/lib_str.c **** 
1387:../Dave/Generated/UCPROBE/lib_str.c ****     if (*pstr_char != srch_char) {                              /* Rtn NULL if srch char NOT found 
 1319              	 .loc 1 1387 0
 1320 006e 7B69     	 ldr r3,[r7,#20]
 1321 0070 1B78     	 ldrb r3,[r3]
 1322 0072 FA79     	 ldrb r2,[r7,#7]
 1323 0074 9A42     	 cmp r2,r3
 1324 0076 01D0     	 beq .L83
1388:../Dave/Generated/UCPROBE/lib_str.c ****          return ((CPU_CHAR *)0);
 1325              	 .loc 1 1388 0
 1326 0078 0023     	 movs r3,#0
 1327 007a 00E0     	 b .L76
 1328              	.L83:
1389:../Dave/Generated/UCPROBE/lib_str.c ****     }
1390:../Dave/Generated/UCPROBE/lib_str.c **** 
1391:../Dave/Generated/UCPROBE/lib_str.c **** 
1392:../Dave/Generated/UCPROBE/lib_str.c ****     return ((CPU_CHAR *)pstr_char);                             /* Else rtn ptr to found srch char 
 1329              	 .loc 1 1392 0
 1330 007c 7B69     	 ldr r3,[r7,#20]
 1331              	.L76:
1393:../Dave/Generated/UCPROBE/lib_str.c **** }
 1332              	 .loc 1 1393 0
 1333 007e 1846     	 mov r0,r3
 1334 0080 1C37     	 adds r7,r7,#28
 1335              	.LCFI62:
 1336              	 .cfi_def_cfa_offset 4
 1337 0082 BD46     	 mov sp,r7
 1338              	.LCFI63:
 1339              	 .cfi_def_cfa_register 13
 1340              	 
 1341 0084 5DF8047B 	 ldr r7,[sp],#4
 1342              	.LCFI64:
 1343              	 .cfi_restore 7
 1344              	 .cfi_def_cfa_offset 0
 1345 0088 7047     	 bx lr
 1346              	 .cfi_endproc
 1347              	.LFE11:
 1349 008a 00BF     	 .section .text.Str_Char_Last,"ax",%progbits
 1350              	 .align 2
 1351              	 .global Str_Char_Last
 1352              	 .thumb
 1353              	 .thumb_func
 1355              	Str_Char_Last:
 1356              	.LFB12:
1394:../Dave/Generated/UCPROBE/lib_str.c **** 
1395:../Dave/Generated/UCPROBE/lib_str.c **** 
1396:../Dave/Generated/UCPROBE/lib_str.c **** /*
1397:../Dave/Generated/UCPROBE/lib_str.c **** ***************************************************************************************************
1398:../Dave/Generated/UCPROBE/lib_str.c **** *                                           Str_Char_Last()
1399:../Dave/Generated/UCPROBE/lib_str.c **** *
1400:../Dave/Generated/UCPROBE/lib_str.c **** * Description : Search string for last occurrence of specific character.
1401:../Dave/Generated/UCPROBE/lib_str.c **** *
1402:../Dave/Generated/UCPROBE/lib_str.c **** * Argument(s) : pstr            Pointer to string (see Note #1).
1403:../Dave/Generated/UCPROBE/lib_str.c **** *
1404:../Dave/Generated/UCPROBE/lib_str.c **** *               srch_char       Search character.
1405:../Dave/Generated/UCPROBE/lib_str.c **** *
1406:../Dave/Generated/UCPROBE/lib_str.c **** * Return(s)   : Pointer to last occurrence of search character in string, if any    (see Note #2b1)
1407:../Dave/Generated/UCPROBE/lib_str.c **** *
1408:../Dave/Generated/UCPROBE/lib_str.c **** *               Pointer to NULL,                                          otherwise (see Note #2b2)
1409:../Dave/Generated/UCPROBE/lib_str.c **** *
1410:../Dave/Generated/UCPROBE/lib_str.c **** * Caller(s)   : Application.
1411:../Dave/Generated/UCPROBE/lib_str.c **** *
1412:../Dave/Generated/UCPROBE/lib_str.c **** * Note(s)     : (1) String buffer NOT modified.
1413:../Dave/Generated/UCPROBE/lib_str.c **** *
1414:../Dave/Generated/UCPROBE/lib_str.c **** *               (2) (a) IEEE Std 1003.1, 2004 Edition, Section 'strrchr() : DESCRIPTION' states tha
1415:../Dave/Generated/UCPROBE/lib_str.c **** *
1416:../Dave/Generated/UCPROBE/lib_str.c **** *                       (1) "The strrchr() function shall locate the last occurrence of 'c' ('srch_
1417:../Dave/Generated/UCPROBE/lib_str.c **** *                            ... in the string pointed to by 's' ('pstr')."
1418:../Dave/Generated/UCPROBE/lib_str.c **** *                       (2) "The terminating null byte is considered to be part of the string."
1419:../Dave/Generated/UCPROBE/lib_str.c **** *
1420:../Dave/Generated/UCPROBE/lib_str.c **** *                   (b) IEEE Std 1003.1, 2004 Edition, Section 'strrchr() : RETURN VALUE' states th
1421:../Dave/Generated/UCPROBE/lib_str.c **** *                       "upon successful completion, strrchr() shall return" :
1422:../Dave/Generated/UCPROBE/lib_str.c **** *
1423:../Dave/Generated/UCPROBE/lib_str.c **** *                       (1) "a pointer to the byte" ...
1424:../Dave/Generated/UCPROBE/lib_str.c **** *                       (2) "or a null pointer if 'c' ('srch_char') does not occur in the string."
1425:../Dave/Generated/UCPROBE/lib_str.c **** *                           (A) #### Although NO strrchr() specification states to return NULL for
1426:../Dave/Generated/UCPROBE/lib_str.c **** *                               any other reason(s), NULL is also returned for any error(s).
1427:../Dave/Generated/UCPROBE/lib_str.c **** *
1428:../Dave/Generated/UCPROBE/lib_str.c **** *               (3) String search terminates when :
1429:../Dave/Generated/UCPROBE/lib_str.c **** *
1430:../Dave/Generated/UCPROBE/lib_str.c **** *                   (a) String pointer passed a NULL pointer.
1431:../Dave/Generated/UCPROBE/lib_str.c **** *                       (1) No string search performed; NULL pointer returned.
1432:../Dave/Generated/UCPROBE/lib_str.c **** *
1433:../Dave/Generated/UCPROBE/lib_str.c **** *                   (b) String pointer points to NULL.
1434:../Dave/Generated/UCPROBE/lib_str.c **** *                       (1) String overlaps with NULL address; NULL pointer returned.
1435:../Dave/Generated/UCPROBE/lib_str.c **** *
1436:../Dave/Generated/UCPROBE/lib_str.c **** *                   (c) String searched from end to beginning.
1437:../Dave/Generated/UCPROBE/lib_str.c **** *                       (1) Search character NOT found in search string; NULL pointer returned.
1438:../Dave/Generated/UCPROBE/lib_str.c **** *                       (2) Applicable even if search character is the terminating NULL character
1439:../Dave/Generated/UCPROBE/lib_str.c **** *                           (see Note #2a2).
1440:../Dave/Generated/UCPROBE/lib_str.c **** *
1441:../Dave/Generated/UCPROBE/lib_str.c **** *                   (d) Search character found.
1442:../Dave/Generated/UCPROBE/lib_str.c **** *                       (1) Return pointer to last occurrence of search character in search string
1443:../Dave/Generated/UCPROBE/lib_str.c **** *                           (see Note #2a1).
1444:../Dave/Generated/UCPROBE/lib_str.c **** ***************************************************************************************************
1445:../Dave/Generated/UCPROBE/lib_str.c **** */
1446:../Dave/Generated/UCPROBE/lib_str.c **** 
1447:../Dave/Generated/UCPROBE/lib_str.c **** CPU_CHAR  *Str_Char_Last (const  CPU_CHAR  *pstr,
1448:../Dave/Generated/UCPROBE/lib_str.c ****                                  CPU_CHAR   srch_char)
1449:../Dave/Generated/UCPROBE/lib_str.c **** {
 1357              	 .loc 1 1449 0
 1358              	 .cfi_startproc
 1359              	 
 1360              	 
 1361 0000 80B5     	 push {r7,lr}
 1362              	.LCFI65:
 1363              	 .cfi_def_cfa_offset 8
 1364              	 .cfi_offset 7,-8
 1365              	 .cfi_offset 14,-4
 1366 0002 84B0     	 sub sp,sp,#16
 1367              	.LCFI66:
 1368              	 .cfi_def_cfa_offset 24
 1369 0004 00AF     	 add r7,sp,#0
 1370              	.LCFI67:
 1371              	 .cfi_def_cfa_register 7
 1372 0006 7860     	 str r0,[r7,#4]
 1373 0008 0B46     	 mov r3,r1
 1374 000a FB70     	 strb r3,[r7,#3]
1450:../Dave/Generated/UCPROBE/lib_str.c ****     CPU_CHAR  *pstr_rtn;
1451:../Dave/Generated/UCPROBE/lib_str.c **** 
1452:../Dave/Generated/UCPROBE/lib_str.c **** 
1453:../Dave/Generated/UCPROBE/lib_str.c ****     pstr_rtn = Str_Char_Last_N(pstr,
 1375              	 .loc 1 1453 0
 1376 000c FB78     	 ldrb r3,[r7,#3]
 1377 000e 7868     	 ldr r0,[r7,#4]
 1378 0010 4FF0FF31 	 mov r1,#-1
 1379 0014 1A46     	 mov r2,r3
 1380 0016 FFF7FEFF 	 bl Str_Char_Last_N
 1381 001a F860     	 str r0,[r7,#12]
1454:../Dave/Generated/UCPROBE/lib_str.c ****                                DEF_INT_CPU_U_MAX_VAL,
1455:../Dave/Generated/UCPROBE/lib_str.c ****                                srch_char);
1456:../Dave/Generated/UCPROBE/lib_str.c **** 
1457:../Dave/Generated/UCPROBE/lib_str.c ****     return (pstr_rtn);
 1382              	 .loc 1 1457 0
 1383 001c FB68     	 ldr r3,[r7,#12]
1458:../Dave/Generated/UCPROBE/lib_str.c **** }
 1384              	 .loc 1 1458 0
 1385 001e 1846     	 mov r0,r3
 1386 0020 1037     	 adds r7,r7,#16
 1387              	.LCFI68:
 1388              	 .cfi_def_cfa_offset 8
 1389 0022 BD46     	 mov sp,r7
 1390              	.LCFI69:
 1391              	 .cfi_def_cfa_register 13
 1392              	 
 1393 0024 80BD     	 pop {r7,pc}
 1394              	 .cfi_endproc
 1395              	.LFE12:
 1397 0026 00BF     	 .section .text.Str_Char_Last_N,"ax",%progbits
 1398              	 .align 2
 1399              	 .global Str_Char_Last_N
 1400              	 .thumb
 1401              	 .thumb_func
 1403              	Str_Char_Last_N:
 1404              	.LFB13:
1459:../Dave/Generated/UCPROBE/lib_str.c **** 
1460:../Dave/Generated/UCPROBE/lib_str.c **** 
1461:../Dave/Generated/UCPROBE/lib_str.c **** /*
1462:../Dave/Generated/UCPROBE/lib_str.c **** ***************************************************************************************************
1463:../Dave/Generated/UCPROBE/lib_str.c **** *                                          Str_Char_Last_N()
1464:../Dave/Generated/UCPROBE/lib_str.c **** *
1465:../Dave/Generated/UCPROBE/lib_str.c **** * Description : Search string for last occurrence of specific character, up to a maximum number
1466:../Dave/Generated/UCPROBE/lib_str.c **** *                   of characters.
1467:../Dave/Generated/UCPROBE/lib_str.c **** *
1468:../Dave/Generated/UCPROBE/lib_str.c **** * Argument(s) : pstr            Pointer to string (see Note #1).
1469:../Dave/Generated/UCPROBE/lib_str.c **** *
1470:../Dave/Generated/UCPROBE/lib_str.c **** *               len_max         Maximum number of characters to search (see Notes #2c & #3e).
1471:../Dave/Generated/UCPROBE/lib_str.c **** *
1472:../Dave/Generated/UCPROBE/lib_str.c **** *               srch_char       Search character.
1473:../Dave/Generated/UCPROBE/lib_str.c **** *
1474:../Dave/Generated/UCPROBE/lib_str.c **** * Return(s)   : Pointer to last occurrence of search character in string, if any    (see Note #2b1)
1475:../Dave/Generated/UCPROBE/lib_str.c **** *
1476:../Dave/Generated/UCPROBE/lib_str.c **** *               Pointer to NULL,                                          otherwise (see Note #2b2)
1477:../Dave/Generated/UCPROBE/lib_str.c **** *
1478:../Dave/Generated/UCPROBE/lib_str.c **** * Caller(s)   : Application.
1479:../Dave/Generated/UCPROBE/lib_str.c **** *
1480:../Dave/Generated/UCPROBE/lib_str.c **** * Note(s)     : (1) String buffer NOT modified.
1481:../Dave/Generated/UCPROBE/lib_str.c **** *
1482:../Dave/Generated/UCPROBE/lib_str.c **** *               (2) (a) IEEE Std 1003.1, 2004 Edition, Section 'strrchr() : DESCRIPTION' states tha
1483:../Dave/Generated/UCPROBE/lib_str.c **** *
1484:../Dave/Generated/UCPROBE/lib_str.c **** *                       (1) "The strrchr() function shall locate the last occurrence of 'c' ('srch_
1485:../Dave/Generated/UCPROBE/lib_str.c **** *                            ... in the string pointed to by 's' ('pstr')."
1486:../Dave/Generated/UCPROBE/lib_str.c **** *                       (2) "The terminating null byte is considered to be part of the string."
1487:../Dave/Generated/UCPROBE/lib_str.c **** *
1488:../Dave/Generated/UCPROBE/lib_str.c **** *                   (b) IEEE Std 1003.1, 2004 Edition, Section 'strrchr() : RETURN VALUE' states th
1489:../Dave/Generated/UCPROBE/lib_str.c **** *                       "upon successful completion, strrchr() shall return" :
1490:../Dave/Generated/UCPROBE/lib_str.c **** *
1491:../Dave/Generated/UCPROBE/lib_str.c **** *                       (1) "a pointer to the byte" ...
1492:../Dave/Generated/UCPROBE/lib_str.c **** *                       (2) "or a null pointer if 'c' ('srch_char') does not occur in the string."
1493:../Dave/Generated/UCPROBE/lib_str.c **** *                           (A) #### Although NO strrchr() specification states to return NULL for
1494:../Dave/Generated/UCPROBE/lib_str.c **** *                               any other reason(s), NULL is also returned for any error(s).
1495:../Dave/Generated/UCPROBE/lib_str.c **** *
1496:../Dave/Generated/UCPROBE/lib_str.c **** *                   (c) Ideally, the 'len_max' argument would be the last argument in this function
1497:../Dave/Generated/UCPROBE/lib_str.c **** *                       argument list for consistency with all other custom string library function
1498:../Dave/Generated/UCPROBE/lib_str.c **** *                       However, the 'len_max' argument is sequentially ordered as the second argum
1499:../Dave/Generated/UCPROBE/lib_str.c **** *                       to comply with most standard library's strnrchr() argument list.
1500:../Dave/Generated/UCPROBE/lib_str.c **** *
1501:../Dave/Generated/UCPROBE/lib_str.c **** *                       See also 'Str_Char_N()  Note #2c'.
1502:../Dave/Generated/UCPROBE/lib_str.c **** *
1503:../Dave/Generated/UCPROBE/lib_str.c **** *               (3) String search terminates when :
1504:../Dave/Generated/UCPROBE/lib_str.c **** *
1505:../Dave/Generated/UCPROBE/lib_str.c **** *                   (a) String pointer passed a NULL pointer.
1506:../Dave/Generated/UCPROBE/lib_str.c **** *                       (1) No string search performed; NULL pointer returned.
1507:../Dave/Generated/UCPROBE/lib_str.c **** *
1508:../Dave/Generated/UCPROBE/lib_str.c **** *                   (b) String pointer points to NULL.
1509:../Dave/Generated/UCPROBE/lib_str.c **** *                       (1) String overlaps with NULL address; NULL pointer returned.
1510:../Dave/Generated/UCPROBE/lib_str.c **** *
1511:../Dave/Generated/UCPROBE/lib_str.c **** *                   (c) String searched from end to beginning.
1512:../Dave/Generated/UCPROBE/lib_str.c **** *                       (1) Search character NOT found in search string; NULL pointer returned
1513:../Dave/Generated/UCPROBE/lib_str.c **** *                           (see Note #2b2).
1514:../Dave/Generated/UCPROBE/lib_str.c **** *                       (2) Applicable even if search character is the terminating NULL character
1515:../Dave/Generated/UCPROBE/lib_str.c **** *                           (see Note #2a2).
1516:../Dave/Generated/UCPROBE/lib_str.c **** *
1517:../Dave/Generated/UCPROBE/lib_str.c **** *                   (d) Search character found.
1518:../Dave/Generated/UCPROBE/lib_str.c **** *                       (1) Return pointer to last occurrence of search character in search string
1519:../Dave/Generated/UCPROBE/lib_str.c **** *                           (see Note #2a1).
1520:../Dave/Generated/UCPROBE/lib_str.c **** *
1521:../Dave/Generated/UCPROBE/lib_str.c **** *                   (e) 'len_max' number of characters searched.
1522:../Dave/Generated/UCPROBE/lib_str.c **** *                       (1) Search character NOT found in search string within last 'len_max' numbe
1523:../Dave/Generated/UCPROBE/lib_str.c **** *                           of characters; NULL pointer returned.
1524:../Dave/Generated/UCPROBE/lib_str.c **** *                       (2) 'len_max' number of characters MAY include terminating NULL character
1525:../Dave/Generated/UCPROBE/lib_str.c **** *                           (see Note #2a2).
1526:../Dave/Generated/UCPROBE/lib_str.c **** ***************************************************************************************************
1527:../Dave/Generated/UCPROBE/lib_str.c **** */
1528:../Dave/Generated/UCPROBE/lib_str.c **** 
1529:../Dave/Generated/UCPROBE/lib_str.c **** CPU_CHAR  *Str_Char_Last_N (const  CPU_CHAR    *pstr,
1530:../Dave/Generated/UCPROBE/lib_str.c ****                                    CPU_SIZE_T   len_max,
1531:../Dave/Generated/UCPROBE/lib_str.c ****                                    CPU_CHAR     srch_char)
1532:../Dave/Generated/UCPROBE/lib_str.c **** {
 1405              	 .loc 1 1532 0
 1406              	 .cfi_startproc
 1407              	 
 1408              	 
 1409 0000 80B5     	 push {r7,lr}
 1410              	.LCFI70:
 1411              	 .cfi_def_cfa_offset 8
 1412              	 .cfi_offset 7,-8
 1413              	 .cfi_offset 14,-4
 1414 0002 88B0     	 sub sp,sp,#32
 1415              	.LCFI71:
 1416              	 .cfi_def_cfa_offset 40
 1417 0004 00AF     	 add r7,sp,#0
 1418              	.LCFI72:
 1419              	 .cfi_def_cfa_register 7
 1420 0006 F860     	 str r0,[r7,#12]
 1421 0008 B960     	 str r1,[r7,#8]
 1422 000a 1346     	 mov r3,r2
 1423 000c FB71     	 strb r3,[r7,#7]
1533:../Dave/Generated/UCPROBE/lib_str.c ****     const  CPU_CHAR    *pstr_char;
1534:../Dave/Generated/UCPROBE/lib_str.c ****            CPU_SIZE_T   str_len_max;
1535:../Dave/Generated/UCPROBE/lib_str.c ****            CPU_SIZE_T   str_len;
1536:../Dave/Generated/UCPROBE/lib_str.c **** 
1537:../Dave/Generated/UCPROBE/lib_str.c **** 
1538:../Dave/Generated/UCPROBE/lib_str.c ****     if (pstr == (const CPU_CHAR *)0) {                          /* Rtn NULL if srch str ptr NULL (s
 1424              	 .loc 1 1538 0
 1425 000e FB68     	 ldr r3,[r7,#12]
 1426 0010 002B     	 cmp r3,#0
 1427 0012 01D1     	 bne .L87
1539:../Dave/Generated/UCPROBE/lib_str.c ****         return ((CPU_CHAR *)0);
 1428              	 .loc 1 1539 0
 1429 0014 0023     	 movs r3,#0
 1430 0016 2CE0     	 b .L88
 1431              	.L87:
1540:../Dave/Generated/UCPROBE/lib_str.c ****     }
1541:../Dave/Generated/UCPROBE/lib_str.c **** 
1542:../Dave/Generated/UCPROBE/lib_str.c ****     if (len_max < 1) {                                          /* Rtn NULL if srch len = 0      (s
 1432              	 .loc 1 1542 0
 1433 0018 BB68     	 ldr r3,[r7,#8]
 1434 001a 002B     	 cmp r3,#0
 1435 001c 01D1     	 bne .L89
1543:../Dave/Generated/UCPROBE/lib_str.c ****         return ((CPU_CHAR *)0);
 1436              	 .loc 1 1543 0
 1437 001e 0023     	 movs r3,#0
 1438 0020 27E0     	 b .L88
 1439              	.L89:
1544:../Dave/Generated/UCPROBE/lib_str.c ****     }
1545:../Dave/Generated/UCPROBE/lib_str.c **** 
1546:../Dave/Generated/UCPROBE/lib_str.c **** 
1547:../Dave/Generated/UCPROBE/lib_str.c ****     pstr_char    = pstr;
 1440              	 .loc 1 1547 0
 1441 0022 FB68     	 ldr r3,[r7,#12]
 1442 0024 FB61     	 str r3,[r7,#28]
1548:../Dave/Generated/UCPROBE/lib_str.c ****      str_len_max = len_max - sizeof((CPU_CHAR)'\0');            /* Str len adj'd for NULL char len.
 1443              	 .loc 1 1548 0
 1444 0026 BB68     	 ldr r3,[r7,#8]
 1445 0028 013B     	 subs r3,r3,#1
 1446 002a BB61     	 str r3,[r7,#24]
1549:../Dave/Generated/UCPROBE/lib_str.c ****      str_len     = Str_Len_N(pstr_char, str_len_max);
 1447              	 .loc 1 1549 0
 1448 002c F869     	 ldr r0,[r7,#28]
 1449 002e B969     	 ldr r1,[r7,#24]
 1450 0030 FFF7FEFF 	 bl Str_Len_N
 1451 0034 7861     	 str r0,[r7,#20]
1550:../Dave/Generated/UCPROBE/lib_str.c ****     pstr_char   += str_len;
 1452              	 .loc 1 1550 0
 1453 0036 FA69     	 ldr r2,[r7,#28]
 1454 0038 7B69     	 ldr r3,[r7,#20]
 1455 003a 1344     	 add r3,r3,r2
 1456 003c FB61     	 str r3,[r7,#28]
1551:../Dave/Generated/UCPROBE/lib_str.c **** 
1552:../Dave/Generated/UCPROBE/lib_str.c ****     if (pstr_char == (const CPU_CHAR *)0) {                     /* Rtn NULL if NULL ptr found      
 1457              	 .loc 1 1552 0
 1458 003e FB69     	 ldr r3,[r7,#28]
 1459 0040 002B     	 cmp r3,#0
 1460 0042 01D1     	 bne .L90
1553:../Dave/Generated/UCPROBE/lib_str.c ****         return ((CPU_CHAR *)0);
 1461              	 .loc 1 1553 0
 1462 0044 0023     	 movs r3,#0
 1463 0046 14E0     	 b .L88
 1464              	.L90:
1554:../Dave/Generated/UCPROBE/lib_str.c ****     }
1555:../Dave/Generated/UCPROBE/lib_str.c **** 
1556:../Dave/Generated/UCPROBE/lib_str.c ****     while (( pstr_char != pstr) &&                              /* Srch str from end until beginnin
 1465              	 .loc 1 1556 0
 1466 0048 02E0     	 b .L91
 1467              	.L93:
1557:../Dave/Generated/UCPROBE/lib_str.c ****            (*pstr_char != srch_char)) {                         /* ... until srch char found       
1558:../Dave/Generated/UCPROBE/lib_str.c ****         pstr_char--;
 1468              	 .loc 1 1558 0
 1469 004a FB69     	 ldr r3,[r7,#28]
 1470 004c 013B     	 subs r3,r3,#1
 1471 004e FB61     	 str r3,[r7,#28]
 1472              	.L91:
1556:../Dave/Generated/UCPROBE/lib_str.c ****            (*pstr_char != srch_char)) {                         /* ... until srch char found       
 1473              	 .loc 1 1556 0
 1474 0050 FA69     	 ldr r2,[r7,#28]
 1475 0052 FB68     	 ldr r3,[r7,#12]
 1476 0054 9A42     	 cmp r2,r3
 1477 0056 04D0     	 beq .L92
1557:../Dave/Generated/UCPROBE/lib_str.c ****            (*pstr_char != srch_char)) {                         /* ... until srch char found       
 1478              	 .loc 1 1557 0 discriminator 1
 1479 0058 FB69     	 ldr r3,[r7,#28]
 1480 005a 1B78     	 ldrb r3,[r3]
1556:../Dave/Generated/UCPROBE/lib_str.c ****            (*pstr_char != srch_char)) {                         /* ... until srch char found       
 1481              	 .loc 1 1556 0 discriminator 1
 1482 005c FA79     	 ldrb r2,[r7,#7]
 1483 005e 9A42     	 cmp r2,r3
 1484 0060 F3D1     	 bne .L93
 1485              	.L92:
1559:../Dave/Generated/UCPROBE/lib_str.c ****     }
1560:../Dave/Generated/UCPROBE/lib_str.c **** 
1561:../Dave/Generated/UCPROBE/lib_str.c **** 
1562:../Dave/Generated/UCPROBE/lib_str.c ****     if (*pstr_char != srch_char) {                              /* Rtn NULL if srch char NOT found 
 1486              	 .loc 1 1562 0
 1487 0062 FB69     	 ldr r3,[r7,#28]
 1488 0064 1B78     	 ldrb r3,[r3]
 1489 0066 FA79     	 ldrb r2,[r7,#7]
 1490 0068 9A42     	 cmp r2,r3
 1491 006a 01D0     	 beq .L94
1563:../Dave/Generated/UCPROBE/lib_str.c ****          return ((CPU_CHAR *)0);
 1492              	 .loc 1 1563 0
 1493 006c 0023     	 movs r3,#0
 1494 006e 00E0     	 b .L88
 1495              	.L94:
1564:../Dave/Generated/UCPROBE/lib_str.c ****     }
1565:../Dave/Generated/UCPROBE/lib_str.c **** 
1566:../Dave/Generated/UCPROBE/lib_str.c **** 
1567:../Dave/Generated/UCPROBE/lib_str.c ****     return ((CPU_CHAR *)pstr_char);                             /* Else rtn ptr to found srch char 
 1496              	 .loc 1 1567 0
 1497 0070 FB69     	 ldr r3,[r7,#28]
 1498              	.L88:
1568:../Dave/Generated/UCPROBE/lib_str.c **** }
 1499              	 .loc 1 1568 0
 1500 0072 1846     	 mov r0,r3
 1501 0074 2037     	 adds r7,r7,#32
 1502              	.LCFI73:
 1503              	 .cfi_def_cfa_offset 8
 1504 0076 BD46     	 mov sp,r7
 1505              	.LCFI74:
 1506              	 .cfi_def_cfa_register 13
 1507              	 
 1508 0078 80BD     	 pop {r7,pc}
 1509              	 .cfi_endproc
 1510              	.LFE13:
 1512 007a 00BF     	 .section .text.Str_Char_Replace,"ax",%progbits
 1513              	 .align 2
 1514              	 .global Str_Char_Replace
 1515              	 .thumb
 1516              	 .thumb_func
 1518              	Str_Char_Replace:
 1519              	.LFB14:
1569:../Dave/Generated/UCPROBE/lib_str.c **** 
1570:../Dave/Generated/UCPROBE/lib_str.c **** 
1571:../Dave/Generated/UCPROBE/lib_str.c **** /*
1572:../Dave/Generated/UCPROBE/lib_str.c **** ***************************************************************************************************
1573:../Dave/Generated/UCPROBE/lib_str.c **** *                                         Str_Char_Replace()
1574:../Dave/Generated/UCPROBE/lib_str.c **** *
1575:../Dave/Generated/UCPROBE/lib_str.c **** * Description : Search string for specific character and replace it by another specific character.
1576:../Dave/Generated/UCPROBE/lib_str.c **** *
1577:../Dave/Generated/UCPROBE/lib_str.c **** * Argument(s) : pstr            Pointer to string (see Note #1).
1578:../Dave/Generated/UCPROBE/lib_str.c **** *
1579:../Dave/Generated/UCPROBE/lib_str.c **** *               char_srch       Search character.
1580:../Dave/Generated/UCPROBE/lib_str.c **** *
1581:../Dave/Generated/UCPROBE/lib_str.c **** *               char_replace    Replace character.
1582:../Dave/Generated/UCPROBE/lib_str.c **** *
1583:../Dave/Generated/UCPROBE/lib_str.c **** * Return(s)   : Pointer to string, if NO error(s).
1584:../Dave/Generated/UCPROBE/lib_str.c **** *
1585:../Dave/Generated/UCPROBE/lib_str.c **** *               Pointer to NULL,   otherwise.
1586:../Dave/Generated/UCPROBE/lib_str.c **** *
1587:../Dave/Generated/UCPROBE/lib_str.c **** * Caller(s)   : Application.
1588:../Dave/Generated/UCPROBE/lib_str.c **** *
1589:../Dave/Generated/UCPROBE/lib_str.c **** * Note(s)     : (1) String buffer modified.
1590:../Dave/Generated/UCPROBE/lib_str.c **** *
1591:../Dave/Generated/UCPROBE/lib_str.c **** *               (2) String search terminates when :
1592:../Dave/Generated/UCPROBE/lib_str.c **** *
1593:../Dave/Generated/UCPROBE/lib_str.c **** *                   (a) String pointer passed a NULL pointer.
1594:../Dave/Generated/UCPROBE/lib_str.c **** *                       (1) No string search performed; NULL pointer returned.
1595:../Dave/Generated/UCPROBE/lib_str.c **** *
1596:../Dave/Generated/UCPROBE/lib_str.c **** *                   (b) String pointer points to NULL.
1597:../Dave/Generated/UCPROBE/lib_str.c **** *                       (1) String overlaps with NULL address; NULL pointer returned.
1598:../Dave/Generated/UCPROBE/lib_str.c **** *
1599:../Dave/Generated/UCPROBE/lib_str.c **** *                   (c) String's terminating NULL character found.
1600:../Dave/Generated/UCPROBE/lib_str.c **** *                       (1) Search character NOT found in search string; NULL pointer returned
1601:../Dave/Generated/UCPROBE/lib_str.c **** *                       (2) Applicable even if search character is the terminating NULL character
1602:../Dave/Generated/UCPROBE/lib_str.c **** *
1603:../Dave/Generated/UCPROBE/lib_str.c **** *                   (d) Search character found.
1604:../Dave/Generated/UCPROBE/lib_str.c **** *                       (1) Replace character found by the specified character.
1605:../Dave/Generated/UCPROBE/lib_str.c **** ***************************************************************************************************
1606:../Dave/Generated/UCPROBE/lib_str.c **** */
1607:../Dave/Generated/UCPROBE/lib_str.c **** 
1608:../Dave/Generated/UCPROBE/lib_str.c **** CPU_CHAR  *Str_Char_Replace (CPU_CHAR  *pstr,
1609:../Dave/Generated/UCPROBE/lib_str.c ****                              CPU_CHAR   char_srch,
1610:../Dave/Generated/UCPROBE/lib_str.c ****                              CPU_CHAR   char_replace)
1611:../Dave/Generated/UCPROBE/lib_str.c **** {
 1520              	 .loc 1 1611 0
 1521              	 .cfi_startproc
 1522              	 
 1523              	 
 1524 0000 80B5     	 push {r7,lr}
 1525              	.LCFI75:
 1526              	 .cfi_def_cfa_offset 8
 1527              	 .cfi_offset 7,-8
 1528              	 .cfi_offset 14,-4
 1529 0002 84B0     	 sub sp,sp,#16
 1530              	.LCFI76:
 1531              	 .cfi_def_cfa_offset 24
 1532 0004 00AF     	 add r7,sp,#0
 1533              	.LCFI77:
 1534              	 .cfi_def_cfa_register 7
 1535 0006 7860     	 str r0,[r7,#4]
 1536 0008 0B46     	 mov r3,r1
 1537 000a FB70     	 strb r3,[r7,#3]
 1538 000c 1346     	 mov r3,r2
 1539 000e BB70     	 strb r3,[r7,#2]
1612:../Dave/Generated/UCPROBE/lib_str.c ****     CPU_CHAR  *pstr_rtn;
1613:../Dave/Generated/UCPROBE/lib_str.c **** 
1614:../Dave/Generated/UCPROBE/lib_str.c **** 
1615:../Dave/Generated/UCPROBE/lib_str.c ****     pstr_rtn = Str_Char_Replace_N(pstr,
 1540              	 .loc 1 1615 0
 1541 0010 FA78     	 ldrb r2,[r7,#3]
 1542 0012 BB78     	 ldrb r3,[r7,#2]
 1543 0014 7868     	 ldr r0,[r7,#4]
 1544 0016 1146     	 mov r1,r2
 1545 0018 1A46     	 mov r2,r3
 1546 001a 4FF0FF33 	 mov r3,#-1
 1547 001e FFF7FEFF 	 bl Str_Char_Replace_N
 1548 0022 F860     	 str r0,[r7,#12]
1616:../Dave/Generated/UCPROBE/lib_str.c ****                                   char_srch,
1617:../Dave/Generated/UCPROBE/lib_str.c ****                                   char_replace,
1618:../Dave/Generated/UCPROBE/lib_str.c ****                                   DEF_INT_CPU_U_MAX_VAL);
1619:../Dave/Generated/UCPROBE/lib_str.c **** 
1620:../Dave/Generated/UCPROBE/lib_str.c ****     return (pstr_rtn);
 1549              	 .loc 1 1620 0
 1550 0024 FB68     	 ldr r3,[r7,#12]
1621:../Dave/Generated/UCPROBE/lib_str.c **** }
 1551              	 .loc 1 1621 0
 1552 0026 1846     	 mov r0,r3
 1553 0028 1037     	 adds r7,r7,#16
 1554              	.LCFI78:
 1555              	 .cfi_def_cfa_offset 8
 1556 002a BD46     	 mov sp,r7
 1557              	.LCFI79:
 1558              	 .cfi_def_cfa_register 13
 1559              	 
 1560 002c 80BD     	 pop {r7,pc}
 1561              	 .cfi_endproc
 1562              	.LFE14:
 1564 002e 00BF     	 .section .text.Str_Char_Replace_N,"ax",%progbits
 1565              	 .align 2
 1566              	 .global Str_Char_Replace_N
 1567              	 .thumb
 1568              	 .thumb_func
 1570              	Str_Char_Replace_N:
 1571              	.LFB15:
1622:../Dave/Generated/UCPROBE/lib_str.c **** 
1623:../Dave/Generated/UCPROBE/lib_str.c **** 
1624:../Dave/Generated/UCPROBE/lib_str.c **** /*
1625:../Dave/Generated/UCPROBE/lib_str.c **** ***************************************************************************************************
1626:../Dave/Generated/UCPROBE/lib_str.c **** *                                        Str_Char_Replace_N()
1627:../Dave/Generated/UCPROBE/lib_str.c **** *
1628:../Dave/Generated/UCPROBE/lib_str.c **** * Description : Search string for specific character and replace it by another specific character, 
1629:../Dave/Generated/UCPROBE/lib_str.c **** *               a maximum number of characters.
1630:../Dave/Generated/UCPROBE/lib_str.c **** *
1631:../Dave/Generated/UCPROBE/lib_str.c **** * Argument(s) : pstr            Pointer to string (see Note #1).
1632:../Dave/Generated/UCPROBE/lib_str.c **** *
1633:../Dave/Generated/UCPROBE/lib_str.c **** *               char_srch       Search character.
1634:../Dave/Generated/UCPROBE/lib_str.c **** *
1635:../Dave/Generated/UCPROBE/lib_str.c **** *               char_replace    Replace character.
1636:../Dave/Generated/UCPROBE/lib_str.c **** *
1637:../Dave/Generated/UCPROBE/lib_str.c **** *               len_max         Maximum number of characters to search (see Notes #2c & #3e).
1638:../Dave/Generated/UCPROBE/lib_str.c **** *
1639:../Dave/Generated/UCPROBE/lib_str.c **** * Return(s)   : Pointer to string, if NO error(s).
1640:../Dave/Generated/UCPROBE/lib_str.c **** *
1641:../Dave/Generated/UCPROBE/lib_str.c **** *               Pointer to NULL,   otherwise.
1642:../Dave/Generated/UCPROBE/lib_str.c **** *
1643:../Dave/Generated/UCPROBE/lib_str.c **** * Caller(s)   : Application.
1644:../Dave/Generated/UCPROBE/lib_str.c **** *
1645:../Dave/Generated/UCPROBE/lib_str.c **** * Note(s)     : (1) String buffer modified.
1646:../Dave/Generated/UCPROBE/lib_str.c **** *
1647:../Dave/Generated/UCPROBE/lib_str.c **** *               (2) String search terminates when :
1648:../Dave/Generated/UCPROBE/lib_str.c **** *
1649:../Dave/Generated/UCPROBE/lib_str.c **** *                   (a) String pointer passed a NULL pointer.
1650:../Dave/Generated/UCPROBE/lib_str.c **** *                       (1) No string search performed; NULL pointer returned.
1651:../Dave/Generated/UCPROBE/lib_str.c **** *
1652:../Dave/Generated/UCPROBE/lib_str.c **** *                   (b) String pointer points to NULL.
1653:../Dave/Generated/UCPROBE/lib_str.c **** *                       (1) String overlaps with NULL address; NULL pointer returned.
1654:../Dave/Generated/UCPROBE/lib_str.c **** *
1655:../Dave/Generated/UCPROBE/lib_str.c **** *                   (c) String's terminating NULL character found.
1656:../Dave/Generated/UCPROBE/lib_str.c **** *                       (1) Search character NOT found in search string; NULL pointer returned
1657:../Dave/Generated/UCPROBE/lib_str.c **** *                       (2) Applicable even if search character is the terminating NULL character
1658:../Dave/Generated/UCPROBE/lib_str.c **** *
1659:../Dave/Generated/UCPROBE/lib_str.c **** *                   (d) Search character found.
1660:../Dave/Generated/UCPROBE/lib_str.c **** *                       (1) Replace character found by the specified character.
1661:../Dave/Generated/UCPROBE/lib_str.c **** *
1662:../Dave/Generated/UCPROBE/lib_str.c **** *                   (e) 'len_max' number of characters searched.
1663:../Dave/Generated/UCPROBE/lib_str.c **** *                       (1) Search character NOT found in search string within first 'len_max' numb
1664:../Dave/Generated/UCPROBE/lib_str.c **** *                           of characters; NULL pointer returned.
1665:../Dave/Generated/UCPROBE/lib_str.c **** *                       (2) 'len_max' number of characters MAY include terminating NULL character
1666:../Dave/Generated/UCPROBE/lib_str.c **** *                           (see Note #2a2).
1667:../Dave/Generated/UCPROBE/lib_str.c **** ***************************************************************************************************
1668:../Dave/Generated/UCPROBE/lib_str.c **** */
1669:../Dave/Generated/UCPROBE/lib_str.c **** 
1670:../Dave/Generated/UCPROBE/lib_str.c **** CPU_CHAR  *Str_Char_Replace_N (CPU_CHAR    *pstr,
1671:../Dave/Generated/UCPROBE/lib_str.c ****                                CPU_CHAR     char_srch,
1672:../Dave/Generated/UCPROBE/lib_str.c ****                                CPU_CHAR     char_replace,
1673:../Dave/Generated/UCPROBE/lib_str.c ****                                CPU_SIZE_T   len_max)
1674:../Dave/Generated/UCPROBE/lib_str.c **** {
 1572              	 .loc 1 1674 0
 1573              	 .cfi_startproc
 1574              	 
 1575              	 
 1576              	 
 1577 0000 80B4     	 push {r7}
 1578              	.LCFI80:
 1579              	 .cfi_def_cfa_offset 4
 1580              	 .cfi_offset 7,-4
 1581 0002 87B0     	 sub sp,sp,#28
 1582              	.LCFI81:
 1583              	 .cfi_def_cfa_offset 32
 1584 0004 00AF     	 add r7,sp,#0
 1585              	.LCFI82:
 1586              	 .cfi_def_cfa_register 7
 1587 0006 F860     	 str r0,[r7,#12]
 1588 0008 7B60     	 str r3,[r7,#4]
 1589 000a 0B46     	 mov r3,r1
 1590 000c FB72     	 strb r3,[r7,#11]
 1591 000e 1346     	 mov r3,r2
 1592 0010 BB72     	 strb r3,[r7,#10]
1675:../Dave/Generated/UCPROBE/lib_str.c ****     CPU_CHAR    *pstr_char;
1676:../Dave/Generated/UCPROBE/lib_str.c ****     CPU_SIZE_T   len;
1677:../Dave/Generated/UCPROBE/lib_str.c **** 
1678:../Dave/Generated/UCPROBE/lib_str.c **** 
1679:../Dave/Generated/UCPROBE/lib_str.c ****     if (pstr == (const CPU_CHAR *)0) {                          /* Rtn NULL if srch str ptr NULL (s
 1593              	 .loc 1 1679 0
 1594 0012 FB68     	 ldr r3,[r7,#12]
 1595 0014 002B     	 cmp r3,#0
 1596 0016 01D1     	 bne .L98
1680:../Dave/Generated/UCPROBE/lib_str.c ****         return ((CPU_CHAR *)0);
 1597              	 .loc 1 1680 0
 1598 0018 0023     	 movs r3,#0
 1599 001a 22E0     	 b .L99
 1600              	.L98:
1681:../Dave/Generated/UCPROBE/lib_str.c ****     }
1682:../Dave/Generated/UCPROBE/lib_str.c **** 
1683:../Dave/Generated/UCPROBE/lib_str.c ****     if (len_max < 1) {                                          /* Rtn NULL if srch len = 0      (s
 1601              	 .loc 1 1683 0
 1602 001c 7B68     	 ldr r3,[r7,#4]
 1603 001e 002B     	 cmp r3,#0
 1604 0020 01D1     	 bne .L100
1684:../Dave/Generated/UCPROBE/lib_str.c ****         return ((CPU_CHAR *)0);
 1605              	 .loc 1 1684 0
 1606 0022 0023     	 movs r3,#0
 1607 0024 1DE0     	 b .L99
 1608              	.L100:
1685:../Dave/Generated/UCPROBE/lib_str.c ****     }
1686:../Dave/Generated/UCPROBE/lib_str.c **** 
1687:../Dave/Generated/UCPROBE/lib_str.c ****     pstr_char = pstr;
 1609              	 .loc 1 1687 0
 1610 0026 FB68     	 ldr r3,[r7,#12]
 1611 0028 7B61     	 str r3,[r7,#20]
1688:../Dave/Generated/UCPROBE/lib_str.c ****     len       = len_max;
 1612              	 .loc 1 1688 0
 1613 002a 7B68     	 ldr r3,[r7,#4]
 1614 002c 3B61     	 str r3,[r7,#16]
1689:../Dave/Generated/UCPROBE/lib_str.c **** 
1690:../Dave/Generated/UCPROBE/lib_str.c ****     while (( pstr_char != (const CPU_CHAR *)0) &&               /* Srch str until NULL ptr     [see
 1615              	 .loc 1 1690 0
 1616 002e 0DE0     	 b .L101
 1617              	.L104:
1691:../Dave/Generated/UCPROBE/lib_str.c ****            (*pstr_char !=  ASCII_CHAR_NULL   ) &&               /* ... or NULL char            (see
1692:../Dave/Generated/UCPROBE/lib_str.c ****            ( len        >                   0)) {               /* ... or max nbr chars srch'd (see
1693:../Dave/Generated/UCPROBE/lib_str.c **** 
1694:../Dave/Generated/UCPROBE/lib_str.c ****         if (*pstr_char == char_srch) {
 1618              	 .loc 1 1694 0
 1619 0030 7B69     	 ldr r3,[r7,#20]
 1620 0032 1B78     	 ldrb r3,[r3]
 1621 0034 FA7A     	 ldrb r2,[r7,#11]
 1622 0036 9A42     	 cmp r2,r3
 1623 0038 02D1     	 bne .L102
1695:../Dave/Generated/UCPROBE/lib_str.c ****             *pstr_char  = char_replace;                         /* Replace char if srch char is fou
 1624              	 .loc 1 1695 0
 1625 003a 7B69     	 ldr r3,[r7,#20]
 1626 003c BA7A     	 ldrb r2,[r7,#10]
 1627 003e 1A70     	 strb r2,[r3]
 1628              	.L102:
1696:../Dave/Generated/UCPROBE/lib_str.c ****         }
1697:../Dave/Generated/UCPROBE/lib_str.c **** 
1698:../Dave/Generated/UCPROBE/lib_str.c ****         pstr_char++;
 1629              	 .loc 1 1698 0
 1630 0040 7B69     	 ldr r3,[r7,#20]
 1631 0042 0133     	 adds r3,r3,#1
 1632 0044 7B61     	 str r3,[r7,#20]
1699:../Dave/Generated/UCPROBE/lib_str.c ****         len--;
 1633              	 .loc 1 1699 0
 1634 0046 3B69     	 ldr r3,[r7,#16]
 1635 0048 013B     	 subs r3,r3,#1
 1636 004a 3B61     	 str r3,[r7,#16]
 1637              	.L101:
1690:../Dave/Generated/UCPROBE/lib_str.c ****            (*pstr_char !=  ASCII_CHAR_NULL   ) &&               /* ... or NULL char            (see
 1638              	 .loc 1 1690 0
 1639 004c 7B69     	 ldr r3,[r7,#20]
 1640 004e 002B     	 cmp r3,#0
 1641 0050 06D0     	 beq .L103
1691:../Dave/Generated/UCPROBE/lib_str.c ****            ( len        >                   0)) {               /* ... or max nbr chars srch'd (see
 1642              	 .loc 1 1691 0 discriminator 1
 1643 0052 7B69     	 ldr r3,[r7,#20]
 1644 0054 1B78     	 ldrb r3,[r3]
1690:../Dave/Generated/UCPROBE/lib_str.c ****            (*pstr_char !=  ASCII_CHAR_NULL   ) &&               /* ... or NULL char            (see
 1645              	 .loc 1 1690 0 discriminator 1
 1646 0056 002B     	 cmp r3,#0
 1647 0058 02D0     	 beq .L103
1691:../Dave/Generated/UCPROBE/lib_str.c ****            ( len        >                   0)) {               /* ... or max nbr chars srch'd (see
 1648              	 .loc 1 1691 0
 1649 005a 3B69     	 ldr r3,[r7,#16]
 1650 005c 002B     	 cmp r3,#0
 1651 005e E7D1     	 bne .L104
 1652              	.L103:
1700:../Dave/Generated/UCPROBE/lib_str.c ****     }
1701:../Dave/Generated/UCPROBE/lib_str.c **** 
1702:../Dave/Generated/UCPROBE/lib_str.c ****     return (pstr);
 1653              	 .loc 1 1702 0
 1654 0060 FB68     	 ldr r3,[r7,#12]
 1655              	.L99:
1703:../Dave/Generated/UCPROBE/lib_str.c **** }
 1656              	 .loc 1 1703 0
 1657 0062 1846     	 mov r0,r3
 1658 0064 1C37     	 adds r7,r7,#28
 1659              	.LCFI83:
 1660              	 .cfi_def_cfa_offset 4
 1661 0066 BD46     	 mov sp,r7
 1662              	.LCFI84:
 1663              	 .cfi_def_cfa_register 13
 1664              	 
 1665 0068 5DF8047B 	 ldr r7,[sp],#4
 1666              	.LCFI85:
 1667              	 .cfi_restore 7
 1668              	 .cfi_def_cfa_offset 0
 1669 006c 7047     	 bx lr
 1670              	 .cfi_endproc
 1671              	.LFE15:
 1673 006e 00BF     	 .section .text.Str_Str,"ax",%progbits
 1674              	 .align 2
 1675              	 .global Str_Str
 1676              	 .thumb
 1677              	 .thumb_func
 1679              	Str_Str:
 1680              	.LFB16:
1704:../Dave/Generated/UCPROBE/lib_str.c **** 
1705:../Dave/Generated/UCPROBE/lib_str.c **** 
1706:../Dave/Generated/UCPROBE/lib_str.c **** /*
1707:../Dave/Generated/UCPROBE/lib_str.c **** ***************************************************************************************************
1708:../Dave/Generated/UCPROBE/lib_str.c **** *                                              Str_Str()
1709:../Dave/Generated/UCPROBE/lib_str.c **** *
1710:../Dave/Generated/UCPROBE/lib_str.c **** * Description : Search string for first occurence of a specific search string.
1711:../Dave/Generated/UCPROBE/lib_str.c **** *
1712:../Dave/Generated/UCPROBE/lib_str.c **** * Argument(s) : pstr            Pointer to        string (see Note #1).
1713:../Dave/Generated/UCPROBE/lib_str.c **** *
1714:../Dave/Generated/UCPROBE/lib_str.c **** *               pstr_srch       Pointer to search string (see Note #1).
1715:../Dave/Generated/UCPROBE/lib_str.c **** *
1716:../Dave/Generated/UCPROBE/lib_str.c **** * Return(s)   : Pointer to first occurrence of search string in string, if any                (see 
1717:../Dave/Generated/UCPROBE/lib_str.c **** *
1718:../Dave/Generated/UCPROBE/lib_str.c **** *               Pointer to string,                                      if NULL search string (see 
1719:../Dave/Generated/UCPROBE/lib_str.c **** *
1720:../Dave/Generated/UCPROBE/lib_str.c **** *               Pointer to NULL,                                        otherwise             (see 
1721:../Dave/Generated/UCPROBE/lib_str.c **** *
1722:../Dave/Generated/UCPROBE/lib_str.c **** * Caller(s)   : Application.
1723:../Dave/Generated/UCPROBE/lib_str.c **** *
1724:../Dave/Generated/UCPROBE/lib_str.c **** * Note(s)     : (1) String buffers NOT modified.
1725:../Dave/Generated/UCPROBE/lib_str.c **** *
1726:../Dave/Generated/UCPROBE/lib_str.c **** *               (2) (a) IEEE Std 1003.1, 2004 Edition, Section 'strstr() : DESCRIPTION' states that
1727:../Dave/Generated/UCPROBE/lib_str.c **** *
1728:../Dave/Generated/UCPROBE/lib_str.c **** *                       (1) "The strstr() function shall locate the first occurrence  in the string
1729:../Dave/Generated/UCPROBE/lib_str.c **** *                            pointed to by 's1' ('pstr') of the sequence of bytes ... in the string
1730:../Dave/Generated/UCPROBE/lib_str.c **** *                            pointed to by 's2' ('pstr_srch')" ...
1731:../Dave/Generated/UCPROBE/lib_str.c **** *                       (2) "(excluding the terminating null byte)."
1732:../Dave/Generated/UCPROBE/lib_str.c **** *
1733:../Dave/Generated/UCPROBE/lib_str.c **** *                   (b) IEEE Std 1003.1, 2004 Edition, Section 'strstr() : RETURN VALUE' states tha
1734:../Dave/Generated/UCPROBE/lib_str.c **** *
1735:../Dave/Generated/UCPROBE/lib_str.c **** *                       (1) "Upon successful completion, strstr() shall return" :
1736:../Dave/Generated/UCPROBE/lib_str.c **** *                           (A) "a pointer to the located string" ...
1737:../Dave/Generated/UCPROBE/lib_str.c **** *                           (B) "or a null pointer if the string is not found."
1738:../Dave/Generated/UCPROBE/lib_str.c **** *                               (1) #### Although NO strstr() specification states to return NULL f
1739:../Dave/Generated/UCPROBE/lib_str.c **** *                                   any other reason(s), NULL is also returned for any error(s).
1740:../Dave/Generated/UCPROBE/lib_str.c **** *
1741:../Dave/Generated/UCPROBE/lib_str.c **** *                       (2) "If 's2' ('pstr_srch') points to a string with zero length, the functio
1742:../Dave/Generated/UCPROBE/lib_str.c **** *                            shall return 's1' ('pstr')."
1743:../Dave/Generated/UCPROBE/lib_str.c **** *
1744:../Dave/Generated/UCPROBE/lib_str.c **** *               (3) String search terminates when :
1745:../Dave/Generated/UCPROBE/lib_str.c **** *
1746:../Dave/Generated/UCPROBE/lib_str.c **** *                   (a) String pointer(s) are passed NULL pointers.
1747:../Dave/Generated/UCPROBE/lib_str.c **** *                       (1) No string search performed; NULL pointer returned.
1748:../Dave/Generated/UCPROBE/lib_str.c **** *
1749:../Dave/Generated/UCPROBE/lib_str.c **** *                   (b) String pointer(s) point to NULL.
1750:../Dave/Generated/UCPROBE/lib_str.c **** *                       (1) String buffer(s) overlap with NULL address; NULL pointer returned.
1751:../Dave/Generated/UCPROBE/lib_str.c **** *
1752:../Dave/Generated/UCPROBE/lib_str.c **** *                   (c) Search string length equal to zero.
1753:../Dave/Generated/UCPROBE/lib_str.c **** *                       (1) No string search performed; string pointer returned (see Note #2b2).
1754:../Dave/Generated/UCPROBE/lib_str.c **** *
1755:../Dave/Generated/UCPROBE/lib_str.c **** *                   (d) Search string length greater than string length.
1756:../Dave/Generated/UCPROBE/lib_str.c **** *                       (1) No string search performed; NULL   pointer returned (see Note #2b1B).
1757:../Dave/Generated/UCPROBE/lib_str.c **** *
1758:../Dave/Generated/UCPROBE/lib_str.c **** *                   (e) Entire string has been searched.
1759:../Dave/Generated/UCPROBE/lib_str.c **** *                       (1) Search string not found; NULL pointer returned (see Note #2b1B).
1760:../Dave/Generated/UCPROBE/lib_str.c **** *
1761:../Dave/Generated/UCPROBE/lib_str.c **** *                   (f) Search string found.
1762:../Dave/Generated/UCPROBE/lib_str.c **** *                       (1) Return pointer to first occurrence of search string in string (see Note
1763:../Dave/Generated/UCPROBE/lib_str.c **** ***************************************************************************************************
1764:../Dave/Generated/UCPROBE/lib_str.c **** */
1765:../Dave/Generated/UCPROBE/lib_str.c **** 
1766:../Dave/Generated/UCPROBE/lib_str.c **** CPU_CHAR  *Str_Str (const  CPU_CHAR  *pstr,
1767:../Dave/Generated/UCPROBE/lib_str.c ****                     const  CPU_CHAR  *pstr_srch)
1768:../Dave/Generated/UCPROBE/lib_str.c **** {
 1681              	 .loc 1 1768 0
 1682              	 .cfi_startproc
 1683              	 
 1684              	 
 1685 0000 80B5     	 push {r7,lr}
 1686              	.LCFI86:
 1687              	 .cfi_def_cfa_offset 8
 1688              	 .cfi_offset 7,-8
 1689              	 .cfi_offset 14,-4
 1690 0002 84B0     	 sub sp,sp,#16
 1691              	.LCFI87:
 1692              	 .cfi_def_cfa_offset 24
 1693 0004 00AF     	 add r7,sp,#0
 1694              	.LCFI88:
 1695              	 .cfi_def_cfa_register 7
 1696 0006 7860     	 str r0,[r7,#4]
 1697 0008 3960     	 str r1,[r7]
1769:../Dave/Generated/UCPROBE/lib_str.c ****     CPU_CHAR  *pstr_rtn;
1770:../Dave/Generated/UCPROBE/lib_str.c **** 
1771:../Dave/Generated/UCPROBE/lib_str.c **** 
1772:../Dave/Generated/UCPROBE/lib_str.c ****     pstr_rtn = Str_Str_N(pstr,
 1698              	 .loc 1 1772 0
 1699 000a 7868     	 ldr r0,[r7,#4]
 1700 000c 3968     	 ldr r1,[r7]
 1701 000e 4FF0FF32 	 mov r2,#-1
 1702 0012 FFF7FEFF 	 bl Str_Str_N
 1703 0016 F860     	 str r0,[r7,#12]
1773:../Dave/Generated/UCPROBE/lib_str.c ****                          pstr_srch,
1774:../Dave/Generated/UCPROBE/lib_str.c ****                          DEF_INT_CPU_U_MAX_VAL);
1775:../Dave/Generated/UCPROBE/lib_str.c **** 
1776:../Dave/Generated/UCPROBE/lib_str.c ****     return (pstr_rtn);
 1704              	 .loc 1 1776 0
 1705 0018 FB68     	 ldr r3,[r7,#12]
1777:../Dave/Generated/UCPROBE/lib_str.c **** }
 1706              	 .loc 1 1777 0
 1707 001a 1846     	 mov r0,r3
 1708 001c 1037     	 adds r7,r7,#16
 1709              	.LCFI89:
 1710              	 .cfi_def_cfa_offset 8
 1711 001e BD46     	 mov sp,r7
 1712              	.LCFI90:
 1713              	 .cfi_def_cfa_register 13
 1714              	 
 1715 0020 80BD     	 pop {r7,pc}
 1716              	 .cfi_endproc
 1717              	.LFE16:
 1719 0022 00BF     	 .section .text.Str_Str_N,"ax",%progbits
 1720              	 .align 2
 1721              	 .global Str_Str_N
 1722              	 .thumb
 1723              	 .thumb_func
 1725              	Str_Str_N:
 1726              	.LFB17:
1778:../Dave/Generated/UCPROBE/lib_str.c **** 
1779:../Dave/Generated/UCPROBE/lib_str.c **** 
1780:../Dave/Generated/UCPROBE/lib_str.c **** /*
1781:../Dave/Generated/UCPROBE/lib_str.c **** ***************************************************************************************************
1782:../Dave/Generated/UCPROBE/lib_str.c **** *                                             Str_Str_N()
1783:../Dave/Generated/UCPROBE/lib_str.c **** *
1784:../Dave/Generated/UCPROBE/lib_str.c **** * Description : Search string for first occurence of a specific search string, up to a maximum numb
1785:../Dave/Generated/UCPROBE/lib_str.c **** *                   of characters.
1786:../Dave/Generated/UCPROBE/lib_str.c **** *
1787:../Dave/Generated/UCPROBE/lib_str.c **** * Argument(s) : pstr            Pointer to        string (see Note #1).
1788:../Dave/Generated/UCPROBE/lib_str.c **** *
1789:../Dave/Generated/UCPROBE/lib_str.c **** *               pstr_srch       Pointer to search string (see Note #1).
1790:../Dave/Generated/UCPROBE/lib_str.c **** *
1791:../Dave/Generated/UCPROBE/lib_str.c **** *               len_max         Maximum number of characters to search (see Note #3g).
1792:../Dave/Generated/UCPROBE/lib_str.c **** *
1793:../Dave/Generated/UCPROBE/lib_str.c **** * Return(s)   : Pointer to first occurrence of search string in string, if any                (see 
1794:../Dave/Generated/UCPROBE/lib_str.c **** *
1795:../Dave/Generated/UCPROBE/lib_str.c **** *               Pointer to string,                                      if NULL search string (see 
1796:../Dave/Generated/UCPROBE/lib_str.c **** *
1797:../Dave/Generated/UCPROBE/lib_str.c **** *               Pointer to NULL,                                        otherwise             (see 
1798:../Dave/Generated/UCPROBE/lib_str.c **** *
1799:../Dave/Generated/UCPROBE/lib_str.c **** * Caller(s)   : Application.
1800:../Dave/Generated/UCPROBE/lib_str.c **** *
1801:../Dave/Generated/UCPROBE/lib_str.c **** * Note(s)     : (1) String buffers NOT modified.
1802:../Dave/Generated/UCPROBE/lib_str.c **** *
1803:../Dave/Generated/UCPROBE/lib_str.c **** *               (2) (a) IEEE Std 1003.1, 2004 Edition, Section 'strstr() : DESCRIPTION' states that
1804:../Dave/Generated/UCPROBE/lib_str.c **** *
1805:../Dave/Generated/UCPROBE/lib_str.c **** *                       (1) "The strstr() function shall locate the first occurrence  in the string
1806:../Dave/Generated/UCPROBE/lib_str.c **** *                            pointed to by 's1' ('pstr') of the sequence of bytes ... in the string
1807:../Dave/Generated/UCPROBE/lib_str.c **** *                            pointed to by 's2' ('pstr_srch')" ...
1808:../Dave/Generated/UCPROBE/lib_str.c **** *                       (2) "(excluding the terminating null byte)."
1809:../Dave/Generated/UCPROBE/lib_str.c **** *
1810:../Dave/Generated/UCPROBE/lib_str.c **** *                   (b) IEEE Std 1003.1, 2004 Edition, Section 'strstr() : RETURN VALUE' states tha
1811:../Dave/Generated/UCPROBE/lib_str.c **** *
1812:../Dave/Generated/UCPROBE/lib_str.c **** *                       (1) "Upon successful completion, strstr() shall return" :
1813:../Dave/Generated/UCPROBE/lib_str.c **** *                           (A) "a pointer to the located string" ...
1814:../Dave/Generated/UCPROBE/lib_str.c **** *                           (B) "or a null pointer if the string is not found."
1815:../Dave/Generated/UCPROBE/lib_str.c **** *                               (1) #### Although NO strstr() specification states to return NULL f
1816:../Dave/Generated/UCPROBE/lib_str.c **** *                                   any other reason(s), NULL is also returned for any error(s).
1817:../Dave/Generated/UCPROBE/lib_str.c **** *
1818:../Dave/Generated/UCPROBE/lib_str.c **** *                       (2) "If 's2' ('pstr_srch') points to a string with zero length, the functio
1819:../Dave/Generated/UCPROBE/lib_str.c **** *                            shall return 's1' ('pstr')."
1820:../Dave/Generated/UCPROBE/lib_str.c **** *
1821:../Dave/Generated/UCPROBE/lib_str.c **** *               (3) String search terminates when :
1822:../Dave/Generated/UCPROBE/lib_str.c **** *
1823:../Dave/Generated/UCPROBE/lib_str.c **** *                   (a) String pointer(s) are passed NULL pointers.
1824:../Dave/Generated/UCPROBE/lib_str.c **** *                       (1) No string search performed; NULL pointer returned.
1825:../Dave/Generated/UCPROBE/lib_str.c **** *
1826:../Dave/Generated/UCPROBE/lib_str.c **** *                   (b) String pointer(s) point to NULL.
1827:../Dave/Generated/UCPROBE/lib_str.c **** *                       (1) String buffer(s) overlap with NULL address; NULL pointer returned.
1828:../Dave/Generated/UCPROBE/lib_str.c **** *
1829:../Dave/Generated/UCPROBE/lib_str.c **** *                   (c) Search string length equal to zero.
1830:../Dave/Generated/UCPROBE/lib_str.c **** *                       (1) No string search performed; string pointer returned (see Note #2b2).
1831:../Dave/Generated/UCPROBE/lib_str.c **** *
1832:../Dave/Generated/UCPROBE/lib_str.c **** *                   (d) Search string length greater than string length.
1833:../Dave/Generated/UCPROBE/lib_str.c **** *                       (1) No string search performed; NULL   pointer returned (see Note #2b1B).
1834:../Dave/Generated/UCPROBE/lib_str.c **** *
1835:../Dave/Generated/UCPROBE/lib_str.c **** *                   (e) Entire string has been searched.
1836:../Dave/Generated/UCPROBE/lib_str.c **** *                       (1) Search string not found; NULL pointer returned (see Note #2b1B).
1837:../Dave/Generated/UCPROBE/lib_str.c **** *                       (2) Maximum size of the search is defined as the subtraction of the
1838:../Dave/Generated/UCPROBE/lib_str.c **** *                           search string length from the string length.
1839:../Dave/Generated/UCPROBE/lib_str.c **** *
1840:../Dave/Generated/UCPROBE/lib_str.c **** *                   (f) Search string found.
1841:../Dave/Generated/UCPROBE/lib_str.c **** *                       (1) Return pointer to first occurrence of search string in string (see Note
1842:../Dave/Generated/UCPROBE/lib_str.c **** *                       (2) Search string found via Str_Cmp_N().
1843:../Dave/Generated/UCPROBE/lib_str.c **** *
1844:../Dave/Generated/UCPROBE/lib_str.c **** *                   (g) 'len_max' number of characters searched.
1845:../Dave/Generated/UCPROBE/lib_str.c **** *                       (1) 'len_max' number of characters does NOT include terminating NULL charac
1846:../Dave/Generated/UCPROBE/lib_str.c **** *                           (see Note #2a2).
1847:../Dave/Generated/UCPROBE/lib_str.c **** ***************************************************************************************************
1848:../Dave/Generated/UCPROBE/lib_str.c **** */
1849:../Dave/Generated/UCPROBE/lib_str.c **** 
1850:../Dave/Generated/UCPROBE/lib_str.c **** CPU_CHAR  *Str_Str_N (const  CPU_CHAR    *pstr,
1851:../Dave/Generated/UCPROBE/lib_str.c ****                       const  CPU_CHAR    *pstr_srch,
1852:../Dave/Generated/UCPROBE/lib_str.c ****                              CPU_SIZE_T   len_max)
1853:../Dave/Generated/UCPROBE/lib_str.c **** {
 1727              	 .loc 1 1853 0
 1728              	 .cfi_startproc
 1729              	 
 1730              	 
 1731 0000 80B5     	 push {r7,lr}
 1732              	.LCFI91:
 1733              	 .cfi_def_cfa_offset 8
 1734              	 .cfi_offset 7,-8
 1735              	 .cfi_offset 14,-4
 1736 0002 8EB0     	 sub sp,sp,#56
 1737              	.LCFI92:
 1738              	 .cfi_def_cfa_offset 64
 1739 0004 00AF     	 add r7,sp,#0
 1740              	.LCFI93:
 1741              	 .cfi_def_cfa_register 7
 1742 0006 F860     	 str r0,[r7,#12]
 1743 0008 B960     	 str r1,[r7,#8]
 1744 000a 7A60     	 str r2,[r7,#4]
1854:../Dave/Generated/UCPROBE/lib_str.c ****            CPU_SIZE_T    str_len;
1855:../Dave/Generated/UCPROBE/lib_str.c ****            CPU_SIZE_T    str_len_srch;
1856:../Dave/Generated/UCPROBE/lib_str.c ****            CPU_SIZE_T    len_max_srch;
1857:../Dave/Generated/UCPROBE/lib_str.c ****            CPU_SIZE_T    srch_len;
1858:../Dave/Generated/UCPROBE/lib_str.c ****            CPU_SIZE_T    srch_ix;
1859:../Dave/Generated/UCPROBE/lib_str.c ****            CPU_BOOLEAN   srch_done;
1860:../Dave/Generated/UCPROBE/lib_str.c ****            CPU_INT16S    srch_cmp;
1861:../Dave/Generated/UCPROBE/lib_str.c ****     const  CPU_CHAR     *pstr_str;
1862:../Dave/Generated/UCPROBE/lib_str.c ****     const  CPU_CHAR     *pstr_srch_ix;
1863:../Dave/Generated/UCPROBE/lib_str.c **** 
1864:../Dave/Generated/UCPROBE/lib_str.c ****                                                                 /* Rtn NULL if str ptr(s) NULL (see
1865:../Dave/Generated/UCPROBE/lib_str.c ****     if (pstr == (const CPU_CHAR *)0) {
 1745              	 .loc 1 1865 0
 1746 000c FB68     	 ldr r3,[r7,#12]
 1747 000e 002B     	 cmp r3,#0
 1748 0010 01D1     	 bne .L108
1866:../Dave/Generated/UCPROBE/lib_str.c ****         return ((CPU_CHAR *)0);
 1749              	 .loc 1 1866 0
 1750 0012 0023     	 movs r3,#0
 1751 0014 66E0     	 b .L109
 1752              	.L108:
1867:../Dave/Generated/UCPROBE/lib_str.c ****     }
1868:../Dave/Generated/UCPROBE/lib_str.c ****     if (pstr_srch == (const CPU_CHAR *)0) {
 1753              	 .loc 1 1868 0
 1754 0016 BB68     	 ldr r3,[r7,#8]
 1755 0018 002B     	 cmp r3,#0
 1756 001a 01D1     	 bne .L110
1869:../Dave/Generated/UCPROBE/lib_str.c ****         return ((CPU_CHAR *)0);
 1757              	 .loc 1 1869 0
 1758 001c 0023     	 movs r3,#0
 1759 001e 61E0     	 b .L109
 1760              	.L110:
1870:../Dave/Generated/UCPROBE/lib_str.c ****     }
1871:../Dave/Generated/UCPROBE/lib_str.c **** 
1872:../Dave/Generated/UCPROBE/lib_str.c ****     if (len_max < 1) {                                          /* Rtn NULL if srch len = 0    (see
 1761              	 .loc 1 1872 0
 1762 0020 7B68     	 ldr r3,[r7,#4]
 1763 0022 002B     	 cmp r3,#0
 1764 0024 01D1     	 bne .L111
1873:../Dave/Generated/UCPROBE/lib_str.c ****         return ((CPU_CHAR *)0);
 1765              	 .loc 1 1873 0
 1766 0026 0023     	 movs r3,#0
 1767 0028 5CE0     	 b .L109
 1768              	.L111:
1874:../Dave/Generated/UCPROBE/lib_str.c ****     }
1875:../Dave/Generated/UCPROBE/lib_str.c **** 
1876:../Dave/Generated/UCPROBE/lib_str.c ****                                                                 /* Lim max srch str len (to chk > s
1877:../Dave/Generated/UCPROBE/lib_str.c ****     len_max_srch = (len_max <       DEF_INT_CPU_U_MAX_VAL)
1878:../Dave/Generated/UCPROBE/lib_str.c ****                  ? (len_max + 1u) : DEF_INT_CPU_U_MAX_VAL;
 1769              	 .loc 1 1878 0
 1770 002a 7B68     	 ldr r3,[r7,#4]
 1771 002c B3F1FF3F 	 cmp r3,#-1
 1772 0030 02D0     	 beq .L112
 1773              	 .loc 1 1878 0 is_stmt 0 discriminator 1
 1774 0032 7B68     	 ldr r3,[r7,#4]
 1775 0034 0133     	 adds r3,r3,#1
 1776 0036 01E0     	 b .L113
 1777              	.L112:
 1778              	 .loc 1 1878 0 discriminator 2
 1779 0038 4FF0FF33 	 mov r3,#-1
 1780              	.L113:
1877:../Dave/Generated/UCPROBE/lib_str.c ****                  ? (len_max + 1u) : DEF_INT_CPU_U_MAX_VAL;
 1781              	 .loc 1 1877 0 is_stmt 1
 1782 003c 3B63     	 str r3,[r7,#48]
1879:../Dave/Generated/UCPROBE/lib_str.c **** 
1880:../Dave/Generated/UCPROBE/lib_str.c ****     str_len      = Str_Len_N(pstr,      len_max);
 1783              	 .loc 1 1880 0
 1784 003e F868     	 ldr r0,[r7,#12]
 1785 0040 7968     	 ldr r1,[r7,#4]
 1786 0042 FFF7FEFF 	 bl Str_Len_N
 1787 0046 F862     	 str r0,[r7,#44]
1881:../Dave/Generated/UCPROBE/lib_str.c ****     str_len_srch = Str_Len_N(pstr_srch, len_max_srch);
 1788              	 .loc 1 1881 0
 1789 0048 B868     	 ldr r0,[r7,#8]
 1790 004a 396B     	 ldr r1,[r7,#48]
 1791 004c FFF7FEFF 	 bl Str_Len_N
 1792 0050 B862     	 str r0,[r7,#40]
1882:../Dave/Generated/UCPROBE/lib_str.c ****     if (str_len_srch < 1) {                                     /* Rtn ptr to str if srch str len =
 1793              	 .loc 1 1882 0
 1794 0052 BB6A     	 ldr r3,[r7,#40]
 1795 0054 002B     	 cmp r3,#0
 1796 0056 01D1     	 bne .L114
1883:../Dave/Generated/UCPROBE/lib_str.c ****         return ((CPU_CHAR *)pstr);
 1797              	 .loc 1 1883 0
 1798 0058 FB68     	 ldr r3,[r7,#12]
 1799 005a 43E0     	 b .L109
 1800              	.L114:
1884:../Dave/Generated/UCPROBE/lib_str.c ****     }
1885:../Dave/Generated/UCPROBE/lib_str.c ****     if (str_len_srch > str_len) {                               /* Rtn NULL if srch str len > str l
 1801              	 .loc 1 1885 0
 1802 005c BA6A     	 ldr r2,[r7,#40]
 1803 005e FB6A     	 ldr r3,[r7,#44]
 1804 0060 9A42     	 cmp r2,r3
 1805 0062 01D9     	 bls .L115
1886:../Dave/Generated/UCPROBE/lib_str.c ****         return ((CPU_CHAR *)0);
 1806              	 .loc 1 1886 0
 1807 0064 0023     	 movs r3,#0
 1808 0066 3DE0     	 b .L109
 1809              	.L115:
1887:../Dave/Generated/UCPROBE/lib_str.c ****     }
1888:../Dave/Generated/UCPROBE/lib_str.c ****                                                                 /* Rtn NULL if NULL ptr found      
1889:../Dave/Generated/UCPROBE/lib_str.c ****     pstr_str = pstr      + str_len;
 1810              	 .loc 1 1889 0
 1811 0068 FA68     	 ldr r2,[r7,#12]
 1812 006a FB6A     	 ldr r3,[r7,#44]
 1813 006c 1344     	 add r3,r3,r2
 1814 006e 7B62     	 str r3,[r7,#36]
1890:../Dave/Generated/UCPROBE/lib_str.c ****     if (pstr_str == (const CPU_CHAR *)0) {
 1815              	 .loc 1 1890 0
 1816 0070 7B6A     	 ldr r3,[r7,#36]
 1817 0072 002B     	 cmp r3,#0
 1818 0074 01D1     	 bne .L116
1891:../Dave/Generated/UCPROBE/lib_str.c ****         return ((CPU_CHAR *)0);
 1819              	 .loc 1 1891 0
 1820 0076 0023     	 movs r3,#0
 1821 0078 34E0     	 b .L109
 1822              	.L116:
1892:../Dave/Generated/UCPROBE/lib_str.c ****     }
1893:../Dave/Generated/UCPROBE/lib_str.c ****     pstr_str = pstr_srch + str_len_srch;
 1823              	 .loc 1 1893 0
 1824 007a BA68     	 ldr r2,[r7,#8]
 1825 007c BB6A     	 ldr r3,[r7,#40]
 1826 007e 1344     	 add r3,r3,r2
 1827 0080 7B62     	 str r3,[r7,#36]
1894:../Dave/Generated/UCPROBE/lib_str.c ****     if (pstr_str == (const CPU_CHAR *)0) {
 1828              	 .loc 1 1894 0
 1829 0082 7B6A     	 ldr r3,[r7,#36]
 1830 0084 002B     	 cmp r3,#0
 1831 0086 01D1     	 bne .L117
1895:../Dave/Generated/UCPROBE/lib_str.c ****         return ((CPU_CHAR *)0);
 1832              	 .loc 1 1895 0
 1833 0088 0023     	 movs r3,#0
 1834 008a 2BE0     	 b .L109
 1835              	.L117:
1896:../Dave/Generated/UCPROBE/lib_str.c ****     }
1897:../Dave/Generated/UCPROBE/lib_str.c **** 
1898:../Dave/Generated/UCPROBE/lib_str.c **** 
1899:../Dave/Generated/UCPROBE/lib_str.c ****     srch_len  = str_len - str_len_srch;                         /* Calc srch len (see Note #3e2).  
 1836              	 .loc 1 1899 0
 1837 008c FA6A     	 ldr r2,[r7,#44]
 1838 008e BB6A     	 ldr r3,[r7,#40]
 1839 0090 D31A     	 subs r3,r2,r3
 1840 0092 3B62     	 str r3,[r7,#32]
1900:../Dave/Generated/UCPROBE/lib_str.c ****     srch_ix   = 0u;
 1841              	 .loc 1 1900 0
 1842 0094 0023     	 movs r3,#0
 1843 0096 7B63     	 str r3,[r7,#52]
1901:../Dave/Generated/UCPROBE/lib_str.c ****     srch_done = DEF_NO;
 1844              	 .loc 1 1901 0
 1845 0098 0023     	 movs r3,#0
 1846 009a FB77     	 strb r3,[r7,#31]
 1847              	.L121:
1902:../Dave/Generated/UCPROBE/lib_str.c **** 
1903:../Dave/Generated/UCPROBE/lib_str.c ****     do {
1904:../Dave/Generated/UCPROBE/lib_str.c ****         pstr_srch_ix = (const CPU_CHAR *)(pstr + srch_ix);
 1848              	 .loc 1 1904 0
 1849 009c FA68     	 ldr r2,[r7,#12]
 1850 009e 7B6B     	 ldr r3,[r7,#52]
 1851 00a0 1344     	 add r3,r3,r2
 1852 00a2 BB61     	 str r3,[r7,#24]
1905:../Dave/Generated/UCPROBE/lib_str.c ****         srch_cmp     =  Str_Cmp_N(pstr_srch_ix, pstr_srch, str_len_srch);
 1853              	 .loc 1 1905 0
 1854 00a4 B869     	 ldr r0,[r7,#24]
 1855 00a6 B968     	 ldr r1,[r7,#8]
 1856 00a8 BA6A     	 ldr r2,[r7,#40]
 1857 00aa FFF7FEFF 	 bl Str_Cmp_N
 1858 00ae 0346     	 mov r3,r0
 1859 00b0 FB82     	 strh r3,[r7,#22]
1906:../Dave/Generated/UCPROBE/lib_str.c ****         srch_done    = (srch_cmp == 0) ? DEF_YES : DEF_NO;
 1860              	 .loc 1 1906 0
 1861 00b2 B7F91630 	 ldrsh r3,[r7,#22]
 1862 00b6 002B     	 cmp r3,#0
 1863 00b8 01D1     	 bne .L118
 1864              	 .loc 1 1906 0 is_stmt 0 discriminator 1
 1865 00ba 0123     	 movs r3,#1
 1866 00bc 00E0     	 b .L119
 1867              	.L118:
 1868              	 .loc 1 1906 0 discriminator 2
 1869 00be 0023     	 movs r3,#0
 1870              	.L119:
 1871              	 .loc 1 1906 0 discriminator 4
 1872 00c0 FB77     	 strb r3,[r7,#31]
1907:../Dave/Generated/UCPROBE/lib_str.c ****         srch_ix++;
 1873              	 .loc 1 1907 0 is_stmt 1 discriminator 4
 1874 00c2 7B6B     	 ldr r3,[r7,#52]
 1875 00c4 0133     	 adds r3,r3,#1
 1876 00c6 7B63     	 str r3,[r7,#52]
1908:../Dave/Generated/UCPROBE/lib_str.c ****     } while ((srch_done == DEF_NO) && (srch_ix <= srch_len));
 1877              	 .loc 1 1908 0 discriminator 4
 1878 00c8 FB7F     	 ldrb r3,[r7,#31]
 1879 00ca 002B     	 cmp r3,#0
 1880 00cc 03D1     	 bne .L120
 1881              	 .loc 1 1908 0 is_stmt 0 discriminator 1
 1882 00ce 7A6B     	 ldr r2,[r7,#52]
 1883 00d0 3B6A     	 ldr r3,[r7,#32]
 1884 00d2 9A42     	 cmp r2,r3
 1885 00d4 E2D9     	 bls .L121
 1886              	.L120:
1909:../Dave/Generated/UCPROBE/lib_str.c **** 
1910:../Dave/Generated/UCPROBE/lib_str.c **** 
1911:../Dave/Generated/UCPROBE/lib_str.c ****     if (srch_cmp != 0) {                                        /* Rtn NULL if srch str NOT found (
 1887              	 .loc 1 1911 0 is_stmt 1
 1888 00d6 B7F91630 	 ldrsh r3,[r7,#22]
 1889 00da 002B     	 cmp r3,#0
 1890 00dc 01D0     	 beq .L122
1912:../Dave/Generated/UCPROBE/lib_str.c ****         return ((CPU_CHAR *)0);
 1891              	 .loc 1 1912 0
 1892 00de 0023     	 movs r3,#0
 1893 00e0 00E0     	 b .L109
 1894              	.L122:
1913:../Dave/Generated/UCPROBE/lib_str.c ****     }
1914:../Dave/Generated/UCPROBE/lib_str.c **** 
1915:../Dave/Generated/UCPROBE/lib_str.c ****     return ((CPU_CHAR *)pstr_srch_ix);                          /* Else rtn ptr to found srch str (
 1895              	 .loc 1 1915 0
 1896 00e2 BB69     	 ldr r3,[r7,#24]
 1897              	.L109:
1916:../Dave/Generated/UCPROBE/lib_str.c **** }
 1898              	 .loc 1 1916 0
 1899 00e4 1846     	 mov r0,r3
 1900 00e6 3837     	 adds r7,r7,#56
 1901              	.LCFI94:
 1902              	 .cfi_def_cfa_offset 8
 1903 00e8 BD46     	 mov sp,r7
 1904              	.LCFI95:
 1905              	 .cfi_def_cfa_register 13
 1906              	 
 1907 00ea 80BD     	 pop {r7,pc}
 1908              	 .cfi_endproc
 1909              	.LFE17:
 1911              	 .section .text.Str_FmtNbr_Int32U,"ax",%progbits
 1912              	 .align 2
 1913              	 .global Str_FmtNbr_Int32U
 1914              	 .thumb
 1915              	 .thumb_func
 1917              	Str_FmtNbr_Int32U:
 1918              	.LFB18:
1917:../Dave/Generated/UCPROBE/lib_str.c **** 
1918:../Dave/Generated/UCPROBE/lib_str.c **** 
1919:../Dave/Generated/UCPROBE/lib_str.c **** /*
1920:../Dave/Generated/UCPROBE/lib_str.c **** ***************************************************************************************************
1921:../Dave/Generated/UCPROBE/lib_str.c **** *                                         Str_FmtNbr_Int32U()
1922:../Dave/Generated/UCPROBE/lib_str.c **** *
1923:../Dave/Generated/UCPROBE/lib_str.c **** * Description : Format 32-bit unsigned integer into a multi-digit character string.
1924:../Dave/Generated/UCPROBE/lib_str.c **** *
1925:../Dave/Generated/UCPROBE/lib_str.c **** * Argument(s) : nbr             Number           to format.
1926:../Dave/Generated/UCPROBE/lib_str.c **** *
1927:../Dave/Generated/UCPROBE/lib_str.c **** *               nbr_dig         Number of digits to format (see Note #1).
1928:../Dave/Generated/UCPROBE/lib_str.c **** *
1929:../Dave/Generated/UCPROBE/lib_str.c **** *                               The following may be used to specify the number of digits to format
1930:../Dave/Generated/UCPROBE/lib_str.c **** *
1931:../Dave/Generated/UCPROBE/lib_str.c **** *                                   DEF_INT_32U_NBR_DIG_MIN     Minimum number of 32-bit unsigned d
1932:../Dave/Generated/UCPROBE/lib_str.c **** *                                   DEF_INT_32U_NBR_DIG_MAX     Maximum number of 32-bit unsigned d
1933:../Dave/Generated/UCPROBE/lib_str.c **** *
1934:../Dave/Generated/UCPROBE/lib_str.c **** *               nbr_base        Base   of number to format (see Note #2).
1935:../Dave/Generated/UCPROBE/lib_str.c **** *
1936:../Dave/Generated/UCPROBE/lib_str.c **** *                               The following may be used to specify the number base :
1937:../Dave/Generated/UCPROBE/lib_str.c **** *
1938:../Dave/Generated/UCPROBE/lib_str.c **** *                                   DEF_NBR_BASE_BIN            Base  2
1939:../Dave/Generated/UCPROBE/lib_str.c **** *                                   DEF_NBR_BASE_OCT            Base  8
1940:../Dave/Generated/UCPROBE/lib_str.c **** *                                   DEF_NBR_BASE_DEC            Base 10
1941:../Dave/Generated/UCPROBE/lib_str.c **** *                                   DEF_NBR_BASE_HEX            Base 16
1942:../Dave/Generated/UCPROBE/lib_str.c **** *
1943:../Dave/Generated/UCPROBE/lib_str.c **** *               lead_char       Prepend leading character  (see Note #3) :
1944:../Dave/Generated/UCPROBE/lib_str.c **** *
1945:../Dave/Generated/UCPROBE/lib_str.c **** *                                   '\0'                    Do NOT prepend leading character to str
