   1              	 .syntax unified
   2              	 .cpu cortex-m4
   3              	 .eabi_attribute 27,3
   4              	 .fpu fpv4-sp-d16
   5              	 .eabi_attribute 20,1
   6              	 .eabi_attribute 21,1
   7              	 .eabi_attribute 23,3
   8              	 .eabi_attribute 24,1
   9              	 .eabi_attribute 25,1
  10              	 .eabi_attribute 26,1
  11              	 .eabi_attribute 30,6
  12              	 .eabi_attribute 34,1
  13              	 .eabi_attribute 18,4
  14              	 .thumb
  15              	 .file "probe_com.c"
  16              	 .text
  17              	.Ltext0:
  18              	 .cfi_sections .debug_frame
  19              	 .comm ProbeCom_RxPktCtr,4,4
  20              	 .comm ProbeCom_TxPktCtr,4,4
  21              	 .comm ProbeCom_TxSymCtr,4,4
  22              	 .comm ProbeCom_TxSymByteCtr,4,4
  23              	 .comm ProbeCom_ErrPktCtr,4,4
  24              	 .comm ProbeCom_StrRxCtr,4,4
  25              	 .comm ProbeCom_StrRxOvfErrCtr,4,4
  26              	 .comm ProbeCom_StrTxCtr,4,4
  27              	 .comm ProbeCom_StrTxOvfErrCtr,4,4
  28              	 .comm ProbeCom_RxSymCtr,4,4
  29              	 .comm ProbeCom_RxSymByteCtr,4,4
  30              	 .section .bss.ProbeCom_StrInBufData,"aw",%nobits
  31              	 .align 2
  34              	ProbeCom_StrInBufData:
  35 0000 00000000 	 .space 128
  35      00000000 
  35      00000000 
  35      00000000 
  35      00000000 
  36              	 .section .bss.ProbeCom_StrInBuf,"aw",%nobits
  37              	 .align 2
  40              	ProbeCom_StrInBuf:
  41 0000 00000000 	 .space 16
  41      00000000 
  41      00000000 
  41      00000000 
  42              	 .section .bss.ProbeCom_StrOutBufData,"aw",%nobits
  43              	 .align 2
  46              	ProbeCom_StrOutBufData:
  47 0000 00000000 	 .space 2048
  47      00000000 
  47      00000000 
  47      00000000 
  47      00000000 
  48              	 .section .bss.ProbeCom_StrOutBuf,"aw",%nobits
  49              	 .align 2
  52              	ProbeCom_StrOutBuf:
  53 0000 00000000 	 .space 16
  53      00000000 
  53      00000000 
  53      00000000 
  54              	 .section .bss.ProbeCom_TerminalExecHandler,"aw",%nobits
  55              	 .align 2
  58              	ProbeCom_TerminalExecHandler:
  59 0000 00000000 	 .space 4
  60              	 .section .bss.ProbeCom_TerminalExecuting,"aw",%nobits
  63              	ProbeCom_TerminalExecuting:
  64 0000 00       	 .space 1
  65              	 .section .bss.ProbeCom_TerminalInHandler,"aw",%nobits
  66              	 .align 2
  69              	ProbeCom_TerminalInHandler:
  70 0000 00000000 	 .space 4
  71              	 .section .bss.ProbeCom_TerminalOutBufPtr,"aw",%nobits
  72              	 .align 2
  75              	ProbeCom_TerminalOutBufPtr:
  76 0000 00000000 	 .space 4
  77              	 .section .bss.ProbeCom_TerminalOutBufIx,"aw",%nobits
  78              	 .align 2
  81              	ProbeCom_TerminalOutBufIx:
  82 0000 00000000 	 .space 4
  83              	 .section .bss.ProbeCom_TerminalOutBufLen,"aw",%nobits
  84              	 .align 2
  87              	ProbeCom_TerminalOutBufLen:
  88 0000 00000000 	 .space 4
  89              	 .section .bss.ProbeCom_EndiannessTest,"aw",%nobits
  90              	 .align 2
  93              	ProbeCom_EndiannessTest:
  94 0000 00000000 	 .space 4
  95              	 .section .text.ProbeCom_Init,"ax",%progbits
  96              	 .align 2
  97              	 .global ProbeCom_Init
  98              	 .thumb
  99              	 .thumb_func
 101              	ProbeCom_Init:
 102              	.LFB0:
 103              	 .file 1 "../Dave/Generated/UCPROBE/probe_com.c"
   1:../Dave/Generated/UCPROBE/probe_com.c **** /*
   2:../Dave/Generated/UCPROBE/probe_com.c **** ***************************************************************************************************
   3:../Dave/Generated/UCPROBE/probe_com.c **** *                                       uC/Probe Communication
   4:../Dave/Generated/UCPROBE/probe_com.c **** *
   5:../Dave/Generated/UCPROBE/probe_com.c **** *                         (c) Copyright 2007-2008; Micrium, Inc.; Weston, FL
   6:../Dave/Generated/UCPROBE/probe_com.c **** *
   7:../Dave/Generated/UCPROBE/probe_com.c **** *               All rights reserved.  Protected by international copyright laws.
   8:../Dave/Generated/UCPROBE/probe_com.c **** *               Knowledge of the source code may NOT be used to develop a similar product.
   9:../Dave/Generated/UCPROBE/probe_com.c **** *               Please help us continue to provide the Embedded community with the finest
  10:../Dave/Generated/UCPROBE/probe_com.c **** *               software available.  Your honesty is greatly appreciated.
  11:../Dave/Generated/UCPROBE/probe_com.c **** ***************************************************************************************************
  12:../Dave/Generated/UCPROBE/probe_com.c **** */
  13:../Dave/Generated/UCPROBE/probe_com.c **** 
  14:../Dave/Generated/UCPROBE/probe_com.c **** /*
  15:../Dave/Generated/UCPROBE/probe_com.c **** ***************************************************************************************************
  16:../Dave/Generated/UCPROBE/probe_com.c **** *
  17:../Dave/Generated/UCPROBE/probe_com.c **** *                                       COMMUNICATION: GENERIC
  18:../Dave/Generated/UCPROBE/probe_com.c **** *
  19:../Dave/Generated/UCPROBE/probe_com.c **** * Filename      : probe_com.c
  20:../Dave/Generated/UCPROBE/probe_com.c **** * Version       : V2.30
  21:../Dave/Generated/UCPROBE/probe_com.c **** * Programmer(s) : BAN
  22:../Dave/Generated/UCPROBE/probe_com.c **** ***************************************************************************************************
  23:../Dave/Generated/UCPROBE/probe_com.c **** * Note(s)       : (1) This file contains code to respond to generic (non protocol-dependent) comman
  24:../Dave/Generated/UCPROBE/probe_com.c **** *                     received by the target.
  25:../Dave/Generated/UCPROBE/probe_com.c **** ***************************************************************************************************
  26:../Dave/Generated/UCPROBE/probe_com.c **** */
  27:../Dave/Generated/UCPROBE/probe_com.c **** 
  28:../Dave/Generated/UCPROBE/probe_com.c **** 
  29:../Dave/Generated/UCPROBE/probe_com.c **** /*
  30:../Dave/Generated/UCPROBE/probe_com.c **** ***************************************************************************************************
  31:../Dave/Generated/UCPROBE/probe_com.c **** *                                            INCLUDE FILES
  32:../Dave/Generated/UCPROBE/probe_com.c **** ***************************************************************************************************
  33:../Dave/Generated/UCPROBE/probe_com.c **** */
  34:../Dave/Generated/UCPROBE/probe_com.c **** 
  35:../Dave/Generated/UCPROBE/probe_com.c **** #define   PROBE_COM_MODULE
  36:../Dave/Generated/UCPROBE/probe_com.c **** #include  "probe_com.h"
  37:../Dave/Generated/UCPROBE/probe_com.c **** 
  38:../Dave/Generated/UCPROBE/probe_com.c **** 
  39:../Dave/Generated/UCPROBE/probe_com.c **** /*
  40:../Dave/Generated/UCPROBE/probe_com.c **** ***************************************************************************************************
  41:../Dave/Generated/UCPROBE/probe_com.c **** *                                            LOCAL DEFINES
  42:../Dave/Generated/UCPROBE/probe_com.c **** ***************************************************************************************************
  43:../Dave/Generated/UCPROBE/probe_com.c **** */
  44:../Dave/Generated/UCPROBE/probe_com.c **** 
  45:../Dave/Generated/UCPROBE/probe_com.c **** /*
  46:../Dave/Generated/UCPROBE/probe_com.c **** ***************************************************************************************************
  47:../Dave/Generated/UCPROBE/probe_com.c **** *                                        DATA FORMATS DEFINES
  48:../Dave/Generated/UCPROBE/probe_com.c **** ***************************************************************************************************
  49:../Dave/Generated/UCPROBE/probe_com.c **** */
  50:../Dave/Generated/UCPROBE/probe_com.c **** 
  51:../Dave/Generated/UCPROBE/probe_com.c **** #define  PROBE_COM_FMT_TX_ERR                         0x8000u
  52:../Dave/Generated/UCPROBE/probe_com.c **** 
  53:../Dave/Generated/UCPROBE/probe_com.c **** #define  PROBE_COM_FMT_RX_QUERY                       0x0001u   /* Query setup parameter or capabil
  54:../Dave/Generated/UCPROBE/probe_com.c **** #define  PROBE_COM_FMT_TX_QUERY                       0x8001u
  55:../Dave/Generated/UCPROBE/probe_com.c **** 
  56:../Dave/Generated/UCPROBE/probe_com.c **** #define  PROBE_COM_FMT_RX_RD                          0x0002u   /* Read data at memory address.    
  57:../Dave/Generated/UCPROBE/probe_com.c **** #define  PROBE_COM_FMT_TX_RD                          0x8002u
  58:../Dave/Generated/UCPROBE/probe_com.c **** 
  59:../Dave/Generated/UCPROBE/probe_com.c **** #define  PROBE_COM_FMT_RX_WR                          0x0003u   /* Write data at memory address.   
  60:../Dave/Generated/UCPROBE/probe_com.c **** #define  PROBE_COM_FMT_TX_WR                          0x8003u
  61:../Dave/Generated/UCPROBE/probe_com.c **** 
  62:../Dave/Generated/UCPROBE/probe_com.c **** #define  PROBE_COM_FMT_RX_RD_MULTI                    0x0007u   /* Read data at multiple memory add
  63:../Dave/Generated/UCPROBE/probe_com.c **** #define  PROBE_COM_FMT_TX_RD_MULTI                    0x8007u
  64:../Dave/Generated/UCPROBE/probe_com.c **** #define  PROBE_COM_FMT_TX_RD_MULTI_LO                   0x07u
  65:../Dave/Generated/UCPROBE/probe_com.c **** #define  PROBE_COM_FMT_TX_RD_MULTI_HI                   0x80u
  66:../Dave/Generated/UCPROBE/probe_com.c **** 
  67:../Dave/Generated/UCPROBE/probe_com.c **** #define  PROBE_COM_FMT_RX_WR_MULTI                    0x0008u   /* Write data at multiple memory ad
  68:../Dave/Generated/UCPROBE/probe_com.c **** #define  PROBE_COM_FMT_TX_WR_MULTI                    0x8008u
  69:../Dave/Generated/UCPROBE/probe_com.c **** 
  70:../Dave/Generated/UCPROBE/probe_com.c **** #define  PROBE_COM_FMT_RX_STR_OUT                     0x0009u   /* Transmit output string to Probe.
  71:../Dave/Generated/UCPROBE/probe_com.c **** #define  PROBE_COM_FMT_TX_STR_OUT                     0x8009u
  72:../Dave/Generated/UCPROBE/probe_com.c **** 
  73:../Dave/Generated/UCPROBE/probe_com.c **** #define  PROBE_COM_FMT_RX_STR_IN                      0x000Au   /* Receive input string from Probe.
  74:../Dave/Generated/UCPROBE/probe_com.c **** #define  PROBE_COM_FMT_TX_STR_IN                      0x800Au
  75:../Dave/Generated/UCPROBE/probe_com.c **** 
  76:../Dave/Generated/UCPROBE/probe_com.c **** #define  PROBE_COM_FMT_RX_TERMINAL_EXEC               0x000Bu   /* Execute terminal command.       
  77:../Dave/Generated/UCPROBE/probe_com.c **** #define  PROBE_COM_FMT_TX_TERMINAL_EXEC               0x800Bu
  78:../Dave/Generated/UCPROBE/probe_com.c **** 
  79:../Dave/Generated/UCPROBE/probe_com.c **** #define  PROBE_COM_FMT_RX_TERMINAL_OUT                0x000Cu   /* Transmit output data to Probe.  
  80:../Dave/Generated/UCPROBE/probe_com.c **** #define  PROBE_COM_FMT_TX_TERMINAL_OUT                0x800Cu
  81:../Dave/Generated/UCPROBE/probe_com.c **** 
  82:../Dave/Generated/UCPROBE/probe_com.c **** #define  PROBE_COM_FMT_RX_TERMINAL_IN                 0x000Du   /* Receive input data from Probe.  
  83:../Dave/Generated/UCPROBE/probe_com.c **** #define  PROBE_COM_FMT_TX_TERMINAL_IN                 0x800Du
  84:../Dave/Generated/UCPROBE/probe_com.c **** 
  85:../Dave/Generated/UCPROBE/probe_com.c **** /*
  86:../Dave/Generated/UCPROBE/probe_com.c **** ***************************************************************************************************
  87:../Dave/Generated/UCPROBE/probe_com.c **** *                                      STATUS CONSTANTS DEFINES
  88:../Dave/Generated/UCPROBE/probe_com.c **** ***************************************************************************************************
  89:../Dave/Generated/UCPROBE/probe_com.c **** */
  90:../Dave/Generated/UCPROBE/probe_com.c **** 
  91:../Dave/Generated/UCPROBE/probe_com.c **** #define  PROBE_COM_STATUS_OK                            0x01u
  92:../Dave/Generated/UCPROBE/probe_com.c **** #define  PROBE_COM_STATUS_TERMINAL_EXEC_NOT_RDY         0xF4u   /* Terminal not rdy to exec new cmd
  93:../Dave/Generated/UCPROBE/probe_com.c **** #define  PROBE_COM_STATUS_TERMINAL_IN_OVF               0xF5u   /* Terminal in buf ovf'd.          
  94:../Dave/Generated/UCPROBE/probe_com.c **** #define  PROBE_COM_STATUS_TERMINAL_OUT_NONE             0xF6u   /* Terminal out buf empty.         
  95:../Dave/Generated/UCPROBE/probe_com.c **** #define  PROBE_COM_STATUS_STR_IN_OVF                    0xF7u   /* String in buf ovf'd.            
  96:../Dave/Generated/UCPROBE/probe_com.c **** #define  PROBE_COM_STATUS_STR_OUT_NONE                  0xF8u   /* String out buf empty.           
  97:../Dave/Generated/UCPROBE/probe_com.c **** #define  PROBE_COM_STATUS_UNKNOWN_REQUEST               0xF9u   /* Unknown req.                    
  98:../Dave/Generated/UCPROBE/probe_com.c **** #define  PROBE_COM_STATUS_QUERY_NOT_SUPPORTED           0xFCu   /* Query not supported.            
  99:../Dave/Generated/UCPROBE/probe_com.c **** #define  PROBE_COM_STATUS_TX_PKT_TOO_LARGE              0xFDu   /* Reply pkt too large for buf.    
 100:../Dave/Generated/UCPROBE/probe_com.c **** #define  PROBE_COM_STATUS_RX_PKT_WRONG_SIZE             0xFEu   /* Req pkt not correct size.       
 101:../Dave/Generated/UCPROBE/probe_com.c **** #define  PROBE_COM_STATUS_FAIL                          0xFFu   /* Req exec failed (or unknown err)
 102:../Dave/Generated/UCPROBE/probe_com.c **** 
 103:../Dave/Generated/UCPROBE/probe_com.c **** /*
 104:../Dave/Generated/UCPROBE/probe_com.c **** ***************************************************************************************************
 105:../Dave/Generated/UCPROBE/probe_com.c **** *                                           QUERIES DEFINES
 106:../Dave/Generated/UCPROBE/probe_com.c **** ***************************************************************************************************
 107:../Dave/Generated/UCPROBE/probe_com.c **** */
 108:../Dave/Generated/UCPROBE/probe_com.c **** 
 109:../Dave/Generated/UCPROBE/probe_com.c ****                                                                 /* ------------------- CONFIGURATIO
 110:../Dave/Generated/UCPROBE/probe_com.c **** #define  PROBE_COM_QUERY_MAX_RX_SIZE                  0x0101u   /* Get data size of largest pkt tar
 111:../Dave/Generated/UCPROBE/probe_com.c **** #define  PROBE_COM_QUERY_MAX_TX_SIZE                  0x0102u   /* Get data size of largest pkt tar
 112:../Dave/Generated/UCPROBE/probe_com.c **** 
 113:../Dave/Generated/UCPROBE/probe_com.c ****                                                                 /* ----------------- TARGET PROPERT
 114:../Dave/Generated/UCPROBE/probe_com.c **** #define  PROBE_COM_QUERY_ENDIANNESS_TEST              0x0201u   /* Test endianness of target.      
 115:../Dave/Generated/UCPROBE/probe_com.c **** #define  PROBE_COM_QUERY_STATUS                       0x0202u   /* Target status.                  
 116:../Dave/Generated/UCPROBE/probe_com.c **** 
 117:../Dave/Generated/UCPROBE/probe_com.c ****                                                                 /* ------------- COMMUNICATION CAPA
 118:../Dave/Generated/UCPROBE/probe_com.c **** #define  PROBE_COM_QUERY_FMT_SUPPORT                  0x1001u   /* Get list of supported req's.    
 119:../Dave/Generated/UCPROBE/probe_com.c **** #define  PROBE_COM_QUERY_VERSION                      0x1002u   /* Get target code ver.            
 120:../Dave/Generated/UCPROBE/probe_com.c **** 
 121:../Dave/Generated/UCPROBE/probe_com.c **** /*
 122:../Dave/Generated/UCPROBE/probe_com.c **** ***************************************************************************************************
 123:../Dave/Generated/UCPROBE/probe_com.c **** *                                          MODIFIERS DEFINES
 124:../Dave/Generated/UCPROBE/probe_com.c **** ***************************************************************************************************
 125:../Dave/Generated/UCPROBE/probe_com.c **** */
 126:../Dave/Generated/UCPROBE/probe_com.c **** 
 127:../Dave/Generated/UCPROBE/probe_com.c **** #define  PROBE_COM_MODIFIER_NONE                  DEF_BIT_NONE
 128:../Dave/Generated/UCPROBE/probe_com.c **** #define  PROBE_COM_MODIFIER_STR_OUT_AVAIL         DEF_BIT_00    /* Str out is avail.               
 129:../Dave/Generated/UCPROBE/probe_com.c **** #define  PROBE_COM_MODIFIER_TERMINAL_EXEC_DONE    DEF_BIT_01    /* Terminal cmd exec done.         
 130:../Dave/Generated/UCPROBE/probe_com.c **** #define  PROBE_COM_MODIFIER_TERMINAL_OUT_AVAIL    DEF_BIT_02    /* Terminal out is avail.          
 131:../Dave/Generated/UCPROBE/probe_com.c **** 
 132:../Dave/Generated/UCPROBE/probe_com.c **** /*
 133:../Dave/Generated/UCPROBE/probe_com.c **** ***************************************************************************************************
 134:../Dave/Generated/UCPROBE/probe_com.c **** *                                        HEADER SIZES DEFINES
 135:../Dave/Generated/UCPROBE/probe_com.c **** *
 136:../Dave/Generated/UCPROBE/probe_com.c **** * Note(s):  (1) The first four bytes in all tx data segments is identical:
 137:../Dave/Generated/UCPROBE/probe_com.c **** *
 138:../Dave/Generated/UCPROBE/probe_com.c **** *               (a) A 2-byte format;
 139:../Dave/Generated/UCPROBE/probe_com.c **** *               (b) A 1-byte status;
 140:../Dave/Generated/UCPROBE/probe_com.c **** *               (c) A 1-byte modifier, currently unused.
 141:../Dave/Generated/UCPROBE/probe_com.c **** *
 142:../Dave/Generated/UCPROBE/probe_com.c **** *           (2) The first two bytes in all rx data segments is identical:
 143:../Dave/Generated/UCPROBE/probe_com.c **** *
 144:../Dave/Generated/UCPROBE/probe_com.c **** *               (a) A 2-byte format.
 145:../Dave/Generated/UCPROBE/probe_com.c **** ***************************************************************************************************
 146:../Dave/Generated/UCPROBE/probe_com.c **** */
 147:../Dave/Generated/UCPROBE/probe_com.c **** 
 148:../Dave/Generated/UCPROBE/probe_com.c **** #define  PROBE_COM_SIZE_RX_HDR                             2u
 149:../Dave/Generated/UCPROBE/probe_com.c **** #define  PROBE_COM_SIZE_TX_HDR                             4u
 150:../Dave/Generated/UCPROBE/probe_com.c **** 
 151:../Dave/Generated/UCPROBE/probe_com.c **** /*
 152:../Dave/Generated/UCPROBE/probe_com.c **** ***************************************************************************************************
 153:../Dave/Generated/UCPROBE/probe_com.c **** *                                           LOCAL CONSTANTS
 154:../Dave/Generated/UCPROBE/probe_com.c **** ***************************************************************************************************
 155:../Dave/Generated/UCPROBE/probe_com.c **** */
 156:../Dave/Generated/UCPROBE/probe_com.c **** 
 157:../Dave/Generated/UCPROBE/probe_com.c **** 
 158:../Dave/Generated/UCPROBE/probe_com.c **** /*
 159:../Dave/Generated/UCPROBE/probe_com.c **** ***************************************************************************************************
 160:../Dave/Generated/UCPROBE/probe_com.c **** *                                          LOCAL DATA TYPES
 161:../Dave/Generated/UCPROBE/probe_com.c **** ***************************************************************************************************
 162:../Dave/Generated/UCPROBE/probe_com.c **** */
 163:../Dave/Generated/UCPROBE/probe_com.c **** 
 164:../Dave/Generated/UCPROBE/probe_com.c **** typedef  struct  probe_com_buf {
 165:../Dave/Generated/UCPROBE/probe_com.c ****     CPU_SIZE_T   Len;
 166:../Dave/Generated/UCPROBE/probe_com.c ****     CPU_SIZE_T   IxRd;
 167:../Dave/Generated/UCPROBE/probe_com.c ****     CPU_SIZE_T   IxWr;
 168:../Dave/Generated/UCPROBE/probe_com.c ****     CPU_INT08U  *DataPtr;
 169:../Dave/Generated/UCPROBE/probe_com.c **** } PROBE_COM_BUF;
 170:../Dave/Generated/UCPROBE/probe_com.c **** 
 171:../Dave/Generated/UCPROBE/probe_com.c **** 
 172:../Dave/Generated/UCPROBE/probe_com.c **** /*
 173:../Dave/Generated/UCPROBE/probe_com.c **** ***************************************************************************************************
 174:../Dave/Generated/UCPROBE/probe_com.c **** *                                            LOCAL TABLES
 175:../Dave/Generated/UCPROBE/probe_com.c **** ***************************************************************************************************
 176:../Dave/Generated/UCPROBE/probe_com.c **** */
 177:../Dave/Generated/UCPROBE/probe_com.c **** 
 178:../Dave/Generated/UCPROBE/probe_com.c **** 
 179:../Dave/Generated/UCPROBE/probe_com.c **** /*
 180:../Dave/Generated/UCPROBE/probe_com.c **** ***************************************************************************************************
 181:../Dave/Generated/UCPROBE/probe_com.c **** *                                       LOCAL GLOBAL VARIABLES
 182:../Dave/Generated/UCPROBE/probe_com.c **** ***************************************************************************************************
 183:../Dave/Generated/UCPROBE/probe_com.c **** */
 184:../Dave/Generated/UCPROBE/probe_com.c **** 
 185:../Dave/Generated/UCPROBE/probe_com.c **** #if (PROBE_COM_CFG_STR_REQ_EN       == DEF_ENABLED)
 186:../Dave/Generated/UCPROBE/probe_com.c **** static  CPU_CHAR                       ProbeCom_StrInBufData[PROBE_COM_CFG_STR_IN_BUF_SIZE];
 187:../Dave/Generated/UCPROBE/probe_com.c **** static  PROBE_COM_BUF                  ProbeCom_StrInBuf;
 188:../Dave/Generated/UCPROBE/probe_com.c **** 
 189:../Dave/Generated/UCPROBE/probe_com.c **** static  CPU_CHAR                       ProbeCom_StrOutBufData[PROBE_COM_CFG_STR_OUT_BUF_SIZE];
 190:../Dave/Generated/UCPROBE/probe_com.c **** static  PROBE_COM_BUF                  ProbeCom_StrOutBuf;
 191:../Dave/Generated/UCPROBE/probe_com.c **** #endif
 192:../Dave/Generated/UCPROBE/probe_com.c **** 
 193:../Dave/Generated/UCPROBE/probe_com.c **** #if (PROBE_COM_CFG_TERMINAL_REQ_EN  == DEF_ENABLED)
 194:../Dave/Generated/UCPROBE/probe_com.c **** static  PROBE_COM_TERMINAL_EXEC_FNCT   ProbeCom_TerminalExecHandler;
 195:../Dave/Generated/UCPROBE/probe_com.c **** static  CPU_BOOLEAN                    ProbeCom_TerminalExecuting;
 196:../Dave/Generated/UCPROBE/probe_com.c **** 
 197:../Dave/Generated/UCPROBE/probe_com.c **** static  PROBE_COM_TERMINAL_IN_FNCT     ProbeCom_TerminalInHandler;
 198:../Dave/Generated/UCPROBE/probe_com.c **** 
 199:../Dave/Generated/UCPROBE/probe_com.c **** static  CPU_INT08U                    *ProbeCom_TerminalOutBufPtr;
 200:../Dave/Generated/UCPROBE/probe_com.c **** static  CPU_SIZE_T                     ProbeCom_TerminalOutBufIx;
 201:../Dave/Generated/UCPROBE/probe_com.c **** static  CPU_SIZE_T                     ProbeCom_TerminalOutBufLen;
 202:../Dave/Generated/UCPROBE/probe_com.c **** #endif
 203:../Dave/Generated/UCPROBE/probe_com.c **** 
 204:../Dave/Generated/UCPROBE/probe_com.c **** static  CPU_INT32U                     ProbeCom_EndiannessTest;
 205:../Dave/Generated/UCPROBE/probe_com.c **** 
 206:../Dave/Generated/UCPROBE/probe_com.c **** 
 207:../Dave/Generated/UCPROBE/probe_com.c **** /*
 208:../Dave/Generated/UCPROBE/probe_com.c **** ***************************************************************************************************
 209:../Dave/Generated/UCPROBE/probe_com.c **** *                                      LOCAL FUNCTION PROTOTYPES
 210:../Dave/Generated/UCPROBE/probe_com.c **** ***************************************************************************************************
 211:../Dave/Generated/UCPROBE/probe_com.c **** */
 212:../Dave/Generated/UCPROBE/probe_com.c **** 
 213:../Dave/Generated/UCPROBE/probe_com.c **** static  CPU_INT08U   ProbeCom_PktModifier     (void);
 214:../Dave/Generated/UCPROBE/probe_com.c **** 
 215:../Dave/Generated/UCPROBE/probe_com.c **** static  CPU_SIZE_T   ProbeCom_ReqErr          (CPU_INT08U      *ptx_buf,
 216:../Dave/Generated/UCPROBE/probe_com.c ****                                                CPU_INT08U       pcomm_err);
 217:../Dave/Generated/UCPROBE/probe_com.c **** 
 218:../Dave/Generated/UCPROBE/probe_com.c **** 
 219:../Dave/Generated/UCPROBE/probe_com.c ****                                                                 /* ------------------- HANDLE REQ'S
 220:../Dave/Generated/UCPROBE/probe_com.c **** static  CPU_SIZE_T   ProbeCom_ReqQuery        (CPU_INT08U      *prx_buf,
 221:../Dave/Generated/UCPROBE/probe_com.c ****                                                CPU_INT08U      *ptx_buf,
 222:../Dave/Generated/UCPROBE/probe_com.c ****                                                CPU_SIZE_T       rx_pkt_size,
 223:../Dave/Generated/UCPROBE/probe_com.c ****                                                CPU_SIZE_T       tx_buf_size);
 224:../Dave/Generated/UCPROBE/probe_com.c **** 
 225:../Dave/Generated/UCPROBE/probe_com.c **** static  CPU_SIZE_T   ProbeCom_ReqRd           (CPU_INT08U      *prx_buf,
 226:../Dave/Generated/UCPROBE/probe_com.c ****                                                CPU_INT08U      *ptx_buf,
 227:../Dave/Generated/UCPROBE/probe_com.c ****                                                CPU_SIZE_T       rx_pkt_size,
 228:../Dave/Generated/UCPROBE/probe_com.c ****                                                CPU_SIZE_T       tx_buf_size);
 229:../Dave/Generated/UCPROBE/probe_com.c **** 
 230:../Dave/Generated/UCPROBE/probe_com.c **** static  CPU_SIZE_T   ProbeCom_ReqRdMulti      (CPU_INT08U      *prx_buf,
 231:../Dave/Generated/UCPROBE/probe_com.c ****                                                CPU_INT08U      *ptx_buf,
 232:../Dave/Generated/UCPROBE/probe_com.c ****                                                CPU_SIZE_T       rx_pkt_size,
 233:../Dave/Generated/UCPROBE/probe_com.c ****                                                CPU_SIZE_T       tx_buf_size);
 234:../Dave/Generated/UCPROBE/probe_com.c **** 
 235:../Dave/Generated/UCPROBE/probe_com.c **** #if (PROBE_COM_CFG_WR_REQ_EN == DEF_ENABLED)
 236:../Dave/Generated/UCPROBE/probe_com.c **** static  CPU_SIZE_T   ProbeCom_ReqWr           (CPU_INT08U      *prx_buf,
 237:../Dave/Generated/UCPROBE/probe_com.c ****                                                CPU_INT08U      *ptx_buf,
 238:../Dave/Generated/UCPROBE/probe_com.c ****                                                CPU_SIZE_T       rx_pkt_size,
 239:../Dave/Generated/UCPROBE/probe_com.c ****                                                CPU_SIZE_T       tx_buf_size);
 240:../Dave/Generated/UCPROBE/probe_com.c **** 
 241:../Dave/Generated/UCPROBE/probe_com.c **** static  CPU_SIZE_T   ProbeCom_ReqWrMulti      (CPU_INT08U      *prx_buf,
 242:../Dave/Generated/UCPROBE/probe_com.c ****                                                CPU_INT08U      *ptx_buf,
 243:../Dave/Generated/UCPROBE/probe_com.c ****                                                CPU_SIZE_T       rx_pkt_size,
 244:../Dave/Generated/UCPROBE/probe_com.c ****                                                CPU_SIZE_T       tx_buf_size);
 245:../Dave/Generated/UCPROBE/probe_com.c **** #endif
 246:../Dave/Generated/UCPROBE/probe_com.c **** 
 247:../Dave/Generated/UCPROBE/probe_com.c **** #if (PROBE_COM_CFG_STR_REQ_EN == DEF_ENABLED)
 248:../Dave/Generated/UCPROBE/probe_com.c **** static  CPU_SIZE_T   ProbeCom_ReqStrIn        (CPU_INT08U      *prx_buf,
 249:../Dave/Generated/UCPROBE/probe_com.c ****                                                CPU_INT08U      *ptx_buf,
 250:../Dave/Generated/UCPROBE/probe_com.c ****                                                CPU_SIZE_T       rx_pkt_size,
 251:../Dave/Generated/UCPROBE/probe_com.c ****                                                CPU_SIZE_T       tx_buf_size);
 252:../Dave/Generated/UCPROBE/probe_com.c **** 
 253:../Dave/Generated/UCPROBE/probe_com.c **** static  CPU_SIZE_T   ProbeCom_ReqStrOut       (CPU_INT08U      *prx_buf,
 254:../Dave/Generated/UCPROBE/probe_com.c ****                                                CPU_INT08U      *ptx_buf,
 255:../Dave/Generated/UCPROBE/probe_com.c ****                                                CPU_SIZE_T       rx_pkt_size,
 256:../Dave/Generated/UCPROBE/probe_com.c ****                                                CPU_SIZE_T       tx_buf_size);
 257:../Dave/Generated/UCPROBE/probe_com.c **** #endif
 258:../Dave/Generated/UCPROBE/probe_com.c **** 
 259:../Dave/Generated/UCPROBE/probe_com.c **** #if (PROBE_COM_CFG_TERMINAL_REQ_EN == DEF_ENABLED)
 260:../Dave/Generated/UCPROBE/probe_com.c **** static  CPU_SIZE_T   ProbeCom_ReqTerminalExec (CPU_INT08U      *prx_buf,
 261:../Dave/Generated/UCPROBE/probe_com.c ****                                                CPU_INT08U      *ptx_buf,
 262:../Dave/Generated/UCPROBE/probe_com.c ****                                                CPU_SIZE_T       rx_pkt_size,
 263:../Dave/Generated/UCPROBE/probe_com.c ****                                                CPU_SIZE_T       tx_buf_size);
 264:../Dave/Generated/UCPROBE/probe_com.c **** 
 265:../Dave/Generated/UCPROBE/probe_com.c **** static  CPU_SIZE_T   ProbeCom_ReqTerminalIn   (CPU_INT08U      *prx_buf,
 266:../Dave/Generated/UCPROBE/probe_com.c ****                                                CPU_INT08U      *ptx_buf,
 267:../Dave/Generated/UCPROBE/probe_com.c ****                                                CPU_SIZE_T       rx_pkt_size,
 268:../Dave/Generated/UCPROBE/probe_com.c ****                                                CPU_SIZE_T       tx_buf_size);
 269:../Dave/Generated/UCPROBE/probe_com.c **** 
 270:../Dave/Generated/UCPROBE/probe_com.c **** static  CPU_SIZE_T   ProbeCom_ReqTerminalOut  (CPU_INT08U      *prx_buf,
 271:../Dave/Generated/UCPROBE/probe_com.c ****                                                CPU_INT08U      *ptx_buf,
 272:../Dave/Generated/UCPROBE/probe_com.c ****                                                CPU_SIZE_T       rx_pkt_size,
 273:../Dave/Generated/UCPROBE/probe_com.c ****                                                CPU_SIZE_T       tx_buf_size);
 274:../Dave/Generated/UCPROBE/probe_com.c **** #endif
 275:../Dave/Generated/UCPROBE/probe_com.c **** 
 276:../Dave/Generated/UCPROBE/probe_com.c ****                                                                 /* ------------------- DYNAMIC BUFF
 277:../Dave/Generated/UCPROBE/probe_com.c **** #if (PROBE_COM_CFG_STR_REQ_EN == DEF_TRUE)
 278:../Dave/Generated/UCPROBE/probe_com.c **** static  void         ProbeCom_BufInit         (PROBE_COM_BUF   *pbuf,
 279:../Dave/Generated/UCPROBE/probe_com.c ****                                                CPU_INT08U      *pdata,
 280:../Dave/Generated/UCPROBE/probe_com.c ****                                                CPU_SIZE_T       len);
 281:../Dave/Generated/UCPROBE/probe_com.c **** 
 282:../Dave/Generated/UCPROBE/probe_com.c **** static  CPU_SIZE_T   ProbeCom_BufRd           (PROBE_COM_BUF   *pbuf,
 283:../Dave/Generated/UCPROBE/probe_com.c ****                                                CPU_INT08U      *pdest,
 284:../Dave/Generated/UCPROBE/probe_com.c ****                                                CPU_SIZE_T       len)
 285:../Dave/Generated/UCPROBE/probe_com.c **** ;
 286:../Dave/Generated/UCPROBE/probe_com.c **** static  CPU_SIZE_T   ProbeCom_BufWr           (PROBE_COM_BUF   *pbuf,
 287:../Dave/Generated/UCPROBE/probe_com.c ****                                                CPU_INT08U      *psrc,
 288:../Dave/Generated/UCPROBE/probe_com.c ****                                                CPU_SIZE_T       len);
 289:../Dave/Generated/UCPROBE/probe_com.c **** 
 290:../Dave/Generated/UCPROBE/probe_com.c **** static  CPU_BOOLEAN  ProbeCom_BufIsEmpty      (PROBE_COM_BUF   *pbuf);
 291:../Dave/Generated/UCPROBE/probe_com.c **** #endif
 292:../Dave/Generated/UCPROBE/probe_com.c **** 
 293:../Dave/Generated/UCPROBE/probe_com.c **** #if 0
 294:../Dave/Generated/UCPROBE/probe_com.c **** static  CPU_BOOLEAN  ProbeCom_BufIsFull       (PROBE_COM_BUF   *pbuf);
 295:../Dave/Generated/UCPROBE/probe_com.c **** #endif
 296:../Dave/Generated/UCPROBE/probe_com.c **** 
 297:../Dave/Generated/UCPROBE/probe_com.c ****                                                                 /* ------------------- STATIC BUFFE
 298:../Dave/Generated/UCPROBE/probe_com.c **** static  CPU_INT08U   ProbeCom_GetINT08U       (CPU_INT08U     **pbuf);
 299:../Dave/Generated/UCPROBE/probe_com.c **** 
 300:../Dave/Generated/UCPROBE/probe_com.c **** static  CPU_INT16U   ProbeCom_GetINT16U       (CPU_INT08U     **pbuf);
 301:../Dave/Generated/UCPROBE/probe_com.c **** 
 302:../Dave/Generated/UCPROBE/probe_com.c **** static  CPU_INT32U   ProbeCom_GetINT32U       (CPU_INT08U     **pbuf);
 303:../Dave/Generated/UCPROBE/probe_com.c **** 
 304:../Dave/Generated/UCPROBE/probe_com.c **** static  void         ProbeCom_StoINT08U       (CPU_INT08U     **pbuf,
 305:../Dave/Generated/UCPROBE/probe_com.c ****                                                CPU_INT08U       data);
 306:../Dave/Generated/UCPROBE/probe_com.c **** 
 307:../Dave/Generated/UCPROBE/probe_com.c **** static  void         ProbeCom_StoINT16U       (CPU_INT08U     **pbuf,
 308:../Dave/Generated/UCPROBE/probe_com.c ****                                                CPU_INT16U       data);
 309:../Dave/Generated/UCPROBE/probe_com.c **** 
 310:../Dave/Generated/UCPROBE/probe_com.c **** #if 0
 311:../Dave/Generated/UCPROBE/probe_com.c **** static  void         ProbeCom_StoINT32U       (CPU_INT08U     **pbuf,
 312:../Dave/Generated/UCPROBE/probe_com.c ****                                                CPU_INT32U       data);
 313:../Dave/Generated/UCPROBE/probe_com.c **** #endif
 314:../Dave/Generated/UCPROBE/probe_com.c **** 
 315:../Dave/Generated/UCPROBE/probe_com.c ****                                                                 /* -------------- DETERMINE PKT MOD
 316:../Dave/Generated/UCPROBE/probe_com.c **** #if (PROBE_COM_CFG_STR_REQ_EN == DEF_ENABLED)
 317:../Dave/Generated/UCPROBE/probe_com.c **** static  CPU_BOOLEAN  ProbeCom_StrOutAvail     (void);
 318:../Dave/Generated/UCPROBE/probe_com.c **** #endif
 319:../Dave/Generated/UCPROBE/probe_com.c **** 
 320:../Dave/Generated/UCPROBE/probe_com.c **** 
 321:../Dave/Generated/UCPROBE/probe_com.c **** #if (PROBE_COM_CFG_TERMINAL_REQ_EN == DEF_ENABLED)
 322:../Dave/Generated/UCPROBE/probe_com.c **** static  CPU_BOOLEAN  ProbeCom_TerminalOutAvail(void);
 323:../Dave/Generated/UCPROBE/probe_com.c **** 
 324:../Dave/Generated/UCPROBE/probe_com.c **** static  CPU_BOOLEAN  ProbeCom_TerminalExecDone(void);
 325:../Dave/Generated/UCPROBE/probe_com.c **** #endif
 326:../Dave/Generated/UCPROBE/probe_com.c **** 
 327:../Dave/Generated/UCPROBE/probe_com.c **** 
 328:../Dave/Generated/UCPROBE/probe_com.c **** /*
 329:../Dave/Generated/UCPROBE/probe_com.c **** ***************************************************************************************************
 330:../Dave/Generated/UCPROBE/probe_com.c **** *                                     LOCAL CONFIGURATION ERRORS
 331:../Dave/Generated/UCPROBE/probe_com.c **** ***************************************************************************************************
 332:../Dave/Generated/UCPROBE/probe_com.c **** */
 333:../Dave/Generated/UCPROBE/probe_com.c **** 
 334:../Dave/Generated/UCPROBE/probe_com.c **** 
 335:../Dave/Generated/UCPROBE/probe_com.c **** /*
 336:../Dave/Generated/UCPROBE/probe_com.c **** ***************************************************************************************************
 337:../Dave/Generated/UCPROBE/probe_com.c **** *                                           ProbeCom_Init()
 338:../Dave/Generated/UCPROBE/probe_com.c **** *
 339:../Dave/Generated/UCPROBE/probe_com.c **** * Description : Initialize the module.
 340:../Dave/Generated/UCPROBE/probe_com.c **** *
 341:../Dave/Generated/UCPROBE/probe_com.c **** * Argument(s) : none.
 342:../Dave/Generated/UCPROBE/probe_com.c **** *
 343:../Dave/Generated/UCPROBE/probe_com.c **** * Return(s)   : DEF_OK,   if initialization successful.
 344:../Dave/Generated/UCPROBE/probe_com.c **** *               DEF_FAIL, otherwise.
 345:../Dave/Generated/UCPROBE/probe_com.c **** *
 346:../Dave/Generated/UCPROBE/probe_com.c **** * Caller(s)   : Application.
 347:../Dave/Generated/UCPROBE/probe_com.c **** *
 348:../Dave/Generated/UCPROBE/probe_com.c **** * Note(s)     : none.
 349:../Dave/Generated/UCPROBE/probe_com.c **** ***************************************************************************************************
 350:../Dave/Generated/UCPROBE/probe_com.c **** */
 351:../Dave/Generated/UCPROBE/probe_com.c **** 
 352:../Dave/Generated/UCPROBE/probe_com.c **** CPU_BOOLEAN  ProbeCom_Init (void)
 353:../Dave/Generated/UCPROBE/probe_com.c **** {
 104              	 .loc 1 353 0
 105              	 .cfi_startproc
 106              	 
 107              	 
 108 0000 80B5     	 push {r7,lr}
 109              	.LCFI0:
 110              	 .cfi_def_cfa_offset 8
 111              	 .cfi_offset 7,-8
 112              	 .cfi_offset 14,-4
 113 0002 82B0     	 sub sp,sp,#8
 114              	.LCFI1:
 115              	 .cfi_def_cfa_offset 16
 116 0004 00AF     	 add r7,sp,#0
 117              	.LCFI2:
 118              	 .cfi_def_cfa_register 7
 354:../Dave/Generated/UCPROBE/probe_com.c **** #if (PROBE_COM_CFG_TERMINAL_REQ_EN == DEF_ENABLED)
 355:../Dave/Generated/UCPROBE/probe_com.c ****     CPU_BOOLEAN  ok;
 356:../Dave/Generated/UCPROBE/probe_com.c **** #endif
 357:../Dave/Generated/UCPROBE/probe_com.c **** 
 358:../Dave/Generated/UCPROBE/probe_com.c **** 
 359:../Dave/Generated/UCPROBE/probe_com.c **** #if (PROBE_COM_CFG_STR_REQ_EN      == DEF_ENABLED)
 360:../Dave/Generated/UCPROBE/probe_com.c ****     Mem_Clr((void     *)&ProbeCom_StrInBufData[0],
 119              	 .loc 1 360 0
 120 0006 2C48     	 ldr r0,.L4
 121 0008 8021     	 movs r1,#128
 122 000a FFF7FEFF 	 bl Mem_Clr
 361:../Dave/Generated/UCPROBE/probe_com.c ****             (CPU_SIZE_T) PROBE_COM_CFG_STR_IN_BUF_SIZE);
 362:../Dave/Generated/UCPROBE/probe_com.c **** 
 363:../Dave/Generated/UCPROBE/probe_com.c ****     ProbeCom_BufInit((PROBE_COM_BUF *)&ProbeCom_StrInBuf,
 123              	 .loc 1 363 0
 124 000e 2B48     	 ldr r0,.L4+4
 125 0010 2949     	 ldr r1,.L4
 126 0012 8022     	 movs r2,#128
 127 0014 FFF7FEFF 	 bl ProbeCom_BufInit
 364:../Dave/Generated/UCPROBE/probe_com.c ****                      (CPU_INT08U    *)&ProbeCom_StrInBufData[0],
 365:../Dave/Generated/UCPROBE/probe_com.c ****                      (CPU_SIZE_T     ) PROBE_COM_CFG_STR_IN_BUF_SIZE);
 366:../Dave/Generated/UCPROBE/probe_com.c **** 
 367:../Dave/Generated/UCPROBE/probe_com.c ****     Mem_Clr((void     *)&ProbeCom_StrOutBufData[0],
 128              	 .loc 1 367 0
 129 0018 2948     	 ldr r0,.L4+8
 130 001a 4FF40061 	 mov r1,#2048
 131 001e FFF7FEFF 	 bl Mem_Clr
 368:../Dave/Generated/UCPROBE/probe_com.c ****             (CPU_SIZE_T) PROBE_COM_CFG_STR_OUT_BUF_SIZE);
 369:../Dave/Generated/UCPROBE/probe_com.c **** 
 370:../Dave/Generated/UCPROBE/probe_com.c ****     ProbeCom_BufInit((PROBE_COM_BUF *)&ProbeCom_StrOutBuf,
 132              	 .loc 1 370 0
 133 0022 2848     	 ldr r0,.L4+12
 134 0024 2649     	 ldr r1,.L4+8
 135 0026 4FF40062 	 mov r2,#2048
 136 002a FFF7FEFF 	 bl ProbeCom_BufInit
 371:../Dave/Generated/UCPROBE/probe_com.c ****                      (CPU_INT08U    *)&ProbeCom_StrOutBufData[0],
 372:../Dave/Generated/UCPROBE/probe_com.c ****                      (CPU_SIZE_T     ) PROBE_COM_CFG_STR_OUT_BUF_SIZE);
 373:../Dave/Generated/UCPROBE/probe_com.c **** #endif
 374:../Dave/Generated/UCPROBE/probe_com.c **** 
 375:../Dave/Generated/UCPROBE/probe_com.c **** 
 376:../Dave/Generated/UCPROBE/probe_com.c **** #if (PROBE_COM_CFG_TERMINAL_REQ_EN == DEF_ENABLED)
 377:../Dave/Generated/UCPROBE/probe_com.c ****     ProbeCom_TerminalExecHandler   = (void        *)0;
 137              	 .loc 1 377 0
 138 002e 264B     	 ldr r3,.L4+16
 139 0030 0022     	 movs r2,#0
 140 0032 1A60     	 str r2,[r3]
 378:../Dave/Generated/UCPROBE/probe_com.c ****     ProbeCom_TerminalExecuting     = (CPU_BOOLEAN  )DEF_NO;
 141              	 .loc 1 378 0
 142 0034 254B     	 ldr r3,.L4+20
 143 0036 0022     	 movs r2,#0
 144 0038 1A70     	 strb r2,[r3]
 379:../Dave/Generated/UCPROBE/probe_com.c **** 
 380:../Dave/Generated/UCPROBE/probe_com.c ****     ProbeCom_TerminalInHandler     = (void        *)0;
 145              	 .loc 1 380 0
 146 003a 254B     	 ldr r3,.L4+24
 147 003c 0022     	 movs r2,#0
 148 003e 1A60     	 str r2,[r3]
 381:../Dave/Generated/UCPROBE/probe_com.c **** 
 382:../Dave/Generated/UCPROBE/probe_com.c ****     ProbeCom_TerminalOutBufPtr     = (CPU_INT08U  *)0;
 149              	 .loc 1 382 0
 150 0040 244B     	 ldr r3,.L4+28
 151 0042 0022     	 movs r2,#0
 152 0044 1A60     	 str r2,[r3]
 383:../Dave/Generated/UCPROBE/probe_com.c ****     ProbeCom_TerminalOutBufIx      = (CPU_SIZE_T   )0;
 153              	 .loc 1 383 0
 154 0046 244B     	 ldr r3,.L4+32
 155 0048 0022     	 movs r2,#0
 156 004a 1A60     	 str r2,[r3]
 384:../Dave/Generated/UCPROBE/probe_com.c ****     ProbeCom_TerminalOutBufLen     = (CPU_SIZE_T   )0;
 157              	 .loc 1 384 0
 158 004c 234B     	 ldr r3,.L4+36
 159 004e 0022     	 movs r2,#0
 160 0050 1A60     	 str r2,[r3]
 385:../Dave/Generated/UCPROBE/probe_com.c **** 
 386:../Dave/Generated/UCPROBE/probe_com.c ****     ok = ProbeCom_OS_Init();
 161              	 .loc 1 386 0
 162 0052 FFF7FEFF 	 bl ProbeCom_OS_Init
 163 0056 0346     	 mov r3,r0
 164 0058 FB71     	 strb r3,[r7,#7]
 387:../Dave/Generated/UCPROBE/probe_com.c **** 
 388:../Dave/Generated/UCPROBE/probe_com.c ****     if (ok == DEF_FAIL) {
 165              	 .loc 1 388 0
 166 005a FB79     	 ldrb r3,[r7,#7]
 167 005c 002B     	 cmp r3,#0
 168 005e 01D1     	 bne .L2
 389:../Dave/Generated/UCPROBE/probe_com.c ****         return (DEF_FAIL);
 169              	 .loc 1 389 0
 170 0060 0023     	 movs r3,#0
 171 0062 24E0     	 b .L3
 172              	.L2:
 390:../Dave/Generated/UCPROBE/probe_com.c ****     }
 391:../Dave/Generated/UCPROBE/probe_com.c **** #endif
 392:../Dave/Generated/UCPROBE/probe_com.c **** 
 393:../Dave/Generated/UCPROBE/probe_com.c **** 
 394:../Dave/Generated/UCPROBE/probe_com.c **** #if (PROBE_COM_CFG_STAT_EN         == DEF_ENABLED)
 395:../Dave/Generated/UCPROBE/probe_com.c ****     ProbeCom_RxPktCtr              =  0u;
 173              	 .loc 1 395 0
 174 0064 1E4B     	 ldr r3,.L4+40
 175 0066 0022     	 movs r2,#0
 176 0068 1A60     	 str r2,[r3]
 396:../Dave/Generated/UCPROBE/probe_com.c ****     ProbeCom_TxPktCtr              =  0u;
 177              	 .loc 1 396 0
 178 006a 1E4B     	 ldr r3,.L4+44
 179 006c 0022     	 movs r2,#0
 180 006e 1A60     	 str r2,[r3]
 397:../Dave/Generated/UCPROBE/probe_com.c **** 
 398:../Dave/Generated/UCPROBE/probe_com.c ****     ProbeCom_TxSymCtr              =  0u;
 181              	 .loc 1 398 0
 182 0070 1D4B     	 ldr r3,.L4+48
 183 0072 0022     	 movs r2,#0
 184 0074 1A60     	 str r2,[r3]
 399:../Dave/Generated/UCPROBE/probe_com.c ****     ProbeCom_TxSymByteCtr          =  0u;
 185              	 .loc 1 399 0
 186 0076 1D4B     	 ldr r3,.L4+52
 187 0078 0022     	 movs r2,#0
 188 007a 1A60     	 str r2,[r3]
 400:../Dave/Generated/UCPROBE/probe_com.c ****     ProbeCom_ErrPktCtr             =  0u;
 189              	 .loc 1 400 0
 190 007c 1C4B     	 ldr r3,.L4+56
 191 007e 0022     	 movs r2,#0
 192 0080 1A60     	 str r2,[r3]
 401:../Dave/Generated/UCPROBE/probe_com.c **** 
 402:../Dave/Generated/UCPROBE/probe_com.c **** #if (PROBE_COM_CFG_STR_REQ_EN      == DEF_ENABLED)
 403:../Dave/Generated/UCPROBE/probe_com.c ****     ProbeCom_StrRxCtr              =  0u;
 193              	 .loc 1 403 0
 194 0082 1C4B     	 ldr r3,.L4+60
 195 0084 0022     	 movs r2,#0
 196 0086 1A60     	 str r2,[r3]
 404:../Dave/Generated/UCPROBE/probe_com.c ****     ProbeCom_StrRxOvfErrCtr        =  0u;
 197              	 .loc 1 404 0
 198 0088 1B4B     	 ldr r3,.L4+64
 199 008a 0022     	 movs r2,#0
 200 008c 1A60     	 str r2,[r3]
 405:../Dave/Generated/UCPROBE/probe_com.c **** 
 406:../Dave/Generated/UCPROBE/probe_com.c ****     ProbeCom_StrTxCtr              =  0u;
 201              	 .loc 1 406 0
 202 008e 1B4B     	 ldr r3,.L4+68
 203 0090 0022     	 movs r2,#0
 204 0092 1A60     	 str r2,[r3]
 407:../Dave/Generated/UCPROBE/probe_com.c ****     ProbeCom_StrTxOvfErrCtr        =  0u;
 205              	 .loc 1 407 0
 206 0094 1A4B     	 ldr r3,.L4+72
 207 0096 0022     	 movs r2,#0
 208 0098 1A60     	 str r2,[r3]
 408:../Dave/Generated/UCPROBE/probe_com.c **** #endif
 409:../Dave/Generated/UCPROBE/probe_com.c **** 
 410:../Dave/Generated/UCPROBE/probe_com.c **** #if (PROBE_COM_CFG_WR_REQ_EN       == DEF_ENABLED)
 411:../Dave/Generated/UCPROBE/probe_com.c ****     ProbeCom_RxSymCtr              =  0u;
 209              	 .loc 1 411 0
 210 009a 1A4B     	 ldr r3,.L4+76
 211 009c 0022     	 movs r2,#0
 212 009e 1A60     	 str r2,[r3]
 412:../Dave/Generated/UCPROBE/probe_com.c ****     ProbeCom_RxSymByteCtr          =  0u;
 213              	 .loc 1 412 0
 214 00a0 194B     	 ldr r3,.L4+80
 215 00a2 0022     	 movs r2,#0
 216 00a4 1A60     	 str r2,[r3]
 413:../Dave/Generated/UCPROBE/probe_com.c **** #endif
 414:../Dave/Generated/UCPROBE/probe_com.c **** #endif
 415:../Dave/Generated/UCPROBE/probe_com.c **** 
 416:../Dave/Generated/UCPROBE/probe_com.c ****     ProbeCom_EndiannessTest        =  0x12345678uL;
 217              	 .loc 1 416 0
 218 00a6 194B     	 ldr r3,.L4+84
 219 00a8 194A     	 ldr r2,.L4+88
 220 00aa 1A60     	 str r2,[r3]
 417:../Dave/Generated/UCPROBE/probe_com.c **** 
 418:../Dave/Generated/UCPROBE/probe_com.c ****     return (DEF_OK);
 221              	 .loc 1 418 0
 222 00ac 0123     	 movs r3,#1
 223              	.L3:
 419:../Dave/Generated/UCPROBE/probe_com.c **** }
 224              	 .loc 1 419 0
 225 00ae 1846     	 mov r0,r3
 226 00b0 0837     	 adds r7,r7,#8
 227              	.LCFI3:
 228              	 .cfi_def_cfa_offset 8
 229 00b2 BD46     	 mov sp,r7
 230              	.LCFI4:
 231              	 .cfi_def_cfa_register 13
 232              	 
 233 00b4 80BD     	 pop {r7,pc}
 234              	.L5:
 235 00b6 00BF     	 .align 2
 236              	.L4:
 237 00b8 00000000 	 .word ProbeCom_StrInBufData
 238 00bc 00000000 	 .word ProbeCom_StrInBuf
 239 00c0 00000000 	 .word ProbeCom_StrOutBufData
 240 00c4 00000000 	 .word ProbeCom_StrOutBuf
 241 00c8 00000000 	 .word ProbeCom_TerminalExecHandler
 242 00cc 00000000 	 .word ProbeCom_TerminalExecuting
 243 00d0 00000000 	 .word ProbeCom_TerminalInHandler
 244 00d4 00000000 	 .word ProbeCom_TerminalOutBufPtr
 245 00d8 00000000 	 .word ProbeCom_TerminalOutBufIx
 246 00dc 00000000 	 .word ProbeCom_TerminalOutBufLen
 247 00e0 00000000 	 .word ProbeCom_RxPktCtr
 248 00e4 00000000 	 .word ProbeCom_TxPktCtr
 249 00e8 00000000 	 .word ProbeCom_TxSymCtr
 250 00ec 00000000 	 .word ProbeCom_TxSymByteCtr
 251 00f0 00000000 	 .word ProbeCom_ErrPktCtr
 252 00f4 00000000 	 .word ProbeCom_StrRxCtr
 253 00f8 00000000 	 .word ProbeCom_StrRxOvfErrCtr
 254 00fc 00000000 	 .word ProbeCom_StrTxCtr
 255 0100 00000000 	 .word ProbeCom_StrTxOvfErrCtr
 256 0104 00000000 	 .word ProbeCom_RxSymCtr
 257 0108 00000000 	 .word ProbeCom_RxSymByteCtr
 258 010c 00000000 	 .word ProbeCom_EndiannessTest
 259 0110 78563412 	 .word 305419896
 260              	 .cfi_endproc
 261              	.LFE0:
 263              	 .section .text.ProbeCom_StrRd,"ax",%progbits
 264              	 .align 2
 265              	 .global ProbeCom_StrRd
 266              	 .thumb
 267              	 .thumb_func
 269              	ProbeCom_StrRd:
 270              	.LFB1:
 420:../Dave/Generated/UCPROBE/probe_com.c **** 
 421:../Dave/Generated/UCPROBE/probe_com.c **** 
 422:../Dave/Generated/UCPROBE/probe_com.c **** /*
 423:../Dave/Generated/UCPROBE/probe_com.c **** ***************************************************************************************************
 424:../Dave/Generated/UCPROBE/probe_com.c **** *                                          ProbeCom_StrRd()
 425:../Dave/Generated/UCPROBE/probe_com.c **** *
 426:../Dave/Generated/UCPROBE/probe_com.c **** * Description : Read input data.
 427:../Dave/Generated/UCPROBE/probe_com.c **** *
 428:../Dave/Generated/UCPROBE/probe_com.c **** * Argument(s) : pdest       Pointer to the destination buffer.
 429:../Dave/Generated/UCPROBE/probe_com.c **** *
 430:../Dave/Generated/UCPROBE/probe_com.c **** *               len         Length of the destination buffer, in octets/characters.
 431:../Dave/Generated/UCPROBE/probe_com.c **** *
 432:../Dave/Generated/UCPROBE/probe_com.c **** * Return(s)   : Number of octets/characters read.
 433:../Dave/Generated/UCPROBE/probe_com.c **** *
 434:../Dave/Generated/UCPROBE/probe_com.c **** * Caller(s)   : Application.
 435:../Dave/Generated/UCPROBE/probe_com.c **** *
 436:../Dave/Generated/UCPROBE/probe_com.c **** * Note(s)     : (1) This function implements a non-blocking read.  It will read as much data as fit
 437:../Dave/Generated/UCPROBE/probe_com.c **** *                   into the buffer, up to 'len' bytes/characters.  The calling application should
 438:../Dave/Generated/UCPROBE/probe_com.c **** *                   monitor the return value to see if more data needs to be read.
 439:../Dave/Generated/UCPROBE/probe_com.c **** *
 440:../Dave/Generated/UCPROBE/probe_com.c **** *               (2) Since this function never blocks, it should not be called in a tight loop witho
 441:../Dave/Generated/UCPROBE/probe_com.c **** *                   delay.
 442:../Dave/Generated/UCPROBE/probe_com.c **** *
 443:../Dave/Generated/UCPROBE/probe_com.c **** *               (3) This function MAY be called from an ISR.
 444:../Dave/Generated/UCPROBE/probe_com.c **** ***************************************************************************************************
 445:../Dave/Generated/UCPROBE/probe_com.c **** */
 446:../Dave/Generated/UCPROBE/probe_com.c **** 
 447:../Dave/Generated/UCPROBE/probe_com.c **** #if (PROBE_COM_CFG_STR_REQ_EN == DEF_ENABLED)
 448:../Dave/Generated/UCPROBE/probe_com.c **** CPU_SIZE_T  ProbeCom_StrRd (CPU_CHAR    *pdest,
 449:../Dave/Generated/UCPROBE/probe_com.c ****                             CPU_SIZE_T   len)
 450:../Dave/Generated/UCPROBE/probe_com.c **** {
 271              	 .loc 1 450 0
 272              	 .cfi_startproc
 273              	 
 274              	 
 275 0000 80B5     	 push {r7,lr}
 276              	.LCFI5:
 277              	 .cfi_def_cfa_offset 8
 278              	 .cfi_offset 7,-8
 279              	 .cfi_offset 14,-4
 280 0002 84B0     	 sub sp,sp,#16
 281              	.LCFI6:
 282              	 .cfi_def_cfa_offset 24
 283 0004 00AF     	 add r7,sp,#0
 284              	.LCFI7:
 285              	 .cfi_def_cfa_register 7
 286 0006 7860     	 str r0,[r7,#4]
 287 0008 3960     	 str r1,[r7]
 451:../Dave/Generated/UCPROBE/probe_com.c ****     CPU_SIZE_T  len_rd;
 452:../Dave/Generated/UCPROBE/probe_com.c **** 
 453:../Dave/Generated/UCPROBE/probe_com.c **** 
 454:../Dave/Generated/UCPROBE/probe_com.c ****     len_rd = ProbeCom_BufRd((PROBE_COM_BUF *)&ProbeCom_StrInBuf,
 288              	 .loc 1 454 0
 289 000a 0548     	 ldr r0,.L8
 290 000c 7968     	 ldr r1,[r7,#4]
 291 000e 3A68     	 ldr r2,[r7]
 292 0010 FFF7FEFF 	 bl ProbeCom_BufRd
 293 0014 F860     	 str r0,[r7,#12]
 455:../Dave/Generated/UCPROBE/probe_com.c ****                             (CPU_INT08U    *) pdest,
 456:../Dave/Generated/UCPROBE/probe_com.c ****                             (CPU_SIZE_T     ) len);
 457:../Dave/Generated/UCPROBE/probe_com.c **** 
 458:../Dave/Generated/UCPROBE/probe_com.c ****     return (len_rd);
 294              	 .loc 1 458 0
 295 0016 FB68     	 ldr r3,[r7,#12]
 459:../Dave/Generated/UCPROBE/probe_com.c **** }
 296              	 .loc 1 459 0
 297 0018 1846     	 mov r0,r3
 298 001a 1037     	 adds r7,r7,#16
 299              	.LCFI8:
 300              	 .cfi_def_cfa_offset 8
 301 001c BD46     	 mov sp,r7
 302              	.LCFI9:
 303              	 .cfi_def_cfa_register 13
 304              	 
 305 001e 80BD     	 pop {r7,pc}
 306              	.L9:
 307              	 .align 2
 308              	.L8:
 309 0020 00000000 	 .word ProbeCom_StrInBuf
 310              	 .cfi_endproc
 311              	.LFE1:
 313              	 .section .text.ProbeCom_StrWr,"ax",%progbits
 314              	 .align 2
 315              	 .global ProbeCom_StrWr
 316              	 .thumb
 317              	 .thumb_func
 319              	ProbeCom_StrWr:
 320              	.LFB2:
 460:../Dave/Generated/UCPROBE/probe_com.c **** #endif
 461:../Dave/Generated/UCPROBE/probe_com.c **** 
 462:../Dave/Generated/UCPROBE/probe_com.c **** 
 463:../Dave/Generated/UCPROBE/probe_com.c **** /*
 464:../Dave/Generated/UCPROBE/probe_com.c **** ***************************************************************************************************
 465:../Dave/Generated/UCPROBE/probe_com.c **** *                                          ProbeCom_StrWr()
 466:../Dave/Generated/UCPROBE/probe_com.c **** *
 467:../Dave/Generated/UCPROBE/probe_com.c **** * Description : Write or buffer data for output.
 468:../Dave/Generated/UCPROBE/probe_com.c **** *
 469:../Dave/Generated/UCPROBE/probe_com.c **** * Argument(s) : psrc        Pointer to the source buffer.
 470:../Dave/Generated/UCPROBE/probe_com.c **** *
 471:../Dave/Generated/UCPROBE/probe_com.c **** *               len         Length of the source buffer, in octets/characters.
 472:../Dave/Generated/UCPROBE/probe_com.c **** *
 473:../Dave/Generated/UCPROBE/probe_com.c **** * Return(s)   : Number of octets/characters written or buffered.
 474:../Dave/Generated/UCPROBE/probe_com.c **** *
 475:../Dave/Generated/UCPROBE/probe_com.c **** * Caller(s)   : Application.
 476:../Dave/Generated/UCPROBE/probe_com.c **** *
 477:../Dave/Generated/UCPROBE/probe_com.c **** * Note(s)     : (1) This function implements a non-blocking write.  It will write as much data as f
 478:../Dave/Generated/UCPROBE/probe_com.c **** *                   into the buffer, up to 'len' bytes/characters.  The calling application should
 479:../Dave/Generated/UCPROBE/probe_com.c **** *                   monitor the return value to see if more data from the buffer needs to be writte
 480:../Dave/Generated/UCPROBE/probe_com.c **** *
 481:../Dave/Generated/UCPROBE/probe_com.c **** *               (2) Since this function never blocks, it should not be called in a tight loop witho
 482:../Dave/Generated/UCPROBE/probe_com.c **** *                   delay.
 483:../Dave/Generated/UCPROBE/probe_com.c **** *
 484:../Dave/Generated/UCPROBE/probe_com.c **** *               (3) This function MAY be called from an ISR.
 485:../Dave/Generated/UCPROBE/probe_com.c **** ***************************************************************************************************
 486:../Dave/Generated/UCPROBE/probe_com.c **** */
 487:../Dave/Generated/UCPROBE/probe_com.c **** 
 488:../Dave/Generated/UCPROBE/probe_com.c **** #if (PROBE_COM_CFG_STR_REQ_EN == DEF_ENABLED)
 489:../Dave/Generated/UCPROBE/probe_com.c **** CPU_SIZE_T  ProbeCom_StrWr (CPU_CHAR    *psrc,
 490:../Dave/Generated/UCPROBE/probe_com.c ****                             CPU_SIZE_T   len)
 491:../Dave/Generated/UCPROBE/probe_com.c **** {
 321              	 .loc 1 491 0
 322              	 .cfi_startproc
 323              	 
 324              	 
 325 0000 80B5     	 push {r7,lr}
 326              	.LCFI10:
 327              	 .cfi_def_cfa_offset 8
 328              	 .cfi_offset 7,-8
 329              	 .cfi_offset 14,-4
 330 0002 84B0     	 sub sp,sp,#16
 331              	.LCFI11:
 332              	 .cfi_def_cfa_offset 24
 333 0004 00AF     	 add r7,sp,#0
 334              	.LCFI12:
 335              	 .cfi_def_cfa_register 7
 336 0006 7860     	 str r0,[r7,#4]
 337 0008 3960     	 str r1,[r7]
 492:../Dave/Generated/UCPROBE/probe_com.c ****     CPU_SIZE_T  len_wr;
 493:../Dave/Generated/UCPROBE/probe_com.c **** 
 494:../Dave/Generated/UCPROBE/probe_com.c **** 
 495:../Dave/Generated/UCPROBE/probe_com.c ****     len_wr = ProbeCom_BufWr((PROBE_COM_BUF *)&ProbeCom_StrOutBuf,
 338              	 .loc 1 495 0
 339 000a 0A48     	 ldr r0,.L13
 340 000c 7968     	 ldr r1,[r7,#4]
 341 000e 3A68     	 ldr r2,[r7]
 342 0010 FFF7FEFF 	 bl ProbeCom_BufWr
 343 0014 F860     	 str r0,[r7,#12]
 496:../Dave/Generated/UCPROBE/probe_com.c ****                             (CPU_INT08U    *) psrc,
 497:../Dave/Generated/UCPROBE/probe_com.c ****                             (CPU_SIZE_T     ) len);
 498:../Dave/Generated/UCPROBE/probe_com.c **** 
 499:../Dave/Generated/UCPROBE/probe_com.c **** #if (PROBE_COM_CFG_STAT_EN == DEF_ENABLED)
 500:../Dave/Generated/UCPROBE/probe_com.c ****     if (len_wr < len) {
 344              	 .loc 1 500 0
 345 0016 FA68     	 ldr r2,[r7,#12]
 346 0018 3B68     	 ldr r3,[r7]
 347 001a 9A42     	 cmp r2,r3
 348 001c 04D2     	 bcs .L11
 501:../Dave/Generated/UCPROBE/probe_com.c ****         ProbeCom_StrTxOvfErrCtr++;
 349              	 .loc 1 501 0
 350 001e 064B     	 ldr r3,.L13+4
 351 0020 1B68     	 ldr r3,[r3]
 352 0022 0133     	 adds r3,r3,#1
 353 0024 044A     	 ldr r2,.L13+4
 354 0026 1360     	 str r3,[r2]
 355              	.L11:
 502:../Dave/Generated/UCPROBE/probe_com.c ****     }
 503:../Dave/Generated/UCPROBE/probe_com.c **** #endif
 504:../Dave/Generated/UCPROBE/probe_com.c **** 
 505:../Dave/Generated/UCPROBE/probe_com.c ****     return (len_wr);
 356              	 .loc 1 505 0
 357 0028 FB68     	 ldr r3,[r7,#12]
 506:../Dave/Generated/UCPROBE/probe_com.c **** }
 358              	 .loc 1 506 0
 359 002a 1846     	 mov r0,r3
 360 002c 1037     	 adds r7,r7,#16
 361              	.LCFI13:
 362              	 .cfi_def_cfa_offset 8
 363 002e BD46     	 mov sp,r7
 364              	.LCFI14:
 365              	 .cfi_def_cfa_register 13
 366              	 
 367 0030 80BD     	 pop {r7,pc}
 368              	.L14:
 369 0032 00BF     	 .align 2
 370              	.L13:
 371 0034 00000000 	 .word ProbeCom_StrOutBuf
 372 0038 00000000 	 .word ProbeCom_StrTxOvfErrCtr
 373              	 .cfi_endproc
 374              	.LFE2:
 376              	 .section .text.ProbeCom_TerminalOut,"ax",%progbits
 377              	 .align 2
 378              	 .global ProbeCom_TerminalOut
 379              	 .thumb
 380              	 .thumb_func
 382              	ProbeCom_TerminalOut:
 383              	.LFB3:
 507:../Dave/Generated/UCPROBE/probe_com.c **** #endif
 508:../Dave/Generated/UCPROBE/probe_com.c **** 
 509:../Dave/Generated/UCPROBE/probe_com.c **** 
 510:../Dave/Generated/UCPROBE/probe_com.c **** /*
 511:../Dave/Generated/UCPROBE/probe_com.c **** ***************************************************************************************************
 512:../Dave/Generated/UCPROBE/probe_com.c **** *                                       ProbeCom_TerminalOut()
 513:../Dave/Generated/UCPROBE/probe_com.c **** *
 514:../Dave/Generated/UCPROBE/probe_com.c **** * Description : Output data over terminal.
 515:../Dave/Generated/UCPROBE/probe_com.c **** *
 516:../Dave/Generated/UCPROBE/probe_com.c **** * Argument(s) : psrc        Pointer to the source buffer.
 517:../Dave/Generated/UCPROBE/probe_com.c **** *
 518:../Dave/Generated/UCPROBE/probe_com.c **** *               len         Length of source buffer, in octets/characters.
 519:../Dave/Generated/UCPROBE/probe_com.c **** *
 520:../Dave/Generated/UCPROBE/probe_com.c **** * Return(s)   : Number of octets/characters output.
 521:../Dave/Generated/UCPROBE/probe_com.c **** *
 522:../Dave/Generated/UCPROBE/probe_com.c **** * Caller(s)   : Application.
 523:../Dave/Generated/UCPROBE/probe_com.c **** *
 524:../Dave/Generated/UCPROBE/probe_com.c **** * Note(s)     : (1) This function implements a blocking write.  It will queue the request and wait 
 525:../Dave/Generated/UCPROBE/probe_com.c **** *                   all of the data has been buffered or transmitted before returning.
 526:../Dave/Generated/UCPROBE/probe_com.c **** *
 527:../Dave/Generated/UCPROBE/probe_com.c **** *               (2) Terminal data may ONLY be output while a command is being executed.
 528:../Dave/Generated/UCPROBE/probe_com.c **** *
 529:../Dave/Generated/UCPROBE/probe_com.c **** *                   (a) Generic read/write functionality is provided by the string read/write funct
 530:../Dave/Generated/UCPROBE/probe_com.c **** *                       (see 'ProbeCom_StrRd()', 'ProbeCom_StrWr()').
 531:../Dave/Generated/UCPROBE/probe_com.c **** *
 532:../Dave/Generated/UCPROBE/probe_com.c **** *               (3) This function MUST NOT be called from an ISR.
 533:../Dave/Generated/UCPROBE/probe_com.c **** ***************************************************************************************************
 534:../Dave/Generated/UCPROBE/probe_com.c **** */
 535:../Dave/Generated/UCPROBE/probe_com.c **** 
 536:../Dave/Generated/UCPROBE/probe_com.c **** #if (PROBE_COM_CFG_TERMINAL_REQ_EN == DEF_ENABLED)
 537:../Dave/Generated/UCPROBE/probe_com.c **** CPU_SIZE_T  ProbeCom_TerminalOut (CPU_CHAR    *psrc,
 538:../Dave/Generated/UCPROBE/probe_com.c ****                                   CPU_SIZE_T   len)
 539:../Dave/Generated/UCPROBE/probe_com.c **** {
 384              	 .loc 1 539 0
 385              	 .cfi_startproc
 386              	 
 387              	 
 388 0000 80B5     	 push {r7,lr}
 389              	.LCFI15:
 390              	 .cfi_def_cfa_offset 8
 391              	 .cfi_offset 7,-8
 392              	 .cfi_offset 14,-4
 393 0002 84B0     	 sub sp,sp,#16
 394              	.LCFI16:
 395              	 .cfi_def_cfa_offset 24
 396 0004 00AF     	 add r7,sp,#0
 397              	.LCFI17:
 398              	 .cfi_def_cfa_register 7
 399 0006 7860     	 str r0,[r7,#4]
 400 0008 3960     	 str r1,[r7]
 540:../Dave/Generated/UCPROBE/probe_com.c ****     CPU_SR_ALLOC();
 401              	 .loc 1 540 0
 402 000a 0023     	 movs r3,#0
 403 000c FB60     	 str r3,[r7,#12]
 541:../Dave/Generated/UCPROBE/probe_com.c **** 
 542:../Dave/Generated/UCPROBE/probe_com.c **** 
 543:../Dave/Generated/UCPROBE/probe_com.c ****                                                                 /* ------------------- VALIDATE ARG
 544:../Dave/Generated/UCPROBE/probe_com.c ****     if (psrc == (CPU_CHAR *)0) {                                /* Validate NULL ptr.              
 404              	 .loc 1 544 0
 405 000e 7B68     	 ldr r3,[r7,#4]
 406 0010 002B     	 cmp r3,#0
 407 0012 01D1     	 bne .L16
 545:../Dave/Generated/UCPROBE/probe_com.c ****         return ((CPU_SIZE_T)0);
 408              	 .loc 1 545 0
 409 0014 0023     	 movs r3,#0
 410 0016 31E0     	 b .L17
 411              	.L16:
 546:../Dave/Generated/UCPROBE/probe_com.c ****     }
 547:../Dave/Generated/UCPROBE/probe_com.c **** 
 548:../Dave/Generated/UCPROBE/probe_com.c ****     if (len == 0u) {                                            /* Validate NULL len.              
 412              	 .loc 1 548 0
 413 0018 3B68     	 ldr r3,[r7]
 414 001a 002B     	 cmp r3,#0
 415 001c 01D1     	 bne .L18
 549:../Dave/Generated/UCPROBE/probe_com.c ****         return ((CPU_SIZE_T)0);
 416              	 .loc 1 549 0
 417 001e 0023     	 movs r3,#0
 418 0020 2CE0     	 b .L17
 419              	.L18:
 550:../Dave/Generated/UCPROBE/probe_com.c ****     }
 551:../Dave/Generated/UCPROBE/probe_com.c **** 
 552:../Dave/Generated/UCPROBE/probe_com.c **** 
 553:../Dave/Generated/UCPROBE/probe_com.c **** 
 554:../Dave/Generated/UCPROBE/probe_com.c ****                                                                 /* ------------------- START OUTPUT
 555:../Dave/Generated/UCPROBE/probe_com.c ****     CPU_CRITICAL_ENTER();
 420              	 .loc 1 555 0
 421 0022 FFF7FEFF 	 bl CPU_SR_Save
 422 0026 F860     	 str r0,[r7,#12]
 556:../Dave/Generated/UCPROBE/probe_com.c ****     if (ProbeCom_TerminalExecuting == DEF_NO) {                 /* Chk if cmd exec'ing.            
 423              	 .loc 1 556 0
 424 0028 164B     	 ldr r3,.L21
 425 002a 1B78     	 ldrb r3,[r3]
 426 002c 002B     	 cmp r3,#0
 427 002e 04D1     	 bne .L19
 557:../Dave/Generated/UCPROBE/probe_com.c ****         CPU_CRITICAL_EXIT();
 428              	 .loc 1 557 0
 429 0030 F868     	 ldr r0,[r7,#12]
 430 0032 FFF7FEFF 	 bl CPU_SR_Restore
 558:../Dave/Generated/UCPROBE/probe_com.c ****         return ((CPU_SIZE_T)0);
 431              	 .loc 1 558 0
 432 0036 0023     	 movs r3,#0
 433 0038 20E0     	 b .L17
 434              	.L19:
 559:../Dave/Generated/UCPROBE/probe_com.c ****     }
 560:../Dave/Generated/UCPROBE/probe_com.c **** 
 561:../Dave/Generated/UCPROBE/probe_com.c ****     if (ProbeCom_TerminalOutBufPtr != (CPU_INT08U *)0) {        /* Chk if out in progress.         
 435              	 .loc 1 561 0
 436 003a 134B     	 ldr r3,.L21+4
 437 003c 1B68     	 ldr r3,[r3]
 438 003e 002B     	 cmp r3,#0
 439 0040 04D0     	 beq .L20
 562:../Dave/Generated/UCPROBE/probe_com.c ****         CPU_CRITICAL_EXIT();
 440              	 .loc 1 562 0
 441 0042 F868     	 ldr r0,[r7,#12]
 442 0044 FFF7FEFF 	 bl CPU_SR_Restore
 563:../Dave/Generated/UCPROBE/probe_com.c ****         return ((CPU_SIZE_T)0);
 443              	 .loc 1 563 0
 444 0048 0023     	 movs r3,#0
 445 004a 17E0     	 b .L17
 446              	.L20:
 564:../Dave/Generated/UCPROBE/probe_com.c ****     }
 565:../Dave/Generated/UCPROBE/probe_com.c **** 
 566:../Dave/Generated/UCPROBE/probe_com.c ****     ProbeCom_TerminalOutBufPtr = (CPU_INT08U *)psrc;            /* Schedule output.                
 447              	 .loc 1 566 0
 448 004c 0E4A     	 ldr r2,.L21+4
 449 004e 7B68     	 ldr r3,[r7,#4]
 450 0050 1360     	 str r3,[r2]
 567:../Dave/Generated/UCPROBE/probe_com.c ****     ProbeCom_TerminalOutBufIx  = (CPU_SIZE_T  )0;
 451              	 .loc 1 567 0
 452 0052 0E4B     	 ldr r3,.L21+8
 453 0054 0022     	 movs r2,#0
 454 0056 1A60     	 str r2,[r3]
 568:../Dave/Generated/UCPROBE/probe_com.c ****     ProbeCom_TerminalOutBufLen = (CPU_SIZE_T  )len;
 455              	 .loc 1 568 0
 456 0058 0D4A     	 ldr r2,.L21+12
 457 005a 3B68     	 ldr r3,[r7]
 458 005c 1360     	 str r3,[r2]
 569:../Dave/Generated/UCPROBE/probe_com.c **** 
 570:../Dave/Generated/UCPROBE/probe_com.c ****     ProbeCom_OS_TerminalOutWait();                              /* Wait for output completion.     
 459              	 .loc 1 570 0
 460 005e FFF7FEFF 	 bl ProbeCom_OS_TerminalOutWait
 571:../Dave/Generated/UCPROBE/probe_com.c **** 
 572:../Dave/Generated/UCPROBE/probe_com.c ****     ProbeCom_TerminalOutBufPtr = (CPU_INT08U *)0;
 461              	 .loc 1 572 0
 462 0062 094B     	 ldr r3,.L21+4
 463 0064 0022     	 movs r2,#0
 464 0066 1A60     	 str r2,[r3]
 573:../Dave/Generated/UCPROBE/probe_com.c ****     ProbeCom_TerminalOutBufIx  = (CPU_SIZE_T  )0;
 465              	 .loc 1 573 0
 466 0068 084B     	 ldr r3,.L21+8
 467 006a 0022     	 movs r2,#0
 468 006c 1A60     	 str r2,[r3]
 574:../Dave/Generated/UCPROBE/probe_com.c ****     ProbeCom_TerminalOutBufLen = (CPU_SIZE_T  )0;
 469              	 .loc 1 574 0
 470 006e 084B     	 ldr r3,.L21+12
 471 0070 0022     	 movs r2,#0
 472 0072 1A60     	 str r2,[r3]
 575:../Dave/Generated/UCPROBE/probe_com.c ****     CPU_CRITICAL_EXIT();
 473              	 .loc 1 575 0
 474 0074 F868     	 ldr r0,[r7,#12]
 475 0076 FFF7FEFF 	 bl CPU_SR_Restore
 576:../Dave/Generated/UCPROBE/probe_com.c **** 
 577:../Dave/Generated/UCPROBE/probe_com.c **** 
 578:../Dave/Generated/UCPROBE/probe_com.c **** 
 579:../Dave/Generated/UCPROBE/probe_com.c ****                                                                 /* ----------------------- RTN ----
 580:../Dave/Generated/UCPROBE/probe_com.c ****     return (len);
 476              	 .loc 1 580 0
 477 007a 3B68     	 ldr r3,[r7]
 478              	.L17:
 581:../Dave/Generated/UCPROBE/probe_com.c **** }
 479              	 .loc 1 581 0
 480 007c 1846     	 mov r0,r3
 481 007e 1037     	 adds r7,r7,#16
 482              	.LCFI18:
 483              	 .cfi_def_cfa_offset 8
 484 0080 BD46     	 mov sp,r7
 485              	.LCFI19:
 486              	 .cfi_def_cfa_register 13
 487              	 
 488 0082 80BD     	 pop {r7,pc}
 489              	.L22:
 490              	 .align 2
 491              	.L21:
 492 0084 00000000 	 .word ProbeCom_TerminalExecuting
 493 0088 00000000 	 .word ProbeCom_TerminalOutBufPtr
 494 008c 00000000 	 .word ProbeCom_TerminalOutBufIx
 495 0090 00000000 	 .word ProbeCom_TerminalOutBufLen
 496              	 .cfi_endproc
 497              	.LFE3:
 499              	 .section .text.ProbeCom_TerminalExecComplete,"ax",%progbits
 500              	 .align 2
 501              	 .global ProbeCom_TerminalExecComplete
 502              	 .thumb
 503              	 .thumb_func
 505              	ProbeCom_TerminalExecComplete:
 506              	.LFB4:
 582:../Dave/Generated/UCPROBE/probe_com.c **** #endif
 583:../Dave/Generated/UCPROBE/probe_com.c **** 
 584:../Dave/Generated/UCPROBE/probe_com.c **** 
 585:../Dave/Generated/UCPROBE/probe_com.c **** /*
 586:../Dave/Generated/UCPROBE/probe_com.c **** ***************************************************************************************************
 587:../Dave/Generated/UCPROBE/probe_com.c **** *                                   ProbeCom_TerminalExecComplete()
 588:../Dave/Generated/UCPROBE/probe_com.c **** *
 589:../Dave/Generated/UCPROBE/probe_com.c **** * Description : Signal completion of command execution.
 590:../Dave/Generated/UCPROBE/probe_com.c **** *
 591:../Dave/Generated/UCPROBE/probe_com.c **** * Argument(s) : none.
 592:../Dave/Generated/UCPROBE/probe_com.c **** *
 593:../Dave/Generated/UCPROBE/probe_com.c **** * Return(s)   : The number of bytes in the data segment of the packet to transmit in response.
 594:../Dave/Generated/UCPROBE/probe_com.c **** *
 595:../Dave/Generated/UCPROBE/probe_com.c **** * Caller(s)   : Application.
 596:../Dave/Generated/UCPROBE/probe_com.c **** *
 597:../Dave/Generated/UCPROBE/probe_com.c **** * Note(s)     : none.
 598:../Dave/Generated/UCPROBE/probe_com.c **** ***************************************************************************************************
 599:../Dave/Generated/UCPROBE/probe_com.c **** */
 600:../Dave/Generated/UCPROBE/probe_com.c **** 
 601:../Dave/Generated/UCPROBE/probe_com.c **** #if (PROBE_COM_CFG_TERMINAL_REQ_EN == DEF_ENABLED)
 602:../Dave/Generated/UCPROBE/probe_com.c **** void  ProbeCom_TerminalExecComplete (void)
 603:../Dave/Generated/UCPROBE/probe_com.c **** {
 507              	 .loc 1 603 0
 508              	 .cfi_startproc
 509              	 
 510              	 
 511 0000 80B5     	 push {r7,lr}
 512              	.LCFI20:
 513              	 .cfi_def_cfa_offset 8
 514              	 .cfi_offset 7,-8
 515              	 .cfi_offset 14,-4
 516 0002 82B0     	 sub sp,sp,#8
 517              	.LCFI21:
 518              	 .cfi_def_cfa_offset 16
 519 0004 00AF     	 add r7,sp,#0
 520              	.LCFI22:
 521              	 .cfi_def_cfa_register 7
 604:../Dave/Generated/UCPROBE/probe_com.c ****     CPU_BOOLEAN  executing;
 605:../Dave/Generated/UCPROBE/probe_com.c ****     CPU_SR_ALLOC();
 522              	 .loc 1 605 0
 523 0006 0023     	 movs r3,#0
 524 0008 7B60     	 str r3,[r7,#4]
 606:../Dave/Generated/UCPROBE/probe_com.c **** 
 607:../Dave/Generated/UCPROBE/probe_com.c **** 
 608:../Dave/Generated/UCPROBE/probe_com.c ****     CPU_CRITICAL_ENTER();
 525              	 .loc 1 608 0
 526 000a FFF7FEFF 	 bl CPU_SR_Save
 527 000e 7860     	 str r0,[r7,#4]
 609:../Dave/Generated/UCPROBE/probe_com.c ****     executing = ProbeCom_TerminalExecuting;
 528              	 .loc 1 609 0
 529 0010 074B     	 ldr r3,.L25
 530 0012 1B78     	 ldrb r3,[r3]
 531 0014 FB70     	 strb r3,[r7,#3]
 610:../Dave/Generated/UCPROBE/probe_com.c ****     if (executing == DEF_YES) {
 532              	 .loc 1 610 0
 533 0016 FB78     	 ldrb r3,[r7,#3]
 534 0018 012B     	 cmp r3,#1
 535 001a 02D1     	 bne .L24
 611:../Dave/Generated/UCPROBE/probe_com.c ****         ProbeCom_TerminalExecuting = DEF_NO;
 536              	 .loc 1 611 0
 537 001c 044B     	 ldr r3,.L25
 538 001e 0022     	 movs r2,#0
 539 0020 1A70     	 strb r2,[r3]
 540              	.L24:
 612:../Dave/Generated/UCPROBE/probe_com.c ****     }
 613:../Dave/Generated/UCPROBE/probe_com.c ****     CPU_CRITICAL_EXIT();
 541              	 .loc 1 613 0
 542 0022 7868     	 ldr r0,[r7,#4]
 543 0024 FFF7FEFF 	 bl CPU_SR_Restore
 614:../Dave/Generated/UCPROBE/probe_com.c **** }
 544              	 .loc 1 614 0
 545 0028 0837     	 adds r7,r7,#8
 546              	.LCFI23:
 547              	 .cfi_def_cfa_offset 8
 548 002a BD46     	 mov sp,r7
 549              	.LCFI24:
 550              	 .cfi_def_cfa_register 13
 551              	 
 552 002c 80BD     	 pop {r7,pc}
 553              	.L26:
 554 002e 00BF     	 .align 2
 555              	.L25:
 556 0030 00000000 	 .word ProbeCom_TerminalExecuting
 557              	 .cfi_endproc
 558              	.LFE4:
 560              	 .section .text.ProbeCom_TerminalExecSet,"ax",%progbits
 561              	 .align 2
 562              	 .global ProbeCom_TerminalExecSet
 563              	 .thumb
 564              	 .thumb_func
 566              	ProbeCom_TerminalExecSet:
 567              	.LFB5:
 615:../Dave/Generated/UCPROBE/probe_com.c **** #endif
 616:../Dave/Generated/UCPROBE/probe_com.c **** 
 617:../Dave/Generated/UCPROBE/probe_com.c **** 
 618:../Dave/Generated/UCPROBE/probe_com.c **** /*
 619:../Dave/Generated/UCPROBE/probe_com.c **** ***************************************************************************************************
 620:../Dave/Generated/UCPROBE/probe_com.c **** *                                     ProbeCom_TerminalExecSet()
 621:../Dave/Generated/UCPROBE/probe_com.c **** *
 622:../Dave/Generated/UCPROBE/probe_com.c **** * Description : Set the handler that will be invoked to process a terminal command.
 623:../Dave/Generated/UCPROBE/probe_com.c **** *
 624:../Dave/Generated/UCPROBE/probe_com.c **** * Argument(s) : handler         The handler that will be invoked.
 625:../Dave/Generated/UCPROBE/probe_com.c **** *
 626:../Dave/Generated/UCPROBE/probe_com.c **** * Return(s)   : none.
 627:../Dave/Generated/UCPROBE/probe_com.c **** *
 628:../Dave/Generated/UCPROBE/probe_com.c **** * Caller(s)   : Application.
 629:../Dave/Generated/UCPROBE/probe_com.c **** *
 630:../Dave/Generated/UCPROBE/probe_com.c **** * Note(s)     : (1) The handler should be a function with the following prototype:
 631:../Dave/Generated/UCPROBE/probe_com.c **** *
 632:../Dave/Generated/UCPROBE/probe_com.c **** *                       void  App_TerminalExecFnct (CPU_CHAR    *pstr,
 633:../Dave/Generated/UCPROBE/probe_com.c **** *                                                   CPU_SIZE_T   len);
 634:../Dave/Generated/UCPROBE/probe_com.c **** *
 635:../Dave/Generated/UCPROBE/probe_com.c **** *                   where 'pstr' is a pointer to the command string, and 'len' is the length of the
 636:../Dave/Generated/UCPROBE/probe_com.c **** *                   command string (in characters) excluding the final NULL byte.  The command stri
 637:../Dave/Generated/UCPROBE/probe_com.c **** *                   will NOT include a terminating new line or line feed.
 638:../Dave/Generated/UCPROBE/probe_com.c **** ***************************************************************************************************
 639:../Dave/Generated/UCPROBE/probe_com.c **** */
 640:../Dave/Generated/UCPROBE/probe_com.c **** 
 641:../Dave/Generated/UCPROBE/probe_com.c **** #if (PROBE_COM_CFG_TERMINAL_REQ_EN == DEF_ENABLED)
 642:../Dave/Generated/UCPROBE/probe_com.c **** void  ProbeCom_TerminalExecSet (PROBE_COM_TERMINAL_EXEC_FNCT  handler)
 643:../Dave/Generated/UCPROBE/probe_com.c **** {
 568              	 .loc 1 643 0
 569              	 .cfi_startproc
 570              	 
 571              	 
 572 0000 80B5     	 push {r7,lr}
 573              	.LCFI25:
 574              	 .cfi_def_cfa_offset 8
 575              	 .cfi_offset 7,-8
 576              	 .cfi_offset 14,-4
 577 0002 84B0     	 sub sp,sp,#16
 578              	.LCFI26:
 579              	 .cfi_def_cfa_offset 24
 580 0004 00AF     	 add r7,sp,#0
 581              	.LCFI27:
 582              	 .cfi_def_cfa_register 7
 583 0006 7860     	 str r0,[r7,#4]
 644:../Dave/Generated/UCPROBE/probe_com.c ****     CPU_SR_ALLOC();
 584              	 .loc 1 644 0
 585 0008 0023     	 movs r3,#0
 586 000a FB60     	 str r3,[r7,#12]
 645:../Dave/Generated/UCPROBE/probe_com.c **** 
 646:../Dave/Generated/UCPROBE/probe_com.c **** 
 647:../Dave/Generated/UCPROBE/probe_com.c ****     CPU_CRITICAL_ENTER();
 587              	 .loc 1 647 0
 588 000c FFF7FEFF 	 bl CPU_SR_Save
 589 0010 F860     	 str r0,[r7,#12]
 648:../Dave/Generated/UCPROBE/probe_com.c ****     ProbeCom_TerminalExecHandler = handler;
 590              	 .loc 1 648 0
 591 0012 044A     	 ldr r2,.L28
 592 0014 7B68     	 ldr r3,[r7,#4]
 593 0016 1360     	 str r3,[r2]
 649:../Dave/Generated/UCPROBE/probe_com.c ****     CPU_CRITICAL_EXIT();
 594              	 .loc 1 649 0
 595 0018 F868     	 ldr r0,[r7,#12]
 596 001a FFF7FEFF 	 bl CPU_SR_Restore
 650:../Dave/Generated/UCPROBE/probe_com.c **** }
 597              	 .loc 1 650 0
 598 001e 1037     	 adds r7,r7,#16
 599              	.LCFI28:
 600              	 .cfi_def_cfa_offset 8
 601 0020 BD46     	 mov sp,r7
 602              	.LCFI29:
 603              	 .cfi_def_cfa_register 13
 604              	 
 605 0022 80BD     	 pop {r7,pc}
 606              	.L29:
 607              	 .align 2
 608              	.L28:
 609 0024 00000000 	 .word ProbeCom_TerminalExecHandler
 610              	 .cfi_endproc
 611              	.LFE5:
 613              	 .section .text.ProbeCom_TerminalInSet,"ax",%progbits
 614              	 .align 2
 615              	 .global ProbeCom_TerminalInSet
 616              	 .thumb
 617              	 .thumb_func
 619              	ProbeCom_TerminalInSet:
 620              	.LFB6:
 651:../Dave/Generated/UCPROBE/probe_com.c **** #endif
 652:../Dave/Generated/UCPROBE/probe_com.c **** 
 653:../Dave/Generated/UCPROBE/probe_com.c **** 
 654:../Dave/Generated/UCPROBE/probe_com.c **** /*
 655:../Dave/Generated/UCPROBE/probe_com.c **** ***************************************************************************************************
 656:../Dave/Generated/UCPROBE/probe_com.c **** *                                      ProbeCom_TerminalInSet()
 657:../Dave/Generated/UCPROBE/probe_com.c **** *
 658:../Dave/Generated/UCPROBE/probe_com.c **** * Description : Set the handler that will be invoked to process terminal input.
 659:../Dave/Generated/UCPROBE/probe_com.c **** *
 660:../Dave/Generated/UCPROBE/probe_com.c **** * Argument(s) : handler         The handler that will be invoked.
 661:../Dave/Generated/UCPROBE/probe_com.c **** *
 662:../Dave/Generated/UCPROBE/probe_com.c **** * Return(s)   : none.
 663:../Dave/Generated/UCPROBE/probe_com.c **** *
 664:../Dave/Generated/UCPROBE/probe_com.c **** * Caller(s)   : Application.
 665:../Dave/Generated/UCPROBE/probe_com.c **** *
 666:../Dave/Generated/UCPROBE/probe_com.c **** * Note(s)     : (1) The handler should be a function with the following prototype:
 667:../Dave/Generated/UCPROBE/probe_com.c **** *
 668:../Dave/Generated/UCPROBE/probe_com.c **** *                       void  App_TerminalInFnct (CPU_CHAR    *pstr,
 669:../Dave/Generated/UCPROBE/probe_com.c **** *                                                 CPU_SIZE_T   len);
 670:../Dave/Generated/UCPROBE/probe_com.c **** *
 671:../Dave/Generated/UCPROBE/probe_com.c **** *                   where 'pstr' is a pointer to the input string, and 'len' is the length of the i
 672:../Dave/Generated/UCPROBE/probe_com.c **** *                   string (in characters) excluding the final NULL byte.  The input string will NO
 673:../Dave/Generated/UCPROBE/probe_com.c **** *                   include a terminating new line or line feed.
 674:../Dave/Generated/UCPROBE/probe_com.c **** ***************************************************************************************************
 675:../Dave/Generated/UCPROBE/probe_com.c **** */
 676:../Dave/Generated/UCPROBE/probe_com.c **** 
 677:../Dave/Generated/UCPROBE/probe_com.c **** #if (PROBE_COM_CFG_TERMINAL_REQ_EN == DEF_ENABLED)
 678:../Dave/Generated/UCPROBE/probe_com.c **** void  ProbeCom_TerminalInSet (PROBE_COM_TERMINAL_IN_FNCT  handler)
 679:../Dave/Generated/UCPROBE/probe_com.c **** {
 621              	 .loc 1 679 0
 622              	 .cfi_startproc
 623              	 
 624              	 
 625 0000 80B5     	 push {r7,lr}
 626              	.LCFI30:
 627              	 .cfi_def_cfa_offset 8
 628              	 .cfi_offset 7,-8
 629              	 .cfi_offset 14,-4
 630 0002 84B0     	 sub sp,sp,#16
 631              	.LCFI31:
 632              	 .cfi_def_cfa_offset 24
 633 0004 00AF     	 add r7,sp,#0
 634              	.LCFI32:
 635              	 .cfi_def_cfa_register 7
 636 0006 7860     	 str r0,[r7,#4]
 680:../Dave/Generated/UCPROBE/probe_com.c **** #if (CPU_CFG_CRITICAL_METHOD == CPU_CRITICAL_METHOD_STATUS_LOCAL)
 681:../Dave/Generated/UCPROBE/probe_com.c ****     CPU_SR  cpu_sr;
 682:../Dave/Generated/UCPROBE/probe_com.c **** #endif
 683:../Dave/Generated/UCPROBE/probe_com.c **** 
 684:../Dave/Generated/UCPROBE/probe_com.c **** 
 685:../Dave/Generated/UCPROBE/probe_com.c ****     CPU_CRITICAL_ENTER();
 637              	 .loc 1 685 0
 638 0008 FFF7FEFF 	 bl CPU_SR_Save
 639 000c F860     	 str r0,[r7,#12]
 686:../Dave/Generated/UCPROBE/probe_com.c ****     ProbeCom_TerminalInHandler = handler;
 640              	 .loc 1 686 0
 641 000e 044A     	 ldr r2,.L31
 642 0010 7B68     	 ldr r3,[r7,#4]
 643 0012 1360     	 str r3,[r2]
 687:../Dave/Generated/UCPROBE/probe_com.c ****     CPU_CRITICAL_EXIT();
 644              	 .loc 1 687 0
 645 0014 F868     	 ldr r0,[r7,#12]
 646 0016 FFF7FEFF 	 bl CPU_SR_Restore
 688:../Dave/Generated/UCPROBE/probe_com.c **** }
 647              	 .loc 1 688 0
 648 001a 1037     	 adds r7,r7,#16
 649              	.LCFI33:
 650              	 .cfi_def_cfa_offset 8
 651 001c BD46     	 mov sp,r7
 652              	.LCFI34:
 653              	 .cfi_def_cfa_register 13
 654              	 
 655 001e 80BD     	 pop {r7,pc}
 656              	.L32:
 657              	 .align 2
 658              	.L31:
 659 0020 00000000 	 .word ProbeCom_TerminalInHandler
 660              	 .cfi_endproc
 661              	.LFE6:
 663              	 .section .text.ProbeCom_ParseRxPkt,"ax",%progbits
 664              	 .align 2
 665              	 .global ProbeCom_ParseRxPkt
 666              	 .thumb
 667              	 .thumb_func
 669              	ProbeCom_ParseRxPkt:
 670              	.LFB7:
 689:../Dave/Generated/UCPROBE/probe_com.c **** #endif
 690:../Dave/Generated/UCPROBE/probe_com.c **** 
 691:../Dave/Generated/UCPROBE/probe_com.c **** 
 692:../Dave/Generated/UCPROBE/probe_com.c **** /*
 693:../Dave/Generated/UCPROBE/probe_com.c **** ***************************************************************************************************
 694:../Dave/Generated/UCPROBE/probe_com.c **** *                                        ProbeCom_ParseRxPkt()
 695:../Dave/Generated/UCPROBE/probe_com.c **** *
 696:../Dave/Generated/UCPROBE/probe_com.c **** * Description : Parse a packet & formulate a response.
 697:../Dave/Generated/UCPROBE/probe_com.c **** *
 698:../Dave/Generated/UCPROBE/probe_com.c **** * Argument(s) : prx_pkt         Pointer to the receive  packet buffer
 699:../Dave/Generated/UCPROBE/probe_com.c **** *
 700:../Dave/Generated/UCPROBE/probe_com.c **** *               ptx_pkt         Pointer to the transmit packet buffer
 701:../Dave/Generated/UCPROBE/probe_com.c **** *
 702:../Dave/Generated/UCPROBE/probe_com.c **** *               rx_pkt_size     Size of the received packet
 703:../Dave/Generated/UCPROBE/probe_com.c **** *
 704:../Dave/Generated/UCPROBE/probe_com.c **** *               tx_pkt_size     Size of the transmit packet buffer
 705:../Dave/Generated/UCPROBE/probe_com.c **** *
 706:../Dave/Generated/UCPROBE/probe_com.c **** * Return(s)   : The number of bytes in the data segment of the packet to transmit in response.
 707:../Dave/Generated/UCPROBE/probe_com.c **** *
 708:../Dave/Generated/UCPROBE/probe_com.c **** * Caller(s)   : Tasks/receive handlers in communications-specific drivers, (e.g., probe_rs232,
 709:../Dave/Generated/UCPROBE/probe_com.c **** *               probe_usb, probe_tcpip, etc.).
 710:../Dave/Generated/UCPROBE/probe_com.c **** *
 711:../Dave/Generated/UCPROBE/probe_com.c **** * Note(s)     : none.
 712:../Dave/Generated/UCPROBE/probe_com.c **** ***************************************************************************************************
 713:../Dave/Generated/UCPROBE/probe_com.c **** */
 714:../Dave/Generated/UCPROBE/probe_com.c **** 
 715:../Dave/Generated/UCPROBE/probe_com.c **** CPU_SIZE_T  ProbeCom_ParseRxPkt (void        *prx_pkt,
 716:../Dave/Generated/UCPROBE/probe_com.c ****                                  void        *ptx_pkt,
 717:../Dave/Generated/UCPROBE/probe_com.c ****                                  CPU_SIZE_T   rx_pkt_size,
 718:../Dave/Generated/UCPROBE/probe_com.c ****                                  CPU_SIZE_T   tx_buf_size)
 719:../Dave/Generated/UCPROBE/probe_com.c **** {
 671              	 .loc 1 719 0
 672              	 .cfi_startproc
 673              	 
 674              	 
 675 0000 80B5     	 push {r7,lr}
 676              	.LCFI35:
 677              	 .cfi_def_cfa_offset 8
 678              	 .cfi_offset 7,-8
 679              	 .cfi_offset 14,-4
 680 0002 88B0     	 sub sp,sp,#32
 681              	.LCFI36:
 682              	 .cfi_def_cfa_offset 40
 683 0004 00AF     	 add r7,sp,#0
 684              	.LCFI37:
 685              	 .cfi_def_cfa_register 7
 686 0006 F860     	 str r0,[r7,#12]
 687 0008 B960     	 str r1,[r7,#8]
 688 000a 7A60     	 str r2,[r7,#4]
 689 000c 3B60     	 str r3,[r7]
 720:../Dave/Generated/UCPROBE/probe_com.c ****     CPU_SIZE_T   tx_buf_wr;
 721:../Dave/Generated/UCPROBE/probe_com.c ****     CPU_INT16U   format;
 722:../Dave/Generated/UCPROBE/probe_com.c ****     CPU_INT08U  *prx_pkt_08;
 723:../Dave/Generated/UCPROBE/probe_com.c ****     CPU_INT08U  *ptx_pkt_08;
 724:../Dave/Generated/UCPROBE/probe_com.c **** 
 725:../Dave/Generated/UCPROBE/probe_com.c **** 
 726:../Dave/Generated/UCPROBE/probe_com.c ****     if (rx_pkt_size < 2u) {
 690              	 .loc 1 726 0
 691 000e 7B68     	 ldr r3,[r7,#4]
 692 0010 012B     	 cmp r3,#1
 693 0012 01D8     	 bhi .L34
 727:../Dave/Generated/UCPROBE/probe_com.c ****         return (0);
 694              	 .loc 1 727 0
 695 0014 0023     	 movs r3,#0
 696 0016 94E0     	 b .L35
 697              	.L34:
 728:../Dave/Generated/UCPROBE/probe_com.c ****     }
 729:../Dave/Generated/UCPROBE/probe_com.c **** 
 730:../Dave/Generated/UCPROBE/probe_com.c ****     prx_pkt_08  = (CPU_INT08U *)prx_pkt;
 698              	 .loc 1 730 0
 699 0018 FB68     	 ldr r3,[r7,#12]
 700 001a BB61     	 str r3,[r7,#24]
 731:../Dave/Generated/UCPROBE/probe_com.c ****     ptx_pkt_08  = (CPU_INT08U *)ptx_pkt;
 701              	 .loc 1 731 0
 702 001c BB68     	 ldr r3,[r7,#8]
 703 001e 7B61     	 str r3,[r7,#20]
 732:../Dave/Generated/UCPROBE/probe_com.c ****     format      = (prx_pkt_08[1] << 8) + prx_pkt_08[0];
 704              	 .loc 1 732 0
 705 0020 BB69     	 ldr r3,[r7,#24]
 706 0022 0133     	 adds r3,r3,#1
 707 0024 1B78     	 ldrb r3,[r3]
 708 0026 9BB2     	 uxth r3,r3
 709 0028 1B02     	 lsls r3,r3,#8
 710 002a 9AB2     	 uxth r2,r3
 711 002c BB69     	 ldr r3,[r7,#24]
 712 002e 1B78     	 ldrb r3,[r3]
 713 0030 9BB2     	 uxth r3,r3
 714 0032 1344     	 add r3,r3,r2
 715 0034 7B82     	 strh r3,[r7,#18]
 733:../Dave/Generated/UCPROBE/probe_com.c ****     prx_pkt_08 += 2u;
 716              	 .loc 1 733 0
 717 0036 BB69     	 ldr r3,[r7,#24]
 718 0038 0233     	 adds r3,r3,#2
 719 003a BB61     	 str r3,[r7,#24]
 734:../Dave/Generated/UCPROBE/probe_com.c **** 
 735:../Dave/Generated/UCPROBE/probe_com.c **** #if (PROBE_COM_CFG_STAT_EN == DEF_ENABLED)
 736:../Dave/Generated/UCPROBE/probe_com.c ****     ProbeCom_RxPktCtr++;
 720              	 .loc 1 736 0
 721 003c 434B     	 ldr r3,.L49
 722 003e 1B68     	 ldr r3,[r3]
 723 0040 0133     	 adds r3,r3,#1
 724 0042 424A     	 ldr r2,.L49
 725 0044 1360     	 str r3,[r2]
 737:../Dave/Generated/UCPROBE/probe_com.c ****     ProbeCom_TxPktCtr++;
 726              	 .loc 1 737 0
 727 0046 424B     	 ldr r3,.L49+4
 728 0048 1B68     	 ldr r3,[r3]
 729 004a 0133     	 adds r3,r3,#1
 730 004c 404A     	 ldr r2,.L49+4
 731 004e 1360     	 str r3,[r2]
 738:../Dave/Generated/UCPROBE/probe_com.c **** #endif
 739:../Dave/Generated/UCPROBE/probe_com.c **** 
 740:../Dave/Generated/UCPROBE/probe_com.c ****     switch (format) {
 732              	 .loc 1 740 0
 733 0050 7B8A     	 ldrh r3,[r7,#18]
 734 0052 013B     	 subs r3,r3,#1
 735 0054 0C2B     	 cmp r3,#12
 736 0056 6DD8     	 bhi .L36
 737 0058 01A2     	 adr r2,.L38
 738 005a 52F823F0 	 ldr pc,[r2,r3,lsl#2]
 739 005e 00BF     	 .p2align 2
 740              	.L38:
 741 0060 95000000 	 .word .L37+1
 742 0064 A5000000 	 .word .L39+1
 743 0068 C5000000 	 .word .L40+1
 744 006c 35010000 	 .word .L36+1
 745 0070 35010000 	 .word .L36+1
 746 0074 35010000 	 .word .L36+1
 747 0078 B5000000 	 .word .L41+1
 748 007c D5000000 	 .word .L42+1
 749 0080 F5000000 	 .word .L43+1
 750 0084 E5000000 	 .word .L44+1
 751 0088 05010000 	 .word .L45+1
 752 008c 25010000 	 .word .L46+1
 753 0090 15010000 	 .word .L47+1
 754              	 .p2align 1
 755              	.L37:
 741:../Dave/Generated/UCPROBE/probe_com.c ****         case PROBE_COM_FMT_RX_QUERY:
 742:../Dave/Generated/UCPROBE/probe_com.c ****              tx_buf_wr = ProbeCom_ReqQuery(       prx_pkt_08, ptx_pkt_08, rx_pkt_size, tx_buf_size)
 756              	 .loc 1 742 0
 757 0094 B869     	 ldr r0,[r7,#24]
 758 0096 7969     	 ldr r1,[r7,#20]
 759 0098 7A68     	 ldr r2,[r7,#4]
 760 009a 3B68     	 ldr r3,[r7]
 761 009c FFF7FEFF 	 bl ProbeCom_ReqQuery
 762 00a0 F861     	 str r0,[r7,#28]
 743:../Dave/Generated/UCPROBE/probe_com.c ****              break;
 763              	 .loc 1 743 0
 764 00a2 4DE0     	 b .L48
 765              	.L39:
 744:../Dave/Generated/UCPROBE/probe_com.c **** 
 745:../Dave/Generated/UCPROBE/probe_com.c ****         case PROBE_COM_FMT_RX_RD:
 746:../Dave/Generated/UCPROBE/probe_com.c ****              tx_buf_wr = ProbeCom_ReqRd(          prx_pkt_08, ptx_pkt_08, rx_pkt_size, tx_buf_size)
 766              	 .loc 1 746 0
 767 00a4 B869     	 ldr r0,[r7,#24]
 768 00a6 7969     	 ldr r1,[r7,#20]
 769 00a8 7A68     	 ldr r2,[r7,#4]
 770 00aa 3B68     	 ldr r3,[r7]
 771 00ac FFF7FEFF 	 bl ProbeCom_ReqRd
 772 00b0 F861     	 str r0,[r7,#28]
 747:../Dave/Generated/UCPROBE/probe_com.c ****              break;
 773              	 .loc 1 747 0
 774 00b2 45E0     	 b .L48
 775              	.L41:
 748:../Dave/Generated/UCPROBE/probe_com.c **** 
 749:../Dave/Generated/UCPROBE/probe_com.c ****         case PROBE_COM_FMT_RX_RD_MULTI:
 750:../Dave/Generated/UCPROBE/probe_com.c ****              tx_buf_wr = ProbeCom_ReqRdMulti(     prx_pkt_08, ptx_pkt_08, rx_pkt_size, tx_buf_size)
 776              	 .loc 1 750 0
 777 00b4 B869     	 ldr r0,[r7,#24]
 778 00b6 7969     	 ldr r1,[r7,#20]
 779 00b8 7A68     	 ldr r2,[r7,#4]
 780 00ba 3B68     	 ldr r3,[r7]
 781 00bc FFF7FEFF 	 bl ProbeCom_ReqRdMulti
 782 00c0 F861     	 str r0,[r7,#28]
 751:../Dave/Generated/UCPROBE/probe_com.c ****              break;
 783              	 .loc 1 751 0
 784 00c2 3DE0     	 b .L48
 785              	.L40:
 752:../Dave/Generated/UCPROBE/probe_com.c **** 
 753:../Dave/Generated/UCPROBE/probe_com.c **** #if (PROBE_COM_CFG_WR_REQ_EN == DEF_ENABLED)
 754:../Dave/Generated/UCPROBE/probe_com.c ****         case PROBE_COM_FMT_RX_WR:
 755:../Dave/Generated/UCPROBE/probe_com.c ****              tx_buf_wr = ProbeCom_ReqWr(          prx_pkt_08, ptx_pkt_08, rx_pkt_size, tx_buf_size)
 786              	 .loc 1 755 0
 787 00c4 B869     	 ldr r0,[r7,#24]
 788 00c6 7969     	 ldr r1,[r7,#20]
 789 00c8 7A68     	 ldr r2,[r7,#4]
 790 00ca 3B68     	 ldr r3,[r7]
 791 00cc FFF7FEFF 	 bl ProbeCom_ReqWr
 792 00d0 F861     	 str r0,[r7,#28]
 756:../Dave/Generated/UCPROBE/probe_com.c ****              break;
 793              	 .loc 1 756 0
 794 00d2 35E0     	 b .L48
 795              	.L42:
 757:../Dave/Generated/UCPROBE/probe_com.c **** 
 758:../Dave/Generated/UCPROBE/probe_com.c ****         case PROBE_COM_FMT_RX_WR_MULTI:
 759:../Dave/Generated/UCPROBE/probe_com.c ****              tx_buf_wr = ProbeCom_ReqWrMulti(     prx_pkt_08, ptx_pkt_08, rx_pkt_size, tx_buf_size)
 796              	 .loc 1 759 0
 797 00d4 B869     	 ldr r0,[r7,#24]
 798 00d6 7969     	 ldr r1,[r7,#20]
 799 00d8 7A68     	 ldr r2,[r7,#4]
 800 00da 3B68     	 ldr r3,[r7]
 801 00dc FFF7FEFF 	 bl ProbeCom_ReqWrMulti
 802 00e0 F861     	 str r0,[r7,#28]
 760:../Dave/Generated/UCPROBE/probe_com.c ****              break;
 803              	 .loc 1 760 0
 804 00e2 2DE0     	 b .L48
 805              	.L44:
 761:../Dave/Generated/UCPROBE/probe_com.c **** #endif
 762:../Dave/Generated/UCPROBE/probe_com.c **** 
 763:../Dave/Generated/UCPROBE/probe_com.c **** #if (PROBE_COM_CFG_STR_REQ_EN == DEF_ENABLED)
 764:../Dave/Generated/UCPROBE/probe_com.c ****         case PROBE_COM_FMT_RX_STR_IN:
 765:../Dave/Generated/UCPROBE/probe_com.c ****              tx_buf_wr = ProbeCom_ReqStrIn(       prx_pkt_08, ptx_pkt_08, rx_pkt_size, tx_buf_size)
 806              	 .loc 1 765 0
 807 00e4 B869     	 ldr r0,[r7,#24]
 808 00e6 7969     	 ldr r1,[r7,#20]
 809 00e8 7A68     	 ldr r2,[r7,#4]
 810 00ea 3B68     	 ldr r3,[r7]
 811 00ec FFF7FEFF 	 bl ProbeCom_ReqStrIn
 812 00f0 F861     	 str r0,[r7,#28]
 766:../Dave/Generated/UCPROBE/probe_com.c ****              break;
 813              	 .loc 1 766 0
 814 00f2 25E0     	 b .L48
 815              	.L43:
 767:../Dave/Generated/UCPROBE/probe_com.c **** 
 768:../Dave/Generated/UCPROBE/probe_com.c ****         case PROBE_COM_FMT_RX_STR_OUT:
 769:../Dave/Generated/UCPROBE/probe_com.c ****              tx_buf_wr = ProbeCom_ReqStrOut(      prx_pkt_08, ptx_pkt_08, rx_pkt_size, tx_buf_size)
 816              	 .loc 1 769 0
 817 00f4 B869     	 ldr r0,[r7,#24]
 818 00f6 7969     	 ldr r1,[r7,#20]
 819 00f8 7A68     	 ldr r2,[r7,#4]
 820 00fa 3B68     	 ldr r3,[r7]
 821 00fc FFF7FEFF 	 bl ProbeCom_ReqStrOut
 822 0100 F861     	 str r0,[r7,#28]
 770:../Dave/Generated/UCPROBE/probe_com.c ****              break;
 823              	 .loc 1 770 0
 824 0102 1DE0     	 b .L48
 825              	.L45:
 771:../Dave/Generated/UCPROBE/probe_com.c **** #endif
 772:../Dave/Generated/UCPROBE/probe_com.c **** 
 773:../Dave/Generated/UCPROBE/probe_com.c **** #if (PROBE_COM_CFG_TERMINAL_REQ_EN == DEF_ENABLED)
 774:../Dave/Generated/UCPROBE/probe_com.c ****         case PROBE_COM_FMT_RX_TERMINAL_EXEC:
 775:../Dave/Generated/UCPROBE/probe_com.c ****              tx_buf_wr = ProbeCom_ReqTerminalExec(prx_pkt_08, ptx_pkt_08, rx_pkt_size, tx_buf_size)
 826              	 .loc 1 775 0
 827 0104 B869     	 ldr r0,[r7,#24]
 828 0106 7969     	 ldr r1,[r7,#20]
 829 0108 7A68     	 ldr r2,[r7,#4]
 830 010a 3B68     	 ldr r3,[r7]
 831 010c FFF7FEFF 	 bl ProbeCom_ReqTerminalExec
 832 0110 F861     	 str r0,[r7,#28]
 776:../Dave/Generated/UCPROBE/probe_com.c ****              break;
 833              	 .loc 1 776 0
 834 0112 15E0     	 b .L48
 835              	.L47:
 777:../Dave/Generated/UCPROBE/probe_com.c **** 
 778:../Dave/Generated/UCPROBE/probe_com.c ****         case PROBE_COM_FMT_RX_TERMINAL_IN:
 779:../Dave/Generated/UCPROBE/probe_com.c ****              tx_buf_wr = ProbeCom_ReqTerminalIn(  prx_pkt_08, ptx_pkt_08, rx_pkt_size, tx_buf_size)
 836              	 .loc 1 779 0
 837 0114 B869     	 ldr r0,[r7,#24]
 838 0116 7969     	 ldr r1,[r7,#20]
 839 0118 7A68     	 ldr r2,[r7,#4]
 840 011a 3B68     	 ldr r3,[r7]
 841 011c FFF7FEFF 	 bl ProbeCom_ReqTerminalIn
 842 0120 F861     	 str r0,[r7,#28]
 780:../Dave/Generated/UCPROBE/probe_com.c ****              break;
 843              	 .loc 1 780 0
 844 0122 0DE0     	 b .L48
 845              	.L46:
 781:../Dave/Generated/UCPROBE/probe_com.c **** 
 782:../Dave/Generated/UCPROBE/probe_com.c ****         case PROBE_COM_FMT_RX_TERMINAL_OUT:
 783:../Dave/Generated/UCPROBE/probe_com.c ****              tx_buf_wr = ProbeCom_ReqTerminalOut( prx_pkt_08, ptx_pkt_08, rx_pkt_size, tx_buf_size)
 846              	 .loc 1 783 0
 847 0124 B869     	 ldr r0,[r7,#24]
 848 0126 7969     	 ldr r1,[r7,#20]
 849 0128 7A68     	 ldr r2,[r7,#4]
 850 012a 3B68     	 ldr r3,[r7]
 851 012c FFF7FEFF 	 bl ProbeCom_ReqTerminalOut
 852 0130 F861     	 str r0,[r7,#28]
 784:../Dave/Generated/UCPROBE/probe_com.c ****              break;
 853              	 .loc 1 784 0
 854 0132 05E0     	 b .L48
 855              	.L36:
 785:../Dave/Generated/UCPROBE/probe_com.c **** #endif
 786:../Dave/Generated/UCPROBE/probe_com.c **** 
 787:../Dave/Generated/UCPROBE/probe_com.c ****         default:
 788:../Dave/Generated/UCPROBE/probe_com.c ****              tx_buf_wr = ProbeCom_ReqErr(                     ptx_pkt_08, PROBE_COM_STATUS_UNKNOWN_
 856              	 .loc 1 788 0
 857 0134 7869     	 ldr r0,[r7,#20]
 858 0136 F921     	 movs r1,#249
 859 0138 FFF7FEFF 	 bl ProbeCom_ReqErr
 860 013c F861     	 str r0,[r7,#28]
 789:../Dave/Generated/UCPROBE/probe_com.c ****              break;
 861              	 .loc 1 789 0
 862 013e 00BF     	 nop
 863              	.L48:
 790:../Dave/Generated/UCPROBE/probe_com.c ****     }
 791:../Dave/Generated/UCPROBE/probe_com.c **** 
 792:../Dave/Generated/UCPROBE/probe_com.c ****     return (tx_buf_wr);
 864              	 .loc 1 792 0
 865 0140 FB69     	 ldr r3,[r7,#28]
 866              	.L35:
 793:../Dave/Generated/UCPROBE/probe_com.c **** }
 867              	 .loc 1 793 0
 868 0142 1846     	 mov r0,r3
 869 0144 2037     	 adds r7,r7,#32
 870              	.LCFI38:
 871              	 .cfi_def_cfa_offset 8
 872 0146 BD46     	 mov sp,r7
 873              	.LCFI39:
 874              	 .cfi_def_cfa_register 13
 875              	 
 876 0148 80BD     	 pop {r7,pc}
 877              	.L50:
 878 014a 00BF     	 .align 2
 879              	.L49:
 880 014c 00000000 	 .word ProbeCom_RxPktCtr
 881 0150 00000000 	 .word ProbeCom_TxPktCtr
 882              	 .cfi_endproc
 883              	.LFE7:
 885              	 .section .text.ProbeCom_StrOutAvail,"ax",%progbits
 886              	 .align 2
 887              	 .thumb
 888              	 .thumb_func
 890              	ProbeCom_StrOutAvail:
 891              	.LFB8:
 794:../Dave/Generated/UCPROBE/probe_com.c **** 
 795:../Dave/Generated/UCPROBE/probe_com.c **** 
 796:../Dave/Generated/UCPROBE/probe_com.c **** /*
 797:../Dave/Generated/UCPROBE/probe_com.c **** ***************************************************************************************************
 798:../Dave/Generated/UCPROBE/probe_com.c **** ***************************************************************************************************
 799:../Dave/Generated/UCPROBE/probe_com.c **** *                                           LOCAL FUNCTIONS
 800:../Dave/Generated/UCPROBE/probe_com.c **** ***************************************************************************************************
 801:../Dave/Generated/UCPROBE/probe_com.c **** ***************************************************************************************************
 802:../Dave/Generated/UCPROBE/probe_com.c **** */
 803:../Dave/Generated/UCPROBE/probe_com.c **** 
 804:../Dave/Generated/UCPROBE/probe_com.c **** /*
 805:../Dave/Generated/UCPROBE/probe_com.c **** ***************************************************************************************************
 806:../Dave/Generated/UCPROBE/probe_com.c **** *                                       ProbeCom_StrOutAvail()
 807:../Dave/Generated/UCPROBE/probe_com.c **** *
 808:../Dave/Generated/UCPROBE/probe_com.c **** * Description : Check if string output is waiting for transmission.
 809:../Dave/Generated/UCPROBE/probe_com.c **** *
 810:../Dave/Generated/UCPROBE/probe_com.c **** * Argument(s) : none.
 811:../Dave/Generated/UCPROBE/probe_com.c **** *
 812:../Dave/Generated/UCPROBE/probe_com.c **** * Return(s)   : DEF_TRUE   if a  string output is waiting for transmission.
 813:../Dave/Generated/UCPROBE/probe_com.c **** *               DEF_FALSE  if no string output is waiting for transmission.
 814:../Dave/Generated/UCPROBE/probe_com.c **** *
 815:../Dave/Generated/UCPROBE/probe_com.c **** * Caller(s)   : ProbeCom_PktModifier().
 816:../Dave/Generated/UCPROBE/probe_com.c **** *
 817:../Dave/Generated/UCPROBE/probe_com.c **** * Note(s)     : (1) See Notes for 'ProbeCom_StrWr()'.
 818:../Dave/Generated/UCPROBE/probe_com.c **** ***************************************************************************************************
 819:../Dave/Generated/UCPROBE/probe_com.c **** */
 820:../Dave/Generated/UCPROBE/probe_com.c **** 
 821:../Dave/Generated/UCPROBE/probe_com.c **** #if (PROBE_COM_CFG_STR_REQ_EN == DEF_ENABLED)
 822:../Dave/Generated/UCPROBE/probe_com.c **** static  CPU_BOOLEAN  ProbeCom_StrOutAvail (void)
 823:../Dave/Generated/UCPROBE/probe_com.c **** {
 892              	 .loc 1 823 0
 893              	 .cfi_startproc
 894              	 
 895              	 
 896 0000 80B5     	 push {r7,lr}
 897              	.LCFI40:
 898              	 .cfi_def_cfa_offset 8
 899              	 .cfi_offset 7,-8
 900              	 .cfi_offset 14,-4
 901 0002 82B0     	 sub sp,sp,#8
 902              	.LCFI41:
 903              	 .cfi_def_cfa_offset 16
 904 0004 00AF     	 add r7,sp,#0
 905              	.LCFI42:
 906              	 .cfi_def_cfa_register 7
 824:../Dave/Generated/UCPROBE/probe_com.c ****     CPU_BOOLEAN  avail;
 825:../Dave/Generated/UCPROBE/probe_com.c ****     CPU_BOOLEAN  empty;
 826:../Dave/Generated/UCPROBE/probe_com.c **** 
 827:../Dave/Generated/UCPROBE/probe_com.c **** 
 828:../Dave/Generated/UCPROBE/probe_com.c ****     empty = ProbeCom_BufIsEmpty(&ProbeCom_StrOutBuf);
 907              	 .loc 1 828 0
 908 0006 0848     	 ldr r0,.L53
 909 0008 FFF7FEFF 	 bl ProbeCom_BufIsEmpty
 910 000c 0346     	 mov r3,r0
 911 000e FB71     	 strb r3,[r7,#7]
 829:../Dave/Generated/UCPROBE/probe_com.c ****     avail = (empty == DEF_YES) ? (DEF_FALSE) : (DEF_TRUE);
 912              	 .loc 1 829 0
 913 0010 FB79     	 ldrb r3,[r7,#7]
 914 0012 012B     	 cmp r3,#1
 915 0014 14BF     	 ite ne
 916 0016 0123     	 movne r3,#1
 917 0018 0023     	 moveq r3,#0
 918 001a DBB2     	 uxtb r3,r3
 919 001c BB71     	 strb r3,[r7,#6]
 830:../Dave/Generated/UCPROBE/probe_com.c **** 
 831:../Dave/Generated/UCPROBE/probe_com.c ****     return (avail);
 920              	 .loc 1 831 0
 921 001e BB79     	 ldrb r3,[r7,#6]
 832:../Dave/Generated/UCPROBE/probe_com.c **** }
 922              	 .loc 1 832 0
 923 0020 1846     	 mov r0,r3
 924 0022 0837     	 adds r7,r7,#8
 925              	.LCFI43:
 926              	 .cfi_def_cfa_offset 8
 927 0024 BD46     	 mov sp,r7
 928              	.LCFI44:
 929              	 .cfi_def_cfa_register 13
 930              	 
 931 0026 80BD     	 pop {r7,pc}
 932              	.L54:
 933              	 .align 2
 934              	.L53:
 935 0028 00000000 	 .word ProbeCom_StrOutBuf
 936              	 .cfi_endproc
 937              	.LFE8:
 939              	 .section .text.ProbeCom_TerminalOutAvail,"ax",%progbits
 940              	 .align 2
 941              	 .thumb
 942              	 .thumb_func
 944              	ProbeCom_TerminalOutAvail:
 945              	.LFB9:
 833:../Dave/Generated/UCPROBE/probe_com.c **** #endif
 834:../Dave/Generated/UCPROBE/probe_com.c **** 
 835:../Dave/Generated/UCPROBE/probe_com.c **** 
 836:../Dave/Generated/UCPROBE/probe_com.c **** 
 837:../Dave/Generated/UCPROBE/probe_com.c **** /*
 838:../Dave/Generated/UCPROBE/probe_com.c **** ***************************************************************************************************
 839:../Dave/Generated/UCPROBE/probe_com.c **** *                                     ProbeCom_TerminalOutAvail()
 840:../Dave/Generated/UCPROBE/probe_com.c **** *
 841:../Dave/Generated/UCPROBE/probe_com.c **** * Description : Check if terminal output is waiting for transmission.
 842:../Dave/Generated/UCPROBE/probe_com.c **** *
 843:../Dave/Generated/UCPROBE/probe_com.c **** * Argument(s) : none.
 844:../Dave/Generated/UCPROBE/probe_com.c **** *
 845:../Dave/Generated/UCPROBE/probe_com.c **** * Return(s)   : DEF_TRUE   if a  terminal output is waiting for transmission.
 846:../Dave/Generated/UCPROBE/probe_com.c **** *               DEF_FALSE  if no terminal output is waiting for transmission.
 847:../Dave/Generated/UCPROBE/probe_com.c **** *
 848:../Dave/Generated/UCPROBE/probe_com.c **** * Caller(s)   : ProbeCom_PktModifier().
 849:../Dave/Generated/UCPROBE/probe_com.c **** *
 850:../Dave/Generated/UCPROBE/probe_com.c **** * Note(s)     : (1) See Notes for 'ProbeCom_TerminalOut()'.
 851:../Dave/Generated/UCPROBE/probe_com.c **** ***************************************************************************************************
 852:../Dave/Generated/UCPROBE/probe_com.c **** */
 853:../Dave/Generated/UCPROBE/probe_com.c **** 
 854:../Dave/Generated/UCPROBE/probe_com.c **** #if (PROBE_COM_CFG_TERMINAL_REQ_EN == DEF_ENABLED)
 855:../Dave/Generated/UCPROBE/probe_com.c **** static  CPU_BOOLEAN  ProbeCom_TerminalOutAvail (void)
 856:../Dave/Generated/UCPROBE/probe_com.c **** {
 946              	 .loc 1 856 0
 947              	 .cfi_startproc
 948              	 
 949              	 
 950 0000 80B5     	 push {r7,lr}
 951              	.LCFI45:
 952              	 .cfi_def_cfa_offset 8
 953              	 .cfi_offset 7,-8
 954              	 .cfi_offset 14,-4
 955 0002 84B0     	 sub sp,sp,#16
 956              	.LCFI46:
 957              	 .cfi_def_cfa_offset 24
 958 0004 00AF     	 add r7,sp,#0
 959              	.LCFI47:
 960              	 .cfi_def_cfa_register 7
 857:../Dave/Generated/UCPROBE/probe_com.c ****     CPU_SIZE_T   buf_len;
 858:../Dave/Generated/UCPROBE/probe_com.c ****     CPU_BOOLEAN  avail;
 859:../Dave/Generated/UCPROBE/probe_com.c ****     CPU_SR_ALLOC();
 961              	 .loc 1 859 0
 962 0006 0023     	 movs r3,#0
 963 0008 FB60     	 str r3,[r7,#12]
 860:../Dave/Generated/UCPROBE/probe_com.c **** 
 861:../Dave/Generated/UCPROBE/probe_com.c **** 
 862:../Dave/Generated/UCPROBE/probe_com.c ****     CPU_CRITICAL_ENTER();
 964              	 .loc 1 862 0
 965 000a FFF7FEFF 	 bl CPU_SR_Save
 966 000e F860     	 str r0,[r7,#12]
 863:../Dave/Generated/UCPROBE/probe_com.c ****     buf_len = ProbeCom_TerminalOutBufLen;
 967              	 .loc 1 863 0
 968 0010 084B     	 ldr r3,.L57
 969 0012 1B68     	 ldr r3,[r3]
 970 0014 BB60     	 str r3,[r7,#8]
 864:../Dave/Generated/UCPROBE/probe_com.c ****     CPU_CRITICAL_EXIT();
 971              	 .loc 1 864 0
 972 0016 F868     	 ldr r0,[r7,#12]
 973 0018 FFF7FEFF 	 bl CPU_SR_Restore
 865:../Dave/Generated/UCPROBE/probe_com.c **** 
 866:../Dave/Generated/UCPROBE/probe_com.c ****     avail   = (buf_len == 0u) ? (DEF_FALSE) : (DEF_TRUE);
 974              	 .loc 1 866 0
 975 001c BB68     	 ldr r3,[r7,#8]
 976 001e 002B     	 cmp r3,#0
 977 0020 14BF     	 ite ne
 978 0022 0123     	 movne r3,#1
 979 0024 0023     	 moveq r3,#0
 980 0026 DBB2     	 uxtb r3,r3
 981 0028 FB71     	 strb r3,[r7,#7]
 867:../Dave/Generated/UCPROBE/probe_com.c **** 
 868:../Dave/Generated/UCPROBE/probe_com.c ****     return (avail);
 982              	 .loc 1 868 0
 983 002a FB79     	 ldrb r3,[r7,#7]
 869:../Dave/Generated/UCPROBE/probe_com.c **** }
 984              	 .loc 1 869 0
 985 002c 1846     	 mov r0,r3
 986 002e 1037     	 adds r7,r7,#16
 987              	.LCFI48:
 988              	 .cfi_def_cfa_offset 8
 989 0030 BD46     	 mov sp,r7
 990              	.LCFI49:
 991              	 .cfi_def_cfa_register 13
 992              	 
 993 0032 80BD     	 pop {r7,pc}
 994              	.L58:
 995              	 .align 2
 996              	.L57:
 997 0034 00000000 	 .word ProbeCom_TerminalOutBufLen
 998              	 .cfi_endproc
 999              	.LFE9:
 1001              	 .section .text.ProbeCom_TerminalExecDone,"ax",%progbits
 1002              	 .align 2
 1003              	 .thumb
 1004              	 .thumb_func
 1006              	ProbeCom_TerminalExecDone:
 1007              	.LFB10:
 870:../Dave/Generated/UCPROBE/probe_com.c **** #endif
 871:../Dave/Generated/UCPROBE/probe_com.c **** 
 872:../Dave/Generated/UCPROBE/probe_com.c **** 
 873:../Dave/Generated/UCPROBE/probe_com.c **** 
 874:../Dave/Generated/UCPROBE/probe_com.c **** /*
 875:../Dave/Generated/UCPROBE/probe_com.c **** ***************************************************************************************************
 876:../Dave/Generated/UCPROBE/probe_com.c **** *                                     ProbeCom_TerminalExecDone()
 877:../Dave/Generated/UCPROBE/probe_com.c **** *
 878:../Dave/Generated/UCPROBE/probe_com.c **** * Description : Check if terminal execution is done.
 879:../Dave/Generated/UCPROBE/probe_com.c **** *
 880:../Dave/Generated/UCPROBE/probe_com.c **** * Argument(s) : none.
 881:../Dave/Generated/UCPROBE/probe_com.c **** *
 882:../Dave/Generated/UCPROBE/probe_com.c **** * Return(s)   : DEF_TRUE   if terminal command execution is     done.
 883:../Dave/Generated/UCPROBE/probe_com.c **** *               DEF_FALSE  if terminal command execution is NOT done.
 884:../Dave/Generated/UCPROBE/probe_com.c **** *
 885:../Dave/Generated/UCPROBE/probe_com.c **** * Caller(s)   : ProbeCom_PktModifier().
 886:../Dave/Generated/UCPROBE/probe_com.c **** *
 887:../Dave/Generated/UCPROBE/probe_com.c **** * Note(s)     : (1) See Notes for 'ProbeCom_TerminalOut()'.
 888:../Dave/Generated/UCPROBE/probe_com.c **** ***************************************************************************************************
 889:../Dave/Generated/UCPROBE/probe_com.c **** */
 890:../Dave/Generated/UCPROBE/probe_com.c **** 
 891:../Dave/Generated/UCPROBE/probe_com.c **** #if (PROBE_COM_CFG_TERMINAL_REQ_EN == DEF_ENABLED)
 892:../Dave/Generated/UCPROBE/probe_com.c **** static  CPU_BOOLEAN  ProbeCom_TerminalExecDone (void)
 893:../Dave/Generated/UCPROBE/probe_com.c **** {
 1008              	 .loc 1 893 0
 1009              	 .cfi_startproc
 1010              	 
 1011              	 
 1012 0000 80B5     	 push {r7,lr}
 1013              	.LCFI50:
 1014              	 .cfi_def_cfa_offset 8
 1015              	 .cfi_offset 7,-8
 1016              	 .cfi_offset 14,-4
 1017 0002 82B0     	 sub sp,sp,#8
 1018              	.LCFI51:
 1019              	 .cfi_def_cfa_offset 16
 1020 0004 00AF     	 add r7,sp,#0
 1021              	.LCFI52:
 1022              	 .cfi_def_cfa_register 7
 894:../Dave/Generated/UCPROBE/probe_com.c **** #if (CPU_CFG_CRITICAL_METHOD == CPU_CRITICAL_METHOD_STATUS_LOCAL)
 895:../Dave/Generated/UCPROBE/probe_com.c ****     CPU_SR       cpu_sr;
 896:../Dave/Generated/UCPROBE/probe_com.c **** #endif
 897:../Dave/Generated/UCPROBE/probe_com.c ****     CPU_BOOLEAN  executing;
 898:../Dave/Generated/UCPROBE/probe_com.c ****     CPU_BOOLEAN  done;
 899:../Dave/Generated/UCPROBE/probe_com.c **** 
 900:../Dave/Generated/UCPROBE/probe_com.c **** 
 901:../Dave/Generated/UCPROBE/probe_com.c ****     CPU_CRITICAL_ENTER();
 1023              	 .loc 1 901 0
 1024 0006 FFF7FEFF 	 bl CPU_SR_Save
 1025 000a 7860     	 str r0,[r7,#4]
 902:../Dave/Generated/UCPROBE/probe_com.c ****     executing = ProbeCom_TerminalExecuting;
 1026              	 .loc 1 902 0
 1027 000c 084B     	 ldr r3,.L61
 1028 000e 1B78     	 ldrb r3,[r3]
 1029 0010 FB70     	 strb r3,[r7,#3]
 903:../Dave/Generated/UCPROBE/probe_com.c ****     CPU_CRITICAL_EXIT();
 1030              	 .loc 1 903 0
 1031 0012 7868     	 ldr r0,[r7,#4]
 1032 0014 FFF7FEFF 	 bl CPU_SR_Restore
 904:../Dave/Generated/UCPROBE/probe_com.c **** 
 905:../Dave/Generated/UCPROBE/probe_com.c ****     done = (executing == DEF_YES) ? (DEF_FALSE) : (DEF_TRUE);
 1033              	 .loc 1 905 0
 1034 0018 FB78     	 ldrb r3,[r7,#3]
 1035 001a 012B     	 cmp r3,#1
 1036 001c 14BF     	 ite ne
 1037 001e 0123     	 movne r3,#1
 1038 0020 0023     	 moveq r3,#0
 1039 0022 DBB2     	 uxtb r3,r3
 1040 0024 BB70     	 strb r3,[r7,#2]
 906:../Dave/Generated/UCPROBE/probe_com.c **** 
 907:../Dave/Generated/UCPROBE/probe_com.c ****     return (done);
 1041              	 .loc 1 907 0
 1042 0026 BB78     	 ldrb r3,[r7,#2]
 908:../Dave/Generated/UCPROBE/probe_com.c **** }
 1043              	 .loc 1 908 0
 1044 0028 1846     	 mov r0,r3
 1045 002a 0837     	 adds r7,r7,#8
 1046              	.LCFI53:
 1047              	 .cfi_def_cfa_offset 8
 1048 002c BD46     	 mov sp,r7
 1049              	.LCFI54:
 1050              	 .cfi_def_cfa_register 13
 1051              	 
 1052 002e 80BD     	 pop {r7,pc}
 1053              	.L62:
 1054              	 .align 2
 1055              	.L61:
 1056 0030 00000000 	 .word ProbeCom_TerminalExecuting
 1057              	 .cfi_endproc
 1058              	.LFE10:
 1060              	 .section .text.ProbeCom_PktModifier,"ax",%progbits
 1061              	 .align 2
 1062              	 .thumb
 1063              	 .thumb_func
 1065              	ProbeCom_PktModifier:
 1066              	.LFB11:
 909:../Dave/Generated/UCPROBE/probe_com.c **** #endif
 910:../Dave/Generated/UCPROBE/probe_com.c **** 
 911:../Dave/Generated/UCPROBE/probe_com.c **** 
 912:../Dave/Generated/UCPROBE/probe_com.c **** /*
 913:../Dave/Generated/UCPROBE/probe_com.c **** ***************************************************************************************************
 914:../Dave/Generated/UCPROBE/probe_com.c **** *                                       ProbeCom_PktModifier()
 915:../Dave/Generated/UCPROBE/probe_com.c **** *
 916:../Dave/Generated/UCPROBE/probe_com.c **** * Description : Get packet modfier byte.
 917:../Dave/Generated/UCPROBE/probe_com.c **** *
 918:../Dave/Generated/UCPROBE/probe_com.c **** * Argument(s) : none.
 919:../Dave/Generated/UCPROBE/probe_com.c **** *
 920:../Dave/Generated/UCPROBE/probe_com.c **** * Return(s)   : The modifier byte.
 921:../Dave/Generated/UCPROBE/probe_com.c **** *
 922:../Dave/Generated/UCPROBE/probe_com.c **** * Caller(s)   : Various command handlers (ProbeCom_Req????()).
 923:../Dave/Generated/UCPROBE/probe_com.c **** *
 924:../Dave/Generated/UCPROBE/probe_com.c **** * Note(s)     : none.
 925:../Dave/Generated/UCPROBE/probe_com.c **** ***************************************************************************************************
 926:../Dave/Generated/UCPROBE/probe_com.c **** */
 927:../Dave/Generated/UCPROBE/probe_com.c **** 
 928:../Dave/Generated/UCPROBE/probe_com.c **** static  CPU_INT08U  ProbeCom_PktModifier (void)
 929:../Dave/Generated/UCPROBE/probe_com.c **** {
 1067              	 .loc 1 929 0
 1068              	 .cfi_startproc
 1069              	 
 1070              	 
 1071 0000 80B5     	 push {r7,lr}
 1072              	.LCFI55:
 1073              	 .cfi_def_cfa_offset 8
 1074              	 .cfi_offset 7,-8
 1075              	 .cfi_offset 14,-4
 1076 0002 82B0     	 sub sp,sp,#8
 1077              	.LCFI56:
 1078              	 .cfi_def_cfa_offset 16
 1079 0004 00AF     	 add r7,sp,#0
 1080              	.LCFI57:
 1081              	 .cfi_def_cfa_register 7
 930:../Dave/Generated/UCPROBE/probe_com.c **** #if ((PROBE_COM_CFG_STR_REQ_EN      == DEF_ENABLED) || \
 931:../Dave/Generated/UCPROBE/probe_com.c ****      (PROBE_COM_CFG_TERMINAL_REQ_EN == DEF_ENABLED))
 932:../Dave/Generated/UCPROBE/probe_com.c ****     CPU_BOOLEAN  avail;
 933:../Dave/Generated/UCPROBE/probe_com.c **** #endif
 934:../Dave/Generated/UCPROBE/probe_com.c **** #if  (PROBE_COM_CFG_TERMINAL_REQ_EN == DEF_ENABLED)
 935:../Dave/Generated/UCPROBE/probe_com.c ****     CPU_BOOLEAN  done;
 936:../Dave/Generated/UCPROBE/probe_com.c **** #endif
 937:../Dave/Generated/UCPROBE/probe_com.c ****     CPU_INT08U   mod;
 938:../Dave/Generated/UCPROBE/probe_com.c **** 
 939:../Dave/Generated/UCPROBE/probe_com.c **** 
 940:../Dave/Generated/UCPROBE/probe_com.c ****     mod = PROBE_COM_MODIFIER_NONE;
 1082              	 .loc 1 940 0
 1083 0006 0023     	 movs r3,#0
 1084 0008 FB71     	 strb r3,[r7,#7]
 941:../Dave/Generated/UCPROBE/probe_com.c **** 
 942:../Dave/Generated/UCPROBE/probe_com.c **** #if (PROBE_COM_CFG_STR_REQ_EN == DEF_ENABLED)
 943:../Dave/Generated/UCPROBE/probe_com.c ****     avail = ProbeCom_StrOutAvail();
 1085              	 .loc 1 943 0
 1086 000a FFF7FEFF 	 bl ProbeCom_StrOutAvail
 1087 000e 0346     	 mov r3,r0
 1088 0010 BB71     	 strb r3,[r7,#6]
 944:../Dave/Generated/UCPROBE/probe_com.c ****     if (avail == DEF_TRUE) {
 1089              	 .loc 1 944 0
 1090 0012 BB79     	 ldrb r3,[r7,#6]
 1091 0014 012B     	 cmp r3,#1
 1092 0016 03D1     	 bne .L64
 945:../Dave/Generated/UCPROBE/probe_com.c ****         DEF_BIT_SET(mod, PROBE_COM_MODIFIER_STR_OUT_AVAIL);
 1093              	 .loc 1 945 0
 1094 0018 FB79     	 ldrb r3,[r7,#7]
 1095 001a 43F00103 	 orr r3,r3,#1
 1096 001e FB71     	 strb r3,[r7,#7]
 1097              	.L64:
 946:../Dave/Generated/UCPROBE/probe_com.c ****     }
 947:../Dave/Generated/UCPROBE/probe_com.c **** #endif
 948:../Dave/Generated/UCPROBE/probe_com.c **** 
 949:../Dave/Generated/UCPROBE/probe_com.c **** #if (PROBE_COM_CFG_TERMINAL_REQ_EN == DEF_ENABLED)
 950:../Dave/Generated/UCPROBE/probe_com.c ****     avail = ProbeCom_TerminalOutAvail();
 1098              	 .loc 1 950 0
 1099 0020 FFF7FEFF 	 bl ProbeCom_TerminalOutAvail
 1100 0024 0346     	 mov r3,r0
 1101 0026 BB71     	 strb r3,[r7,#6]
 951:../Dave/Generated/UCPROBE/probe_com.c ****     if (avail == DEF_TRUE) {
 1102              	 .loc 1 951 0
 1103 0028 BB79     	 ldrb r3,[r7,#6]
 1104 002a 012B     	 cmp r3,#1
 1105 002c 03D1     	 bne .L65
 952:../Dave/Generated/UCPROBE/probe_com.c ****         DEF_BIT_SET(mod, PROBE_COM_MODIFIER_TERMINAL_OUT_AVAIL);
 1106              	 .loc 1 952 0
 1107 002e FB79     	 ldrb r3,[r7,#7]
 1108 0030 43F00403 	 orr r3,r3,#4
 1109 0034 FB71     	 strb r3,[r7,#7]
 1110              	.L65:
 953:../Dave/Generated/UCPROBE/probe_com.c ****     }
 954:../Dave/Generated/UCPROBE/probe_com.c **** 
 955:../Dave/Generated/UCPROBE/probe_com.c ****     done = ProbeCom_TerminalExecDone();
 1111              	 .loc 1 955 0
 1112 0036 FFF7FEFF 	 bl ProbeCom_TerminalExecDone
 1113 003a 0346     	 mov r3,r0
 1114 003c 7B71     	 strb r3,[r7,#5]
 956:../Dave/Generated/UCPROBE/probe_com.c ****     if (done == DEF_TRUE) {
 1115              	 .loc 1 956 0
 1116 003e 7B79     	 ldrb r3,[r7,#5]
 1117 0040 012B     	 cmp r3,#1
 1118 0042 03D1     	 bne .L66
 957:../Dave/Generated/UCPROBE/probe_com.c ****         DEF_BIT_SET(mod, PROBE_COM_MODIFIER_TERMINAL_EXEC_DONE);
 1119              	 .loc 1 957 0
 1120 0044 FB79     	 ldrb r3,[r7,#7]
 1121 0046 43F00203 	 orr r3,r3,#2
 1122 004a FB71     	 strb r3,[r7,#7]
 1123              	.L66:
 958:../Dave/Generated/UCPROBE/probe_com.c ****     }
 959:../Dave/Generated/UCPROBE/probe_com.c **** #endif
 960:../Dave/Generated/UCPROBE/probe_com.c **** 
 961:../Dave/Generated/UCPROBE/probe_com.c ****     return (mod);
 1124              	 .loc 1 961 0
 1125 004c FB79     	 ldrb r3,[r7,#7]
 962:../Dave/Generated/UCPROBE/probe_com.c **** }
 1126              	 .loc 1 962 0
 1127 004e 1846     	 mov r0,r3
 1128 0050 0837     	 adds r7,r7,#8
 1129              	.LCFI58:
 1130              	 .cfi_def_cfa_offset 8
 1131 0052 BD46     	 mov sp,r7
 1132              	.LCFI59:
 1133              	 .cfi_def_cfa_register 13
 1134              	 
 1135 0054 80BD     	 pop {r7,pc}
 1136              	 .cfi_endproc
 1137              	.LFE11:
 1139 0056 00BF     	 .section .text.ProbeCom_ReqErr,"ax",%progbits
 1140              	 .align 2
 1141              	 .thumb
 1142              	 .thumb_func
 1144              	ProbeCom_ReqErr:
 1145              	.LFB12:
 963:../Dave/Generated/UCPROBE/probe_com.c **** 
 964:../Dave/Generated/UCPROBE/probe_com.c **** 
 965:../Dave/Generated/UCPROBE/probe_com.c **** /*
 966:../Dave/Generated/UCPROBE/probe_com.c **** ***************************************************************************************************
 967:../Dave/Generated/UCPROBE/probe_com.c **** *                                          ProbeCom_ReqErr()
 968:../Dave/Generated/UCPROBE/probe_com.c **** *
 969:../Dave/Generated/UCPROBE/probe_com.c **** * Description : Formulate error response when the target receives a request it cannot handle.
 970:../Dave/Generated/UCPROBE/probe_com.c **** *
 971:../Dave/Generated/UCPROBE/probe_com.c **** * Argument(s) : ptx_buf      Pointer to the transmit buffer
 972:../Dave/Generated/UCPROBE/probe_com.c **** *
 973:../Dave/Generated/UCPROBE/probe_com.c **** *               comm_err     Error that occurred
 974:../Dave/Generated/UCPROBE/probe_com.c **** *
 975:../Dave/Generated/UCPROBE/probe_com.c **** * Return(s)   : The number of bytes written to the tx buffer.
 976:../Dave/Generated/UCPROBE/probe_com.c **** *
 977:../Dave/Generated/UCPROBE/probe_com.c **** * Caller(s)   : Various command handlers (ProbeCom_Req????()).
 978:../Dave/Generated/UCPROBE/probe_com.c **** *
 979:../Dave/Generated/UCPROBE/probe_com.c **** * Note(s)     : (1) The TX format:
 980:../Dave/Generated/UCPROBE/probe_com.c **** *
 981:../Dave/Generated/UCPROBE/probe_com.c **** *                   (A) A 2-byte format  , indicating the data segment format;
 982:../Dave/Generated/UCPROBE/probe_com.c **** *                   (B) A 1-byte constant, PROBE_RS232_OK,   if the location can    be read;
 983:../Dave/Generated/UCPROBE/probe_com.c **** *                       A 1-byte constant, PROBE_RS232_FAIL, if the location cannot be read.
 984:../Dave/Generated/UCPROBE/probe_com.c **** *                   (C) A 1-byte modifier.
 985:../Dave/Generated/UCPROBE/probe_com.c **** *
 986:../Dave/Generated/UCPROBE/probe_com.c **** *                         +-------------------------+------------+------------+
 987:../Dave/Generated/UCPROBE/probe_com.c **** *                         |          Format         |   Status   |  Modifier  |
 988:../Dave/Generated/UCPROBE/probe_com.c **** *                         +-------------------------+------------+------------+
 989:../Dave/Generated/UCPROBE/probe_com.c **** ***************************************************************************************************
 990:../Dave/Generated/UCPROBE/probe_com.c **** */
 991:../Dave/Generated/UCPROBE/probe_com.c **** 
 992:../Dave/Generated/UCPROBE/probe_com.c **** static  CPU_SIZE_T  ProbeCom_ReqErr (CPU_INT08U  *ptx_buf,
 993:../Dave/Generated/UCPROBE/probe_com.c ****                                      CPU_INT08U   comm_err)
 994:../Dave/Generated/UCPROBE/probe_com.c **** {
 1146              	 .loc 1 994 0
 1147              	 .cfi_startproc
 1148              	 
 1149              	 
 1150 0000 80B5     	 push {r7,lr}
 1151              	.LCFI60:
 1152              	 .cfi_def_cfa_offset 8
 1153              	 .cfi_offset 7,-8
 1154              	 .cfi_offset 14,-4
 1155 0002 84B0     	 sub sp,sp,#16
 1156              	.LCFI61:
 1157              	 .cfi_def_cfa_offset 24
 1158 0004 00AF     	 add r7,sp,#0
 1159              	.LCFI62:
 1160              	 .cfi_def_cfa_register 7
 1161 0006 7860     	 str r0,[r7,#4]
 1162 0008 0B46     	 mov r3,r1
 1163 000a FB70     	 strb r3,[r7,#3]
 995:../Dave/Generated/UCPROBE/probe_com.c ****     CPU_SIZE_T  tx_len;
 996:../Dave/Generated/UCPROBE/probe_com.c **** 
 997:../Dave/Generated/UCPROBE/probe_com.c **** 
 998:../Dave/Generated/UCPROBE/probe_com.c **** #if (PROBE_COM_CFG_STAT_EN == DEF_ENABLED)
 999:../Dave/Generated/UCPROBE/probe_com.c ****     ProbeCom_ErrPktCtr++;
 1164              	 .loc 1 999 0
 1165 000c 104B     	 ldr r3,.L70
 1166 000e 1B68     	 ldr r3,[r3]
 1167 0010 0133     	 adds r3,r3,#1
 1168 0012 0F4A     	 ldr r2,.L70
 1169 0014 1360     	 str r3,[r2]
1000:../Dave/Generated/UCPROBE/probe_com.c **** #endif
1001:../Dave/Generated/UCPROBE/probe_com.c **** 
1002:../Dave/Generated/UCPROBE/probe_com.c ****     ProbeCom_StoINT16U(&ptx_buf, PROBE_COM_FMT_TX_ERR);         /* Tx pkt fmt.                     
 1170              	 .loc 1 1002 0
 1171 0016 3B1D     	 adds r3,r7,#4
 1172 0018 1846     	 mov r0,r3
 1173 001a 4FF40041 	 mov r1,#32768
 1174 001e FFF7FEFF 	 bl ProbeCom_StoINT16U
1003:../Dave/Generated/UCPROBE/probe_com.c ****     ProbeCom_StoINT08U(&ptx_buf, comm_err);                     /* Target status.                  
 1175              	 .loc 1 1003 0
 1176 0022 3A1D     	 adds r2,r7,#4
 1177 0024 FB78     	 ldrb r3,[r7,#3]
 1178 0026 1046     	 mov r0,r2
 1179 0028 1946     	 mov r1,r3
 1180 002a FFF7FEFF 	 bl ProbeCom_StoINT08U
1004:../Dave/Generated/UCPROBE/probe_com.c ****     ProbeCom_StoINT08U(&ptx_buf, ProbeCom_PktModifier());       /* Modifier.                       
 1181              	 .loc 1 1004 0
 1182 002e FFF7FEFF 	 bl ProbeCom_PktModifier
 1183 0032 0346     	 mov r3,r0
 1184 0034 1A46     	 mov r2,r3
 1185 0036 3B1D     	 adds r3,r7,#4
 1186 0038 1846     	 mov r0,r3
 1187 003a 1146     	 mov r1,r2
 1188 003c FFF7FEFF 	 bl ProbeCom_StoINT08U
1005:../Dave/Generated/UCPROBE/probe_com.c **** 
1006:../Dave/Generated/UCPROBE/probe_com.c ****     tx_len = (CPU_SIZE_T)PROBE_COM_SIZE_TX_HDR;
 1189              	 .loc 1 1006 0
 1190 0040 0423     	 movs r3,#4
 1191 0042 FB60     	 str r3,[r7,#12]
1007:../Dave/Generated/UCPROBE/probe_com.c ****     return (tx_len);                                            /* Rtn TX data segment size =  4 (=
 1192              	 .loc 1 1007 0
 1193 0044 FB68     	 ldr r3,[r7,#12]
1008:../Dave/Generated/UCPROBE/probe_com.c **** }
 1194              	 .loc 1 1008 0
 1195 0046 1846     	 mov r0,r3
 1196 0048 1037     	 adds r7,r7,#16
 1197              	.LCFI63:
 1198              	 .cfi_def_cfa_offset 8
 1199 004a BD46     	 mov sp,r7
 1200              	.LCFI64:
 1201              	 .cfi_def_cfa_register 13
 1202              	 
 1203 004c 80BD     	 pop {r7,pc}
 1204              	.L71:
 1205 004e 00BF     	 .align 2
 1206              	.L70:
 1207 0050 00000000 	 .word ProbeCom_ErrPktCtr
 1208              	 .cfi_endproc
 1209              	.LFE12:
 1211              	 .section .text.ProbeCom_ReqQuery,"ax",%progbits
 1212              	 .align 2
 1213              	 .thumb
 1214              	 .thumb_func
 1216              	ProbeCom_ReqQuery:
 1217              	.LFB13:
1009:../Dave/Generated/UCPROBE/probe_com.c **** 
1010:../Dave/Generated/UCPROBE/probe_com.c **** 
1011:../Dave/Generated/UCPROBE/probe_com.c **** /*
1012:../Dave/Generated/UCPROBE/probe_com.c **** ***************************************************************************************************
1013:../Dave/Generated/UCPROBE/probe_com.c **** *                                         ProbeCom_ReqQuery()
1014:../Dave/Generated/UCPROBE/probe_com.c **** *
1015:../Dave/Generated/UCPROBE/probe_com.c **** * Description : Parse the FMT_QUERY command & formulate response.  This command asks the target
1016:../Dave/Generated/UCPROBE/probe_com.c **** *               about its capabilities, which are returned in response.
1017:../Dave/Generated/UCPROBE/probe_com.c **** *
1018:../Dave/Generated/UCPROBE/probe_com.c **** * Argument(s) : prx_buf         Pointer to the receive  buffer
1019:../Dave/Generated/UCPROBE/probe_com.c **** *
1020:../Dave/Generated/UCPROBE/probe_com.c **** *               ptx_buf         Pointer to the transmit buffer
1021:../Dave/Generated/UCPROBE/probe_com.c **** *
1022:../Dave/Generated/UCPROBE/probe_com.c **** *               rx_pkt_size     Size of the receive  packet
1023:../Dave/Generated/UCPROBE/probe_com.c **** *
1024:../Dave/Generated/UCPROBE/probe_com.c **** *               tx_buf_size     Size of the transmit buffer
1025:../Dave/Generated/UCPROBE/probe_com.c **** *
1026:../Dave/Generated/UCPROBE/probe_com.c **** * Return(s)   : The number of bytes written to the tx buffer.
1027:../Dave/Generated/UCPROBE/probe_com.c **** *
1028:../Dave/Generated/UCPROBE/probe_com.c **** * Caller(s)   : ProbeCom_ParseRxPkt().
1029:../Dave/Generated/UCPROBE/probe_com.c **** *
1030:../Dave/Generated/UCPROBE/probe_com.c **** * Note(s)     : (1) The RX format:
1031:../Dave/Generated/UCPROBE/probe_com.c **** *
1032:../Dave/Generated/UCPROBE/probe_com.c **** *                   (A) A 2-byte format, indicating the data segment format;
1033:../Dave/Generated/UCPROBE/probe_com.c **** *                   (B) A 2-byte query , indicating the query type.
1034:../Dave/Generated/UCPROBE/probe_com.c **** *
1035:../Dave/Generated/UCPROBE/probe_com.c **** *                         +-------------------------+-------------------------+
1036:../Dave/Generated/UCPROBE/probe_com.c **** *                         |          Format         |          Query          |
1037:../Dave/Generated/UCPROBE/probe_com.c **** *                         +-------------------------+-------------------------+
1038:../Dave/Generated/UCPROBE/probe_com.c **** *
1039:../Dave/Generated/UCPROBE/probe_com.c **** *              (2) The TX format:
1040:../Dave/Generated/UCPROBE/probe_com.c **** *
1041:../Dave/Generated/UCPROBE/probe_com.c **** *                   (A) A 2-byte format, indicating the data segment format;
1042:../Dave/Generated/UCPROBE/probe_com.c **** *                   (B) A 1-byte status, indicating the status after the request;
1043:../Dave/Generated/UCPROBE/probe_com.c **** *                   (C) A 1-byte modifier;
1044:../Dave/Generated/UCPROBE/probe_com.c **** *                   (E) A n-byte answer, the answer to the query.
1045:../Dave/Generated/UCPROBE/probe_com.c **** *
1046:../Dave/Generated/UCPROBE/probe_com.c **** *                         +-------------------------+------------+------------+
1047:../Dave/Generated/UCPROBE/probe_com.c **** *                         |          Format         |   Status   |  Modifier  |
1048:../Dave/Generated/UCPROBE/probe_com.c **** *                         +-------------------------+------------+------------+
1049:../Dave/Generated/UCPROBE/probe_com.c **** *                         |                       Answer                      |
1050:../Dave/Generated/UCPROBE/probe_com.c **** *                         |                         .                         |
1051:../Dave/Generated/UCPROBE/probe_com.c **** *                         |                         .                         |
1052:../Dave/Generated/UCPROBE/probe_com.c **** *                         |                         .                         |
1053:../Dave/Generated/UCPROBE/probe_com.c **** *                         +---------------------------------------------------+
1054:../Dave/Generated/UCPROBE/probe_com.c **** *
1055:../Dave/Generated/UCPROBE/probe_com.c **** ***************************************************************************************************
1056:../Dave/Generated/UCPROBE/probe_com.c **** */
1057:../Dave/Generated/UCPROBE/probe_com.c **** 
1058:../Dave/Generated/UCPROBE/probe_com.c **** static  CPU_SIZE_T  ProbeCom_ReqQuery (CPU_INT08U  *prx_buf,
1059:../Dave/Generated/UCPROBE/probe_com.c ****                                        CPU_INT08U  *ptx_buf,
1060:../Dave/Generated/UCPROBE/probe_com.c ****                                        CPU_SIZE_T   rx_pkt_size,
1061:../Dave/Generated/UCPROBE/probe_com.c ****                                        CPU_SIZE_T   tx_buf_size)
1062:../Dave/Generated/UCPROBE/probe_com.c **** {
 1218              	 .loc 1 1062 0
 1219              	 .cfi_startproc
 1220              	 
 1221              	 
 1222 0000 80B5     	 push {r7,lr}
 1223              	.LCFI65:
 1224              	 .cfi_def_cfa_offset 8
 1225              	 .cfi_offset 7,-8
 1226              	 .cfi_offset 14,-4
 1227 0002 88B0     	 sub sp,sp,#32
 1228              	.LCFI66:
 1229              	 .cfi_def_cfa_offset 40
 1230 0004 00AF     	 add r7,sp,#0
 1231              	.LCFI67:
 1232              	 .cfi_def_cfa_register 7
 1233 0006 F860     	 str r0,[r7,#12]
 1234 0008 B960     	 str r1,[r7,#8]
 1235 000a 7A60     	 str r2,[r7,#4]
 1236 000c 3B60     	 str r3,[r7]
1063:../Dave/Generated/UCPROBE/probe_com.c ****     CPU_INT16U  query;
1064:../Dave/Generated/UCPROBE/probe_com.c ****     CPU_INT32U  status;
1065:../Dave/Generated/UCPROBE/probe_com.c ****     CPU_SIZE_T  tx_len;
1066:../Dave/Generated/UCPROBE/probe_com.c ****     CPU_INT32U  version;
1067:../Dave/Generated/UCPROBE/probe_com.c **** 
1068:../Dave/Generated/UCPROBE/probe_com.c **** 
1069:../Dave/Generated/UCPROBE/probe_com.c ****    (void)&tx_buf_size;                                          /* Prevent compiler warning.       
1070:../Dave/Generated/UCPROBE/probe_com.c **** 
1071:../Dave/Generated/UCPROBE/probe_com.c ****                                                                 /* ------------------- CHK PKT SIZE
1072:../Dave/Generated/UCPROBE/probe_com.c ****                                                                 /* Expected size =  2 (= Rx hdr siz
1073:../Dave/Generated/UCPROBE/probe_com.c ****                                                                 /*               +  2 (= Query     
1074:../Dave/Generated/UCPROBE/probe_com.c ****     if (rx_pkt_size != 4u) {
 1237              	 .loc 1 1074 0
 1238 000e 7B68     	 ldr r3,[r7,#4]
 1239 0010 042B     	 cmp r3,#4
 1240 0012 07D0     	 beq .L73
1075:../Dave/Generated/UCPROBE/probe_com.c ****         tx_len = ProbeCom_ReqErr(ptx_buf, PROBE_COM_STATUS_RX_PKT_WRONG_SIZE);
 1241              	 .loc 1 1075 0
 1242 0014 BB68     	 ldr r3,[r7,#8]
 1243 0016 1846     	 mov r0,r3
 1244 0018 FE21     	 movs r1,#254
 1245 001a FFF7FEFF 	 bl ProbeCom_ReqErr
 1246 001e F861     	 str r0,[r7,#28]
1076:../Dave/Generated/UCPROBE/probe_com.c ****         return (tx_len);
 1247              	 .loc 1 1076 0
 1248 0020 FB69     	 ldr r3,[r7,#28]
 1249 0022 F0E0     	 b .L88
 1250              	.L73:
1077:../Dave/Generated/UCPROBE/probe_com.c ****     }
1078:../Dave/Generated/UCPROBE/probe_com.c **** 
1079:../Dave/Generated/UCPROBE/probe_com.c ****                                                                 /* ------------------- HANDLE QUERY
1080:../Dave/Generated/UCPROBE/probe_com.c ****     query = ProbeCom_GetINT16U(&prx_buf);                       /* Rd the query.                   
 1251              	 .loc 1 1080 0
 1252 0024 07F10C03 	 add r3,r7,#12
 1253 0028 1846     	 mov r0,r3
 1254 002a FFF7FEFF 	 bl ProbeCom_GetINT16U
 1255 002e 0346     	 mov r3,r0
 1256 0030 7B83     	 strh r3,[r7,#26]
1081:../Dave/Generated/UCPROBE/probe_com.c **** 
1082:../Dave/Generated/UCPROBE/probe_com.c ****     switch (query) {                                            /* Determine if query is supported.
 1257              	 .loc 1 1082 0
 1258 0032 7B8B     	 ldrh r3,[r7,#26]
 1259 0034 40F20222 	 movw r2,#514
 1260 0038 9342     	 cmp r3,r2
 1261 003a 07DC     	 bgt .L76
 1262 003c B3F5007F 	 cmp r3,#512
 1263 0040 11DC     	 bgt .L89
 1264 0042 A3F20113 	 subw r3,r3,#257
 1265 0046 012B     	 cmp r3,#1
 1266 0048 05D8     	 bhi .L75
1083:../Dave/Generated/UCPROBE/probe_com.c ****         case PROBE_COM_QUERY_MAX_RX_SIZE:
1084:../Dave/Generated/UCPROBE/probe_com.c ****         case PROBE_COM_QUERY_MAX_TX_SIZE:
1085:../Dave/Generated/UCPROBE/probe_com.c ****         case PROBE_COM_QUERY_FMT_SUPPORT:
1086:../Dave/Generated/UCPROBE/probe_com.c ****         case PROBE_COM_QUERY_ENDIANNESS_TEST:
1087:../Dave/Generated/UCPROBE/probe_com.c ****         case PROBE_COM_QUERY_STATUS:
1088:../Dave/Generated/UCPROBE/probe_com.c ****         case PROBE_COM_QUERY_VERSION:
1089:../Dave/Generated/UCPROBE/probe_com.c ****              break;
 1267              	 .loc 1 1089 0
 1268 004a 0CE0     	 b .L89
 1269              	.L76:
1082:../Dave/Generated/UCPROBE/probe_com.c ****         case PROBE_COM_QUERY_MAX_RX_SIZE:
 1270              	 .loc 1 1082 0
 1271 004c A3F58053 	 sub r3,r3,#4096
 1272 0050 013B     	 subs r3,r3,#1
 1273 0052 012B     	 cmp r3,#1
 1274 0054 07D9     	 bls .L89
 1275              	.L75:
1090:../Dave/Generated/UCPROBE/probe_com.c **** 
1091:../Dave/Generated/UCPROBE/probe_com.c ****         default:
1092:../Dave/Generated/UCPROBE/probe_com.c ****              tx_len = ProbeCom_ReqErr(ptx_buf, PROBE_COM_STATUS_QUERY_NOT_SUPPORTED);
 1276              	 .loc 1 1092 0
 1277 0056 BB68     	 ldr r3,[r7,#8]
 1278 0058 1846     	 mov r0,r3
 1279 005a FC21     	 movs r1,#252
 1280 005c FFF7FEFF 	 bl ProbeCom_ReqErr
 1281 0060 F861     	 str r0,[r7,#28]
1093:../Dave/Generated/UCPROBE/probe_com.c ****              return (tx_len);
 1282              	 .loc 1 1093 0
 1283 0062 FB69     	 ldr r3,[r7,#28]
 1284 0064 CFE0     	 b .L88
 1285              	.L89:
1089:../Dave/Generated/UCPROBE/probe_com.c **** 
 1286              	 .loc 1 1089 0
 1287 0066 00BF     	 nop
1094:../Dave/Generated/UCPROBE/probe_com.c ****     }
1095:../Dave/Generated/UCPROBE/probe_com.c **** 
1096:../Dave/Generated/UCPROBE/probe_com.c ****                                                                 /* Sto tx pkt hdr :                
1097:../Dave/Generated/UCPROBE/probe_com.c ****     ProbeCom_StoINT16U(&ptx_buf, PROBE_COM_FMT_TX_QUERY);       /*  (a) TX pkt fmt.                
 1288              	 .loc 1 1097 0
 1289 0068 07F10803 	 add r3,r7,#8
 1290 006c 1846     	 mov r0,r3
 1291 006e 48F20101 	 movw r1,#32769
 1292 0072 FFF7FEFF 	 bl ProbeCom_StoINT16U
1098:../Dave/Generated/UCPROBE/probe_com.c ****     ProbeCom_StoINT08U(&ptx_buf, PROBE_COM_STATUS_OK);          /*  (b) Target status.             
 1293              	 .loc 1 1098 0
 1294 0076 07F10803 	 add r3,r7,#8
 1295 007a 1846     	 mov r0,r3
 1296 007c 0121     	 movs r1,#1
 1297 007e FFF7FEFF 	 bl ProbeCom_StoINT08U
1099:../Dave/Generated/UCPROBE/probe_com.c ****     ProbeCom_StoINT08U(&ptx_buf, ProbeCom_PktModifier());       /*  (c) Modifier.                  
 1298              	 .loc 1 1099 0
 1299 0082 FFF7FEFF 	 bl ProbeCom_PktModifier
 1300 0086 0346     	 mov r3,r0
 1301 0088 1A46     	 mov r2,r3
 1302 008a 07F10803 	 add r3,r7,#8
 1303 008e 1846     	 mov r0,r3
 1304 0090 1146     	 mov r1,r2
 1305 0092 FFF7FEFF 	 bl ProbeCom_StoINT08U
1100:../Dave/Generated/UCPROBE/probe_com.c **** 
1101:../Dave/Generated/UCPROBE/probe_com.c ****                                                                 /* Sto tx data segment data.       
1102:../Dave/Generated/UCPROBE/probe_com.c ****     switch (query) {
 1306              	 .loc 1 1102 0
 1307 0096 7B8B     	 ldrh r3,[r7,#26]
 1308 0098 40F20122 	 movw r2,#513
 1309 009c 9342     	 cmp r3,r2
 1310 009e 00F08280 	 beq .L80
 1311 00a2 40F20122 	 movw r2,#513
 1312 00a6 9342     	 cmp r3,r2
 1313 00a8 07DC     	 bgt .L81
 1314 00aa 40F20112 	 movw r2,#257
 1315 00ae 9342     	 cmp r3,r2
 1316 00b0 11D0     	 beq .L82
 1317 00b2 B3F5817F 	 cmp r3,#258
 1318 00b6 1ED0     	 beq .L83
 1319 00b8 9EE0     	 b .L79
 1320              	.L81:
 1321 00ba 41F20102 	 movw r2,#4097
 1322 00be 9342     	 cmp r3,r2
 1323 00c0 29D0     	 beq .L84
 1324 00c2 41F20202 	 movw r2,#4098
 1325 00c6 9342     	 cmp r3,r2
 1326 00c8 00F08880 	 beq .L85
 1327 00cc 40F20222 	 movw r2,#514
 1328 00d0 9342     	 cmp r3,r2
 1329 00d2 74D0     	 beq .L86
 1330 00d4 90E0     	 b .L79
 1331              	.L82:
1103:../Dave/Generated/UCPROBE/probe_com.c ****         case PROBE_COM_QUERY_MAX_RX_SIZE:
1104:../Dave/Generated/UCPROBE/probe_com.c ****              ProbeCom_StoINT16U(&ptx_buf, PROBE_COM_CFG_RX_MAX_SIZE);
 1332              	 .loc 1 1104 0
 1333 00d6 07F10803 	 add r3,r7,#8
 1334 00da 1846     	 mov r0,r3
 1335 00dc 4FF48071 	 mov r1,#256
 1336 00e0 FFF7FEFF 	 bl ProbeCom_StoINT16U
1105:../Dave/Generated/UCPROBE/probe_com.c ****              ProbeCom_StoINT16U(&ptx_buf, 0);
 1337              	 .loc 1 1105 0
 1338 00e4 07F10803 	 add r3,r7,#8
 1339 00e8 1846     	 mov r0,r3
 1340 00ea 0021     	 movs r1,#0
 1341 00ec FFF7FEFF 	 bl ProbeCom_StoINT16U
1106:../Dave/Generated/UCPROBE/probe_com.c ****              tx_len  = 4u;
 1342              	 .loc 1 1106 0
 1343 00f0 0423     	 movs r3,#4
 1344 00f2 FB61     	 str r3,[r7,#28]
1107:../Dave/Generated/UCPROBE/probe_com.c ****              break;
 1345              	 .loc 1 1107 0
 1346 00f4 83E0     	 b .L87
 1347              	.L83:
1108:../Dave/Generated/UCPROBE/probe_com.c **** 
1109:../Dave/Generated/UCPROBE/probe_com.c **** 
1110:../Dave/Generated/UCPROBE/probe_com.c ****         case PROBE_COM_QUERY_MAX_TX_SIZE:
1111:../Dave/Generated/UCPROBE/probe_com.c ****              ProbeCom_StoINT16U(&ptx_buf, PROBE_COM_CFG_TX_MAX_SIZE);
 1348              	 .loc 1 1111 0
 1349 00f6 07F10803 	 add r3,r7,#8
 1350 00fa 1846     	 mov r0,r3
 1351 00fc 4FF48071 	 mov r1,#256
 1352 0100 FFF7FEFF 	 bl ProbeCom_StoINT16U
1112:../Dave/Generated/UCPROBE/probe_com.c ****              ProbeCom_StoINT16U(&ptx_buf, 0);
 1353              	 .loc 1 1112 0
 1354 0104 07F10803 	 add r3,r7,#8
 1355 0108 1846     	 mov r0,r3
 1356 010a 0021     	 movs r1,#0
 1357 010c FFF7FEFF 	 bl ProbeCom_StoINT16U
1113:../Dave/Generated/UCPROBE/probe_com.c ****              tx_len  = 4u;
 1358              	 .loc 1 1113 0
 1359 0110 0423     	 movs r3,#4
 1360 0112 FB61     	 str r3,[r7,#28]
1114:../Dave/Generated/UCPROBE/probe_com.c ****              break;
 1361              	 .loc 1 1114 0
 1362 0114 73E0     	 b .L87
 1363              	.L84:
1115:../Dave/Generated/UCPROBE/probe_com.c **** 
1116:../Dave/Generated/UCPROBE/probe_com.c **** 
1117:../Dave/Generated/UCPROBE/probe_com.c ****         case PROBE_COM_QUERY_FMT_SUPPORT:
1118:../Dave/Generated/UCPROBE/probe_com.c ****              ProbeCom_StoINT16U(&ptx_buf, PROBE_COM_FMT_RX_QUERY);
 1364              	 .loc 1 1118 0
 1365 0116 07F10803 	 add r3,r7,#8
 1366 011a 1846     	 mov r0,r3
 1367 011c 0121     	 movs r1,#1
 1368 011e FFF7FEFF 	 bl ProbeCom_StoINT16U
1119:../Dave/Generated/UCPROBE/probe_com.c ****              ProbeCom_StoINT16U(&ptx_buf, PROBE_COM_FMT_RX_RD);
 1369              	 .loc 1 1119 0
 1370 0122 07F10803 	 add r3,r7,#8
 1371 0126 1846     	 mov r0,r3
 1372 0128 0221     	 movs r1,#2
 1373 012a FFF7FEFF 	 bl ProbeCom_StoINT16U
1120:../Dave/Generated/UCPROBE/probe_com.c ****              ProbeCom_StoINT16U(&ptx_buf, PROBE_COM_FMT_RX_RD_MULTI);
 1374              	 .loc 1 1120 0
 1375 012e 07F10803 	 add r3,r7,#8
 1376 0132 1846     	 mov r0,r3
 1377 0134 0721     	 movs r1,#7
 1378 0136 FFF7FEFF 	 bl ProbeCom_StoINT16U
1121:../Dave/Generated/UCPROBE/probe_com.c ****              tx_len  = 8u;
 1379              	 .loc 1 1121 0
 1380 013a 0823     	 movs r3,#8
 1381 013c FB61     	 str r3,[r7,#28]
1122:../Dave/Generated/UCPROBE/probe_com.c **** #if (PROBE_COM_CFG_WR_REQ_EN == DEF_ENABLED)
1123:../Dave/Generated/UCPROBE/probe_com.c ****              ProbeCom_StoINT16U(&ptx_buf, PROBE_COM_FMT_RX_WR);
 1382              	 .loc 1 1123 0
 1383 013e 07F10803 	 add r3,r7,#8
 1384 0142 1846     	 mov r0,r3
 1385 0144 0321     	 movs r1,#3
 1386 0146 FFF7FEFF 	 bl ProbeCom_StoINT16U
1124:../Dave/Generated/UCPROBE/probe_com.c ****              ProbeCom_StoINT16U(&ptx_buf, PROBE_COM_FMT_RX_WR_MULTI);
 1387              	 .loc 1 1124 0
 1388 014a 07F10803 	 add r3,r7,#8
 1389 014e 1846     	 mov r0,r3
 1390 0150 0821     	 movs r1,#8
 1391 0152 FFF7FEFF 	 bl ProbeCom_StoINT16U
1125:../Dave/Generated/UCPROBE/probe_com.c ****              tx_len += 4u;
 1392              	 .loc 1 1125 0
 1393 0156 FB69     	 ldr r3,[r7,#28]
 1394 0158 0433     	 adds r3,r3,#4
 1395 015a FB61     	 str r3,[r7,#28]
1126:../Dave/Generated/UCPROBE/probe_com.c **** #endif
1127:../Dave/Generated/UCPROBE/probe_com.c **** #if (PROBE_COM_CFG_STR_REQ_EN == DEF_ENABLED)
1128:../Dave/Generated/UCPROBE/probe_com.c ****              ProbeCom_StoINT16U(&ptx_buf, PROBE_COM_FMT_RX_STR_IN);
 1396              	 .loc 1 1128 0
 1397 015c 07F10803 	 add r3,r7,#8
 1398 0160 1846     	 mov r0,r3
 1399 0162 0A21     	 movs r1,#10
 1400 0164 FFF7FEFF 	 bl ProbeCom_StoINT16U
1129:../Dave/Generated/UCPROBE/probe_com.c ****              ProbeCom_StoINT16U(&ptx_buf, PROBE_COM_FMT_RX_STR_OUT);
 1401              	 .loc 1 1129 0
 1402 0168 07F10803 	 add r3,r7,#8
 1403 016c 1846     	 mov r0,r3
 1404 016e 0921     	 movs r1,#9
 1405 0170 FFF7FEFF 	 bl ProbeCom_StoINT16U
1130:../Dave/Generated/UCPROBE/probe_com.c ****              tx_len += 4u;
 1406              	 .loc 1 1130 0
 1407 0174 FB69     	 ldr r3,[r7,#28]
 1408 0176 0433     	 adds r3,r3,#4
 1409 0178 FB61     	 str r3,[r7,#28]
1131:../Dave/Generated/UCPROBE/probe_com.c **** #endif
1132:../Dave/Generated/UCPROBE/probe_com.c **** #if (PROBE_COM_CFG_TERMINAL_REQ_EN == DEF_ENABLED)
1133:../Dave/Generated/UCPROBE/probe_com.c ****              ProbeCom_StoINT16U(&ptx_buf, PROBE_COM_FMT_RX_TERMINAL_EXEC);
 1410              	 .loc 1 1133 0
 1411 017a 07F10803 	 add r3,r7,#8
 1412 017e 1846     	 mov r0,r3
 1413 0180 0B21     	 movs r1,#11
 1414 0182 FFF7FEFF 	 bl ProbeCom_StoINT16U
1134:../Dave/Generated/UCPROBE/probe_com.c ****              ProbeCom_StoINT16U(&ptx_buf, PROBE_COM_FMT_RX_TERMINAL_IN);
 1415              	 .loc 1 1134 0
 1416 0186 07F10803 	 add r3,r7,#8
 1417 018a 1846     	 mov r0,r3
 1418 018c 0D21     	 movs r1,#13
 1419 018e FFF7FEFF 	 bl ProbeCom_StoINT16U
1135:../Dave/Generated/UCPROBE/probe_com.c ****              ProbeCom_StoINT16U(&ptx_buf, PROBE_COM_FMT_RX_TERMINAL_OUT);
 1420              	 .loc 1 1135 0
 1421 0192 07F10803 	 add r3,r7,#8
 1422 0196 1846     	 mov r0,r3
 1423 0198 0C21     	 movs r1,#12
 1424 019a FFF7FEFF 	 bl ProbeCom_StoINT16U
1136:../Dave/Generated/UCPROBE/probe_com.c ****              tx_len += 6u;
 1425              	 .loc 1 1136 0
 1426 019e FB69     	 ldr r3,[r7,#28]
 1427 01a0 0633     	 adds r3,r3,#6
 1428 01a2 FB61     	 str r3,[r7,#28]
1137:../Dave/Generated/UCPROBE/probe_com.c **** #endif
1138:../Dave/Generated/UCPROBE/probe_com.c ****              break;
 1429              	 .loc 1 1138 0
 1430 01a4 2BE0     	 b .L87
 1431              	.L80:
1139:../Dave/Generated/UCPROBE/probe_com.c **** 
1140:../Dave/Generated/UCPROBE/probe_com.c **** 
1141:../Dave/Generated/UCPROBE/probe_com.c ****         case PROBE_COM_QUERY_ENDIANNESS_TEST:
1142:../Dave/Generated/UCPROBE/probe_com.c ****              ProbeCom_EndiannessTest = 0x12345678;
 1432              	 .loc 1 1142 0
 1433 01a6 1A4B     	 ldr r3,.L90
 1434 01a8 1A4A     	 ldr r2,.L90+4
 1435 01aa 1A60     	 str r2,[r3]
1143:../Dave/Generated/UCPROBE/probe_com.c ****              Mem_Copy((void     *) ptx_buf,
 1436              	 .loc 1 1143 0
 1437 01ac BB68     	 ldr r3,[r7,#8]
 1438 01ae 1846     	 mov r0,r3
 1439 01b0 1749     	 ldr r1,.L90
 1440 01b2 0422     	 movs r2,#4
 1441 01b4 FFF7FEFF 	 bl Mem_Copy
1144:../Dave/Generated/UCPROBE/probe_com.c ****                       (void     *)&ProbeCom_EndiannessTest,
1145:../Dave/Generated/UCPROBE/probe_com.c ****                       (CPU_SIZE_T) 4);
1146:../Dave/Generated/UCPROBE/probe_com.c ****              tx_len  = 4u;
 1442              	 .loc 1 1146 0
 1443 01b8 0423     	 movs r3,#4
 1444 01ba FB61     	 str r3,[r7,#28]
1147:../Dave/Generated/UCPROBE/probe_com.c ****              break;
 1445              	 .loc 1 1147 0
 1446 01bc 1FE0     	 b .L87
 1447              	.L86:
1148:../Dave/Generated/UCPROBE/probe_com.c **** 
1149:../Dave/Generated/UCPROBE/probe_com.c **** 
1150:../Dave/Generated/UCPROBE/probe_com.c ****         case PROBE_COM_QUERY_STATUS:
1151:../Dave/Generated/UCPROBE/probe_com.c ****              status = (CPU_INT32U)ProbeCom_PktModifier();
 1448              	 .loc 1 1151 0
 1449 01be FFF7FEFF 	 bl ProbeCom_PktModifier
 1450 01c2 0346     	 mov r3,r0
 1451 01c4 7B61     	 str r3,[r7,#20]
1152:../Dave/Generated/UCPROBE/probe_com.c ****              Mem_Copy((void     *) ptx_buf,
 1452              	 .loc 1 1152 0
 1453 01c6 BA68     	 ldr r2,[r7,#8]
 1454 01c8 07F11403 	 add r3,r7,#20
 1455 01cc 1046     	 mov r0,r2
 1456 01ce 1946     	 mov r1,r3
 1457 01d0 0422     	 movs r2,#4
 1458 01d2 FFF7FEFF 	 bl Mem_Copy
1153:../Dave/Generated/UCPROBE/probe_com.c ****                       (void     *)&status,
1154:../Dave/Generated/UCPROBE/probe_com.c ****                       (CPU_SIZE_T) 4);
1155:../Dave/Generated/UCPROBE/probe_com.c ****              tx_len = 4u;
 1459              	 .loc 1 1155 0
 1460 01d6 0423     	 movs r3,#4
 1461 01d8 FB61     	 str r3,[r7,#28]
1156:../Dave/Generated/UCPROBE/probe_com.c ****              break;
 1462              	 .loc 1 1156 0
 1463 01da 10E0     	 b .L87
 1464              	.L85:
1157:../Dave/Generated/UCPROBE/probe_com.c **** 
1158:../Dave/Generated/UCPROBE/probe_com.c **** 
1159:../Dave/Generated/UCPROBE/probe_com.c ****         case PROBE_COM_QUERY_VERSION:
1160:../Dave/Generated/UCPROBE/probe_com.c ****              version = PROBE_COM_VERSION;
 1465              	 .loc 1 1160 0
 1466 01dc 4FF4CD73 	 mov r3,#410
 1467 01e0 3B61     	 str r3,[r7,#16]
1161:../Dave/Generated/UCPROBE/probe_com.c ****              Mem_Copy((void     *) ptx_buf,
 1468              	 .loc 1 1161 0
 1469 01e2 BA68     	 ldr r2,[r7,#8]
 1470 01e4 07F11003 	 add r3,r7,#16
 1471 01e8 1046     	 mov r0,r2
 1472 01ea 1946     	 mov r1,r3
 1473 01ec 0422     	 movs r2,#4
 1474 01ee FFF7FEFF 	 bl Mem_Copy
1162:../Dave/Generated/UCPROBE/probe_com.c ****                       (void     *)&version,
1163:../Dave/Generated/UCPROBE/probe_com.c ****                       (CPU_SIZE_T) 4);
1164:../Dave/Generated/UCPROBE/probe_com.c ****              tx_len  = 4u;
 1475              	 .loc 1 1164 0
 1476 01f2 0423     	 movs r3,#4
 1477 01f4 FB61     	 str r3,[r7,#28]
1165:../Dave/Generated/UCPROBE/probe_com.c ****              break;
 1478              	 .loc 1 1165 0
 1479 01f6 02E0     	 b .L87
 1480              	.L79:
1166:../Dave/Generated/UCPROBE/probe_com.c **** 
1167:../Dave/Generated/UCPROBE/probe_com.c **** 
1168:../Dave/Generated/UCPROBE/probe_com.c ****         default:
1169:../Dave/Generated/UCPROBE/probe_com.c ****              tx_len  = 0u;
 1481              	 .loc 1 1169 0
 1482 01f8 0023     	 movs r3,#0
 1483 01fa FB61     	 str r3,[r7,#28]
1170:../Dave/Generated/UCPROBE/probe_com.c ****              break;
 1484              	 .loc 1 1170 0
 1485 01fc 00BF     	 nop
 1486              	.L87:
1171:../Dave/Generated/UCPROBE/probe_com.c ****     }
1172:../Dave/Generated/UCPROBE/probe_com.c **** 
1173:../Dave/Generated/UCPROBE/probe_com.c ****                                                                 /* ------------------ RTN TX PKT SI
1174:../Dave/Generated/UCPROBE/probe_com.c ****     tx_len += PROBE_COM_SIZE_TX_HDR;
 1487              	 .loc 1 1174 0
 1488 01fe FB69     	 ldr r3,[r7,#28]
 1489 0200 0433     	 adds r3,r3,#4
 1490 0202 FB61     	 str r3,[r7,#28]
1175:../Dave/Generated/UCPROBE/probe_com.c ****     return (tx_len);                                            /* TX pkt size = nbytes (= Tx data 
 1491              	 .loc 1 1175 0
 1492 0204 FB69     	 ldr r3,[r7,#28]
 1493              	.L88:
1176:../Dave/Generated/UCPROBE/probe_com.c ****                                                                 /*             + 4      (= Tx hdr  
1177:../Dave/Generated/UCPROBE/probe_com.c **** }
 1494              	 .loc 1 1177 0 discriminator 1
 1495 0206 1846     	 mov r0,r3
 1496 0208 2037     	 adds r7,r7,#32
 1497              	.LCFI68:
 1498              	 .cfi_def_cfa_offset 8
 1499 020a BD46     	 mov sp,r7
 1500              	.LCFI69:
 1501              	 .cfi_def_cfa_register 13
 1502              	 
 1503 020c 80BD     	 pop {r7,pc}
 1504              	.L91:
 1505 020e 00BF     	 .align 2
 1506              	.L90:
 1507 0210 00000000 	 .word ProbeCom_EndiannessTest
 1508 0214 78563412 	 .word 305419896
 1509              	 .cfi_endproc
 1510              	.LFE13:
 1512              	 .section .text.ProbeCom_ReqRd,"ax",%progbits
 1513              	 .align 2
 1514              	 .thumb
 1515              	 .thumb_func
 1517              	ProbeCom_ReqRd:
 1518              	.LFB14:
1178:../Dave/Generated/UCPROBE/probe_com.c **** 
1179:../Dave/Generated/UCPROBE/probe_com.c **** 
1180:../Dave/Generated/UCPROBE/probe_com.c **** /*
1181:../Dave/Generated/UCPROBE/probe_com.c **** ***************************************************************************************************
1182:../Dave/Generated/UCPROBE/probe_com.c **** *                                          ProbeCom_ReqRd()
1183:../Dave/Generated/UCPROBE/probe_com.c **** *
1184:../Dave/Generated/UCPROBE/probe_com.c **** * Description : Parse the FMT_RD request & formulate response.  This command causes the target to s
1185:../Dave/Generated/UCPROBE/probe_com.c **** *               data read from its memory for a certain {memory address, data length} pair (which i
1186:../Dave/Generated/UCPROBE/probe_com.c **** *               given in the request).
1187:../Dave/Generated/UCPROBE/probe_com.c **** *
1188:../Dave/Generated/UCPROBE/probe_com.c **** * Argument(s) : prx_buf         Pointer to the receive  buffer
1189:../Dave/Generated/UCPROBE/probe_com.c **** *
1190:../Dave/Generated/UCPROBE/probe_com.c **** *               ptx_buf         Pointer to the transmit buffer
1191:../Dave/Generated/UCPROBE/probe_com.c **** *
1192:../Dave/Generated/UCPROBE/probe_com.c **** *               rx_pkt_size     Size of the receive  packet
1193:../Dave/Generated/UCPROBE/probe_com.c **** *
1194:../Dave/Generated/UCPROBE/probe_com.c **** *               tx_buf_size     Size of the transmit buffer
1195:../Dave/Generated/UCPROBE/probe_com.c **** *
1196:../Dave/Generated/UCPROBE/probe_com.c **** * Return(s)   : The number of bytes written to the tx buffer.
1197:../Dave/Generated/UCPROBE/probe_com.c **** *
1198:../Dave/Generated/UCPROBE/probe_com.c **** * Caller(s)   : ProbeCom_ParseRxPkt().
1199:../Dave/Generated/UCPROBE/probe_com.c **** *
1200:../Dave/Generated/UCPROBE/probe_com.c **** * Note(s)     : (1) The RX format:
1201:../Dave/Generated/UCPROBE/probe_com.c **** *
1202:../Dave/Generated/UCPROBE/probe_com.c **** *                   (A) A 2-byte format , indicating the data segment format;
1203:../Dave/Generated/UCPROBE/probe_com.c **** *                   (B) A 2-byte length , indicating the number of bytes to read;
1204:../Dave/Generated/UCPROBE/probe_com.c **** *                   (C) A 4-byte address, the starting address of the data to read.
1205:../Dave/Generated/UCPROBE/probe_com.c **** *
1206:../Dave/Generated/UCPROBE/probe_com.c **** *                         +-------------------------+-------------------------+
1207:../Dave/Generated/UCPROBE/probe_com.c **** *                         |          Format         |     Number of bytes     |
1208:../Dave/Generated/UCPROBE/probe_com.c **** *                         +-------------------------+-------------------------+
1209:../Dave/Generated/UCPROBE/probe_com.c **** *                         |                      Address                      |
1210:../Dave/Generated/UCPROBE/probe_com.c **** *                         +-------------------------+-------------------------+
1211:../Dave/Generated/UCPROBE/probe_com.c **** *
1212:../Dave/Generated/UCPROBE/probe_com.c **** *               (2) The TX format:
1213:../Dave/Generated/UCPROBE/probe_com.c **** *
1214:../Dave/Generated/UCPROBE/probe_com.c **** *                   (A) A 2-byte format, indicating the data segment format;
1215:../Dave/Generated/UCPROBE/probe_com.c **** *                   (B) A 1-byte status, indicating the status after the request;
1216:../Dave/Generated/UCPROBE/probe_com.c **** *                   (C) A 1-byte modifier;
1217:../Dave/Generated/UCPROBE/probe_com.c **** *                   (D) The memory data.
1218:../Dave/Generated/UCPROBE/probe_com.c **** *
1219:../Dave/Generated/UCPROBE/probe_com.c **** *                         +-------------------------+------------+------------+
1220:../Dave/Generated/UCPROBE/probe_com.c **** *                         |          Format         |   Status   |  Modifier  |
1221:../Dave/Generated/UCPROBE/probe_com.c **** *                         +-------------------------+------------+------------+
1222:../Dave/Generated/UCPROBE/probe_com.c **** *                         |                        Data                       |
1223:../Dave/Generated/UCPROBE/probe_com.c **** *                         |                         .                         |
1224:../Dave/Generated/UCPROBE/probe_com.c **** *                         |                         .                         |
1225:../Dave/Generated/UCPROBE/probe_com.c **** *                         |                         .                         |
1226:../Dave/Generated/UCPROBE/probe_com.c **** *                         +---------------------------------------------------+
1227:../Dave/Generated/UCPROBE/probe_com.c **** *
1228:../Dave/Generated/UCPROBE/probe_com.c **** ***************************************************************************************************
1229:../Dave/Generated/UCPROBE/probe_com.c **** */
1230:../Dave/Generated/UCPROBE/probe_com.c **** 
1231:../Dave/Generated/UCPROBE/probe_com.c **** static  CPU_SIZE_T  ProbeCom_ReqRd (CPU_INT08U  *prx_buf,
1232:../Dave/Generated/UCPROBE/probe_com.c ****                                     CPU_INT08U  *ptx_buf,
1233:../Dave/Generated/UCPROBE/probe_com.c ****                                     CPU_SIZE_T   rx_pkt_size,
1234:../Dave/Generated/UCPROBE/probe_com.c ****                                     CPU_SIZE_T   tx_buf_size)
1235:../Dave/Generated/UCPROBE/probe_com.c **** {
 1519              	 .loc 1 1235 0
 1520              	 .cfi_startproc
 1521              	 
 1522              	 
 1523 0000 80B5     	 push {r7,lr}
 1524              	.LCFI70:
 1525              	 .cfi_def_cfa_offset 8
 1526              	 .cfi_offset 7,-8
 1527              	 .cfi_offset 14,-4
 1528 0002 88B0     	 sub sp,sp,#32
 1529              	.LCFI71:
 1530              	 .cfi_def_cfa_offset 40
 1531 0004 00AF     	 add r7,sp,#0
 1532              	.LCFI72:
 1533              	 .cfi_def_cfa_register 7
 1534 0006 F860     	 str r0,[r7,#12]
 1535 0008 B960     	 str r1,[r7,#8]
 1536 000a 7A60     	 str r2,[r7,#4]
 1537 000c 3B60     	 str r3,[r7]
1236:../Dave/Generated/UCPROBE/probe_com.c ****     CPU_ADDR    sym_addr;
1237:../Dave/Generated/UCPROBE/probe_com.c ****     CPU_SIZE_T  sym_size;
1238:../Dave/Generated/UCPROBE/probe_com.c ****     CPU_SIZE_T  tx_len;
1239:../Dave/Generated/UCPROBE/probe_com.c **** 
1240:../Dave/Generated/UCPROBE/probe_com.c **** 
1241:../Dave/Generated/UCPROBE/probe_com.c ****                                                                 /* ------------------- CHK PKT SIZE
1242:../Dave/Generated/UCPROBE/probe_com.c ****                                                                 /* Expected size = 2 (= Rx hdr size
1243:../Dave/Generated/UCPROBE/probe_com.c ****                                                                 /*               + 2 (= Sym size   
1244:../Dave/Generated/UCPROBE/probe_com.c ****                                                                 /*               + 4 (= Sym addr   
1245:../Dave/Generated/UCPROBE/probe_com.c ****     if (rx_pkt_size != 8u) {
 1538              	 .loc 1 1245 0
 1539 000e 7B68     	 ldr r3,[r7,#4]
 1540 0010 082B     	 cmp r3,#8
 1541 0012 07D0     	 beq .L93
1246:../Dave/Generated/UCPROBE/probe_com.c ****         tx_len = ProbeCom_ReqErr(ptx_buf, PROBE_COM_STATUS_RX_PKT_WRONG_SIZE);
 1542              	 .loc 1 1246 0
 1543 0014 BB68     	 ldr r3,[r7,#8]
 1544 0016 1846     	 mov r0,r3
 1545 0018 FE21     	 movs r1,#254
 1546 001a FFF7FEFF 	 bl ProbeCom_ReqErr
 1547 001e F861     	 str r0,[r7,#28]
1247:../Dave/Generated/UCPROBE/probe_com.c ****         return (tx_len);
 1548              	 .loc 1 1247 0
 1549 0020 FB69     	 ldr r3,[r7,#28]
 1550 0022 46E0     	 b .L94
 1551              	.L93:
1248:../Dave/Generated/UCPROBE/probe_com.c ****     }
1249:../Dave/Generated/UCPROBE/probe_com.c **** 
1250:../Dave/Generated/UCPROBE/probe_com.c **** 
1251:../Dave/Generated/UCPROBE/probe_com.c ****                                                                 /* -------------------- HANDLE RD -
1252:../Dave/Generated/UCPROBE/probe_com.c ****     sym_size = ProbeCom_GetINT16U(&prx_buf);                    /* Get nbr of bytes to rd.         
 1552              	 .loc 1 1252 0
 1553 0024 07F10C03 	 add r3,r7,#12
 1554 0028 1846     	 mov r0,r3
 1555 002a FFF7FEFF 	 bl ProbeCom_GetINT16U
 1556 002e 0346     	 mov r3,r0
 1557 0030 BB61     	 str r3,[r7,#24]
1253:../Dave/Generated/UCPROBE/probe_com.c **** 
1254:../Dave/Generated/UCPROBE/probe_com.c ****                                                                 /* Get rd addr.                    
1255:../Dave/Generated/UCPROBE/probe_com.c **** #if ((!defined(CPU_CFG_ADDR_SIZE)) || \
1256:../Dave/Generated/UCPROBE/probe_com.c ****      ((defined(CPU_CFG_ADDR_SIZE)) && \
1257:../Dave/Generated/UCPROBE/probe_com.c ****               (CPU_CFG_ADDR_SIZE   != CPU_WORD_SIZE_16)))
1258:../Dave/Generated/UCPROBE/probe_com.c ****     sym_addr = (CPU_ADDR)ProbeCom_GetINT32U(&prx_buf);
 1558              	 .loc 1 1258 0
 1559 0032 07F10C03 	 add r3,r7,#12
 1560 0036 1846     	 mov r0,r3
 1561 0038 FFF7FEFF 	 bl ProbeCom_GetINT32U
 1562 003c 7861     	 str r0,[r7,#20]
1259:../Dave/Generated/UCPROBE/probe_com.c **** #else
1260:../Dave/Generated/UCPROBE/probe_com.c ****     sym_addr = (CPU_ADDR)ProbeCom_GetINT16U(&prx_buf);
1261:../Dave/Generated/UCPROBE/probe_com.c **** #endif
1262:../Dave/Generated/UCPROBE/probe_com.c **** 
1263:../Dave/Generated/UCPROBE/probe_com.c ****     if (sym_size + PROBE_COM_SIZE_TX_HDR > tx_buf_size) {       /* If tx pkt will NOT fit in buf, r
 1563              	 .loc 1 1263 0
 1564 003e BB69     	 ldr r3,[r7,#24]
 1565 0040 1A1D     	 adds r2,r3,#4
 1566 0042 3B68     	 ldr r3,[r7]
 1567 0044 9A42     	 cmp r2,r3
 1568 0046 07D9     	 bls .L95
1264:../Dave/Generated/UCPROBE/probe_com.c ****         tx_len = ProbeCom_ReqErr(ptx_buf, PROBE_COM_STATUS_TX_PKT_TOO_LARGE);
 1569              	 .loc 1 1264 0
 1570 0048 BB68     	 ldr r3,[r7,#8]
 1571 004a 1846     	 mov r0,r3
 1572 004c FD21     	 movs r1,#253
 1573 004e FFF7FEFF 	 bl ProbeCom_ReqErr
 1574 0052 F861     	 str r0,[r7,#28]
1265:../Dave/Generated/UCPROBE/probe_com.c ****         return (tx_len);
 1575              	 .loc 1 1265 0
 1576 0054 FB69     	 ldr r3,[r7,#28]
 1577 0056 2CE0     	 b .L94
 1578              	.L95:
1266:../Dave/Generated/UCPROBE/probe_com.c ****     }
1267:../Dave/Generated/UCPROBE/probe_com.c **** 
1268:../Dave/Generated/UCPROBE/probe_com.c **** #if (PROBE_COM_CFG_STAT_EN == DEF_ENABLED)
1269:../Dave/Generated/UCPROBE/probe_com.c ****     ProbeCom_TxSymCtr++;                                        /* Inc tx sym ctr.                 
 1579              	 .loc 1 1269 0
 1580 0058 184B     	 ldr r3,.L96
 1581 005a 1B68     	 ldr r3,[r3]
 1582 005c 0133     	 adds r3,r3,#1
 1583 005e 174A     	 ldr r2,.L96
 1584 0060 1360     	 str r3,[r2]
1270:../Dave/Generated/UCPROBE/probe_com.c ****     ProbeCom_TxSymByteCtr += sym_size;
 1585              	 .loc 1 1270 0
 1586 0062 174B     	 ldr r3,.L96+4
 1587 0064 1A68     	 ldr r2,[r3]
 1588 0066 BB69     	 ldr r3,[r7,#24]
 1589 0068 1344     	 add r3,r3,r2
 1590 006a 154A     	 ldr r2,.L96+4
 1591 006c 1360     	 str r3,[r2]
1271:../Dave/Generated/UCPROBE/probe_com.c **** #endif
1272:../Dave/Generated/UCPROBE/probe_com.c **** 
1273:../Dave/Generated/UCPROBE/probe_com.c ****                                                                 /* Store tx pkt hdr :              
1274:../Dave/Generated/UCPROBE/probe_com.c ****     ProbeCom_StoINT16U(&ptx_buf, PROBE_COM_FMT_TX_RD);          /*  (a) Tx pkt fmt.                
 1592              	 .loc 1 1274 0
 1593 006e 07F10803 	 add r3,r7,#8
 1594 0072 1846     	 mov r0,r3
 1595 0074 48F20201 	 movw r1,#32770
 1596 0078 FFF7FEFF 	 bl ProbeCom_StoINT16U
1275:../Dave/Generated/UCPROBE/probe_com.c ****     ProbeCom_StoINT08U(&ptx_buf, PROBE_COM_STATUS_OK);          /*  (b) Target status.             
 1597              	 .loc 1 1275 0
 1598 007c 07F10803 	 add r3,r7,#8
 1599 0080 1846     	 mov r0,r3
 1600 0082 0121     	 movs r1,#1
 1601 0084 FFF7FEFF 	 bl ProbeCom_StoINT08U
1276:../Dave/Generated/UCPROBE/probe_com.c ****     ProbeCom_StoINT08U(&ptx_buf, ProbeCom_PktModifier());       /*  (c) Modifier.                  
 1602              	 .loc 1 1276 0
 1603 0088 FFF7FEFF 	 bl ProbeCom_PktModifier
 1604 008c 0346     	 mov r3,r0
 1605 008e 1A46     	 mov r2,r3
 1606 0090 07F10803 	 add r3,r7,#8
 1607 0094 1846     	 mov r0,r3
 1608 0096 1146     	 mov r1,r2
 1609 0098 FFF7FEFF 	 bl ProbeCom_StoINT08U
1277:../Dave/Generated/UCPROBE/probe_com.c **** 
1278:../Dave/Generated/UCPROBE/probe_com.c ****     Mem_Copy((void     *)ptx_buf,                               /* Save tx data segment data.      
 1610              	 .loc 1 1278 0
 1611 009c BA68     	 ldr r2,[r7,#8]
 1612 009e 7B69     	 ldr r3,[r7,#20]
 1613 00a0 1046     	 mov r0,r2
 1614 00a2 1946     	 mov r1,r3
 1615 00a4 BA69     	 ldr r2,[r7,#24]
 1616 00a6 FFF7FEFF 	 bl Mem_Copy
1279:../Dave/Generated/UCPROBE/probe_com.c ****              (void     *)sym_addr,
1280:../Dave/Generated/UCPROBE/probe_com.c ****              (CPU_SIZE_T)sym_size);
1281:../Dave/Generated/UCPROBE/probe_com.c **** 
1282:../Dave/Generated/UCPROBE/probe_com.c ****                                                                 /* ------------------ RTN TX PKT SI
1283:../Dave/Generated/UCPROBE/probe_com.c ****     tx_len = sym_size + PROBE_COM_SIZE_TX_HDR;
 1617              	 .loc 1 1283 0
 1618 00aa BB69     	 ldr r3,[r7,#24]
 1619 00ac 0433     	 adds r3,r3,#4
 1620 00ae FB61     	 str r3,[r7,#28]
1284:../Dave/Generated/UCPROBE/probe_com.c ****     return (tx_len);                                            /* Tx pkt size = nbytes (= Tx data 
 1621              	 .loc 1 1284 0
 1622 00b0 FB69     	 ldr r3,[r7,#28]
 1623              	.L94:
1285:../Dave/Generated/UCPROBE/probe_com.c ****                                                                 /*             + 4      (= Tx heade
1286:../Dave/Generated/UCPROBE/probe_com.c **** }
 1624              	 .loc 1 1286 0
 1625 00b2 1846     	 mov r0,r3
 1626 00b4 2037     	 adds r7,r7,#32
 1627              	.LCFI73:
 1628              	 .cfi_def_cfa_offset 8
 1629 00b6 BD46     	 mov sp,r7
 1630              	.LCFI74:
 1631              	 .cfi_def_cfa_register 13
 1632              	 
 1633 00b8 80BD     	 pop {r7,pc}
 1634              	.L97:
 1635 00ba 00BF     	 .align 2
 1636              	.L96:
 1637 00bc 00000000 	 .word ProbeCom_TxSymCtr
 1638 00c0 00000000 	 .word ProbeCom_TxSymByteCtr
 1639              	 .cfi_endproc
 1640              	.LFE14:
 1642              	 .section .text.ProbeCom_ReqRdMulti,"ax",%progbits
 1643              	 .align 2
 1644              	 .thumb
 1645              	 .thumb_func
 1647              	ProbeCom_ReqRdMulti:
 1648              	.LFB15:
1287:../Dave/Generated/UCPROBE/probe_com.c **** 
1288:../Dave/Generated/UCPROBE/probe_com.c **** 
1289:../Dave/Generated/UCPROBE/probe_com.c **** /*
1290:../Dave/Generated/UCPROBE/probe_com.c **** ***************************************************************************************************
1291:../Dave/Generated/UCPROBE/probe_com.c **** *                                        ProbeCom_ReqRdMulti()
1292:../Dave/Generated/UCPROBE/probe_com.c **** *
1293:../Dave/Generated/UCPROBE/probe_com.c **** * Description : Parse the FMT_RD_MULTI request & formulate respnse.  This command causes the target
1294:../Dave/Generated/UCPROBE/probe_com.c **** *               send data read from its memory for a certain set of {memory address, data length} p
1295:../Dave/Generated/UCPROBE/probe_com.c **** *               (which are given in the request).
1296:../Dave/Generated/UCPROBE/probe_com.c **** *
1297:../Dave/Generated/UCPROBE/probe_com.c **** * Argument(s) : prx_buf         Pointer to the receive  buffer
1298:../Dave/Generated/UCPROBE/probe_com.c **** *
1299:../Dave/Generated/UCPROBE/probe_com.c **** *               ptx_buf         Pointer to the transmit buffer
1300:../Dave/Generated/UCPROBE/probe_com.c **** *
1301:../Dave/Generated/UCPROBE/probe_com.c **** *               rx_pkt_size     Size of the receive  packet
1302:../Dave/Generated/UCPROBE/probe_com.c **** *
1303:../Dave/Generated/UCPROBE/probe_com.c **** *               tx_buf_size     Size of the transmit buffer
1304:../Dave/Generated/UCPROBE/probe_com.c **** *
1305:../Dave/Generated/UCPROBE/probe_com.c **** * Return(s)   : The number of bytes written to the tx buffer.
1306:../Dave/Generated/UCPROBE/probe_com.c **** *
1307:../Dave/Generated/UCPROBE/probe_com.c **** * Caller(s)   : ProbeCom_ParseRxPkt().
1308:../Dave/Generated/UCPROBE/probe_com.c **** *
1309:../Dave/Generated/UCPROBE/probe_com.c **** * Note(s)     : (1) The RX format:
1310:../Dave/Generated/UCPROBE/probe_com.c **** *
1311:../Dave/Generated/UCPROBE/probe_com.c **** *                   (A) A 2-byte format,          indicating the data segment format;
1312:../Dave/Generated/UCPROBE/probe_com.c **** *                   (B) A 5-byte item descriptor, for each item in the list, consisting of:
1313:../Dave/Generated/UCPROBE/probe_com.c **** *
1314:../Dave/Generated/UCPROBE/probe_com.c **** *                       (1) A 4-byte address, the starting address of the data to read;
1315:../Dave/Generated/UCPROBE/probe_com.c **** *                       (2) A 1-byte length,  indicating the number of bytes to read.
1316:../Dave/Generated/UCPROBE/probe_com.c **** *
1317:../Dave/Generated/UCPROBE/probe_com.c **** *                         +-------------------------+------------+------------+
1318:../Dave/Generated/UCPROBE/probe_com.c **** *                         |          Format         | Num. bytes |         Addr       ---
1319:../Dave/Generated/UCPROBE/probe_com.c **** *                         +-------------------------+------------+------------+        |    Item 1
1320:../Dave/Generated/UCPROBE/probe_com.c **** *                         ress                                   | Num. bytes |       ---
1321:../Dave/Generated/UCPROBE/probe_com.c **** *                         +--------------------------------------+------------+        |
1322:../Dave/Generated/UCPROBE/probe_com.c **** *                         |                      Address                      |        |    Item 2
1323:../Dave/Generated/UCPROBE/probe_com.c **** *                         +------------+--------------------------------------+       ---
1324:../Dave/Generated/UCPROBE/probe_com.c **** *                         | Num. bytes |                                   Addr        |    Item 3
1325:../Dave/Generated/UCPROBE/probe_com.c **** *                         +------------+--------------------------------------+        .
1326:../Dave/Generated/UCPROBE/probe_com.c **** *                         |                         .                         |        .
1327:../Dave/Generated/UCPROBE/probe_com.c **** *                         |                         .                         |        .
1328:../Dave/Generated/UCPROBE/probe_com.c **** *                         |                         .                         |        .
1329:../Dave/Generated/UCPROBE/probe_com.c **** *                         |                         .                         |        .
1330:../Dave/Generated/UCPROBE/probe_com.c **** *                         +--------------------------------------+------------+        .
1331:../Dave/Generated/UCPROBE/probe_com.c **** *                         ress                                   | Num. bytes |       ---
1332:../Dave/Generated/UCPROBE/probe_com.c **** *                         ---------------------------------------+------------+        |   Item n
1333:../Dave/Generated/UCPROBE/probe_com.c **** *                         |                      Address                      |        |
1334:../Dave/Generated/UCPROBE/probe_com.c **** *                         +---------------------------------------------------+       ---
1335:../Dave/Generated/UCPROBE/probe_com.c **** *
1336:../Dave/Generated/UCPROBE/probe_com.c **** *               (2) The TX format:
1337:../Dave/Generated/UCPROBE/probe_com.c **** *
1338:../Dave/Generated/UCPROBE/probe_com.c **** *                   (A) A 2-byte format, indicating the data segment format;
1339:../Dave/Generated/UCPROBE/probe_com.c **** *                   (B) A 1-byte status, indicating the status after the request;
1340:../Dave/Generated/UCPROBE/probe_com.c **** *                   (C) A 1-byte modifier;
1341:../Dave/Generated/UCPROBE/probe_com.c **** *                   (D) For each item, the following is sent:
1342:../Dave/Generated/UCPROBE/probe_com.c **** *
1343:../Dave/Generated/UCPROBE/probe_com.c **** *                       (1) The memory data.
1344:../Dave/Generated/UCPROBE/probe_com.c **** *
1345:../Dave/Generated/UCPROBE/probe_com.c **** *                         +-------------------------+------------+------------+
1346:../Dave/Generated/UCPROBE/probe_com.c **** *                         |          Format         |   Status   |  Modifier  |
1347:../Dave/Generated/UCPROBE/probe_com.c **** *                         +-------------------------+------------+------------+       ---
1348:../Dave/Generated/UCPROBE/probe_com.c **** *                         |                        Data                       |        |    Item 1
1349:../Dave/Generated/UCPROBE/probe_com.c **** *                         |                         .                         |        |
1350:../Dave/Generated/UCPROBE/probe_com.c **** *                         |                         .                         |        |
1351:../Dave/Generated/UCPROBE/probe_com.c **** *                         |                         .                         |        |
1352:../Dave/Generated/UCPROBE/probe_com.c **** *                         +---------------------------------------------------+       ---
1353:../Dave/Generated/UCPROBE/probe_com.c **** *                         |                         .                         |        .
1354:../Dave/Generated/UCPROBE/probe_com.c **** *                         |                         .                         |        .
1355:../Dave/Generated/UCPROBE/probe_com.c **** *                         |                         .                         |        .
1356:../Dave/Generated/UCPROBE/probe_com.c **** *                         |                         .                         |        .
1357:../Dave/Generated/UCPROBE/probe_com.c **** *                         |                         .                         |        .
1358:../Dave/Generated/UCPROBE/probe_com.c **** *                         +---------------------------------------------------+       ---
1359:../Dave/Generated/UCPROBE/probe_com.c **** *                         |                        Data                       |        |    Item n
1360:../Dave/Generated/UCPROBE/probe_com.c **** *                         |                         .                         |        |
1361:../Dave/Generated/UCPROBE/probe_com.c **** *                         |                         .                         |        |
1362:../Dave/Generated/UCPROBE/probe_com.c **** *                         |                         .                         |        |
1363:../Dave/Generated/UCPROBE/probe_com.c **** *                         +---------------------------------------------------+       ---
1364:../Dave/Generated/UCPROBE/probe_com.c **** *
1365:../Dave/Generated/UCPROBE/probe_com.c **** ***************************************************************************************************
1366:../Dave/Generated/UCPROBE/probe_com.c **** */
1367:../Dave/Generated/UCPROBE/probe_com.c **** 
1368:../Dave/Generated/UCPROBE/probe_com.c **** static  CPU_SIZE_T  ProbeCom_ReqRdMulti (CPU_INT08U  *prx_buf,
1369:../Dave/Generated/UCPROBE/probe_com.c ****                                          CPU_INT08U  *ptx_buf,
1370:../Dave/Generated/UCPROBE/probe_com.c ****                                          CPU_SIZE_T   rx_pkt_size,
1371:../Dave/Generated/UCPROBE/probe_com.c ****                                          CPU_SIZE_T   tx_buf_size)
1372:../Dave/Generated/UCPROBE/probe_com.c **** {
 1649              	 .loc 1 1372 0
 1650              	 .cfi_startproc
 1651              	 
 1652              	 
 1653 0000 90B5     	 push {r4,r7,lr}
 1654              	.LCFI75:
 1655              	 .cfi_def_cfa_offset 12
 1656              	 .cfi_offset 4,-12
 1657              	 .cfi_offset 7,-8
 1658              	 .cfi_offset 14,-4
 1659 0002 8DB0     	 sub sp,sp,#52
 1660              	.LCFI76:
 1661              	 .cfi_def_cfa_offset 64
 1662 0004 00AF     	 add r7,sp,#0
 1663              	.LCFI77:
 1664              	 .cfi_def_cfa_register 7
 1665 0006 F860     	 str r0,[r7,#12]
 1666 0008 B960     	 str r1,[r7,#8]
 1667 000a 7A60     	 str r2,[r7,#4]
 1668 000c 3B60     	 str r3,[r7]
1373:../Dave/Generated/UCPROBE/probe_com.c ****     CPU_SIZE_T   rx_pkt_ix;
1374:../Dave/Generated/UCPROBE/probe_com.c **** #if (PROBE_COM_CFG_STAT_EN == DEF_ENABLED)
1375:../Dave/Generated/UCPROBE/probe_com.c ****     CPU_INT32U   sym_byte_ctr;
1376:../Dave/Generated/UCPROBE/probe_com.c ****     CPU_INT32U   sym_ctr;
1377:../Dave/Generated/UCPROBE/probe_com.c **** #endif
1378:../Dave/Generated/UCPROBE/probe_com.c ****     CPU_ADDR     sym_addr;
1379:../Dave/Generated/UCPROBE/probe_com.c ****     CPU_SIZE_T   sym_size;
1380:../Dave/Generated/UCPROBE/probe_com.c ****     CPU_SIZE_T   tx_len;
1381:../Dave/Generated/UCPROBE/probe_com.c ****     CPU_INT08U  *ptx_buf_start;
1382:../Dave/Generated/UCPROBE/probe_com.c **** 
1383:../Dave/Generated/UCPROBE/probe_com.c **** 
1384:../Dave/Generated/UCPROBE/probe_com.c ****                                                                 /* ------------------- CHK PKT SIZE
1385:../Dave/Generated/UCPROBE/probe_com.c ****                                                                 /* Expected size >= 2 (= Rx hdr siz
1386:../Dave/Generated/UCPROBE/probe_com.c ****                                                                 /*                + 5 (= 1 item des
1387:../Dave/Generated/UCPROBE/probe_com.c ****     if (rx_pkt_size  < 7u) {
 1669              	 .loc 1 1387 0
 1670 000e 7B68     	 ldr r3,[r7,#4]
 1671 0010 062B     	 cmp r3,#6
 1672 0012 06D8     	 bhi .L99
1388:../Dave/Generated/UCPROBE/probe_com.c ****         tx_len = ProbeCom_ReqErr(ptx_buf, PROBE_COM_STATUS_RX_PKT_WRONG_SIZE);
 1673              	 .loc 1 1388 0
 1674 0014 B868     	 ldr r0,[r7,#8]
 1675 0016 FE21     	 movs r1,#254
 1676 0018 FFF7FEFF 	 bl ProbeCom_ReqErr
 1677 001c 3862     	 str r0,[r7,#32]
1389:../Dave/Generated/UCPROBE/probe_com.c ****         return (tx_len);
 1678              	 .loc 1 1389 0
 1679 001e 3B6A     	 ldr r3,[r7,#32]
 1680 0020 71E0     	 b .L100
 1681              	.L99:
1390:../Dave/Generated/UCPROBE/probe_com.c ****     }
1391:../Dave/Generated/UCPROBE/probe_com.c **** 
1392:../Dave/Generated/UCPROBE/probe_com.c ****                                                                 /* -------------------- HANDLE RD -
1393:../Dave/Generated/UCPROBE/probe_com.c ****     ptx_buf_start = ptx_buf;                                    /* Save ptr to tx buf in case pkt i
 1682              	 .loc 1 1393 0
 1683 0022 BB68     	 ldr r3,[r7,#8]
 1684 0024 FB61     	 str r3,[r7,#28]
1394:../Dave/Generated/UCPROBE/probe_com.c ****     tx_len        = PROBE_COM_SIZE_TX_HDR;                      /* Init tx pkt len = 4 = size of hd
 1685              	 .loc 1 1394 0
 1686 0026 0423     	 movs r3,#4
 1687 0028 3B62     	 str r3,[r7,#32]
1395:../Dave/Generated/UCPROBE/probe_com.c **** 
1396:../Dave/Generated/UCPROBE/probe_com.c ****                                                                 /* Store TX pkt hdr :              
1397:../Dave/Generated/UCPROBE/probe_com.c ****     ptx_buf[0]    = PROBE_COM_FMT_TX_RD_MULTI_LO;               /* (a) TX pkt fmt.                 
 1688              	 .loc 1 1397 0
 1689 002a BB68     	 ldr r3,[r7,#8]
 1690 002c 0722     	 movs r2,#7
 1691 002e 1A70     	 strb r2,[r3]
1398:../Dave/Generated/UCPROBE/probe_com.c ****     ptx_buf[1]    = PROBE_COM_FMT_TX_RD_MULTI_HI;
 1692              	 .loc 1 1398 0
 1693 0030 BB68     	 ldr r3,[r7,#8]
 1694 0032 0133     	 adds r3,r3,#1
 1695 0034 8022     	 movs r2,#128
 1696 0036 1A70     	 strb r2,[r3]
1399:../Dave/Generated/UCPROBE/probe_com.c ****     ptx_buf[2]    = PROBE_COM_STATUS_OK;                        /* (b) Target status.              
 1697              	 .loc 1 1399 0
 1698 0038 BB68     	 ldr r3,[r7,#8]
 1699 003a 0233     	 adds r3,r3,#2
 1700 003c 0122     	 movs r2,#1
 1701 003e 1A70     	 strb r2,[r3]
1400:../Dave/Generated/UCPROBE/probe_com.c ****     ptx_buf[3]    = ProbeCom_PktModifier();                     /* (c) Modifier.                   
 1702              	 .loc 1 1400 0
 1703 0040 BB68     	 ldr r3,[r7,#8]
 1704 0042 DC1C     	 adds r4,r3,#3
 1705 0044 FFF7FEFF 	 bl ProbeCom_PktModifier
 1706 0048 0346     	 mov r3,r0
 1707 004a 2370     	 strb r3,[r4]
1401:../Dave/Generated/UCPROBE/probe_com.c ****     ptx_buf      += PROBE_COM_SIZE_TX_HDR;
 1708              	 .loc 1 1401 0
 1709 004c BB68     	 ldr r3,[r7,#8]
 1710 004e 0433     	 adds r3,r3,#4
 1711 0050 BB60     	 str r3,[r7,#8]
1402:../Dave/Generated/UCPROBE/probe_com.c **** 
1403:../Dave/Generated/UCPROBE/probe_com.c ****     rx_pkt_ix     = 7u;                                         /* Tx pkt ix after 1st item = 2 (= 
 1712              	 .loc 1 1403 0
 1713 0052 0723     	 movs r3,#7
 1714 0054 FB62     	 str r3,[r7,#44]
1404:../Dave/Generated/UCPROBE/probe_com.c ****                                                                 /*                          + 5 (= 
1405:../Dave/Generated/UCPROBE/probe_com.c **** 
1406:../Dave/Generated/UCPROBE/probe_com.c **** #if (PROBE_COM_CFG_STAT_EN == DEF_ENABLED)
1407:../Dave/Generated/UCPROBE/probe_com.c ****     sym_ctr      = 0;
 1715              	 .loc 1 1407 0
 1716 0056 0023     	 movs r3,#0
 1717 0058 7B62     	 str r3,[r7,#36]
1408:../Dave/Generated/UCPROBE/probe_com.c ****     sym_byte_ctr = 0;
 1718              	 .loc 1 1408 0
 1719 005a 0023     	 movs r3,#0
 1720 005c BB62     	 str r3,[r7,#40]
1409:../Dave/Generated/UCPROBE/probe_com.c **** #endif
1410:../Dave/Generated/UCPROBE/probe_com.c ****                                                                 /* Sto data for each item.         
1411:../Dave/Generated/UCPROBE/probe_com.c ****     while (rx_pkt_ix <= rx_pkt_size) {
 1721              	 .loc 1 1411 0
 1722 005e 41E0     	 b .L101
 1723              	.L103:
1412:../Dave/Generated/UCPROBE/probe_com.c ****         sym_size   =  prx_buf[0];                               /* (a) Get nbr of bytes to rd.     
 1724              	 .loc 1 1412 0
 1725 0060 FB68     	 ldr r3,[r7,#12]
 1726 0062 1B78     	 ldrb r3,[r3]
 1727 0064 BB61     	 str r3,[r7,#24]
1413:../Dave/Generated/UCPROBE/probe_com.c **** 
1414:../Dave/Generated/UCPROBE/probe_com.c ****                                                                 /* (b) Get rd addr.                
1415:../Dave/Generated/UCPROBE/probe_com.c **** #if ((!defined(CPU_CFG_ADDR_SIZE)) || \
1416:../Dave/Generated/UCPROBE/probe_com.c ****      ((defined(CPU_CFG_ADDR_SIZE)) && \
1417:../Dave/Generated/UCPROBE/probe_com.c ****               (CPU_CFG_ADDR_SIZE   != CPU_WORD_SIZE_16)))
1418:../Dave/Generated/UCPROBE/probe_com.c ****         sym_addr   = ((CPU_ADDR)prx_buf[4] << 8) + prx_buf[3];
 1728              	 .loc 1 1418 0
 1729 0066 FB68     	 ldr r3,[r7,#12]
 1730 0068 0433     	 adds r3,r3,#4
 1731 006a 1B78     	 ldrb r3,[r3]
 1732 006c 1B02     	 lsls r3,r3,#8
 1733 006e FA68     	 ldr r2,[r7,#12]
 1734 0070 0332     	 adds r2,r2,#3
 1735 0072 1278     	 ldrb r2,[r2]
 1736 0074 1344     	 add r3,r3,r2
 1737 0076 7B61     	 str r3,[r7,#20]
1419:../Dave/Generated/UCPROBE/probe_com.c ****         sym_addr   = ((CPU_ADDR)sym_addr   << 8) + prx_buf[2];
 1738              	 .loc 1 1419 0
 1739 0078 7B69     	 ldr r3,[r7,#20]
 1740 007a 1B02     	 lsls r3,r3,#8
 1741 007c FA68     	 ldr r2,[r7,#12]
 1742 007e 0232     	 adds r2,r2,#2
 1743 0080 1278     	 ldrb r2,[r2]
 1744 0082 1344     	 add r3,r3,r2
 1745 0084 7B61     	 str r3,[r7,#20]
1420:../Dave/Generated/UCPROBE/probe_com.c ****         sym_addr   = ((CPU_ADDR)sym_addr   << 8) + prx_buf[1];
 1746              	 .loc 1 1420 0
 1747 0086 7B69     	 ldr r3,[r7,#20]
 1748 0088 1B02     	 lsls r3,r3,#8
 1749 008a FA68     	 ldr r2,[r7,#12]
 1750 008c 0132     	 adds r2,r2,#1
 1751 008e 1278     	 ldrb r2,[r2]
 1752 0090 1344     	 add r3,r3,r2
 1753 0092 7B61     	 str r3,[r7,#20]
1421:../Dave/Generated/UCPROBE/probe_com.c **** #else
1422:../Dave/Generated/UCPROBE/probe_com.c ****         sym_addr   = ((CPU_ADDR)prx_buf[2] << 8) + prx_buf[1];
1423:../Dave/Generated/UCPROBE/probe_com.c **** #endif
1424:../Dave/Generated/UCPROBE/probe_com.c **** 
1425:../Dave/Generated/UCPROBE/probe_com.c ****         prx_buf   += 5u;
 1754              	 .loc 1 1425 0
 1755 0094 FB68     	 ldr r3,[r7,#12]
 1756 0096 0533     	 adds r3,r3,#5
 1757 0098 FB60     	 str r3,[r7,#12]
1426:../Dave/Generated/UCPROBE/probe_com.c ****         rx_pkt_ix += 5u;
 1758              	 .loc 1 1426 0
 1759 009a FB6A     	 ldr r3,[r7,#44]
 1760 009c 0533     	 adds r3,r3,#5
 1761 009e FB62     	 str r3,[r7,#44]
1427:../Dave/Generated/UCPROBE/probe_com.c **** 
1428:../Dave/Generated/UCPROBE/probe_com.c ****         tx_len    += sym_size;                                  /* (c) Add nbr of bytes to pkt len.
 1762              	 .loc 1 1428 0
 1763 00a0 3A6A     	 ldr r2,[r7,#32]
 1764 00a2 BB69     	 ldr r3,[r7,#24]
 1765 00a4 1344     	 add r3,r3,r2
 1766 00a6 3B62     	 str r3,[r7,#32]
1429:../Dave/Generated/UCPROBE/probe_com.c **** 
1430:../Dave/Generated/UCPROBE/probe_com.c ****         if (tx_len > tx_buf_size) {                             /* (d) Will pkt be too long for TX 
 1767              	 .loc 1 1430 0
 1768 00a8 3A6A     	 ldr r2,[r7,#32]
 1769 00aa 3B68     	 ldr r3,[r7]
 1770 00ac 9A42     	 cmp r2,r3
 1771 00ae 08D9     	 bls .L102
1431:../Dave/Generated/UCPROBE/probe_com.c ****             ptx_buf = ptx_buf_start;                            /*     ... rtn err.                
 1772              	 .loc 1 1431 0
 1773 00b0 FB69     	 ldr r3,[r7,#28]
 1774 00b2 BB60     	 str r3,[r7,#8]
1432:../Dave/Generated/UCPROBE/probe_com.c ****             tx_len  = ProbeCom_ReqErr(ptx_buf, PROBE_COM_STATUS_TX_PKT_TOO_LARGE);
 1775              	 .loc 1 1432 0
 1776 00b4 B868     	 ldr r0,[r7,#8]
 1777 00b6 FD21     	 movs r1,#253
 1778 00b8 FFF7FEFF 	 bl ProbeCom_ReqErr
 1779 00bc 3862     	 str r0,[r7,#32]
1433:../Dave/Generated/UCPROBE/probe_com.c ****             return (tx_len);
 1780              	 .loc 1 1433 0
 1781 00be 3B6A     	 ldr r3,[r7,#32]
 1782 00c0 21E0     	 b .L100
 1783              	.L102:
1434:../Dave/Generated/UCPROBE/probe_com.c ****         }
1435:../Dave/Generated/UCPROBE/probe_com.c **** 
1436:../Dave/Generated/UCPROBE/probe_com.c **** #if (PROBE_COM_CFG_STAT_EN == DEF_ENABLED)
1437:../Dave/Generated/UCPROBE/probe_com.c ****         sym_ctr++;                                              /* (e) Inc local sym ctr.          
 1784              	 .loc 1 1437 0
 1785 00c2 7B6A     	 ldr r3,[r7,#36]
 1786 00c4 0133     	 adds r3,r3,#1
 1787 00c6 7B62     	 str r3,[r7,#36]
1438:../Dave/Generated/UCPROBE/probe_com.c ****         sym_byte_ctr += sym_size;
 1788              	 .loc 1 1438 0
 1789 00c8 BA6A     	 ldr r2,[r7,#40]
 1790 00ca BB69     	 ldr r3,[r7,#24]
 1791 00cc 1344     	 add r3,r3,r2
 1792 00ce BB62     	 str r3,[r7,#40]
1439:../Dave/Generated/UCPROBE/probe_com.c **** #endif
1440:../Dave/Generated/UCPROBE/probe_com.c ****                                                                 /* (f) Otherwise, save TX data.    
1441:../Dave/Generated/UCPROBE/probe_com.c ****         Mem_Copy((void     *)ptx_buf,
 1793              	 .loc 1 1441 0
 1794 00d0 7B69     	 ldr r3,[r7,#20]
 1795 00d2 B868     	 ldr r0,[r7,#8]
 1796 00d4 1946     	 mov r1,r3
 1797 00d6 BA69     	 ldr r2,[r7,#24]
 1798 00d8 FFF7FEFF 	 bl Mem_Copy
1442:../Dave/Generated/UCPROBE/probe_com.c ****                  (void     *)sym_addr,
1443:../Dave/Generated/UCPROBE/probe_com.c ****                  (CPU_SIZE_T)sym_size);
1444:../Dave/Generated/UCPROBE/probe_com.c **** 
1445:../Dave/Generated/UCPROBE/probe_com.c ****         ptx_buf += sym_size;
 1799              	 .loc 1 1445 0
 1800 00dc BA68     	 ldr r2,[r7,#8]
 1801 00de BB69     	 ldr r3,[r7,#24]
 1802 00e0 1344     	 add r3,r3,r2
 1803 00e2 BB60     	 str r3,[r7,#8]
 1804              	.L101:
1411:../Dave/Generated/UCPROBE/probe_com.c ****         sym_size   =  prx_buf[0];                               /* (a) Get nbr of bytes to rd.     
 1805              	 .loc 1 1411 0
 1806 00e4 FA6A     	 ldr r2,[r7,#44]
 1807 00e6 7B68     	 ldr r3,[r7,#4]
 1808 00e8 9A42     	 cmp r2,r3
 1809 00ea B9D9     	 bls .L103
1446:../Dave/Generated/UCPROBE/probe_com.c ****     }
1447:../Dave/Generated/UCPROBE/probe_com.c **** 
1448:../Dave/Generated/UCPROBE/probe_com.c **** #if (PROBE_COM_CFG_STAT_EN == DEF_ENABLED)
1449:../Dave/Generated/UCPROBE/probe_com.c ****     ProbeCom_TxSymCtr     += sym_ctr;                           /* Inc global sym ctr.             
 1810              	 .loc 1 1449 0
 1811 00ec 084B     	 ldr r3,.L104
 1812 00ee 1A68     	 ldr r2,[r3]
 1813 00f0 7B6A     	 ldr r3,[r7,#36]
 1814 00f2 1344     	 add r3,r3,r2
 1815 00f4 064A     	 ldr r2,.L104
 1816 00f6 1360     	 str r3,[r2]
1450:../Dave/Generated/UCPROBE/probe_com.c ****     ProbeCom_TxSymByteCtr += sym_byte_ctr;
 1817              	 .loc 1 1450 0
 1818 00f8 064B     	 ldr r3,.L104+4
 1819 00fa 1A68     	 ldr r2,[r3]
 1820 00fc BB6A     	 ldr r3,[r7,#40]
 1821 00fe 1344     	 add r3,r3,r2
 1822 0100 044A     	 ldr r2,.L104+4
 1823 0102 1360     	 str r3,[r2]
1451:../Dave/Generated/UCPROBE/probe_com.c **** #endif
1452:../Dave/Generated/UCPROBE/probe_com.c **** 
1453:../Dave/Generated/UCPROBE/probe_com.c ****                                                                 /* ------------------ RTN TX PKT SI
1454:../Dave/Generated/UCPROBE/probe_com.c ****     return (tx_len);
 1824              	 .loc 1 1454 0
 1825 0104 3B6A     	 ldr r3,[r7,#32]
 1826              	.L100:
1455:../Dave/Generated/UCPROBE/probe_com.c **** }
 1827              	 .loc 1 1455 0
 1828 0106 1846     	 mov r0,r3
 1829 0108 3437     	 adds r7,r7,#52
 1830              	.LCFI78:
 1831              	 .cfi_def_cfa_offset 12
 1832 010a BD46     	 mov sp,r7
 1833              	.LCFI79:
 1834              	 .cfi_def_cfa_register 13
 1835              	 
 1836 010c 90BD     	 pop {r4,r7,pc}
 1837              	.L105:
 1838 010e 00BF     	 .align 2
 1839              	.L104:
 1840 0110 00000000 	 .word ProbeCom_TxSymCtr
 1841 0114 00000000 	 .word ProbeCom_TxSymByteCtr
 1842              	 .cfi_endproc
 1843              	.LFE15:
 1845              	 .section .text.ProbeCom_ReqWr,"ax",%progbits
 1846              	 .align 2
 1847              	 .thumb
 1848              	 .thumb_func
 1850              	ProbeCom_ReqWr:
 1851              	.LFB16:
1456:../Dave/Generated/UCPROBE/probe_com.c **** 
1457:../Dave/Generated/UCPROBE/probe_com.c **** 
1458:../Dave/Generated/UCPROBE/probe_com.c **** /*
1459:../Dave/Generated/UCPROBE/probe_com.c **** ***************************************************************************************************
1460:../Dave/Generated/UCPROBE/probe_com.c **** *                                          ProbeCom_ReqWr()
1461:../Dave/Generated/UCPROBE/probe_com.c **** *
1462:../Dave/Generated/UCPROBE/probe_com.c **** * Description : Parse the FMT_WR request & formulate response.  This command causes the target to w
1463:../Dave/Generated/UCPROBE/probe_com.c **** *               into its memory data from a certain {memory address, data length, data} triplet whi
1464:../Dave/Generated/UCPROBE/probe_com.c **** *               given in the request.
1465:../Dave/Generated/UCPROBE/probe_com.c **** *
1466:../Dave/Generated/UCPROBE/probe_com.c **** * Argument(s) : prx_buf         Pointer to the receive  buffer
1467:../Dave/Generated/UCPROBE/probe_com.c **** *
1468:../Dave/Generated/UCPROBE/probe_com.c **** *               ptx_buf         Pointer to the transmit buffer
1469:../Dave/Generated/UCPROBE/probe_com.c **** *
1470:../Dave/Generated/UCPROBE/probe_com.c **** *               rx_pkt_size     Size of the receive  packet
1471:../Dave/Generated/UCPROBE/probe_com.c **** *
1472:../Dave/Generated/UCPROBE/probe_com.c **** *               tx_buf_size     Size of the transmit buffer
1473:../Dave/Generated/UCPROBE/probe_com.c **** *
1474:../Dave/Generated/UCPROBE/probe_com.c **** * Return(s)   : The number of bytes written to the tx buffer.
1475:../Dave/Generated/UCPROBE/probe_com.c **** *
1476:../Dave/Generated/UCPROBE/probe_com.c **** * Caller(s)   : ProbeCom_ParseRxPkt().
1477:../Dave/Generated/UCPROBE/probe_com.c **** *
1478:../Dave/Generated/UCPROBE/probe_com.c **** * Note(s)     : (1) The RX format:
1479:../Dave/Generated/UCPROBE/probe_com.c **** *
1480:../Dave/Generated/UCPROBE/probe_com.c **** *                   (A) A 2-byte format,  indicating the data segment format;
1481:../Dave/Generated/UCPROBE/probe_com.c **** *                   (B) A 2-byte length,  indicating the number of bytes to write;
1482:../Dave/Generated/UCPROBE/probe_com.c **** *                   (C) A 4-byte address, the starting address at which the data should be written;
1483:../Dave/Generated/UCPROBE/probe_com.c **** *                   (D) The memory data.
1484:../Dave/Generated/UCPROBE/probe_com.c **** *
1485:../Dave/Generated/UCPROBE/probe_com.c **** *                         +-------------------------+-------------------------+
1486:../Dave/Generated/UCPROBE/probe_com.c **** *                         |          Format         |      Number of bytes    |
1487:../Dave/Generated/UCPROBE/probe_com.c **** *                         +-------------------------+-------------------------+
1488:../Dave/Generated/UCPROBE/probe_com.c **** *                         |                      Address                      |
1489:../Dave/Generated/UCPROBE/probe_com.c **** *                         +---------------------------------------------------+
1490:../Dave/Generated/UCPROBE/probe_com.c **** *                         |                        Data                       |
1491:../Dave/Generated/UCPROBE/probe_com.c **** *                         |                         .                         |
1492:../Dave/Generated/UCPROBE/probe_com.c **** *                         |                         .                         |
1493:../Dave/Generated/UCPROBE/probe_com.c **** *                         |                         .                         |
1494:../Dave/Generated/UCPROBE/probe_com.c **** *                         +---------------------------------------------------+
1495:../Dave/Generated/UCPROBE/probe_com.c **** *
1496:../Dave/Generated/UCPROBE/probe_com.c **** *               (2) The TX format:
1497:../Dave/Generated/UCPROBE/probe_com.c **** *
1498:../Dave/Generated/UCPROBE/probe_com.c **** *                   (A) A 2-byte format, indicating the data segment format;
1499:../Dave/Generated/UCPROBE/probe_com.c **** *                   (B) A 1-byte status, indicating the status after the request;
1500:../Dave/Generated/UCPROBE/probe_com.c **** *                   (C) A 1-byte modifier.
1501:../Dave/Generated/UCPROBE/probe_com.c **** *
1502:../Dave/Generated/UCPROBE/probe_com.c **** *                         +-------------------------+------------+------------+
1503:../Dave/Generated/UCPROBE/probe_com.c **** *                         |          Format         |   Status   |  Modifier  |
1504:../Dave/Generated/UCPROBE/probe_com.c **** *                         +-------------------------+------------+------------+
1505:../Dave/Generated/UCPROBE/probe_com.c **** *
1506:../Dave/Generated/UCPROBE/probe_com.c **** ***************************************************************************************************
1507:../Dave/Generated/UCPROBE/probe_com.c **** */
1508:../Dave/Generated/UCPROBE/probe_com.c **** 
1509:../Dave/Generated/UCPROBE/probe_com.c **** #if (PROBE_COM_CFG_WR_REQ_EN == DEF_ENABLED)
1510:../Dave/Generated/UCPROBE/probe_com.c **** static  CPU_SIZE_T  ProbeCom_ReqWr (CPU_INT08U  *prx_buf,
1511:../Dave/Generated/UCPROBE/probe_com.c ****                                     CPU_INT08U  *ptx_buf,
1512:../Dave/Generated/UCPROBE/probe_com.c ****                                     CPU_SIZE_T   rx_pkt_size,
1513:../Dave/Generated/UCPROBE/probe_com.c ****                                     CPU_SIZE_T   tx_buf_size)
1514:../Dave/Generated/UCPROBE/probe_com.c **** {
 1852              	 .loc 1 1514 0
 1853              	 .cfi_startproc
 1854              	 
 1855              	 
 1856 0000 80B5     	 push {r7,lr}
 1857              	.LCFI80:
 1858              	 .cfi_def_cfa_offset 8
 1859              	 .cfi_offset 7,-8
 1860              	 .cfi_offset 14,-4
 1861 0002 88B0     	 sub sp,sp,#32
 1862              	.LCFI81:
 1863              	 .cfi_def_cfa_offset 40
 1864 0004 00AF     	 add r7,sp,#0
 1865              	.LCFI82:
 1866              	 .cfi_def_cfa_register 7
 1867 0006 F860     	 str r0,[r7,#12]
 1868 0008 B960     	 str r1,[r7,#8]
 1869 000a 7A60     	 str r2,[r7,#4]
 1870 000c 3B60     	 str r3,[r7]
1515:../Dave/Generated/UCPROBE/probe_com.c ****     CPU_SIZE_T  sym_size;
1516:../Dave/Generated/UCPROBE/probe_com.c ****     CPU_ADDR    sym_addr;
1517:../Dave/Generated/UCPROBE/probe_com.c ****     CPU_SIZE_T  tx_len;
1518:../Dave/Generated/UCPROBE/probe_com.c ****     CPU_SR_ALLOC();
 1871              	 .loc 1 1518 0
 1872 000e 0023     	 movs r3,#0
 1873 0010 FB61     	 str r3,[r7,#28]
1519:../Dave/Generated/UCPROBE/probe_com.c **** 
1520:../Dave/Generated/UCPROBE/probe_com.c **** 
1521:../Dave/Generated/UCPROBE/probe_com.c ****    (void)&tx_buf_size;                                          /* Prevent compiler warning.       
1522:../Dave/Generated/UCPROBE/probe_com.c **** 
1523:../Dave/Generated/UCPROBE/probe_com.c **** 
1524:../Dave/Generated/UCPROBE/probe_com.c ****                                                                 /* ------------------- CHK PKT SIZE
1525:../Dave/Generated/UCPROBE/probe_com.c ****                                                                 /* Expected size >= 2      (= Rx hd
1526:../Dave/Generated/UCPROBE/probe_com.c ****                                                                 /*                + 2      (= Sym s
1527:../Dave/Generated/UCPROBE/probe_com.c ****                                                                 /*                + 4      (= Sym a
1528:../Dave/Generated/UCPROBE/probe_com.c ****                                                                 /*                + nbytes (= Data 
1529:../Dave/Generated/UCPROBE/probe_com.c ****     if (rx_pkt_size < 8u) {
 1874              	 .loc 1 1529 0
 1875 0012 7B68     	 ldr r3,[r7,#4]
 1876 0014 072B     	 cmp r3,#7
 1877 0016 07D8     	 bhi .L107
1530:../Dave/Generated/UCPROBE/probe_com.c ****         tx_len = ProbeCom_ReqErr(ptx_buf, PROBE_COM_STATUS_RX_PKT_WRONG_SIZE);
 1878              	 .loc 1 1530 0
 1879 0018 BB68     	 ldr r3,[r7,#8]
 1880 001a 1846     	 mov r0,r3
 1881 001c FE21     	 movs r1,#254
 1882 001e FFF7FEFF 	 bl ProbeCom_ReqErr
 1883 0022 B861     	 str r0,[r7,#24]
1531:../Dave/Generated/UCPROBE/probe_com.c ****         return (tx_len);
 1884              	 .loc 1 1531 0
 1885 0024 BB69     	 ldr r3,[r7,#24]
 1886 0026 4CE0     	 b .L108
 1887              	.L107:
1532:../Dave/Generated/UCPROBE/probe_com.c ****     }
1533:../Dave/Generated/UCPROBE/probe_com.c **** 
1534:../Dave/Generated/UCPROBE/probe_com.c **** 
1535:../Dave/Generated/UCPROBE/probe_com.c **** 
1536:../Dave/Generated/UCPROBE/probe_com.c ****                                                                 /* -------------------- HANDLE WR -
1537:../Dave/Generated/UCPROBE/probe_com.c ****     sym_size = ProbeCom_GetINT16U(&prx_buf);                    /* Get nbr of bytes to wr.         
 1888              	 .loc 1 1537 0
 1889 0028 07F10C03 	 add r3,r7,#12
 1890 002c 1846     	 mov r0,r3
 1891 002e FFF7FEFF 	 bl ProbeCom_GetINT16U
 1892 0032 0346     	 mov r3,r0
 1893 0034 7B61     	 str r3,[r7,#20]
1538:../Dave/Generated/UCPROBE/probe_com.c **** 
1539:../Dave/Generated/UCPROBE/probe_com.c ****                                                                 /* Get wr addr.                    
1540:../Dave/Generated/UCPROBE/probe_com.c **** #if ((!defined(CPU_CFG_ADDR_SIZE)) || \
1541:../Dave/Generated/UCPROBE/probe_com.c ****      ((defined(CPU_CFG_ADDR_SIZE)) && \
1542:../Dave/Generated/UCPROBE/probe_com.c ****               (CPU_CFG_ADDR_SIZE   != CPU_WORD_SIZE_16)))
1543:../Dave/Generated/UCPROBE/probe_com.c ****     sym_addr = (CPU_ADDR)ProbeCom_GetINT32U(&prx_buf);
 1894              	 .loc 1 1543 0
 1895 0036 07F10C03 	 add r3,r7,#12
 1896 003a 1846     	 mov r0,r3
 1897 003c FFF7FEFF 	 bl ProbeCom_GetINT32U
 1898 0040 3861     	 str r0,[r7,#16]
1544:../Dave/Generated/UCPROBE/probe_com.c **** #else
1545:../Dave/Generated/UCPROBE/probe_com.c ****     sym_addr = (CPU_ADDR)ProbeCom_GetINT16U(&prx_buf);
1546:../Dave/Generated/UCPROBE/probe_com.c ****     prx_buf += 2;
1547:../Dave/Generated/UCPROBE/probe_com.c **** #endif
1548:../Dave/Generated/UCPROBE/probe_com.c **** 
1549:../Dave/Generated/UCPROBE/probe_com.c ****     if (rx_pkt_size != (8 + sym_size)) {                        /* If rx data segment is NOT expect
 1899              	 .loc 1 1549 0
 1900 0042 7B69     	 ldr r3,[r7,#20]
 1901 0044 03F10802 	 add r2,r3,#8
 1902 0048 7B68     	 ldr r3,[r7,#4]
 1903 004a 9A42     	 cmp r2,r3
 1904 004c 07D0     	 beq .L109
1550:../Dave/Generated/UCPROBE/probe_com.c ****         tx_len = ProbeCom_ReqErr(ptx_buf, PROBE_COM_STATUS_RX_PKT_WRONG_SIZE);
 1905              	 .loc 1 1550 0
 1906 004e BB68     	 ldr r3,[r7,#8]
 1907 0050 1846     	 mov r0,r3
 1908 0052 FE21     	 movs r1,#254
 1909 0054 FFF7FEFF 	 bl ProbeCom_ReqErr
 1910 0058 B861     	 str r0,[r7,#24]
1551:../Dave/Generated/UCPROBE/probe_com.c ****         return (tx_len);
 1911              	 .loc 1 1551 0
 1912 005a BB69     	 ldr r3,[r7,#24]
 1913 005c 31E0     	 b .L108
 1914              	.L109:
1552:../Dave/Generated/UCPROBE/probe_com.c ****     }
1553:../Dave/Generated/UCPROBE/probe_com.c **** 
1554:../Dave/Generated/UCPROBE/probe_com.c ****                                                                 /* Copy data into mem.             
1555:../Dave/Generated/UCPROBE/probe_com.c ****     CPU_CRITICAL_ENTER();
 1915              	 .loc 1 1555 0
 1916 005e FFF7FEFF 	 bl CPU_SR_Save
 1917 0062 F861     	 str r0,[r7,#28]
1556:../Dave/Generated/UCPROBE/probe_com.c ****     Mem_Copy((void     *)sym_addr,
 1918              	 .loc 1 1556 0
 1919 0064 3A69     	 ldr r2,[r7,#16]
 1920 0066 FB68     	 ldr r3,[r7,#12]
 1921 0068 1046     	 mov r0,r2
 1922 006a 1946     	 mov r1,r3
 1923 006c 7A69     	 ldr r2,[r7,#20]
 1924 006e FFF7FEFF 	 bl Mem_Copy
1557:../Dave/Generated/UCPROBE/probe_com.c ****              (void     *)prx_buf,
1558:../Dave/Generated/UCPROBE/probe_com.c ****              (CPU_SIZE_T)sym_size);
1559:../Dave/Generated/UCPROBE/probe_com.c ****     CPU_CRITICAL_EXIT();
 1925              	 .loc 1 1559 0
 1926 0072 F869     	 ldr r0,[r7,#28]
 1927 0074 FFF7FEFF 	 bl CPU_SR_Restore
1560:../Dave/Generated/UCPROBE/probe_com.c **** 
1561:../Dave/Generated/UCPROBE/probe_com.c **** #if (PROBE_COM_CFG_STAT_EN == DEF_ENABLED)
1562:../Dave/Generated/UCPROBE/probe_com.c ****     ProbeCom_RxSymCtr++;                                        /* Inc global sym ctr.             
 1928              	 .loc 1 1562 0
 1929 0078 144B     	 ldr r3,.L110
 1930 007a 1B68     	 ldr r3,[r3]
 1931 007c 0133     	 adds r3,r3,#1
 1932 007e 134A     	 ldr r2,.L110
 1933 0080 1360     	 str r3,[r2]
1563:../Dave/Generated/UCPROBE/probe_com.c ****     ProbeCom_RxSymByteCtr += sym_size;
 1934              	 .loc 1 1563 0
 1935 0082 134B     	 ldr r3,.L110+4
 1936 0084 1A68     	 ldr r2,[r3]
 1937 0086 7B69     	 ldr r3,[r7,#20]
 1938 0088 1344     	 add r3,r3,r2
 1939 008a 114A     	 ldr r2,.L110+4
 1940 008c 1360     	 str r3,[r2]
1564:../Dave/Generated/UCPROBE/probe_com.c **** #endif
1565:../Dave/Generated/UCPROBE/probe_com.c **** 
1566:../Dave/Generated/UCPROBE/probe_com.c ****                                                                 /* Store TX pkt hdr :              
1567:../Dave/Generated/UCPROBE/probe_com.c ****     ProbeCom_StoINT16U(&ptx_buf, PROBE_COM_FMT_TX_WR);          /* (a) TX pkt fmt.                 
 1941              	 .loc 1 1567 0
 1942 008e 07F10803 	 add r3,r7,#8
 1943 0092 1846     	 mov r0,r3
 1944 0094 48F20301 	 movw r1,#32771
 1945 0098 FFF7FEFF 	 bl ProbeCom_StoINT16U
1568:../Dave/Generated/UCPROBE/probe_com.c ****     ProbeCom_StoINT08U(&ptx_buf, PROBE_COM_STATUS_OK);          /* (b) Target status.              
 1946              	 .loc 1 1568 0
 1947 009c 07F10803 	 add r3,r7,#8
 1948 00a0 1846     	 mov r0,r3
 1949 00a2 0121     	 movs r1,#1
 1950 00a4 FFF7FEFF 	 bl ProbeCom_StoINT08U
1569:../Dave/Generated/UCPROBE/probe_com.c ****     ProbeCom_StoINT08U(&ptx_buf, ProbeCom_PktModifier());       /* (c) Modifier.                   
 1951              	 .loc 1 1569 0
 1952 00a8 FFF7FEFF 	 bl ProbeCom_PktModifier
 1953 00ac 0346     	 mov r3,r0
 1954 00ae 1A46     	 mov r2,r3
 1955 00b0 07F10803 	 add r3,r7,#8
 1956 00b4 1846     	 mov r0,r3
 1957 00b6 1146     	 mov r1,r2
 1958 00b8 FFF7FEFF 	 bl ProbeCom_StoINT08U
1570:../Dave/Generated/UCPROBE/probe_com.c **** 
1571:../Dave/Generated/UCPROBE/probe_com.c **** 
1572:../Dave/Generated/UCPROBE/probe_com.c **** 
1573:../Dave/Generated/UCPROBE/probe_com.c ****                                                                 /* ------------------ RTN TX PKT SI
1574:../Dave/Generated/UCPROBE/probe_com.c ****     tx_len = (CPU_SIZE_T)PROBE_COM_SIZE_TX_HDR;                 /* Tx pkt size = 4 (= Tx hdr size).
 1959              	 .loc 1 1574 0
 1960 00bc 0423     	 movs r3,#4
 1961 00be BB61     	 str r3,[r7,#24]
1575:../Dave/Generated/UCPROBE/probe_com.c ****     return (tx_len);
 1962              	 .loc 1 1575 0
 1963 00c0 BB69     	 ldr r3,[r7,#24]
 1964              	.L108:
1576:../Dave/Generated/UCPROBE/probe_com.c **** }
 1965              	 .loc 1 1576 0
 1966 00c2 1846     	 mov r0,r3
 1967 00c4 2037     	 adds r7,r7,#32
 1968              	.LCFI83:
 1969              	 .cfi_def_cfa_offset 8
 1970 00c6 BD46     	 mov sp,r7
 1971              	.LCFI84:
 1972              	 .cfi_def_cfa_register 13
 1973              	 
 1974 00c8 80BD     	 pop {r7,pc}
 1975              	.L111:
 1976 00ca 00BF     	 .align 2
 1977              	.L110:
 1978 00cc 00000000 	 .word ProbeCom_RxSymCtr
 1979 00d0 00000000 	 .word ProbeCom_RxSymByteCtr
 1980              	 .cfi_endproc
 1981              	.LFE16:
 1983              	 .section .text.ProbeCom_ReqWrMulti,"ax",%progbits
 1984              	 .align 2
 1985              	 .thumb
 1986              	 .thumb_func
 1988              	ProbeCom_ReqWrMulti:
 1989              	.LFB17:
1577:../Dave/Generated/UCPROBE/probe_com.c **** #endif
1578:../Dave/Generated/UCPROBE/probe_com.c **** 
1579:../Dave/Generated/UCPROBE/probe_com.c **** 
1580:../Dave/Generated/UCPROBE/probe_com.c **** /*
1581:../Dave/Generated/UCPROBE/probe_com.c **** ***************************************************************************************************
1582:../Dave/Generated/UCPROBE/probe_com.c **** *                                        ProbeCom_ReqWrMulti()
1583:../Dave/Generated/UCPROBE/probe_com.c **** *
1584:../Dave/Generated/UCPROBE/probe_com.c **** * Description : Parse the FMT_WR_MULTI request & formulate response.  This command causes the targe
1585:../Dave/Generated/UCPROBE/probe_com.c **** *               write certain data into its memroy, for a certain number of {memory address, data l
1586:../Dave/Generated/UCPROBE/probe_com.c **** *               data} triplets (which are given in the request).
1587:../Dave/Generated/UCPROBE/probe_com.c **** *
1588:../Dave/Generated/UCPROBE/probe_com.c **** * Argument(s) : prx_buf         Pointer to the receive  buffer
1589:../Dave/Generated/UCPROBE/probe_com.c **** *
1590:../Dave/Generated/UCPROBE/probe_com.c **** *               ptx_buf         Pointer to the transmit buffer
1591:../Dave/Generated/UCPROBE/probe_com.c **** *
1592:../Dave/Generated/UCPROBE/probe_com.c **** *               rx_pkt_size     Size of the receive  packet
1593:../Dave/Generated/UCPROBE/probe_com.c **** *
1594:../Dave/Generated/UCPROBE/probe_com.c **** *               tx_buf_size     Size of the transmit buffer
1595:../Dave/Generated/UCPROBE/probe_com.c **** *
1596:../Dave/Generated/UCPROBE/probe_com.c **** * Return(s)   : The number of bytes written to the tx buffer.
1597:../Dave/Generated/UCPROBE/probe_com.c **** *
1598:../Dave/Generated/UCPROBE/probe_com.c **** * Caller(s)   : ProbeCom_ParseRxPkt().
1599:../Dave/Generated/UCPROBE/probe_com.c **** *
1600:../Dave/Generated/UCPROBE/probe_com.c **** * Note(s)     : (1) The RX format:
1601:../Dave/Generated/UCPROBE/probe_com.c **** *
1602:../Dave/Generated/UCPROBE/probe_com.c **** *                   (A) A 2-byte format,  indicating the data segment format;
1603:../Dave/Generated/UCPROBE/probe_com.c **** *                   (B) A n-byte item descriptor, for each item in the list, consiting of the follo
1604:../Dave/Generated/UCPROBE/probe_com.c **** *
1605:../Dave/Generated/UCPROBE/probe_com.c **** *                       (1) A 1-byte length,  indicating the number of bytes to write;
1606:../Dave/Generated/UCPROBE/probe_com.c **** *                       (2) A 4-byte address, the starting address at which the data should be writ
1607:../Dave/Generated/UCPROBE/probe_com.c **** *                       (3) The memory data.
1608:../Dave/Generated/UCPROBE/probe_com.c **** *
1609:../Dave/Generated/UCPROBE/probe_com.c **** *                         +-------------------------+------------+------------+
1610:../Dave/Generated/UCPROBE/probe_com.c **** *                         |          Format         | Num. bytes |         Addr       ---
1611:../Dave/Generated/UCPROBE/probe_com.c **** *                         +-------------------------+------------+------------+        |
1612:../Dave/Generated/UCPROBE/probe_com.c **** *                         ress                                   |            |        |
1613:../Dave/Generated/UCPROBE/probe_com.c **** *                         +--------------------------------------+            |        |    Item 1
1614:../Dave/Generated/UCPROBE/probe_com.c **** *                         |                       Data                        |        |
1615:../Dave/Generated/UCPROBE/probe_com.c **** *                         |                         .                         |        |
1616:../Dave/Generated/UCPROBE/probe_com.c **** *                         |                         .                         |        |
1617:../Dave/Generated/UCPROBE/probe_com.c **** *                         +------------+--------------------------------------+       ---
1618:../Dave/Generated/UCPROBE/probe_com.c **** *                         | Num. bytes |                                   Addr        |    Item 2
1619:../Dave/Generated/UCPROBE/probe_com.c **** *                         +------------+--------------------------------------+        .
1620:../Dave/Generated/UCPROBE/probe_com.c **** *                         |                         .                         |        .
1621:../Dave/Generated/UCPROBE/probe_com.c **** *                         |                         .                         |        .
1622:../Dave/Generated/UCPROBE/probe_com.c **** *                         |                         .            +------------+        .
1623:../Dave/Generated/UCPROBE/probe_com.c **** *                         |                         .            | Num. bytes |       ---
1624:../Dave/Generated/UCPROBE/probe_com.c **** *                         ---------------------------------------+------------+        |
1625:../Dave/Generated/UCPROBE/probe_com.c **** *                         |                      Address                      |        |
1626:../Dave/Generated/UCPROBE/probe_com.c **** *                         +---------------------------------------------------+        |    Item n
1627:../Dave/Generated/UCPROBE/probe_com.c **** *                         |                       Data                        |        |
1628:../Dave/Generated/UCPROBE/probe_com.c **** *                         |                         .                         |        |
1629:../Dave/Generated/UCPROBE/probe_com.c **** *                         |                         .                         |        |
1630:../Dave/Generated/UCPROBE/probe_com.c **** *                         +------------+--------------------------------------+       ---
1631:../Dave/Generated/UCPROBE/probe_com.c **** *
1632:../Dave/Generated/UCPROBE/probe_com.c **** *               (2) The TX format:
1633:../Dave/Generated/UCPROBE/probe_com.c **** *
1634:../Dave/Generated/UCPROBE/probe_com.c **** *                   (A) A 2-byte format, indicating the data segment format;
1635:../Dave/Generated/UCPROBE/probe_com.c **** *                   (B) A 1-byte status, indicating the status after the request;
1636:../Dave/Generated/UCPROBE/probe_com.c **** *                   (C) A 1-byte modifier.
1637:../Dave/Generated/UCPROBE/probe_com.c **** *
1638:../Dave/Generated/UCPROBE/probe_com.c **** *                         +-------------------------+------------+------------+
1639:../Dave/Generated/UCPROBE/probe_com.c **** *                         |          Format         |   Status   |  Modifier  |
1640:../Dave/Generated/UCPROBE/probe_com.c **** *                         +-------------------------+------------+------------+
1641:../Dave/Generated/UCPROBE/probe_com.c **** *
1642:../Dave/Generated/UCPROBE/probe_com.c **** ***************************************************************************************************
1643:../Dave/Generated/UCPROBE/probe_com.c **** */
1644:../Dave/Generated/UCPROBE/probe_com.c **** 
1645:../Dave/Generated/UCPROBE/probe_com.c **** #if (PROBE_COM_CFG_WR_REQ_EN == DEF_ENABLED)
1646:../Dave/Generated/UCPROBE/probe_com.c **** static  CPU_SIZE_T  ProbeCom_ReqWrMulti (CPU_INT08U  *prx_buf,
1647:../Dave/Generated/UCPROBE/probe_com.c ****                                          CPU_INT08U  *ptx_buf,
1648:../Dave/Generated/UCPROBE/probe_com.c ****                                          CPU_SIZE_T   rx_pkt_size,
1649:../Dave/Generated/UCPROBE/probe_com.c ****                                          CPU_SIZE_T   tx_buf_size)
1650:../Dave/Generated/UCPROBE/probe_com.c **** {
 1990              	 .loc 1 1650 0
 1991              	 .cfi_startproc
 1992              	 
 1993              	 
 1994 0000 80B5     	 push {r7,lr}
 1995              	.LCFI85:
 1996              	 .cfi_def_cfa_offset 8
 1997              	 .cfi_offset 7,-8
 1998              	 .cfi_offset 14,-4
 1999 0002 8CB0     	 sub sp,sp,#48
 2000              	.LCFI86:
 2001              	 .cfi_def_cfa_offset 56
 2002 0004 00AF     	 add r7,sp,#0
 2003              	.LCFI87:
 2004              	 .cfi_def_cfa_register 7
 2005 0006 F860     	 str r0,[r7,#12]
 2006 0008 B960     	 str r1,[r7,#8]
 2007 000a 7A60     	 str r2,[r7,#4]
 2008 000c 3B60     	 str r3,[r7]
1651:../Dave/Generated/UCPROBE/probe_com.c ****     CPU_SIZE_T  rx_pkt_ix;
1652:../Dave/Generated/UCPROBE/probe_com.c **** #if (PROBE_COM_CFG_STAT_EN == DEF_ENABLED)
1653:../Dave/Generated/UCPROBE/probe_com.c ****     CPU_INT32U  sym_ctr;
1654:../Dave/Generated/UCPROBE/probe_com.c ****     CPU_INT32U  sym_byte_ctr;
1655:../Dave/Generated/UCPROBE/probe_com.c **** #endif
1656:../Dave/Generated/UCPROBE/probe_com.c ****     CPU_ADDR    sym_addr;
1657:../Dave/Generated/UCPROBE/probe_com.c ****     CPU_SIZE_T  sym_size;
1658:../Dave/Generated/UCPROBE/probe_com.c ****     CPU_SIZE_T  tx_len;
1659:../Dave/Generated/UCPROBE/probe_com.c ****     CPU_SR_ALLOC();
 2009              	 .loc 1 1659 0
 2010 000e 0023     	 movs r3,#0
 2011 0010 3B62     	 str r3,[r7,#32]
1660:../Dave/Generated/UCPROBE/probe_com.c **** 
1661:../Dave/Generated/UCPROBE/probe_com.c **** 
1662:../Dave/Generated/UCPROBE/probe_com.c ****    (void)&tx_buf_size;                                          /* Prevent compiler warning.       
1663:../Dave/Generated/UCPROBE/probe_com.c **** 
1664:../Dave/Generated/UCPROBE/probe_com.c **** 
1665:../Dave/Generated/UCPROBE/probe_com.c ****                                                                 /* ------------------- CHK PKT SIZE
1666:../Dave/Generated/UCPROBE/probe_com.c ****                                                                 /* Expected size >= 2      (= Rx hd
1667:../Dave/Generated/UCPROBE/probe_com.c ****                                                                 /*                + 1      (= Nbr o
1668:../Dave/Generated/UCPROBE/probe_com.c ****                                                                 /*                + 4      (= Addr 
1669:../Dave/Generated/UCPROBE/probe_com.c ****                                                                 /*                + nbytes (= Data 
1670:../Dave/Generated/UCPROBE/probe_com.c ****     if (rx_pkt_size < 7) {
 2012              	 .loc 1 1670 0
 2013 0012 7B68     	 ldr r3,[r7,#4]
 2014 0014 062B     	 cmp r3,#6
 2015 0016 07D8     	 bhi .L113
1671:../Dave/Generated/UCPROBE/probe_com.c ****         tx_len = ProbeCom_ReqErr(ptx_buf, PROBE_COM_STATUS_RX_PKT_WRONG_SIZE);
 2016              	 .loc 1 1671 0
 2017 0018 BB68     	 ldr r3,[r7,#8]
 2018 001a 1846     	 mov r0,r3
 2019 001c FE21     	 movs r1,#254
 2020 001e FFF7FEFF 	 bl ProbeCom_ReqErr
 2021 0022 F861     	 str r0,[r7,#28]
1672:../Dave/Generated/UCPROBE/probe_com.c ****         return (tx_len);
 2022              	 .loc 1 1672 0
 2023 0024 FB69     	 ldr r3,[r7,#28]
 2024 0026 77E0     	 b .L114
 2025              	.L113:
1673:../Dave/Generated/UCPROBE/probe_com.c ****     }
1674:../Dave/Generated/UCPROBE/probe_com.c **** 
1675:../Dave/Generated/UCPROBE/probe_com.c ****                                                                 /* -------------------- HANDLE WR -
1676:../Dave/Generated/UCPROBE/probe_com.c ****     rx_pkt_ix  = 7;                                             /* Rx pkt ix after 1st item = 2 (= 
 2026              	 .loc 1 1676 0
 2027 0028 0723     	 movs r3,#7
 2028 002a FB62     	 str r3,[r7,#44]
1677:../Dave/Generated/UCPROBE/probe_com.c ****                                                                 /*                          + 5 (= 
1678:../Dave/Generated/UCPROBE/probe_com.c **** 
1679:../Dave/Generated/UCPROBE/probe_com.c **** #if (PROBE_COM_CFG_STAT_EN == DEF_ENABLED)
1680:../Dave/Generated/UCPROBE/probe_com.c ****     sym_ctr      = 0;
 2029              	 .loc 1 1680 0
 2030 002c 0023     	 movs r3,#0
 2031 002e BB62     	 str r3,[r7,#40]
1681:../Dave/Generated/UCPROBE/probe_com.c ****     sym_byte_ctr = 0;
 2032              	 .loc 1 1681 0
 2033 0030 0023     	 movs r3,#0
 2034 0032 7B62     	 str r3,[r7,#36]
1682:../Dave/Generated/UCPROBE/probe_com.c **** #endif
1683:../Dave/Generated/UCPROBE/probe_com.c ****                                                                 /* Sto data for each item.         
1684:../Dave/Generated/UCPROBE/probe_com.c ****     while (rx_pkt_ix <= rx_pkt_size) {
 2035              	 .loc 1 1684 0
 2036 0034 46E0     	 b .L115
 2037              	.L117:
1685:../Dave/Generated/UCPROBE/probe_com.c ****         sym_size = prx_buf[0];                                  /* (a) Get nbr of bytes to wr.     
 2038              	 .loc 1 1685 0
 2039 0036 FB68     	 ldr r3,[r7,#12]
 2040 0038 1B78     	 ldrb r3,[r3]
 2041 003a BB61     	 str r3,[r7,#24]
1686:../Dave/Generated/UCPROBE/probe_com.c **** 
1687:../Dave/Generated/UCPROBE/probe_com.c ****                                                                 /* (b) Get wr addr.                
1688:../Dave/Generated/UCPROBE/probe_com.c **** #if ((!defined(CPU_CFG_ADDR_SIZE)) || \
1689:../Dave/Generated/UCPROBE/probe_com.c ****      ((defined(CPU_CFG_ADDR_SIZE)) && \
1690:../Dave/Generated/UCPROBE/probe_com.c ****               (CPU_CFG_ADDR_SIZE   != CPU_WORD_SIZE_16)))
1691:../Dave/Generated/UCPROBE/probe_com.c ****         sym_addr = ((CPU_ADDR)prx_buf[4] << 8) + prx_buf[3];
 2042              	 .loc 1 1691 0
 2043 003c FB68     	 ldr r3,[r7,#12]
 2044 003e 0433     	 adds r3,r3,#4
 2045 0040 1B78     	 ldrb r3,[r3]
 2046 0042 1B02     	 lsls r3,r3,#8
 2047 0044 FA68     	 ldr r2,[r7,#12]
 2048 0046 0332     	 adds r2,r2,#3
 2049 0048 1278     	 ldrb r2,[r2]
 2050 004a 1344     	 add r3,r3,r2
 2051 004c 7B61     	 str r3,[r7,#20]
1692:../Dave/Generated/UCPROBE/probe_com.c ****         sym_addr = ((CPU_ADDR)sym_addr   << 8) + prx_buf[2];
 2052              	 .loc 1 1692 0
 2053 004e 7B69     	 ldr r3,[r7,#20]
 2054 0050 1B02     	 lsls r3,r3,#8
 2055 0052 FA68     	 ldr r2,[r7,#12]
 2056 0054 0232     	 adds r2,r2,#2
 2057 0056 1278     	 ldrb r2,[r2]
 2058 0058 1344     	 add r3,r3,r2
 2059 005a 7B61     	 str r3,[r7,#20]
1693:../Dave/Generated/UCPROBE/probe_com.c ****         sym_addr = ((CPU_ADDR)sym_addr   << 8) + prx_buf[1];
 2060              	 .loc 1 1693 0
 2061 005c 7B69     	 ldr r3,[r7,#20]
 2062 005e 1B02     	 lsls r3,r3,#8
 2063 0060 FA68     	 ldr r2,[r7,#12]
 2064 0062 0132     	 adds r2,r2,#1
 2065 0064 1278     	 ldrb r2,[r2]
 2066 0066 1344     	 add r3,r3,r2
 2067 0068 7B61     	 str r3,[r7,#20]
1694:../Dave/Generated/UCPROBE/probe_com.c **** #else
1695:../Dave/Generated/UCPROBE/probe_com.c ****         sym_addr = ((CPU_ADDR)prx_buf[2] << 8) + prx_buf[1];
1696:../Dave/Generated/UCPROBE/probe_com.c **** #endif
1697:../Dave/Generated/UCPROBE/probe_com.c **** 
1698:../Dave/Generated/UCPROBE/probe_com.c ****         prx_buf += 5u;
 2068              	 .loc 1 1698 0
 2069 006a FB68     	 ldr r3,[r7,#12]
 2070 006c 0533     	 adds r3,r3,#5
 2071 006e FB60     	 str r3,[r7,#12]
1699:../Dave/Generated/UCPROBE/probe_com.c **** 
1700:../Dave/Generated/UCPROBE/probe_com.c ****         if (rx_pkt_ix + sym_size > rx_pkt_size) {
 2072              	 .loc 1 1700 0
 2073 0070 FA6A     	 ldr r2,[r7,#44]
 2074 0072 BB69     	 ldr r3,[r7,#24]
 2075 0074 1A44     	 add r2,r2,r3
 2076 0076 7B68     	 ldr r3,[r7,#4]
 2077 0078 9A42     	 cmp r2,r3
 2078 007a 07D9     	 bls .L116
1701:../Dave/Generated/UCPROBE/probe_com.c ****             tx_len = ProbeCom_ReqErr(ptx_buf, PROBE_COM_STATUS_RX_PKT_WRONG_SIZE);
 2079              	 .loc 1 1701 0
 2080 007c BB68     	 ldr r3,[r7,#8]
 2081 007e 1846     	 mov r0,r3
 2082 0080 FE21     	 movs r1,#254
 2083 0082 FFF7FEFF 	 bl ProbeCom_ReqErr
 2084 0086 F861     	 str r0,[r7,#28]
1702:../Dave/Generated/UCPROBE/probe_com.c ****             return (tx_len);
 2085              	 .loc 1 1702 0
 2086 0088 FB69     	 ldr r3,[r7,#28]
 2087 008a 45E0     	 b .L114
 2088              	.L116:
1703:../Dave/Generated/UCPROBE/probe_com.c ****         }
1704:../Dave/Generated/UCPROBE/probe_com.c **** 
1705:../Dave/Generated/UCPROBE/probe_com.c **** #if (PROBE_COM_CFG_STAT_EN == DEF_ENABLED)
1706:../Dave/Generated/UCPROBE/probe_com.c ****         sym_ctr++;                                              /* (c) Inc local sym ctr.          
 2089              	 .loc 1 1706 0
 2090 008c BB6A     	 ldr r3,[r7,#40]
 2091 008e 0133     	 adds r3,r3,#1
 2092 0090 BB62     	 str r3,[r7,#40]
1707:../Dave/Generated/UCPROBE/probe_com.c ****         sym_byte_ctr += sym_size;
 2093              	 .loc 1 1707 0
 2094 0092 7A6A     	 ldr r2,[r7,#36]
 2095 0094 BB69     	 ldr r3,[r7,#24]
 2096 0096 1344     	 add r3,r3,r2
 2097 0098 7B62     	 str r3,[r7,#36]
1708:../Dave/Generated/UCPROBE/probe_com.c **** #endif
1709:../Dave/Generated/UCPROBE/probe_com.c ****                                                                 /* (d) Sto data into pkt.          
1710:../Dave/Generated/UCPROBE/probe_com.c ****         CPU_CRITICAL_ENTER();
 2098              	 .loc 1 1710 0
 2099 009a FFF7FEFF 	 bl CPU_SR_Save
 2100 009e 3862     	 str r0,[r7,#32]
1711:../Dave/Generated/UCPROBE/probe_com.c ****         Mem_Copy((void     *)sym_addr,
 2101              	 .loc 1 1711 0
 2102 00a0 7B69     	 ldr r3,[r7,#20]
 2103 00a2 1846     	 mov r0,r3
 2104 00a4 F968     	 ldr r1,[r7,#12]
 2105 00a6 BA69     	 ldr r2,[r7,#24]
 2106 00a8 FFF7FEFF 	 bl Mem_Copy
1712:../Dave/Generated/UCPROBE/probe_com.c ****                  (void     *)prx_buf,
1713:../Dave/Generated/UCPROBE/probe_com.c ****                  (CPU_SIZE_T)sym_size);
1714:../Dave/Generated/UCPROBE/probe_com.c ****         CPU_CRITICAL_EXIT();
 2107              	 .loc 1 1714 0
 2108 00ac 386A     	 ldr r0,[r7,#32]
 2109 00ae FFF7FEFF 	 bl CPU_SR_Restore
1715:../Dave/Generated/UCPROBE/probe_com.c **** 
1716:../Dave/Generated/UCPROBE/probe_com.c ****         prx_buf   += sym_size;
 2110              	 .loc 1 1716 0
 2111 00b2 FA68     	 ldr r2,[r7,#12]
 2112 00b4 BB69     	 ldr r3,[r7,#24]
 2113 00b6 1344     	 add r3,r3,r2
 2114 00b8 FB60     	 str r3,[r7,#12]
1717:../Dave/Generated/UCPROBE/probe_com.c ****         rx_pkt_ix += 5u + sym_size;
 2115              	 .loc 1 1717 0
 2116 00ba BA69     	 ldr r2,[r7,#24]
 2117 00bc FB6A     	 ldr r3,[r7,#44]
 2118 00be 1344     	 add r3,r3,r2
 2119 00c0 0533     	 adds r3,r3,#5
 2120 00c2 FB62     	 str r3,[r7,#44]
 2121              	.L115:
1684:../Dave/Generated/UCPROBE/probe_com.c ****         sym_size = prx_buf[0];                                  /* (a) Get nbr of bytes to wr.     
 2122              	 .loc 1 1684 0
 2123 00c4 FA6A     	 ldr r2,[r7,#44]
 2124 00c6 7B68     	 ldr r3,[r7,#4]
 2125 00c8 9A42     	 cmp r2,r3
 2126 00ca B4D9     	 bls .L117
1718:../Dave/Generated/UCPROBE/probe_com.c ****     }
1719:../Dave/Generated/UCPROBE/probe_com.c **** 
1720:../Dave/Generated/UCPROBE/probe_com.c **** #if (PROBE_COM_CFG_STAT_EN == DEF_ENABLED)
1721:../Dave/Generated/UCPROBE/probe_com.c ****     ProbeCom_RxSymCtr     += sym_ctr;                           /* Inc global sym ctr.             
 2127              	 .loc 1 1721 0
 2128 00cc 144B     	 ldr r3,.L118
 2129 00ce 1A68     	 ldr r2,[r3]
 2130 00d0 BB6A     	 ldr r3,[r7,#40]
 2131 00d2 1344     	 add r3,r3,r2
 2132 00d4 124A     	 ldr r2,.L118
 2133 00d6 1360     	 str r3,[r2]
1722:../Dave/Generated/UCPROBE/probe_com.c ****     ProbeCom_RxSymByteCtr += sym_byte_ctr;
 2134              	 .loc 1 1722 0
 2135 00d8 124B     	 ldr r3,.L118+4
 2136 00da 1A68     	 ldr r2,[r3]
 2137 00dc 7B6A     	 ldr r3,[r7,#36]
 2138 00de 1344     	 add r3,r3,r2
 2139 00e0 104A     	 ldr r2,.L118+4
 2140 00e2 1360     	 str r3,[r2]
1723:../Dave/Generated/UCPROBE/probe_com.c **** #endif
1724:../Dave/Generated/UCPROBE/probe_com.c **** 
1725:../Dave/Generated/UCPROBE/probe_com.c ****                                                                 /* Sto tx pkt hdr :                
1726:../Dave/Generated/UCPROBE/probe_com.c ****     ProbeCom_StoINT16U(&ptx_buf, PROBE_COM_FMT_TX_WR_MULTI);    /* (a) tx pkt fmt.                 
 2141              	 .loc 1 1726 0
 2142 00e4 07F10803 	 add r3,r7,#8
 2143 00e8 1846     	 mov r0,r3
 2144 00ea 48F20801 	 movw r1,#32776
 2145 00ee FFF7FEFF 	 bl ProbeCom_StoINT16U
1727:../Dave/Generated/UCPROBE/probe_com.c ****     ProbeCom_StoINT08U(&ptx_buf, PROBE_COM_STATUS_OK);          /* (b) Target status.              
 2146              	 .loc 1 1727 0
 2147 00f2 07F10803 	 add r3,r7,#8
 2148 00f6 1846     	 mov r0,r3
 2149 00f8 0121     	 movs r1,#1
 2150 00fa FFF7FEFF 	 bl ProbeCom_StoINT08U
1728:../Dave/Generated/UCPROBE/probe_com.c ****     ProbeCom_StoINT08U(&ptx_buf, ProbeCom_PktModifier());       /* (c) Modifier.                   
 2151              	 .loc 1 1728 0
 2152 00fe FFF7FEFF 	 bl ProbeCom_PktModifier
 2153 0102 0346     	 mov r3,r0
 2154 0104 1A46     	 mov r2,r3
 2155 0106 07F10803 	 add r3,r7,#8
 2156 010a 1846     	 mov r0,r3
 2157 010c 1146     	 mov r1,r2
 2158 010e FFF7FEFF 	 bl ProbeCom_StoINT08U
1729:../Dave/Generated/UCPROBE/probe_com.c **** 
1730:../Dave/Generated/UCPROBE/probe_com.c ****                                                                 /* ------------------ RTN TX PKT SI
1731:../Dave/Generated/UCPROBE/probe_com.c ****     tx_len = (CPU_SIZE_T)PROBE_COM_SIZE_TX_HDR;                 /* Tx pkt size = 4 (= Tx hdr size).
 2159              	 .loc 1 1731 0
 2160 0112 0423     	 movs r3,#4
 2161 0114 FB61     	 str r3,[r7,#28]
1732:../Dave/Generated/UCPROBE/probe_com.c ****     return (tx_len);
 2162              	 .loc 1 1732 0
 2163 0116 FB69     	 ldr r3,[r7,#28]
 2164              	.L114:
1733:../Dave/Generated/UCPROBE/probe_com.c **** }
 2165              	 .loc 1 1733 0
 2166 0118 1846     	 mov r0,r3
 2167 011a 3037     	 adds r7,r7,#48
 2168              	.LCFI88:
 2169              	 .cfi_def_cfa_offset 8
 2170 011c BD46     	 mov sp,r7
 2171              	.LCFI89:
 2172              	 .cfi_def_cfa_register 13
 2173              	 
 2174 011e 80BD     	 pop {r7,pc}
 2175              	.L119:
 2176              	 .align 2
 2177              	.L118:
 2178 0120 00000000 	 .word ProbeCom_RxSymCtr
 2179 0124 00000000 	 .word ProbeCom_RxSymByteCtr
 2180              	 .cfi_endproc
 2181              	.LFE17:
 2183              	 .section .text.ProbeCom_ReqStrIn,"ax",%progbits
 2184              	 .align 2
 2185              	 .thumb
 2186              	 .thumb_func
 2188              	ProbeCom_ReqStrIn:
 2189              	.LFB18:
1734:../Dave/Generated/UCPROBE/probe_com.c **** #endif
1735:../Dave/Generated/UCPROBE/probe_com.c **** 
1736:../Dave/Generated/UCPROBE/probe_com.c **** 
1737:../Dave/Generated/UCPROBE/probe_com.c **** /*
1738:../Dave/Generated/UCPROBE/probe_com.c **** ***************************************************************************************************
1739:../Dave/Generated/UCPROBE/probe_com.c **** *                                         ProbeCom_ReqStrIn()
1740:../Dave/Generated/UCPROBE/probe_com.c **** *
1741:../Dave/Generated/UCPROBE/probe_com.c **** * Description : Parse the FMT_STR_IN command & formulate response.  This command sends a string to 
1742:../Dave/Generated/UCPROBE/probe_com.c **** *               target.
1743:../Dave/Generated/UCPROBE/probe_com.c **** *
1744:../Dave/Generated/UCPROBE/probe_com.c **** * Argument(s) : prx_buf         Pointer to the receive  buffer
1745:../Dave/Generated/UCPROBE/probe_com.c **** *
1746:../Dave/Generated/UCPROBE/probe_com.c **** *               ptx_buf         Pointer to the transmit buffer
1747:../Dave/Generated/UCPROBE/probe_com.c **** *
1748:../Dave/Generated/UCPROBE/probe_com.c **** *               rx_pkt_size     Size of the receive  packet
1749:../Dave/Generated/UCPROBE/probe_com.c **** *
1750:../Dave/Generated/UCPROBE/probe_com.c **** *               tx_buf_size     Size of the transmit buffer
1751:../Dave/Generated/UCPROBE/probe_com.c **** *
1752:../Dave/Generated/UCPROBE/probe_com.c **** * Return(s)   : The number of bytes written to the tx buffer.
1753:../Dave/Generated/UCPROBE/probe_com.c **** *
1754:../Dave/Generated/UCPROBE/probe_com.c **** * Caller(s)   : ProbeCom_ParseRxPkt().
1755:../Dave/Generated/UCPROBE/probe_com.c **** *
1756:../Dave/Generated/UCPROBE/probe_com.c **** * Note(s)     : (1) The RX format:
1757:../Dave/Generated/UCPROBE/probe_com.c **** *
1758:../Dave/Generated/UCPROBE/probe_com.c **** *                   (A) A 2-byte format, indicating the data segment format;
1759:../Dave/Generated/UCPROBE/probe_com.c **** *                   (B) A 2-byte padding;
1760:../Dave/Generated/UCPROBE/probe_com.c **** *                   (C) A n-byte string.
1761:../Dave/Generated/UCPROBE/probe_com.c **** *
1762:../Dave/Generated/UCPROBE/probe_com.c **** *                         +-------------------------+-------------------------+
1763:../Dave/Generated/UCPROBE/probe_com.c **** *                         |          Format         |         Padding         |
1764:../Dave/Generated/UCPROBE/probe_com.c **** *                         +-------------------------+-------------------------+
1765:../Dave/Generated/UCPROBE/probe_com.c **** *                         |                       String                      |
1766:../Dave/Generated/UCPROBE/probe_com.c **** *                         |                         .                         |
1767:../Dave/Generated/UCPROBE/probe_com.c **** *                         |                         .                         |
1768:../Dave/Generated/UCPROBE/probe_com.c **** *                         |                         .                         |
1769:../Dave/Generated/UCPROBE/probe_com.c **** *                         +---------------------------------------------------+
1770:../Dave/Generated/UCPROBE/probe_com.c **** *
1771:../Dave/Generated/UCPROBE/probe_com.c **** *               (2) The TX format:
1772:../Dave/Generated/UCPROBE/probe_com.c **** *
1773:../Dave/Generated/UCPROBE/probe_com.c **** *                   (A) A 2-byte format, indicating the data segment format;
1774:../Dave/Generated/UCPROBE/probe_com.c **** *                   (B) A 1-byte status, indicating the status after the request;
1775:../Dave/Generated/UCPROBE/probe_com.c **** *                   (C) A 1-byte modifier.
1776:../Dave/Generated/UCPROBE/probe_com.c **** *
1777:../Dave/Generated/UCPROBE/probe_com.c **** *                         +-------------------------+------------+------------+
1778:../Dave/Generated/UCPROBE/probe_com.c **** *                         |          Format         |   Status   |  Modifier  |
1779:../Dave/Generated/UCPROBE/probe_com.c **** *                         +-------------------------+------------+------------+
1780:../Dave/Generated/UCPROBE/probe_com.c **** *
1781:../Dave/Generated/UCPROBE/probe_com.c **** ***************************************************************************************************
1782:../Dave/Generated/UCPROBE/probe_com.c **** */
1783:../Dave/Generated/UCPROBE/probe_com.c **** 
1784:../Dave/Generated/UCPROBE/probe_com.c **** #if (PROBE_COM_CFG_STR_REQ_EN == DEF_ENABLED)
1785:../Dave/Generated/UCPROBE/probe_com.c **** static  CPU_SIZE_T  ProbeCom_ReqStrIn (CPU_INT08U  *prx_buf,
1786:../Dave/Generated/UCPROBE/probe_com.c ****                                        CPU_INT08U  *ptx_buf,
1787:../Dave/Generated/UCPROBE/probe_com.c ****                                        CPU_SIZE_T   rx_pkt_size,
1788:../Dave/Generated/UCPROBE/probe_com.c ****                                        CPU_SIZE_T   tx_buf_size)
1789:../Dave/Generated/UCPROBE/probe_com.c **** {
 2190              	 .loc 1 1789 0
 2191              	 .cfi_startproc
 2192              	 
 2193              	 
 2194 0000 80B5     	 push {r7,lr}
 2195              	.LCFI90:
 2196              	 .cfi_def_cfa_offset 8
 2197              	 .cfi_offset 7,-8
 2198              	 .cfi_offset 14,-4
 2199 0002 88B0     	 sub sp,sp,#32
 2200              	.LCFI91:
 2201              	 .cfi_def_cfa_offset 40
 2202 0004 00AF     	 add r7,sp,#0
 2203              	.LCFI92:
 2204              	 .cfi_def_cfa_register 7
 2205 0006 F860     	 str r0,[r7,#12]
 2206 0008 B960     	 str r1,[r7,#8]
 2207 000a 7A60     	 str r2,[r7,#4]
 2208 000c 3B60     	 str r3,[r7]
1790:../Dave/Generated/UCPROBE/probe_com.c ****     CPU_SIZE_T   len;
1791:../Dave/Generated/UCPROBE/probe_com.c ****     CPU_SIZE_T   len_wr;
1792:../Dave/Generated/UCPROBE/probe_com.c ****     CPU_SIZE_T   tx_len;
1793:../Dave/Generated/UCPROBE/probe_com.c ****     CPU_INT08U  *pstr;
1794:../Dave/Generated/UCPROBE/probe_com.c **** 
1795:../Dave/Generated/UCPROBE/probe_com.c **** 
1796:../Dave/Generated/UCPROBE/probe_com.c ****    (void)&tx_buf_size;                                          /* Prevent compiler warning.       
1797:../Dave/Generated/UCPROBE/probe_com.c **** 
1798:../Dave/Generated/UCPROBE/probe_com.c **** 
1799:../Dave/Generated/UCPROBE/probe_com.c ****                                                                 /* ------------------- CHK PKT SIZE
1800:../Dave/Generated/UCPROBE/probe_com.c ****                                                                 /* Expected size = 2 (= Rx hdr size
1801:../Dave/Generated/UCPROBE/probe_com.c ****                                                                 /*               + 2 (= Padding    
1802:../Dave/Generated/UCPROBE/probe_com.c ****     if (rx_pkt_size <= 4u) {
 2209              	 .loc 1 1802 0
 2210 000e 7B68     	 ldr r3,[r7,#4]
 2211 0010 042B     	 cmp r3,#4
 2212 0012 07D8     	 bhi .L121
1803:../Dave/Generated/UCPROBE/probe_com.c ****         tx_len = ProbeCom_ReqErr(ptx_buf, PROBE_COM_STATUS_RX_PKT_WRONG_SIZE);
 2213              	 .loc 1 1803 0
 2214 0014 BB68     	 ldr r3,[r7,#8]
 2215 0016 1846     	 mov r0,r3
 2216 0018 FE21     	 movs r1,#254
 2217 001a FFF7FEFF 	 bl ProbeCom_ReqErr
 2218 001e F861     	 str r0,[r7,#28]
1804:../Dave/Generated/UCPROBE/probe_com.c ****         return (tx_len);
 2219              	 .loc 1 1804 0
 2220 0020 FB69     	 ldr r3,[r7,#28]
 2221 0022 34E0     	 b .L122
 2222              	.L121:
1805:../Dave/Generated/UCPROBE/probe_com.c ****     }
1806:../Dave/Generated/UCPROBE/probe_com.c **** 
1807:../Dave/Generated/UCPROBE/probe_com.c **** 
1808:../Dave/Generated/UCPROBE/probe_com.c **** 
1809:../Dave/Generated/UCPROBE/probe_com.c ****                                                                 /* ------------------- HANDLE STR -
1810:../Dave/Generated/UCPROBE/probe_com.c ****     pstr   = prx_buf     + 2u;                                   /* Ignore padding.                
 2223              	 .loc 1 1810 0
 2224 0024 FB68     	 ldr r3,[r7,#12]
 2225 0026 0233     	 adds r3,r3,#2
 2226 0028 BB61     	 str r3,[r7,#24]
1811:../Dave/Generated/UCPROBE/probe_com.c ****     len    = rx_pkt_size - 4u;
 2227              	 .loc 1 1811 0
 2228 002a 7B68     	 ldr r3,[r7,#4]
 2229 002c 043B     	 subs r3,r3,#4
 2230 002e 7B61     	 str r3,[r7,#20]
1812:../Dave/Generated/UCPROBE/probe_com.c **** 
1813:../Dave/Generated/UCPROBE/probe_com.c ****     len_wr = ProbeCom_BufWr(&ProbeCom_StrInBuf,                 /* Rd str from buf.                
 2231              	 .loc 1 1813 0
 2232 0030 1948     	 ldr r0,.L124
 2233 0032 B969     	 ldr r1,[r7,#24]
 2234 0034 7A69     	 ldr r2,[r7,#20]
 2235 0036 FFF7FEFF 	 bl ProbeCom_BufWr
 2236 003a 3861     	 str r0,[r7,#16]
1814:../Dave/Generated/UCPROBE/probe_com.c ****                              pstr,
1815:../Dave/Generated/UCPROBE/probe_com.c ****                              len);
1816:../Dave/Generated/UCPROBE/probe_com.c **** 
1817:../Dave/Generated/UCPROBE/probe_com.c **** #if (PROBE_COM_CFG_STAT_EN == DEF_ENABLED)
1818:../Dave/Generated/UCPROBE/probe_com.c ****     if (len_wr < len) {
 2237              	 .loc 1 1818 0
 2238 003c 3A69     	 ldr r2,[r7,#16]
 2239 003e 7B69     	 ldr r3,[r7,#20]
 2240 0040 9A42     	 cmp r2,r3
 2241 0042 04D2     	 bcs .L123
1819:../Dave/Generated/UCPROBE/probe_com.c ****         ProbeCom_StrRxOvfErrCtr++;
 2242              	 .loc 1 1819 0
 2243 0044 154B     	 ldr r3,.L124+4
 2244 0046 1B68     	 ldr r3,[r3]
 2245 0048 0133     	 adds r3,r3,#1
 2246 004a 144A     	 ldr r2,.L124+4
 2247 004c 1360     	 str r3,[r2]
 2248              	.L123:
1820:../Dave/Generated/UCPROBE/probe_com.c ****     }
1821:../Dave/Generated/UCPROBE/probe_com.c **** 
1822:../Dave/Generated/UCPROBE/probe_com.c ****     ProbeCom_StrRxCtr += len_wr;
 2249              	 .loc 1 1822 0
 2250 004e 144B     	 ldr r3,.L124+8
 2251 0050 1A68     	 ldr r2,[r3]
 2252 0052 3B69     	 ldr r3,[r7,#16]
 2253 0054 1344     	 add r3,r3,r2
 2254 0056 124A     	 ldr r2,.L124+8
 2255 0058 1360     	 str r3,[r2]
1823:../Dave/Generated/UCPROBE/probe_com.c **** #endif
1824:../Dave/Generated/UCPROBE/probe_com.c **** 
1825:../Dave/Generated/UCPROBE/probe_com.c **** 
1826:../Dave/Generated/UCPROBE/probe_com.c ****                                                                 /* ------------------ STORE RESPONS
1827:../Dave/Generated/UCPROBE/probe_com.c ****                                                                 /* Sto tx pkt hdr :                
1828:../Dave/Generated/UCPROBE/probe_com.c ****     ProbeCom_StoINT16U(&ptx_buf, PROBE_COM_FMT_TX_STR_IN);      /* (a) Tx pkt fmt.                 
 2256              	 .loc 1 1828 0
 2257 005a 07F10803 	 add r3,r7,#8
 2258 005e 1846     	 mov r0,r3
 2259 0060 48F20A01 	 movw r1,#32778
 2260 0064 FFF7FEFF 	 bl ProbeCom_StoINT16U
1829:../Dave/Generated/UCPROBE/probe_com.c ****     ProbeCom_StoINT08U(&ptx_buf, PROBE_COM_STATUS_OK);          /* (b) Target status.              
 2261              	 .loc 1 1829 0
 2262 0068 07F10803 	 add r3,r7,#8
 2263 006c 1846     	 mov r0,r3
 2264 006e 0121     	 movs r1,#1
 2265 0070 FFF7FEFF 	 bl ProbeCom_StoINT08U
1830:../Dave/Generated/UCPROBE/probe_com.c ****     ProbeCom_StoINT08U(&ptx_buf, ProbeCom_PktModifier());       /* (c) Modifier.                   
 2266              	 .loc 1 1830 0
 2267 0074 FFF7FEFF 	 bl ProbeCom_PktModifier
 2268 0078 0346     	 mov r3,r0
 2269 007a 1A46     	 mov r2,r3
 2270 007c 07F10803 	 add r3,r7,#8
 2271 0080 1846     	 mov r0,r3
 2272 0082 1146     	 mov r1,r2
 2273 0084 FFF7FEFF 	 bl ProbeCom_StoINT08U
1831:../Dave/Generated/UCPROBE/probe_com.c **** 
1832:../Dave/Generated/UCPROBE/probe_com.c **** 
1833:../Dave/Generated/UCPROBE/probe_com.c **** 
1834:../Dave/Generated/UCPROBE/probe_com.c ****                                                                 /* ------------------ RTN TX PKT SI
1835:../Dave/Generated/UCPROBE/probe_com.c ****     tx_len = (CPU_SIZE_T)PROBE_COM_SIZE_TX_HDR;                 /* Tx pkt size = 4 (= Tx hdr size).
 2274              	 .loc 1 1835 0
 2275 0088 0423     	 movs r3,#4
 2276 008a FB61     	 str r3,[r7,#28]
1836:../Dave/Generated/UCPROBE/probe_com.c ****     return (tx_len);
 2277              	 .loc 1 1836 0
 2278 008c FB69     	 ldr r3,[r7,#28]
 2279              	.L122:
1837:../Dave/Generated/UCPROBE/probe_com.c **** }
 2280              	 .loc 1 1837 0
 2281 008e 1846     	 mov r0,r3
 2282 0090 2037     	 adds r7,r7,#32
 2283              	.LCFI93:
 2284              	 .cfi_def_cfa_offset 8
 2285 0092 BD46     	 mov sp,r7
 2286              	.LCFI94:
 2287              	 .cfi_def_cfa_register 13
 2288              	 
 2289 0094 80BD     	 pop {r7,pc}
 2290              	.L125:
 2291 0096 00BF     	 .align 2
 2292              	.L124:
 2293 0098 00000000 	 .word ProbeCom_StrInBuf
 2294 009c 00000000 	 .word ProbeCom_StrRxOvfErrCtr
 2295 00a0 00000000 	 .word ProbeCom_StrRxCtr
 2296              	 .cfi_endproc
 2297              	.LFE18:
 2299              	 .section .text.ProbeCom_ReqStrOut,"ax",%progbits
 2300              	 .align 2
 2301              	 .thumb
 2302              	 .thumb_func
 2304              	ProbeCom_ReqStrOut:
 2305              	.LFB19:
1838:../Dave/Generated/UCPROBE/probe_com.c **** #endif
1839:../Dave/Generated/UCPROBE/probe_com.c **** 
1840:../Dave/Generated/UCPROBE/probe_com.c **** 
1841:../Dave/Generated/UCPROBE/probe_com.c **** /*
1842:../Dave/Generated/UCPROBE/probe_com.c **** ***************************************************************************************************
1843:../Dave/Generated/UCPROBE/probe_com.c **** *                                        ProbeCom_ReqStrOut()
1844:../Dave/Generated/UCPROBE/probe_com.c **** *
1845:../Dave/Generated/UCPROBE/probe_com.c **** * Description : Parse the FMT_STR_OUT command & formulate response.  This command asks the target t
1846:../Dave/Generated/UCPROBE/probe_com.c **** *               a string that it is currently storing.
1847:../Dave/Generated/UCPROBE/probe_com.c **** *
1848:../Dave/Generated/UCPROBE/probe_com.c **** * Argument(s) : prx_buf         Pointer to the receive  buffer
1849:../Dave/Generated/UCPROBE/probe_com.c **** *
1850:../Dave/Generated/UCPROBE/probe_com.c **** *               ptx_buf         Pointer to the transmit buffer
1851:../Dave/Generated/UCPROBE/probe_com.c **** *
1852:../Dave/Generated/UCPROBE/probe_com.c **** *               rx_pkt_size     Size of the receive  packet
1853:../Dave/Generated/UCPROBE/probe_com.c **** *
1854:../Dave/Generated/UCPROBE/probe_com.c **** *               tx_buf_size     Size of the transmit buffer
1855:../Dave/Generated/UCPROBE/probe_com.c **** *
1856:../Dave/Generated/UCPROBE/probe_com.c **** * Return(s)   : The number of bytes written to the tx buffer.
1857:../Dave/Generated/UCPROBE/probe_com.c **** *
1858:../Dave/Generated/UCPROBE/probe_com.c **** * Caller(s)   : ProbeCom_ParseRxPkt().
1859:../Dave/Generated/UCPROBE/probe_com.c **** *
1860:../Dave/Generated/UCPROBE/probe_com.c **** * Note(s)     : (1) The RX format:
1861:../Dave/Generated/UCPROBE/probe_com.c **** *
1862:../Dave/Generated/UCPROBE/probe_com.c **** *                   (A) A 2-byte format, indicating the data segment format;
1863:../Dave/Generated/UCPROBE/probe_com.c **** *                   (B) A 2-byte padding.
1864:../Dave/Generated/UCPROBE/probe_com.c **** *
1865:../Dave/Generated/UCPROBE/probe_com.c **** *                         +-------------------------+-------------------------+
1866:../Dave/Generated/UCPROBE/probe_com.c **** *                         |          Format         |         Padding         |
1867:../Dave/Generated/UCPROBE/probe_com.c **** *                         +-------------------------+-------------------------+
1868:../Dave/Generated/UCPROBE/probe_com.c **** *
1869:../Dave/Generated/UCPROBE/probe_com.c **** *               (2) The TX format:
1870:../Dave/Generated/UCPROBE/probe_com.c **** *
1871:../Dave/Generated/UCPROBE/probe_com.c **** *                   (A) A 2-byte format, indicating the data segment format;
1872:../Dave/Generated/UCPROBE/probe_com.c **** *                   (B) A 1-byte status, indicating the status after the request;
1873:../Dave/Generated/UCPROBE/probe_com.c **** *                   (C) A 1-byte modifier;
1874:../Dave/Generated/UCPROBE/probe_com.c **** *                   (D) A n-byte string, the string which is stored in the target's buffer.
1875:../Dave/Generated/UCPROBE/probe_com.c **** *
1876:../Dave/Generated/UCPROBE/probe_com.c **** *                         +-------------------------+------------+------------+
1877:../Dave/Generated/UCPROBE/probe_com.c **** *                         |          Format         |   Status   |  Modifier  |
1878:../Dave/Generated/UCPROBE/probe_com.c **** *                         +-------------------------+------------+------------+
1879:../Dave/Generated/UCPROBE/probe_com.c **** *                         |                       String                      |
1880:../Dave/Generated/UCPROBE/probe_com.c **** *                         |                         .                         |
1881:../Dave/Generated/UCPROBE/probe_com.c **** *                         |                         .                         |
1882:../Dave/Generated/UCPROBE/probe_com.c **** *                         |                         .                         |
1883:../Dave/Generated/UCPROBE/probe_com.c **** *                         +---------------------------------------------------+
1884:../Dave/Generated/UCPROBE/probe_com.c **** *
1885:../Dave/Generated/UCPROBE/probe_com.c **** *               (3) See Notes for 'ProbeCom_StrWr()'.
1886:../Dave/Generated/UCPROBE/probe_com.c **** *
1887:../Dave/Generated/UCPROBE/probe_com.c **** *               (4) Probe requires that a NULL byte ends the string.  Consequently, if the data
1888:../Dave/Generated/UCPROBE/probe_com.c **** *                   section of the TX packet is n bytes long, then only (n - 1) bytes have been rea
1889:../Dave/Generated/UCPROBE/probe_com.c **** *                   the string buffer.
1890:../Dave/Generated/UCPROBE/probe_com.c **** ***************************************************************************************************
1891:../Dave/Generated/UCPROBE/probe_com.c **** */
1892:../Dave/Generated/UCPROBE/probe_com.c **** 
1893:../Dave/Generated/UCPROBE/probe_com.c **** #if (PROBE_COM_CFG_STR_REQ_EN == DEF_TRUE)
1894:../Dave/Generated/UCPROBE/probe_com.c **** static  CPU_SIZE_T  ProbeCom_ReqStrOut (CPU_INT08U  *prx_buf,
1895:../Dave/Generated/UCPROBE/probe_com.c ****                                         CPU_INT08U  *ptx_buf,
1896:../Dave/Generated/UCPROBE/probe_com.c ****                                         CPU_SIZE_T   rx_pkt_size,
1897:../Dave/Generated/UCPROBE/probe_com.c ****                                         CPU_SIZE_T   tx_buf_size)
1898:../Dave/Generated/UCPROBE/probe_com.c **** {
 2306              	 .loc 1 1898 0
 2307              	 .cfi_startproc
 2308              	 
 2309              	 
 2310 0000 80B5     	 push {r7,lr}
 2311              	.LCFI95:
 2312              	 .cfi_def_cfa_offset 8
 2313              	 .cfi_offset 7,-8
