   1              	 .syntax unified
   2              	 .cpu cortex-m4
   3              	 .eabi_attribute 27,3
   4              	 .fpu fpv4-sp-d16
   5              	 .eabi_attribute 20,1
   6              	 .eabi_attribute 21,1
   7              	 .eabi_attribute 23,3
   8              	 .eabi_attribute 24,1
   9              	 .eabi_attribute 25,1
  10              	 .eabi_attribute 26,1
  11              	 .eabi_attribute 30,6
  12              	 .eabi_attribute 34,1
  13              	 .eabi_attribute 18,4
  14              	 .thumb
  15              	 .file "ucprobe.c"
  16              	 .text
  17              	.Ltext0:
  18              	 .cfi_sections .debug_frame
  19              	 .section .text.UCPROBE_GetAppVersion,"ax",%progbits
  20              	 .align 2
  21              	 .global UCPROBE_GetAppVersion
  22              	 .thumb
  23              	 .thumb_func
  25              	UCPROBE_GetAppVersion:
  26              	.LFB0:
  27              	 .file 1 "../Dave/Generated/UCPROBE/ucprobe.c"
   1:../Dave/Generated/UCPROBE/ucprobe.c **** /**
   2:../Dave/Generated/UCPROBE/ucprobe.c ****  * @file ucprobe.c
   3:../Dave/Generated/UCPROBE/ucprobe.c ****  * @date 2017-06-26
   4:../Dave/Generated/UCPROBE/ucprobe.c ****  *
   5:../Dave/Generated/UCPROBE/ucprobe.c ****  * NOTE:
   6:../Dave/Generated/UCPROBE/ucprobe.c ****  * This file is generated by DAVE-4. Any manual modification done to this file will be lost when th
   7:../Dave/Generated/UCPROBE/ucprobe.c ****  *
   8:../Dave/Generated/UCPROBE/ucprobe.c ****  * @cond
   9:../Dave/Generated/UCPROBE/ucprobe.c ****  **************************************************************************************************
  10:../Dave/Generated/UCPROBE/ucprobe.c ****  * UCPROBE v4.0.8 - Configures UCPROBE target code
  11:../Dave/Generated/UCPROBE/ucprobe.c ****  * Copyright (c) 2015-2017, Infineon Technologies AG
  12:../Dave/Generated/UCPROBE/ucprobe.c ****  * All rights reserved.
  13:../Dave/Generated/UCPROBE/ucprobe.c ****  *
  14:../Dave/Generated/UCPROBE/ucprobe.c ****  * Redistribution and use in source and binary forms, with or without modification,are permitted pr
  15:../Dave/Generated/UCPROBE/ucprobe.c ****  * following conditions are met:
  16:../Dave/Generated/UCPROBE/ucprobe.c ****  *
  17:../Dave/Generated/UCPROBE/ucprobe.c ****  *   Redistributions of source code must retain the above copyright notice, this list of conditions
  18:../Dave/Generated/UCPROBE/ucprobe.c ****  *   disclaimer.
  19:../Dave/Generated/UCPROBE/ucprobe.c ****  *
  20:../Dave/Generated/UCPROBE/ucprobe.c ****  *   Redistributions in binary form must reproduce the above copyright notice, this list of conditi
  21:../Dave/Generated/UCPROBE/ucprobe.c ****  *   following disclaimer in the documentation and/or other materials provided with the distributio
  22:../Dave/Generated/UCPROBE/ucprobe.c ****  *
  23:../Dave/Generated/UCPROBE/ucprobe.c ****  *   Neither the name of the copyright holders nor the names of its contributors may be used to end
  24:../Dave/Generated/UCPROBE/ucprobe.c ****  *   products derived from this software without specific prior written permission.
  25:../Dave/Generated/UCPROBE/ucprobe.c ****  *
  26:../Dave/Generated/UCPROBE/ucprobe.c ****  * THIS SOFTWARE IS PROVIDED BY THE COPYRIGHT HOLDERS AND CONTRIBUTORS "AS IS" AND ANY EXPRESS OR I
  27:../Dave/Generated/UCPROBE/ucprobe.c ****  * INCLUDING, BUT NOT LIMITED TO, THE IMPLIED WARRANTIES OF MERCHANTABILITY AND FITNESS FOR A PARTI
  28:../Dave/Generated/UCPROBE/ucprobe.c ****  * DISCLAIMED. IN NO EVENT SHALL THE COPYRIGHT HOLDER OR CONTRIBUTORS BE LIABLE  FOR ANY DIRECT, IN
  29:../Dave/Generated/UCPROBE/ucprobe.c ****  * SPECIAL, EXEMPLARY, OR CONSEQUENTIAL DAMAGES (INCLUDING, BUT NOT LIMITED TO, PROCUREMENT OF SUBS
  30:../Dave/Generated/UCPROBE/ucprobe.c ****  * SERVICES; LOSS OF USE, DATA, OR PROFITS; OR BUSINESS INTERRUPTION) HOWEVER CAUSED AND ON ANY THE
  31:../Dave/Generated/UCPROBE/ucprobe.c ****  * WHETHER IN CONTRACT, STRICT LIABILITY,OR TORT (INCLUDING NEGLIGENCE OR OTHERWISE) ARISING IN ANY
  32:../Dave/Generated/UCPROBE/ucprobe.c ****  * USE OF THIS SOFTWARE, EVEN IF ADVISED OF THE POSSIBILITY OF SUCH DAMAGE.
  33:../Dave/Generated/UCPROBE/ucprobe.c ****  *
  34:../Dave/Generated/UCPROBE/ucprobe.c ****  * To improve the quality of the software, users are encouraged to share modifications, enhancement
  35:../Dave/Generated/UCPROBE/ucprobe.c ****  * with Infineon Technologies AG (dave@infineon.com).
  36:../Dave/Generated/UCPROBE/ucprobe.c ****  **************************************************************************************************
  37:../Dave/Generated/UCPROBE/ucprobe.c ****  *
  38:../Dave/Generated/UCPROBE/ucprobe.c ****  * Change History
  39:../Dave/Generated/UCPROBE/ucprobe.c ****  * --------------
  40:../Dave/Generated/UCPROBE/ucprobe.c ****  *
  41:../Dave/Generated/UCPROBE/ucprobe.c ****  * 2016-07-30:
  42:../Dave/Generated/UCPROBE/ucprobe.c ****  *     - Initial version<br>
  43:../Dave/Generated/UCPROBE/ucprobe.c ****  *
  44:../Dave/Generated/UCPROBE/ucprobe.c ****  * @endcond
  45:../Dave/Generated/UCPROBE/ucprobe.c ****  *
  46:../Dave/Generated/UCPROBE/ucprobe.c ****  */
  47:../Dave/Generated/UCPROBE/ucprobe.c **** 
  48:../Dave/Generated/UCPROBE/ucprobe.c **** 
  49:../Dave/Generated/UCPROBE/ucprobe.c **** /**************************************************************************************************
  50:../Dave/Generated/UCPROBE/ucprobe.c ****  * HEADER FILES
  51:../Dave/Generated/UCPROBE/ucprobe.c ****  **************************************************************************************************
  52:../Dave/Generated/UCPROBE/ucprobe.c **** #include "ucprobe.h"
  53:../Dave/Generated/UCPROBE/ucprobe.c **** #include "probe_rs232.h"
  54:../Dave/Generated/UCPROBE/ucprobe.c **** #include "probe_scope.h"
  55:../Dave/Generated/UCPROBE/ucprobe.c **** #include "probe_scope_cfg.h"
  56:../Dave/Generated/UCPROBE/ucprobe.c **** 
  57:../Dave/Generated/UCPROBE/ucprobe.c **** /**************************************************************************************************
  58:../Dave/Generated/UCPROBE/ucprobe.c ****  * PRIVATE FUNCTION PROTOTYPES
  59:../Dave/Generated/UCPROBE/ucprobe.c ****  **************************************************************************************************
  60:../Dave/Generated/UCPROBE/ucprobe.c **** 
  61:../Dave/Generated/UCPROBE/ucprobe.c **** /**************************************************************************************************
  62:../Dave/Generated/UCPROBE/ucprobe.c ****  * API IMPLEMENTATION
  63:../Dave/Generated/UCPROBE/ucprobe.c ****  **************************************************************************************************
  64:../Dave/Generated/UCPROBE/ucprobe.c **** 
  65:../Dave/Generated/UCPROBE/ucprobe.c **** /* API to retrieve App version info */
  66:../Dave/Generated/UCPROBE/ucprobe.c **** DAVE_APP_VERSION_t UCPROBE_GetAppVersion(void)
  67:../Dave/Generated/UCPROBE/ucprobe.c **** {
  28              	 .loc 1 67 0
  29              	 .cfi_startproc
  30              	 
  31              	 
  32              	 
  33 0000 80B4     	 push {r7}
  34              	.LCFI0:
  35              	 .cfi_def_cfa_offset 4
  36              	 .cfi_offset 7,-4
  37 0002 83B0     	 sub sp,sp,#12
  38              	.LCFI1:
  39              	 .cfi_def_cfa_offset 16
  40 0004 00AF     	 add r7,sp,#0
  41              	.LCFI2:
  42              	 .cfi_def_cfa_register 7
  68:../Dave/Generated/UCPROBE/ucprobe.c ****   DAVE_APP_VERSION_t version;
  69:../Dave/Generated/UCPROBE/ucprobe.c **** 
  70:../Dave/Generated/UCPROBE/ucprobe.c ****   version.major = UCPROBE_MAJOR_VERSION;
  43              	 .loc 1 70 0
  44 0006 0423     	 movs r3,#4
  45 0008 3B70     	 strb r3,[r7]
  71:../Dave/Generated/UCPROBE/ucprobe.c ****   version.minor = UCPROBE_MINOR_VERSION;
  46              	 .loc 1 71 0
  47 000a 0023     	 movs r3,#0
  48 000c 7B70     	 strb r3,[r7,#1]
  72:../Dave/Generated/UCPROBE/ucprobe.c ****   version.patch = UCPROBE_PATCH_VERSION;
  49              	 .loc 1 72 0
  50 000e 0823     	 movs r3,#8
  51 0010 BB70     	 strb r3,[r7,#2]
  73:../Dave/Generated/UCPROBE/ucprobe.c **** 
  74:../Dave/Generated/UCPROBE/ucprobe.c ****   return (version);
  52              	 .loc 1 74 0
  53 0012 3B1D     	 adds r3,r7,#4
  54 0014 3A46     	 mov r2,r7
  55 0016 1268     	 ldr r2,[r2]
  56 0018 1146     	 mov r1,r2
  57 001a 1980     	 strh r1,[r3]
  58 001c 0233     	 adds r3,r3,#2
  59 001e 120C     	 lsrs r2,r2,#16
  60 0020 1A70     	 strb r2,[r3]
  61 0022 0023     	 movs r3,#0
  62 0024 3A79     	 ldrb r2,[r7,#4]
  63 0026 62F30703 	 bfi r3,r2,#0,#8
  64 002a 7A79     	 ldrb r2,[r7,#5]
  65 002c 62F30F23 	 bfi r3,r2,#8,#8
  66 0030 BA79     	 ldrb r2,[r7,#6]
  67 0032 62F31743 	 bfi r3,r2,#16,#8
  75:../Dave/Generated/UCPROBE/ucprobe.c **** }
  68              	 .loc 1 75 0
  69 0036 1846     	 mov r0,r3
  70 0038 0C37     	 adds r7,r7,#12
  71              	.LCFI3:
  72              	 .cfi_def_cfa_offset 4
  73 003a BD46     	 mov sp,r7
  74              	.LCFI4:
  75              	 .cfi_def_cfa_register 13
  76              	 
  77 003c 5DF8047B 	 ldr r7,[sp],#4
  78              	.LCFI5:
  79              	 .cfi_restore 7
  80              	 .cfi_def_cfa_offset 0
  81 0040 7047     	 bx lr
  82              	 .cfi_endproc
  83              	.LFE0:
  85 0042 00BF     	 .section .text.UCPROBE_Init,"ax",%progbits
  86              	 .align 2
  87              	 .global UCPROBE_Init
  88              	 .thumb
  89              	 .thumb_func
  91              	UCPROBE_Init:
  92              	.LFB1:
  76:../Dave/Generated/UCPROBE/ucprobe.c **** 
  77:../Dave/Generated/UCPROBE/ucprobe.c **** /* API to initialize UC/Probe support */
  78:../Dave/Generated/UCPROBE/ucprobe.c **** void UCPROBE_Init(void)
  79:../Dave/Generated/UCPROBE/ucprobe.c **** {
  93              	 .loc 1 79 0
  94              	 .cfi_startproc
  95              	 
  96              	 
  97 0000 80B5     	 push {r7,lr}
  98              	.LCFI6:
  99              	 .cfi_def_cfa_offset 8
 100              	 .cfi_offset 7,-8
 101              	 .cfi_offset 14,-4
 102 0002 00AF     	 add r7,sp,#0
 103              	.LCFI7:
 104              	 .cfi_def_cfa_register 7
  80:../Dave/Generated/UCPROBE/ucprobe.c **** #if UCPROBE_PROBESCOPE_EN
  81:../Dave/Generated/UCPROBE/ucprobe.c ****   ProbeScope_Init(PROBE_SCOPE_SAMPLING_CLK_HZ_DFLT);
 105              	 .loc 1 81 0
 106 0004 4FF47A70 	 mov r0,#1000
 107 0008 FFF7FEFF 	 bl ProbeScope_Init
  82:../Dave/Generated/UCPROBE/ucprobe.c **** #endif
  83:../Dave/Generated/UCPROBE/ucprobe.c **** 
  84:../Dave/Generated/UCPROBE/ucprobe.c **** #if (PROBE_COM_CFG_RS232_EN == DEF_ENABLED)
  85:../Dave/Generated/UCPROBE/ucprobe.c ****   ProbeCom_Init(); /* Initialize the Generic module */
  86:../Dave/Generated/UCPROBE/ucprobe.c ****   ProbeRS232_Init(UCPROBE_UART_BAUD_RATE); /* Initialize the RS-232 interface */
  87:../Dave/Generated/UCPROBE/ucprobe.c ****   ProbeRS232_RxIntEn(); /* Initialize the RS-232 Rx interrupts */
  88:../Dave/Generated/UCPROBE/ucprobe.c **** #endif
  89:../Dave/Generated/UCPROBE/ucprobe.c **** }
 108              	 .loc 1 89 0
 109 000c 80BD     	 pop {r7,pc}
 110              	 .cfi_endproc
 111              	.LFE1:
 113 000e 00BF     	 .text
 114              	.Letext0:
 115              	 .file 2 "c:\\infineon\\tools\\dave ide\\4.5.0.202105191637\\eclipse\\arm-gcc-49\\arm-none-eabi\\include\\machine\\_default_types.h"
 116              	 .file 3 "c:\\infineon\\tools\\dave ide\\4.5.0.202105191637\\eclipse\\arm-gcc-49\\arm-none-eabi\\include\\stdint.h"
 117              	 .file 4 "C:/Users/Rui Mendes/Desktop/DAVE/Dissertation/Dissertation_TCU/_FullProject/Dave/Generated/DAVE_common.h"