   1              	 .syntax unified
   2              	 .cpu cortex-m4
   3              	 .eabi_attribute 27,3
   4              	 .fpu fpv4-sp-d16
   5              	 .eabi_attribute 20,1
   6              	 .eabi_attribute 21,1
   7              	 .eabi_attribute 23,3
   8              	 .eabi_attribute 24,1
   9              	 .eabi_attribute 25,1
  10              	 .eabi_attribute 26,1
  11              	 .eabi_attribute 30,6
  12              	 .eabi_attribute 34,1
  13              	 .eabi_attribute 18,4
  14              	 .thumb
  15              	 .file "arm_fill_q15.c"
  16              	 .text
  17              	.Ltext0:
  18              	 .cfi_sections .debug_frame
  19              	 .section .text.arm_fill_q15,"ax",%progbits
  20              	 .align 2
  21              	 .global arm_fill_q15
  22              	 .thumb
  23              	 .thumb_func
  25              	arm_fill_q15:
  26              	.LFB149:
  27              	 .file 1 "../Dave/Generated/CMSIS_DSP/Source/SupportFunctions/arm_fill_q15.c"
   1:../Dave/Generated/CMSIS_DSP/Source/SupportFunctions/arm_fill_q15.c **** /* ----------------------------------------------------------------------
   2:../Dave/Generated/CMSIS_DSP/Source/SupportFunctions/arm_fill_q15.c ****  * Project:      CMSIS DSP Library
   3:../Dave/Generated/CMSIS_DSP/Source/SupportFunctions/arm_fill_q15.c ****  * Title:        arm_fill_q15.c
   4:../Dave/Generated/CMSIS_DSP/Source/SupportFunctions/arm_fill_q15.c ****  * Description:  Fills a constant value into a Q15 vector
   5:../Dave/Generated/CMSIS_DSP/Source/SupportFunctions/arm_fill_q15.c ****  *
   6:../Dave/Generated/CMSIS_DSP/Source/SupportFunctions/arm_fill_q15.c ****  * $Date:        18. March 2019
   7:../Dave/Generated/CMSIS_DSP/Source/SupportFunctions/arm_fill_q15.c ****  * $Revision:    V1.6.0
   8:../Dave/Generated/CMSIS_DSP/Source/SupportFunctions/arm_fill_q15.c ****  *
   9:../Dave/Generated/CMSIS_DSP/Source/SupportFunctions/arm_fill_q15.c ****  * Target Processor: Cortex-M cores
  10:../Dave/Generated/CMSIS_DSP/Source/SupportFunctions/arm_fill_q15.c ****  * -------------------------------------------------------------------- */
  11:../Dave/Generated/CMSIS_DSP/Source/SupportFunctions/arm_fill_q15.c **** /*
  12:../Dave/Generated/CMSIS_DSP/Source/SupportFunctions/arm_fill_q15.c ****  * Copyright (C) 2010-2019 ARM Limited or its affiliates. All rights reserved.
  13:../Dave/Generated/CMSIS_DSP/Source/SupportFunctions/arm_fill_q15.c ****  *
  14:../Dave/Generated/CMSIS_DSP/Source/SupportFunctions/arm_fill_q15.c ****  * SPDX-License-Identifier: Apache-2.0
  15:../Dave/Generated/CMSIS_DSP/Source/SupportFunctions/arm_fill_q15.c ****  *
  16:../Dave/Generated/CMSIS_DSP/Source/SupportFunctions/arm_fill_q15.c ****  * Licensed under the Apache License, Version 2.0 (the License); you may
  17:../Dave/Generated/CMSIS_DSP/Source/SupportFunctions/arm_fill_q15.c ****  * not use this file except in compliance with the License.
  18:../Dave/Generated/CMSIS_DSP/Source/SupportFunctions/arm_fill_q15.c ****  * You may obtain a copy of the License at
  19:../Dave/Generated/CMSIS_DSP/Source/SupportFunctions/arm_fill_q15.c ****  *
  20:../Dave/Generated/CMSIS_DSP/Source/SupportFunctions/arm_fill_q15.c ****  * www.apache.org/licenses/LICENSE-2.0
  21:../Dave/Generated/CMSIS_DSP/Source/SupportFunctions/arm_fill_q15.c ****  *
  22:../Dave/Generated/CMSIS_DSP/Source/SupportFunctions/arm_fill_q15.c ****  * Unless required by applicable law or agreed to in writing, software
  23:../Dave/Generated/CMSIS_DSP/Source/SupportFunctions/arm_fill_q15.c ****  * distributed under the License is distributed on an AS IS BASIS, WITHOUT
  24:../Dave/Generated/CMSIS_DSP/Source/SupportFunctions/arm_fill_q15.c ****  * WARRANTIES OR CONDITIONS OF ANY KIND, either express or implied.
  25:../Dave/Generated/CMSIS_DSP/Source/SupportFunctions/arm_fill_q15.c ****  * See the License for the specific language governing permissions and
  26:../Dave/Generated/CMSIS_DSP/Source/SupportFunctions/arm_fill_q15.c ****  * limitations under the License.
  27:../Dave/Generated/CMSIS_DSP/Source/SupportFunctions/arm_fill_q15.c ****  */
  28:../Dave/Generated/CMSIS_DSP/Source/SupportFunctions/arm_fill_q15.c **** 
  29:../Dave/Generated/CMSIS_DSP/Source/SupportFunctions/arm_fill_q15.c **** #include "CMSIS_DSP/cmsis_dsp.h"
  30:../Dave/Generated/CMSIS_DSP/Source/SupportFunctions/arm_fill_q15.c **** 
  31:../Dave/Generated/CMSIS_DSP/Source/SupportFunctions/arm_fill_q15.c **** /**
  32:../Dave/Generated/CMSIS_DSP/Source/SupportFunctions/arm_fill_q15.c ****   @ingroup groupSupport
  33:../Dave/Generated/CMSIS_DSP/Source/SupportFunctions/arm_fill_q15.c ****  */
  34:../Dave/Generated/CMSIS_DSP/Source/SupportFunctions/arm_fill_q15.c **** 
  35:../Dave/Generated/CMSIS_DSP/Source/SupportFunctions/arm_fill_q15.c **** /**
  36:../Dave/Generated/CMSIS_DSP/Source/SupportFunctions/arm_fill_q15.c ****   @addtogroup Fill
  37:../Dave/Generated/CMSIS_DSP/Source/SupportFunctions/arm_fill_q15.c ****   @{
  38:../Dave/Generated/CMSIS_DSP/Source/SupportFunctions/arm_fill_q15.c ****  */
  39:../Dave/Generated/CMSIS_DSP/Source/SupportFunctions/arm_fill_q15.c **** 
  40:../Dave/Generated/CMSIS_DSP/Source/SupportFunctions/arm_fill_q15.c **** /**
  41:../Dave/Generated/CMSIS_DSP/Source/SupportFunctions/arm_fill_q15.c ****   @brief         Fills a constant value into a Q15 vector.
  42:../Dave/Generated/CMSIS_DSP/Source/SupportFunctions/arm_fill_q15.c ****   @param[in]     value      input value to be filled
  43:../Dave/Generated/CMSIS_DSP/Source/SupportFunctions/arm_fill_q15.c ****   @param[out]    pDst       points to output vector
  44:../Dave/Generated/CMSIS_DSP/Source/SupportFunctions/arm_fill_q15.c ****   @param[in]     blockSize  number of samples in each vector
  45:../Dave/Generated/CMSIS_DSP/Source/SupportFunctions/arm_fill_q15.c ****   @return        none
  46:../Dave/Generated/CMSIS_DSP/Source/SupportFunctions/arm_fill_q15.c ****  */
  47:../Dave/Generated/CMSIS_DSP/Source/SupportFunctions/arm_fill_q15.c **** #if defined(ARM_MATH_MVEI)
  48:../Dave/Generated/CMSIS_DSP/Source/SupportFunctions/arm_fill_q15.c **** void arm_fill_q15(
  49:../Dave/Generated/CMSIS_DSP/Source/SupportFunctions/arm_fill_q15.c ****   q15_t value,
  50:../Dave/Generated/CMSIS_DSP/Source/SupportFunctions/arm_fill_q15.c ****   q15_t * pDst,
  51:../Dave/Generated/CMSIS_DSP/Source/SupportFunctions/arm_fill_q15.c ****   uint32_t blockSize)
  52:../Dave/Generated/CMSIS_DSP/Source/SupportFunctions/arm_fill_q15.c **** {
  53:../Dave/Generated/CMSIS_DSP/Source/SupportFunctions/arm_fill_q15.c ****   uint32_t blkCnt;  
  54:../Dave/Generated/CMSIS_DSP/Source/SupportFunctions/arm_fill_q15.c ****   blkCnt = blockSize >> 3;
  55:../Dave/Generated/CMSIS_DSP/Source/SupportFunctions/arm_fill_q15.c ****   while (blkCnt > 0U)
  56:../Dave/Generated/CMSIS_DSP/Source/SupportFunctions/arm_fill_q15.c ****   {
  57:../Dave/Generated/CMSIS_DSP/Source/SupportFunctions/arm_fill_q15.c **** 
  58:../Dave/Generated/CMSIS_DSP/Source/SupportFunctions/arm_fill_q15.c ****         vstrhq_s16(pDst,vdupq_n_s16(value));
  59:../Dave/Generated/CMSIS_DSP/Source/SupportFunctions/arm_fill_q15.c ****         /*
  60:../Dave/Generated/CMSIS_DSP/Source/SupportFunctions/arm_fill_q15.c ****          * Decrement the blockSize loop counter
  61:../Dave/Generated/CMSIS_DSP/Source/SupportFunctions/arm_fill_q15.c ****          * Advance vector source and destination pointers
  62:../Dave/Generated/CMSIS_DSP/Source/SupportFunctions/arm_fill_q15.c ****          */
  63:../Dave/Generated/CMSIS_DSP/Source/SupportFunctions/arm_fill_q15.c ****         pDst += 8;
  64:../Dave/Generated/CMSIS_DSP/Source/SupportFunctions/arm_fill_q15.c ****         blkCnt --;
  65:../Dave/Generated/CMSIS_DSP/Source/SupportFunctions/arm_fill_q15.c ****     }
  66:../Dave/Generated/CMSIS_DSP/Source/SupportFunctions/arm_fill_q15.c **** 
  67:../Dave/Generated/CMSIS_DSP/Source/SupportFunctions/arm_fill_q15.c ****   blkCnt = blockSize & 7;
  68:../Dave/Generated/CMSIS_DSP/Source/SupportFunctions/arm_fill_q15.c ****   while (blkCnt > 0U)
  69:../Dave/Generated/CMSIS_DSP/Source/SupportFunctions/arm_fill_q15.c ****   {
  70:../Dave/Generated/CMSIS_DSP/Source/SupportFunctions/arm_fill_q15.c ****     /* C = value */
  71:../Dave/Generated/CMSIS_DSP/Source/SupportFunctions/arm_fill_q15.c **** 
  72:../Dave/Generated/CMSIS_DSP/Source/SupportFunctions/arm_fill_q15.c ****     /* Fill value in destination buffer */
  73:../Dave/Generated/CMSIS_DSP/Source/SupportFunctions/arm_fill_q15.c ****     *pDst++ = value;
  74:../Dave/Generated/CMSIS_DSP/Source/SupportFunctions/arm_fill_q15.c **** 
  75:../Dave/Generated/CMSIS_DSP/Source/SupportFunctions/arm_fill_q15.c ****     /* Decrement loop counter */
  76:../Dave/Generated/CMSIS_DSP/Source/SupportFunctions/arm_fill_q15.c ****     blkCnt--;
  77:../Dave/Generated/CMSIS_DSP/Source/SupportFunctions/arm_fill_q15.c ****   }
  78:../Dave/Generated/CMSIS_DSP/Source/SupportFunctions/arm_fill_q15.c **** }
  79:../Dave/Generated/CMSIS_DSP/Source/SupportFunctions/arm_fill_q15.c **** 
  80:../Dave/Generated/CMSIS_DSP/Source/SupportFunctions/arm_fill_q15.c **** #else
  81:../Dave/Generated/CMSIS_DSP/Source/SupportFunctions/arm_fill_q15.c **** void arm_fill_q15(
  82:../Dave/Generated/CMSIS_DSP/Source/SupportFunctions/arm_fill_q15.c ****   q15_t value,
  83:../Dave/Generated/CMSIS_DSP/Source/SupportFunctions/arm_fill_q15.c ****   q15_t * pDst,
  84:../Dave/Generated/CMSIS_DSP/Source/SupportFunctions/arm_fill_q15.c ****   uint32_t blockSize)
  85:../Dave/Generated/CMSIS_DSP/Source/SupportFunctions/arm_fill_q15.c **** {
  28              	 .loc 1 85 0
  29              	 .cfi_startproc
  30              	 
  31              	 
  32              	 
  33 0000 80B4     	 push {r7}
  34              	.LCFI0:
  35              	 .cfi_def_cfa_offset 4
  36              	 .cfi_offset 7,-4
  37 0002 87B0     	 sub sp,sp,#28
  38              	.LCFI1:
  39              	 .cfi_def_cfa_offset 32
  40 0004 00AF     	 add r7,sp,#0
  41              	.LCFI2:
  42              	 .cfi_def_cfa_register 7
  43 0006 0346     	 mov r3,r0
  44 0008 B960     	 str r1,[r7,#8]
  45 000a 7A60     	 str r2,[r7,#4]
  46 000c FB81     	 strh r3,[r7,#14]
  86:../Dave/Generated/CMSIS_DSP/Source/SupportFunctions/arm_fill_q15.c ****   uint32_t blkCnt;                               /* Loop counter */
  87:../Dave/Generated/CMSIS_DSP/Source/SupportFunctions/arm_fill_q15.c **** 
  88:../Dave/Generated/CMSIS_DSP/Source/SupportFunctions/arm_fill_q15.c **** #if defined (ARM_MATH_LOOPUNROLL)
  89:../Dave/Generated/CMSIS_DSP/Source/SupportFunctions/arm_fill_q15.c ****   q31_t packedValue;                             /* value packed to 32 bits */
  90:../Dave/Generated/CMSIS_DSP/Source/SupportFunctions/arm_fill_q15.c **** 
  91:../Dave/Generated/CMSIS_DSP/Source/SupportFunctions/arm_fill_q15.c ****   /* Packing two 16 bit values to 32 bit value in order to use SIMD */
  92:../Dave/Generated/CMSIS_DSP/Source/SupportFunctions/arm_fill_q15.c ****   packedValue = __PKHBT(value, value, 16U);
  93:../Dave/Generated/CMSIS_DSP/Source/SupportFunctions/arm_fill_q15.c **** 
  94:../Dave/Generated/CMSIS_DSP/Source/SupportFunctions/arm_fill_q15.c ****   /* Loop unrolling: Compute 4 outputs at a time */
  95:../Dave/Generated/CMSIS_DSP/Source/SupportFunctions/arm_fill_q15.c ****   blkCnt = blockSize >> 2U;
  96:../Dave/Generated/CMSIS_DSP/Source/SupportFunctions/arm_fill_q15.c **** 
  97:../Dave/Generated/CMSIS_DSP/Source/SupportFunctions/arm_fill_q15.c ****   while (blkCnt > 0U)
  98:../Dave/Generated/CMSIS_DSP/Source/SupportFunctions/arm_fill_q15.c ****   {
  99:../Dave/Generated/CMSIS_DSP/Source/SupportFunctions/arm_fill_q15.c ****     /* C = value */
 100:../Dave/Generated/CMSIS_DSP/Source/SupportFunctions/arm_fill_q15.c **** 
 101:../Dave/Generated/CMSIS_DSP/Source/SupportFunctions/arm_fill_q15.c ****     /* fill 2 times 2 samples at a time */
 102:../Dave/Generated/CMSIS_DSP/Source/SupportFunctions/arm_fill_q15.c ****     write_q15x2_ia (&pDst, packedValue);
 103:../Dave/Generated/CMSIS_DSP/Source/SupportFunctions/arm_fill_q15.c ****     write_q15x2_ia (&pDst, packedValue);
 104:../Dave/Generated/CMSIS_DSP/Source/SupportFunctions/arm_fill_q15.c **** 
 105:../Dave/Generated/CMSIS_DSP/Source/SupportFunctions/arm_fill_q15.c ****     /* Decrement loop counter */
 106:../Dave/Generated/CMSIS_DSP/Source/SupportFunctions/arm_fill_q15.c ****     blkCnt--;
 107:../Dave/Generated/CMSIS_DSP/Source/SupportFunctions/arm_fill_q15.c ****   }
 108:../Dave/Generated/CMSIS_DSP/Source/SupportFunctions/arm_fill_q15.c **** 
 109:../Dave/Generated/CMSIS_DSP/Source/SupportFunctions/arm_fill_q15.c ****   /* Loop unrolling: Compute remaining outputs */
 110:../Dave/Generated/CMSIS_DSP/Source/SupportFunctions/arm_fill_q15.c ****   blkCnt = blockSize % 0x4U;
 111:../Dave/Generated/CMSIS_DSP/Source/SupportFunctions/arm_fill_q15.c **** 
 112:../Dave/Generated/CMSIS_DSP/Source/SupportFunctions/arm_fill_q15.c **** #else
 113:../Dave/Generated/CMSIS_DSP/Source/SupportFunctions/arm_fill_q15.c **** 
 114:../Dave/Generated/CMSIS_DSP/Source/SupportFunctions/arm_fill_q15.c ****   /* Initialize blkCnt with number of samples */
 115:../Dave/Generated/CMSIS_DSP/Source/SupportFunctions/arm_fill_q15.c ****   blkCnt = blockSize;
  47              	 .loc 1 115 0
  48 000e 7B68     	 ldr r3,[r7,#4]
  49 0010 7B61     	 str r3,[r7,#20]
 116:../Dave/Generated/CMSIS_DSP/Source/SupportFunctions/arm_fill_q15.c **** 
 117:../Dave/Generated/CMSIS_DSP/Source/SupportFunctions/arm_fill_q15.c **** #endif /* #if defined (ARM_MATH_LOOPUNROLL) */
 118:../Dave/Generated/CMSIS_DSP/Source/SupportFunctions/arm_fill_q15.c **** 
 119:../Dave/Generated/CMSIS_DSP/Source/SupportFunctions/arm_fill_q15.c ****   while (blkCnt > 0U)
  50              	 .loc 1 119 0
  51 0012 07E0     	 b .L2
  52              	.L3:
 120:../Dave/Generated/CMSIS_DSP/Source/SupportFunctions/arm_fill_q15.c ****   {
 121:../Dave/Generated/CMSIS_DSP/Source/SupportFunctions/arm_fill_q15.c ****     /* C = value */
 122:../Dave/Generated/CMSIS_DSP/Source/SupportFunctions/arm_fill_q15.c **** 
 123:../Dave/Generated/CMSIS_DSP/Source/SupportFunctions/arm_fill_q15.c ****     /* Fill value in destination buffer */
 124:../Dave/Generated/CMSIS_DSP/Source/SupportFunctions/arm_fill_q15.c ****     *pDst++ = value;
  53              	 .loc 1 124 0
  54 0014 BB68     	 ldr r3,[r7,#8]
  55 0016 9A1C     	 adds r2,r3,#2
  56 0018 BA60     	 str r2,[r7,#8]
  57 001a FA89     	 ldrh r2,[r7,#14]
  58 001c 1A80     	 strh r2,[r3]
 125:../Dave/Generated/CMSIS_DSP/Source/SupportFunctions/arm_fill_q15.c **** 
 126:../Dave/Generated/CMSIS_DSP/Source/SupportFunctions/arm_fill_q15.c ****     /* Decrement loop counter */
 127:../Dave/Generated/CMSIS_DSP/Source/SupportFunctions/arm_fill_q15.c ****     blkCnt--;
  59              	 .loc 1 127 0
  60 001e 7B69     	 ldr r3,[r7,#20]
  61 0020 013B     	 subs r3,r3,#1
  62 0022 7B61     	 str r3,[r7,#20]
  63              	.L2:
 119:../Dave/Generated/CMSIS_DSP/Source/SupportFunctions/arm_fill_q15.c ****   {
  64              	 .loc 1 119 0
  65 0024 7B69     	 ldr r3,[r7,#20]
  66 0026 002B     	 cmp r3,#0
  67 0028 F4D1     	 bne .L3
 128:../Dave/Generated/CMSIS_DSP/Source/SupportFunctions/arm_fill_q15.c ****   }
 129:../Dave/Generated/CMSIS_DSP/Source/SupportFunctions/arm_fill_q15.c **** }
  68              	 .loc 1 129 0
  69 002a 1C37     	 adds r7,r7,#28
  70              	.LCFI3:
  71              	 .cfi_def_cfa_offset 4
  72 002c BD46     	 mov sp,r7
  73              	.LCFI4:
  74              	 .cfi_def_cfa_register 13
  75              	 
  76 002e 5DF8047B 	 ldr r7,[sp],#4
  77              	.LCFI5:
  78              	 .cfi_restore 7
  79              	 .cfi_def_cfa_offset 0
  80 0032 7047     	 bx lr
  81              	 .cfi_endproc
  82              	.LFE149:
  84              	 .text
  85              	.Letext0:
  86              	 .file 2 "c:\\infineon\\tools\\dave ide\\4.5.0.202105191637\\eclipse\\arm-gcc-49\\arm-none-eabi\\include\\machine\\_default_types.h"
  87              	 .file 3 "c:\\infineon\\tools\\dave ide\\4.5.0.202105191637\\eclipse\\arm-gcc-49\\arm-none-eabi\\include\\stdint.h"
  88              	 .file 4 "C:/Users/Rui Mendes/Desktop/DAVE/_Naive/_ForTesting/Dave/Generated/CMSIS_DSP/Include/arm_math.h"
  89              	 .file 5 "C:/Users/Rui Mendes/Desktop/DAVE/_Naive/_ForTesting/Libraries/CMSIS/Include/cmsis_gcc.h"