   1              	 .syntax unified
   2              	 .cpu cortex-m4
   3              	 .eabi_attribute 27,3
   4              	 .fpu fpv4-sp-d16
   5              	 .eabi_attribute 20,1
   6              	 .eabi_attribute 21,1
   7              	 .eabi_attribute 23,3
   8              	 .eabi_attribute 24,1
   9              	 .eabi_attribute 25,1
  10              	 .eabi_attribute 26,1
  11              	 .eabi_attribute 30,6
  12              	 .eabi_attribute 34,1
  13              	 .eabi_attribute 18,4
  14              	 .thumb
  15              	 .file "arm_copy_f32.c"
  16              	 .text
  17              	.Ltext0:
  18              	 .cfi_sections .debug_frame
  19              	 .section .text.arm_copy_f32,"ax",%progbits
  20              	 .align 2
  21              	 .global arm_copy_f32
  22              	 .thumb
  23              	 .thumb_func
  25              	arm_copy_f32:
  26              	.LFB149:
  27              	 .file 1 "../Dave/Generated/CMSIS_DSP/Source/SupportFunctions/arm_copy_f32.c"
   1:../Dave/Generated/CMSIS_DSP/Source/SupportFunctions/arm_copy_f32.c **** /* ----------------------------------------------------------------------
   2:../Dave/Generated/CMSIS_DSP/Source/SupportFunctions/arm_copy_f32.c ****  * Project:      CMSIS DSP Library
   3:../Dave/Generated/CMSIS_DSP/Source/SupportFunctions/arm_copy_f32.c ****  * Title:        arm_copy_f32.c
   4:../Dave/Generated/CMSIS_DSP/Source/SupportFunctions/arm_copy_f32.c ****  * Description:  Copies the elements of a floating-point vector
   5:../Dave/Generated/CMSIS_DSP/Source/SupportFunctions/arm_copy_f32.c ****  *
   6:../Dave/Generated/CMSIS_DSP/Source/SupportFunctions/arm_copy_f32.c ****  * $Date:        18. March 2019
   7:../Dave/Generated/CMSIS_DSP/Source/SupportFunctions/arm_copy_f32.c ****  * $Revision:    V1.6.0
   8:../Dave/Generated/CMSIS_DSP/Source/SupportFunctions/arm_copy_f32.c ****  *
   9:../Dave/Generated/CMSIS_DSP/Source/SupportFunctions/arm_copy_f32.c ****  * Target Processor: Cortex-M cores
  10:../Dave/Generated/CMSIS_DSP/Source/SupportFunctions/arm_copy_f32.c ****  * -------------------------------------------------------------------- */
  11:../Dave/Generated/CMSIS_DSP/Source/SupportFunctions/arm_copy_f32.c **** /*
  12:../Dave/Generated/CMSIS_DSP/Source/SupportFunctions/arm_copy_f32.c ****  * Copyright (C) 2010-2019 ARM Limited or its affiliates. All rights reserved.
  13:../Dave/Generated/CMSIS_DSP/Source/SupportFunctions/arm_copy_f32.c ****  *
  14:../Dave/Generated/CMSIS_DSP/Source/SupportFunctions/arm_copy_f32.c ****  * SPDX-License-Identifier: Apache-2.0
  15:../Dave/Generated/CMSIS_DSP/Source/SupportFunctions/arm_copy_f32.c ****  *
  16:../Dave/Generated/CMSIS_DSP/Source/SupportFunctions/arm_copy_f32.c ****  * Licensed under the Apache License, Version 2.0 (the License); you may
  17:../Dave/Generated/CMSIS_DSP/Source/SupportFunctions/arm_copy_f32.c ****  * not use this file except in compliance with the License.
  18:../Dave/Generated/CMSIS_DSP/Source/SupportFunctions/arm_copy_f32.c ****  * You may obtain a copy of the License at
  19:../Dave/Generated/CMSIS_DSP/Source/SupportFunctions/arm_copy_f32.c ****  *
  20:../Dave/Generated/CMSIS_DSP/Source/SupportFunctions/arm_copy_f32.c ****  * www.apache.org/licenses/LICENSE-2.0
  21:../Dave/Generated/CMSIS_DSP/Source/SupportFunctions/arm_copy_f32.c ****  *
  22:../Dave/Generated/CMSIS_DSP/Source/SupportFunctions/arm_copy_f32.c ****  * Unless required by applicable law or agreed to in writing, software
  23:../Dave/Generated/CMSIS_DSP/Source/SupportFunctions/arm_copy_f32.c ****  * distributed under the License is distributed on an AS IS BASIS, WITHOUT
  24:../Dave/Generated/CMSIS_DSP/Source/SupportFunctions/arm_copy_f32.c ****  * WARRANTIES OR CONDITIONS OF ANY KIND, either express or implied.
  25:../Dave/Generated/CMSIS_DSP/Source/SupportFunctions/arm_copy_f32.c ****  * See the License for the specific language governing permissions and
  26:../Dave/Generated/CMSIS_DSP/Source/SupportFunctions/arm_copy_f32.c ****  * limitations under the License.
  27:../Dave/Generated/CMSIS_DSP/Source/SupportFunctions/arm_copy_f32.c ****  */
  28:../Dave/Generated/CMSIS_DSP/Source/SupportFunctions/arm_copy_f32.c **** 
  29:../Dave/Generated/CMSIS_DSP/Source/SupportFunctions/arm_copy_f32.c **** #include "CMSIS_DSP/cmsis_dsp.h"
  30:../Dave/Generated/CMSIS_DSP/Source/SupportFunctions/arm_copy_f32.c **** 
  31:../Dave/Generated/CMSIS_DSP/Source/SupportFunctions/arm_copy_f32.c **** /**
  32:../Dave/Generated/CMSIS_DSP/Source/SupportFunctions/arm_copy_f32.c ****   @ingroup groupSupport
  33:../Dave/Generated/CMSIS_DSP/Source/SupportFunctions/arm_copy_f32.c ****  */
  34:../Dave/Generated/CMSIS_DSP/Source/SupportFunctions/arm_copy_f32.c **** 
  35:../Dave/Generated/CMSIS_DSP/Source/SupportFunctions/arm_copy_f32.c **** /**
  36:../Dave/Generated/CMSIS_DSP/Source/SupportFunctions/arm_copy_f32.c ****   @defgroup copy Vector Copy
  37:../Dave/Generated/CMSIS_DSP/Source/SupportFunctions/arm_copy_f32.c **** 
  38:../Dave/Generated/CMSIS_DSP/Source/SupportFunctions/arm_copy_f32.c ****   Copies sample by sample from source vector to destination vector.
  39:../Dave/Generated/CMSIS_DSP/Source/SupportFunctions/arm_copy_f32.c **** 
  40:../Dave/Generated/CMSIS_DSP/Source/SupportFunctions/arm_copy_f32.c ****   <pre>
  41:../Dave/Generated/CMSIS_DSP/Source/SupportFunctions/arm_copy_f32.c ****       pDst[n] = pSrc[n];   0 <= n < blockSize.
  42:../Dave/Generated/CMSIS_DSP/Source/SupportFunctions/arm_copy_f32.c ****   </pre>
  43:../Dave/Generated/CMSIS_DSP/Source/SupportFunctions/arm_copy_f32.c **** 
  44:../Dave/Generated/CMSIS_DSP/Source/SupportFunctions/arm_copy_f32.c ****   There are separate functions for floating point, Q31, Q15, and Q7 data types.
  45:../Dave/Generated/CMSIS_DSP/Source/SupportFunctions/arm_copy_f32.c ****  */
  46:../Dave/Generated/CMSIS_DSP/Source/SupportFunctions/arm_copy_f32.c **** 
  47:../Dave/Generated/CMSIS_DSP/Source/SupportFunctions/arm_copy_f32.c **** /**
  48:../Dave/Generated/CMSIS_DSP/Source/SupportFunctions/arm_copy_f32.c ****   @addtogroup copy
  49:../Dave/Generated/CMSIS_DSP/Source/SupportFunctions/arm_copy_f32.c ****   @{
  50:../Dave/Generated/CMSIS_DSP/Source/SupportFunctions/arm_copy_f32.c ****  */
  51:../Dave/Generated/CMSIS_DSP/Source/SupportFunctions/arm_copy_f32.c **** 
  52:../Dave/Generated/CMSIS_DSP/Source/SupportFunctions/arm_copy_f32.c **** /**
  53:../Dave/Generated/CMSIS_DSP/Source/SupportFunctions/arm_copy_f32.c ****   @brief         Copies the elements of a floating-point vector.
  54:../Dave/Generated/CMSIS_DSP/Source/SupportFunctions/arm_copy_f32.c ****   @param[in]     pSrc       points to input vector
  55:../Dave/Generated/CMSIS_DSP/Source/SupportFunctions/arm_copy_f32.c ****   @param[out]    pDst       points to output vector
  56:../Dave/Generated/CMSIS_DSP/Source/SupportFunctions/arm_copy_f32.c ****   @param[in]     blockSize  number of samples in each vector
  57:../Dave/Generated/CMSIS_DSP/Source/SupportFunctions/arm_copy_f32.c ****   @return        none
  58:../Dave/Generated/CMSIS_DSP/Source/SupportFunctions/arm_copy_f32.c ****  */
  59:../Dave/Generated/CMSIS_DSP/Source/SupportFunctions/arm_copy_f32.c **** #if defined(ARM_MATH_MVEF) && !defined(ARM_MATH_AUTOVECTORIZE)
  60:../Dave/Generated/CMSIS_DSP/Source/SupportFunctions/arm_copy_f32.c **** 
  61:../Dave/Generated/CMSIS_DSP/Source/SupportFunctions/arm_copy_f32.c **** void arm_copy_f32(
  62:../Dave/Generated/CMSIS_DSP/Source/SupportFunctions/arm_copy_f32.c ****   const float32_t * pSrc,
  63:../Dave/Generated/CMSIS_DSP/Source/SupportFunctions/arm_copy_f32.c ****   float32_t * pDst,
  64:../Dave/Generated/CMSIS_DSP/Source/SupportFunctions/arm_copy_f32.c ****   uint32_t blockSize)
  65:../Dave/Generated/CMSIS_DSP/Source/SupportFunctions/arm_copy_f32.c **** {
  66:../Dave/Generated/CMSIS_DSP/Source/SupportFunctions/arm_copy_f32.c ****   uint32_t blkCnt;
  67:../Dave/Generated/CMSIS_DSP/Source/SupportFunctions/arm_copy_f32.c ****   blkCnt = blockSize >> 2U;
  68:../Dave/Generated/CMSIS_DSP/Source/SupportFunctions/arm_copy_f32.c **** 
  69:../Dave/Generated/CMSIS_DSP/Source/SupportFunctions/arm_copy_f32.c ****   /* Compute 4 outputs at a time */
  70:../Dave/Generated/CMSIS_DSP/Source/SupportFunctions/arm_copy_f32.c ****   while (blkCnt > 0U)
  71:../Dave/Generated/CMSIS_DSP/Source/SupportFunctions/arm_copy_f32.c ****   {
  72:../Dave/Generated/CMSIS_DSP/Source/SupportFunctions/arm_copy_f32.c ****       vstrwq_f32(pDst, vldrwq_f32(pSrc));
  73:../Dave/Generated/CMSIS_DSP/Source/SupportFunctions/arm_copy_f32.c ****       /*
  74:../Dave/Generated/CMSIS_DSP/Source/SupportFunctions/arm_copy_f32.c ****        * Decrement the blockSize loop counter
  75:../Dave/Generated/CMSIS_DSP/Source/SupportFunctions/arm_copy_f32.c ****        * Advance vector source and destination pointers
  76:../Dave/Generated/CMSIS_DSP/Source/SupportFunctions/arm_copy_f32.c ****        */
  77:../Dave/Generated/CMSIS_DSP/Source/SupportFunctions/arm_copy_f32.c ****       pSrc += 4;
  78:../Dave/Generated/CMSIS_DSP/Source/SupportFunctions/arm_copy_f32.c ****       pDst += 4;
  79:../Dave/Generated/CMSIS_DSP/Source/SupportFunctions/arm_copy_f32.c ****       blkCnt --;
  80:../Dave/Generated/CMSIS_DSP/Source/SupportFunctions/arm_copy_f32.c ****   }
  81:../Dave/Generated/CMSIS_DSP/Source/SupportFunctions/arm_copy_f32.c **** 
  82:../Dave/Generated/CMSIS_DSP/Source/SupportFunctions/arm_copy_f32.c ****   blkCnt = blockSize & 3;
  83:../Dave/Generated/CMSIS_DSP/Source/SupportFunctions/arm_copy_f32.c **** 
  84:../Dave/Generated/CMSIS_DSP/Source/SupportFunctions/arm_copy_f32.c ****   while (blkCnt > 0U)
  85:../Dave/Generated/CMSIS_DSP/Source/SupportFunctions/arm_copy_f32.c ****   {
  86:../Dave/Generated/CMSIS_DSP/Source/SupportFunctions/arm_copy_f32.c ****     /* C = A */
  87:../Dave/Generated/CMSIS_DSP/Source/SupportFunctions/arm_copy_f32.c **** 
  88:../Dave/Generated/CMSIS_DSP/Source/SupportFunctions/arm_copy_f32.c ****     /* Copy and store result in destination buffer */
  89:../Dave/Generated/CMSIS_DSP/Source/SupportFunctions/arm_copy_f32.c ****     *pDst++ = *pSrc++;
  90:../Dave/Generated/CMSIS_DSP/Source/SupportFunctions/arm_copy_f32.c **** 
  91:../Dave/Generated/CMSIS_DSP/Source/SupportFunctions/arm_copy_f32.c ****     /* Decrement loop counter */
  92:../Dave/Generated/CMSIS_DSP/Source/SupportFunctions/arm_copy_f32.c ****     blkCnt--;
  93:../Dave/Generated/CMSIS_DSP/Source/SupportFunctions/arm_copy_f32.c ****   }
  94:../Dave/Generated/CMSIS_DSP/Source/SupportFunctions/arm_copy_f32.c ****     
  95:../Dave/Generated/CMSIS_DSP/Source/SupportFunctions/arm_copy_f32.c **** }
  96:../Dave/Generated/CMSIS_DSP/Source/SupportFunctions/arm_copy_f32.c **** 
  97:../Dave/Generated/CMSIS_DSP/Source/SupportFunctions/arm_copy_f32.c **** #else
  98:../Dave/Generated/CMSIS_DSP/Source/SupportFunctions/arm_copy_f32.c **** #if defined(ARM_MATH_NEON_EXPERIMENTAL)
  99:../Dave/Generated/CMSIS_DSP/Source/SupportFunctions/arm_copy_f32.c **** void arm_copy_f32(
 100:../Dave/Generated/CMSIS_DSP/Source/SupportFunctions/arm_copy_f32.c ****   const float32_t * pSrc,
 101:../Dave/Generated/CMSIS_DSP/Source/SupportFunctions/arm_copy_f32.c ****   float32_t * pDst,
 102:../Dave/Generated/CMSIS_DSP/Source/SupportFunctions/arm_copy_f32.c ****   uint32_t blockSize)
 103:../Dave/Generated/CMSIS_DSP/Source/SupportFunctions/arm_copy_f32.c **** {
 104:../Dave/Generated/CMSIS_DSP/Source/SupportFunctions/arm_copy_f32.c ****   uint32_t blkCnt;                               /* loop counter */
 105:../Dave/Generated/CMSIS_DSP/Source/SupportFunctions/arm_copy_f32.c **** 
 106:../Dave/Generated/CMSIS_DSP/Source/SupportFunctions/arm_copy_f32.c ****   float32x4_t inV;
 107:../Dave/Generated/CMSIS_DSP/Source/SupportFunctions/arm_copy_f32.c **** 
 108:../Dave/Generated/CMSIS_DSP/Source/SupportFunctions/arm_copy_f32.c ****   blkCnt = blockSize >> 2U;
 109:../Dave/Generated/CMSIS_DSP/Source/SupportFunctions/arm_copy_f32.c **** 
 110:../Dave/Generated/CMSIS_DSP/Source/SupportFunctions/arm_copy_f32.c ****   /* Compute 4 outputs at a time.
 111:../Dave/Generated/CMSIS_DSP/Source/SupportFunctions/arm_copy_f32.c ****    ** a second loop below computes the remaining 1 to 3 samples. */
 112:../Dave/Generated/CMSIS_DSP/Source/SupportFunctions/arm_copy_f32.c ****   while (blkCnt > 0U)
 113:../Dave/Generated/CMSIS_DSP/Source/SupportFunctions/arm_copy_f32.c ****   {
 114:../Dave/Generated/CMSIS_DSP/Source/SupportFunctions/arm_copy_f32.c ****     /* C = A */
 115:../Dave/Generated/CMSIS_DSP/Source/SupportFunctions/arm_copy_f32.c ****     /* Copy and then store the results in the destination buffer */
 116:../Dave/Generated/CMSIS_DSP/Source/SupportFunctions/arm_copy_f32.c ****     inV = vld1q_f32(pSrc);
 117:../Dave/Generated/CMSIS_DSP/Source/SupportFunctions/arm_copy_f32.c ****     vst1q_f32(pDst, inV);
 118:../Dave/Generated/CMSIS_DSP/Source/SupportFunctions/arm_copy_f32.c ****     pSrc += 4;
 119:../Dave/Generated/CMSIS_DSP/Source/SupportFunctions/arm_copy_f32.c ****     pDst += 4;
 120:../Dave/Generated/CMSIS_DSP/Source/SupportFunctions/arm_copy_f32.c **** 
 121:../Dave/Generated/CMSIS_DSP/Source/SupportFunctions/arm_copy_f32.c ****     /* Decrement the loop counter */
 122:../Dave/Generated/CMSIS_DSP/Source/SupportFunctions/arm_copy_f32.c ****     blkCnt--;
 123:../Dave/Generated/CMSIS_DSP/Source/SupportFunctions/arm_copy_f32.c ****   }
 124:../Dave/Generated/CMSIS_DSP/Source/SupportFunctions/arm_copy_f32.c **** 
 125:../Dave/Generated/CMSIS_DSP/Source/SupportFunctions/arm_copy_f32.c ****   /* If the blockSize is not a multiple of 4, compute any remaining output samples here.
 126:../Dave/Generated/CMSIS_DSP/Source/SupportFunctions/arm_copy_f32.c ****    ** No loop unrolling is used. */
 127:../Dave/Generated/CMSIS_DSP/Source/SupportFunctions/arm_copy_f32.c ****   blkCnt = blockSize & 3;
 128:../Dave/Generated/CMSIS_DSP/Source/SupportFunctions/arm_copy_f32.c **** 
 129:../Dave/Generated/CMSIS_DSP/Source/SupportFunctions/arm_copy_f32.c ****   while (blkCnt > 0U)
 130:../Dave/Generated/CMSIS_DSP/Source/SupportFunctions/arm_copy_f32.c ****   {
 131:../Dave/Generated/CMSIS_DSP/Source/SupportFunctions/arm_copy_f32.c ****     /* C = A */
 132:../Dave/Generated/CMSIS_DSP/Source/SupportFunctions/arm_copy_f32.c ****     /* Copy and then store the results in the destination buffer */
 133:../Dave/Generated/CMSIS_DSP/Source/SupportFunctions/arm_copy_f32.c ****     *pDst++ = *pSrc++;
 134:../Dave/Generated/CMSIS_DSP/Source/SupportFunctions/arm_copy_f32.c **** 
 135:../Dave/Generated/CMSIS_DSP/Source/SupportFunctions/arm_copy_f32.c ****     /* Decrement the loop counter */
 136:../Dave/Generated/CMSIS_DSP/Source/SupportFunctions/arm_copy_f32.c ****     blkCnt--;
 137:../Dave/Generated/CMSIS_DSP/Source/SupportFunctions/arm_copy_f32.c ****   }
 138:../Dave/Generated/CMSIS_DSP/Source/SupportFunctions/arm_copy_f32.c **** }
 139:../Dave/Generated/CMSIS_DSP/Source/SupportFunctions/arm_copy_f32.c **** #else
 140:../Dave/Generated/CMSIS_DSP/Source/SupportFunctions/arm_copy_f32.c **** void arm_copy_f32(
 141:../Dave/Generated/CMSIS_DSP/Source/SupportFunctions/arm_copy_f32.c ****   const float32_t * pSrc,
 142:../Dave/Generated/CMSIS_DSP/Source/SupportFunctions/arm_copy_f32.c ****         float32_t * pDst,
 143:../Dave/Generated/CMSIS_DSP/Source/SupportFunctions/arm_copy_f32.c ****         uint32_t blockSize)
 144:../Dave/Generated/CMSIS_DSP/Source/SupportFunctions/arm_copy_f32.c **** {
  28              	 .loc 1 144 0
  29              	 .cfi_startproc
  30              	 
  31              	 
  32              	 
  33 0000 80B4     	 push {r7}
  34              	.LCFI0:
  35              	 .cfi_def_cfa_offset 4
  36              	 .cfi_offset 7,-4
  37 0002 87B0     	 sub sp,sp,#28
  38              	.LCFI1:
  39              	 .cfi_def_cfa_offset 32
  40 0004 00AF     	 add r7,sp,#0
  41              	.LCFI2:
  42              	 .cfi_def_cfa_register 7
  43 0006 F860     	 str r0,[r7,#12]
  44 0008 B960     	 str r1,[r7,#8]
  45 000a 7A60     	 str r2,[r7,#4]
 145:../Dave/Generated/CMSIS_DSP/Source/SupportFunctions/arm_copy_f32.c ****   uint32_t blkCnt;                               /* Loop counter */
 146:../Dave/Generated/CMSIS_DSP/Source/SupportFunctions/arm_copy_f32.c **** 
 147:../Dave/Generated/CMSIS_DSP/Source/SupportFunctions/arm_copy_f32.c **** #if defined (ARM_MATH_LOOPUNROLL)
 148:../Dave/Generated/CMSIS_DSP/Source/SupportFunctions/arm_copy_f32.c **** 
 149:../Dave/Generated/CMSIS_DSP/Source/SupportFunctions/arm_copy_f32.c ****   /* Loop unrolling: Compute 4 outputs at a time */
 150:../Dave/Generated/CMSIS_DSP/Source/SupportFunctions/arm_copy_f32.c ****   blkCnt = blockSize >> 2U;
 151:../Dave/Generated/CMSIS_DSP/Source/SupportFunctions/arm_copy_f32.c **** 
 152:../Dave/Generated/CMSIS_DSP/Source/SupportFunctions/arm_copy_f32.c ****   while (blkCnt > 0U)
 153:../Dave/Generated/CMSIS_DSP/Source/SupportFunctions/arm_copy_f32.c ****   {
 154:../Dave/Generated/CMSIS_DSP/Source/SupportFunctions/arm_copy_f32.c ****     /* C = A */
 155:../Dave/Generated/CMSIS_DSP/Source/SupportFunctions/arm_copy_f32.c **** 
 156:../Dave/Generated/CMSIS_DSP/Source/SupportFunctions/arm_copy_f32.c ****     /* Copy and store result in destination buffer */
 157:../Dave/Generated/CMSIS_DSP/Source/SupportFunctions/arm_copy_f32.c ****     *pDst++ = *pSrc++;
 158:../Dave/Generated/CMSIS_DSP/Source/SupportFunctions/arm_copy_f32.c ****     *pDst++ = *pSrc++;
 159:../Dave/Generated/CMSIS_DSP/Source/SupportFunctions/arm_copy_f32.c ****     *pDst++ = *pSrc++;
 160:../Dave/Generated/CMSIS_DSP/Source/SupportFunctions/arm_copy_f32.c ****     *pDst++ = *pSrc++;
 161:../Dave/Generated/CMSIS_DSP/Source/SupportFunctions/arm_copy_f32.c **** 
 162:../Dave/Generated/CMSIS_DSP/Source/SupportFunctions/arm_copy_f32.c ****     /* Decrement loop counter */
 163:../Dave/Generated/CMSIS_DSP/Source/SupportFunctions/arm_copy_f32.c ****     blkCnt--;
 164:../Dave/Generated/CMSIS_DSP/Source/SupportFunctions/arm_copy_f32.c ****   }
 165:../Dave/Generated/CMSIS_DSP/Source/SupportFunctions/arm_copy_f32.c **** 
 166:../Dave/Generated/CMSIS_DSP/Source/SupportFunctions/arm_copy_f32.c ****   /* Loop unrolling: Compute remaining outputs */
 167:../Dave/Generated/CMSIS_DSP/Source/SupportFunctions/arm_copy_f32.c ****   blkCnt = blockSize % 0x4U;
 168:../Dave/Generated/CMSIS_DSP/Source/SupportFunctions/arm_copy_f32.c **** 
 169:../Dave/Generated/CMSIS_DSP/Source/SupportFunctions/arm_copy_f32.c **** #else
 170:../Dave/Generated/CMSIS_DSP/Source/SupportFunctions/arm_copy_f32.c **** 
 171:../Dave/Generated/CMSIS_DSP/Source/SupportFunctions/arm_copy_f32.c ****   /* Initialize blkCnt with number of samples */
 172:../Dave/Generated/CMSIS_DSP/Source/SupportFunctions/arm_copy_f32.c ****   blkCnt = blockSize;
  46              	 .loc 1 172 0
  47 000c 7B68     	 ldr r3,[r7,#4]
  48 000e 7B61     	 str r3,[r7,#20]
 173:../Dave/Generated/CMSIS_DSP/Source/SupportFunctions/arm_copy_f32.c **** 
 174:../Dave/Generated/CMSIS_DSP/Source/SupportFunctions/arm_copy_f32.c **** #endif /* #if defined (ARM_MATH_LOOPUNROLL) */
 175:../Dave/Generated/CMSIS_DSP/Source/SupportFunctions/arm_copy_f32.c **** 
 176:../Dave/Generated/CMSIS_DSP/Source/SupportFunctions/arm_copy_f32.c ****   while (blkCnt > 0U)
  49              	 .loc 1 176 0
  50 0010 0AE0     	 b .L2
  51              	.L3:
 177:../Dave/Generated/CMSIS_DSP/Source/SupportFunctions/arm_copy_f32.c ****   {
 178:../Dave/Generated/CMSIS_DSP/Source/SupportFunctions/arm_copy_f32.c ****     /* C = A */
 179:../Dave/Generated/CMSIS_DSP/Source/SupportFunctions/arm_copy_f32.c **** 
 180:../Dave/Generated/CMSIS_DSP/Source/SupportFunctions/arm_copy_f32.c ****     /* Copy and store result in destination buffer */
 181:../Dave/Generated/CMSIS_DSP/Source/SupportFunctions/arm_copy_f32.c ****     *pDst++ = *pSrc++;
  52              	 .loc 1 181 0
  53 0012 BB68     	 ldr r3,[r7,#8]
  54 0014 1A1D     	 adds r2,r3,#4
  55 0016 BA60     	 str r2,[r7,#8]
  56 0018 FA68     	 ldr r2,[r7,#12]
  57 001a 111D     	 adds r1,r2,#4
  58 001c F960     	 str r1,[r7,#12]
  59 001e 1268     	 ldr r2,[r2]
  60 0020 1A60     	 str r2,[r3]
 182:../Dave/Generated/CMSIS_DSP/Source/SupportFunctions/arm_copy_f32.c **** 
 183:../Dave/Generated/CMSIS_DSP/Source/SupportFunctions/arm_copy_f32.c ****     /* Decrement loop counter */
 184:../Dave/Generated/CMSIS_DSP/Source/SupportFunctions/arm_copy_f32.c ****     blkCnt--;
  61              	 .loc 1 184 0
  62 0022 7B69     	 ldr r3,[r7,#20]
  63 0024 013B     	 subs r3,r3,#1
  64 0026 7B61     	 str r3,[r7,#20]
  65              	.L2:
 176:../Dave/Generated/CMSIS_DSP/Source/SupportFunctions/arm_copy_f32.c ****   {
  66              	 .loc 1 176 0
  67 0028 7B69     	 ldr r3,[r7,#20]
  68 002a 002B     	 cmp r3,#0
  69 002c F1D1     	 bne .L3
 185:../Dave/Generated/CMSIS_DSP/Source/SupportFunctions/arm_copy_f32.c ****   }
 186:../Dave/Generated/CMSIS_DSP/Source/SupportFunctions/arm_copy_f32.c **** }
  70              	 .loc 1 186 0
  71 002e 1C37     	 adds r7,r7,#28
  72              	.LCFI3:
  73              	 .cfi_def_cfa_offset 4
  74 0030 BD46     	 mov sp,r7
  75              	.LCFI4:
  76              	 .cfi_def_cfa_register 13
  77              	 
  78 0032 5DF8047B 	 ldr r7,[sp],#4
  79              	.LCFI5:
  80              	 .cfi_restore 7
  81              	 .cfi_def_cfa_offset 0
  82 0036 7047     	 bx lr
  83              	 .cfi_endproc
  84              	.LFE149:
  86              	 .text
  87              	.Letext0:
  88              	 .file 2 "c:\\infineon\\tools\\dave ide\\4.5.0.202105191637\\eclipse\\arm-gcc-49\\arm-none-eabi\\include\\machine\\_default_types.h"
  89              	 .file 3 "c:\\infineon\\tools\\dave ide\\4.5.0.202105191637\\eclipse\\arm-gcc-49\\arm-none-eabi\\include\\stdint.h"
  90              	 .file 4 "C:/Users/Rui Mendes/Desktop/DAVE/_Naive/_ForTesting/Dave/Generated/CMSIS_DSP/Include/arm_math.h"
  91              	 .file 5 "C:/Users/Rui Mendes/Desktop/DAVE/_Naive/_ForTesting/Libraries/CMSIS/Include/cmsis_gcc.h"