   1              	 .syntax unified
   2              	 .cpu cortex-m4
   3              	 .eabi_attribute 27,3
   4              	 .fpu fpv4-sp-d16
   5              	 .eabi_attribute 20,1
   6              	 .eabi_attribute 21,1
   7              	 .eabi_attribute 23,3
   8              	 .eabi_attribute 24,1
   9              	 .eabi_attribute 25,1
  10              	 .eabi_attribute 26,1
  11              	 .eabi_attribute 30,6
  12              	 .eabi_attribute 34,1
  13              	 .eabi_attribute 18,4
  14              	 .thumb
  15              	 .file "arm_float_to_q7.c"
  16              	 .text
  17              	.Ltext0:
  18              	 .cfi_sections .debug_frame
  19              	 .section .text.arm_float_to_q7,"ax",%progbits
  20              	 .align 2
  21              	 .global arm_float_to_q7
  22              	 .thumb
  23              	 .thumb_func
  25              	arm_float_to_q7:
  26              	.LFB149:
  27              	 .file 1 "../Dave/Generated/CMSIS_DSP/Source/SupportFunctions/arm_float_to_q7.c"
   1:../Dave/Generated/CMSIS_DSP/Source/SupportFunctions/arm_float_to_q7.c **** /* ----------------------------------------------------------------------
   2:../Dave/Generated/CMSIS_DSP/Source/SupportFunctions/arm_float_to_q7.c ****  * Project:      CMSIS DSP Library
   3:../Dave/Generated/CMSIS_DSP/Source/SupportFunctions/arm_float_to_q7.c ****  * Title:        arm_float_to_q7.c
   4:../Dave/Generated/CMSIS_DSP/Source/SupportFunctions/arm_float_to_q7.c ****  * Description:  Converts the elements of the floating-point vector to Q7 vector
   5:../Dave/Generated/CMSIS_DSP/Source/SupportFunctions/arm_float_to_q7.c ****  *
   6:../Dave/Generated/CMSIS_DSP/Source/SupportFunctions/arm_float_to_q7.c ****  * $Date:        18. March 2019
   7:../Dave/Generated/CMSIS_DSP/Source/SupportFunctions/arm_float_to_q7.c ****  * $Revision:    V1.6.0
   8:../Dave/Generated/CMSIS_DSP/Source/SupportFunctions/arm_float_to_q7.c ****  *
   9:../Dave/Generated/CMSIS_DSP/Source/SupportFunctions/arm_float_to_q7.c ****  * Target Processor: Cortex-M cores
  10:../Dave/Generated/CMSIS_DSP/Source/SupportFunctions/arm_float_to_q7.c ****  * -------------------------------------------------------------------- */
  11:../Dave/Generated/CMSIS_DSP/Source/SupportFunctions/arm_float_to_q7.c **** /*
  12:../Dave/Generated/CMSIS_DSP/Source/SupportFunctions/arm_float_to_q7.c ****  * Copyright (C) 2010-2019 ARM Limited or its affiliates. All rights reserved.
  13:../Dave/Generated/CMSIS_DSP/Source/SupportFunctions/arm_float_to_q7.c ****  *
  14:../Dave/Generated/CMSIS_DSP/Source/SupportFunctions/arm_float_to_q7.c ****  * SPDX-License-Identifier: Apache-2.0
  15:../Dave/Generated/CMSIS_DSP/Source/SupportFunctions/arm_float_to_q7.c ****  *
  16:../Dave/Generated/CMSIS_DSP/Source/SupportFunctions/arm_float_to_q7.c ****  * Licensed under the Apache License, Version 2.0 (the License); you may
  17:../Dave/Generated/CMSIS_DSP/Source/SupportFunctions/arm_float_to_q7.c ****  * not use this file except in compliance with the License.
  18:../Dave/Generated/CMSIS_DSP/Source/SupportFunctions/arm_float_to_q7.c ****  * You may obtain a copy of the License at
  19:../Dave/Generated/CMSIS_DSP/Source/SupportFunctions/arm_float_to_q7.c ****  *
  20:../Dave/Generated/CMSIS_DSP/Source/SupportFunctions/arm_float_to_q7.c ****  * www.apache.org/licenses/LICENSE-2.0
  21:../Dave/Generated/CMSIS_DSP/Source/SupportFunctions/arm_float_to_q7.c ****  *
  22:../Dave/Generated/CMSIS_DSP/Source/SupportFunctions/arm_float_to_q7.c ****  * Unless required by applicable law or agreed to in writing, software
  23:../Dave/Generated/CMSIS_DSP/Source/SupportFunctions/arm_float_to_q7.c ****  * distributed under the License is distributed on an AS IS BASIS, WITHOUT
  24:../Dave/Generated/CMSIS_DSP/Source/SupportFunctions/arm_float_to_q7.c ****  * WARRANTIES OR CONDITIONS OF ANY KIND, either express or implied.
  25:../Dave/Generated/CMSIS_DSP/Source/SupportFunctions/arm_float_to_q7.c ****  * See the License for the specific language governing permissions and
  26:../Dave/Generated/CMSIS_DSP/Source/SupportFunctions/arm_float_to_q7.c ****  * limitations under the License.
  27:../Dave/Generated/CMSIS_DSP/Source/SupportFunctions/arm_float_to_q7.c ****  */
  28:../Dave/Generated/CMSIS_DSP/Source/SupportFunctions/arm_float_to_q7.c **** 
  29:../Dave/Generated/CMSIS_DSP/Source/SupportFunctions/arm_float_to_q7.c **** #include "CMSIS_DSP/cmsis_dsp.h"
  30:../Dave/Generated/CMSIS_DSP/Source/SupportFunctions/arm_float_to_q7.c **** 
  31:../Dave/Generated/CMSIS_DSP/Source/SupportFunctions/arm_float_to_q7.c **** /**
  32:../Dave/Generated/CMSIS_DSP/Source/SupportFunctions/arm_float_to_q7.c ****   @ingroup groupSupport
  33:../Dave/Generated/CMSIS_DSP/Source/SupportFunctions/arm_float_to_q7.c ****  */
  34:../Dave/Generated/CMSIS_DSP/Source/SupportFunctions/arm_float_to_q7.c **** 
  35:../Dave/Generated/CMSIS_DSP/Source/SupportFunctions/arm_float_to_q7.c **** /**
  36:../Dave/Generated/CMSIS_DSP/Source/SupportFunctions/arm_float_to_q7.c ****   @addtogroup float_to_x
  37:../Dave/Generated/CMSIS_DSP/Source/SupportFunctions/arm_float_to_q7.c ****   @{
  38:../Dave/Generated/CMSIS_DSP/Source/SupportFunctions/arm_float_to_q7.c ****  */
  39:../Dave/Generated/CMSIS_DSP/Source/SupportFunctions/arm_float_to_q7.c **** 
  40:../Dave/Generated/CMSIS_DSP/Source/SupportFunctions/arm_float_to_q7.c **** /**
  41:../Dave/Generated/CMSIS_DSP/Source/SupportFunctions/arm_float_to_q7.c ****  * @brief Converts the elements of the floating-point vector to Q7 vector.
  42:../Dave/Generated/CMSIS_DSP/Source/SupportFunctions/arm_float_to_q7.c ****  * @param[in]       *pSrc points to the floating-point input vector
  43:../Dave/Generated/CMSIS_DSP/Source/SupportFunctions/arm_float_to_q7.c ****  * @param[out]      *pDst points to the Q7 output vector
  44:../Dave/Generated/CMSIS_DSP/Source/SupportFunctions/arm_float_to_q7.c ****  * @param[in]       blockSize length of the input vector
  45:../Dave/Generated/CMSIS_DSP/Source/SupportFunctions/arm_float_to_q7.c ****  * @return none.
  46:../Dave/Generated/CMSIS_DSP/Source/SupportFunctions/arm_float_to_q7.c ****  *
  47:../Dave/Generated/CMSIS_DSP/Source/SupportFunctions/arm_float_to_q7.c ****  *\par Description:
  48:../Dave/Generated/CMSIS_DSP/Source/SupportFunctions/arm_float_to_q7.c ****  * \par
  49:../Dave/Generated/CMSIS_DSP/Source/SupportFunctions/arm_float_to_q7.c ****  * The equation used for the conversion process is:
  50:../Dave/Generated/CMSIS_DSP/Source/SupportFunctions/arm_float_to_q7.c ****  * <pre>
  51:../Dave/Generated/CMSIS_DSP/Source/SupportFunctions/arm_float_to_q7.c ****  * 	pDst[n] = (q7_t)(pSrc[n] * 128);   0 <= n < blockSize.
  52:../Dave/Generated/CMSIS_DSP/Source/SupportFunctions/arm_float_to_q7.c ****  * </pre>
  53:../Dave/Generated/CMSIS_DSP/Source/SupportFunctions/arm_float_to_q7.c ****  * \par Scaling and Overflow Behavior:
  54:../Dave/Generated/CMSIS_DSP/Source/SupportFunctions/arm_float_to_q7.c ****  * \par
  55:../Dave/Generated/CMSIS_DSP/Source/SupportFunctions/arm_float_to_q7.c ****  * The function uses saturating arithmetic.
  56:../Dave/Generated/CMSIS_DSP/Source/SupportFunctions/arm_float_to_q7.c ****  * Results outside of the allowable Q7 range [0x80 0x7F] will be saturated.
  57:../Dave/Generated/CMSIS_DSP/Source/SupportFunctions/arm_float_to_q7.c ****  * \note
  58:../Dave/Generated/CMSIS_DSP/Source/SupportFunctions/arm_float_to_q7.c ****  * In order to apply rounding, the library should be rebuilt with the ROUNDING macro
  59:../Dave/Generated/CMSIS_DSP/Source/SupportFunctions/arm_float_to_q7.c ****  * defined in the preprocessor section of project options.
  60:../Dave/Generated/CMSIS_DSP/Source/SupportFunctions/arm_float_to_q7.c ****  */
  61:../Dave/Generated/CMSIS_DSP/Source/SupportFunctions/arm_float_to_q7.c **** #if defined(ARM_MATH_MVEF) && !defined(ARM_MATH_AUTOVECTORIZE)
  62:../Dave/Generated/CMSIS_DSP/Source/SupportFunctions/arm_float_to_q7.c **** void arm_float_to_q7(
  63:../Dave/Generated/CMSIS_DSP/Source/SupportFunctions/arm_float_to_q7.c ****   const float32_t * pSrc,
  64:../Dave/Generated/CMSIS_DSP/Source/SupportFunctions/arm_float_to_q7.c ****   q7_t * pDst,
  65:../Dave/Generated/CMSIS_DSP/Source/SupportFunctions/arm_float_to_q7.c ****   uint32_t blockSize)
  66:../Dave/Generated/CMSIS_DSP/Source/SupportFunctions/arm_float_to_q7.c **** {
  67:../Dave/Generated/CMSIS_DSP/Source/SupportFunctions/arm_float_to_q7.c ****     uint32_t         blkCnt;     /* loop counters */
  68:../Dave/Generated/CMSIS_DSP/Source/SupportFunctions/arm_float_to_q7.c ****     float32_t       maxQ = powf(2.0, 7);
  69:../Dave/Generated/CMSIS_DSP/Source/SupportFunctions/arm_float_to_q7.c ****     f32x4x4_t       tmp;
  70:../Dave/Generated/CMSIS_DSP/Source/SupportFunctions/arm_float_to_q7.c ****     q15x8_t         evVec, oddVec;
  71:../Dave/Generated/CMSIS_DSP/Source/SupportFunctions/arm_float_to_q7.c ****     q7x16_t         vecDst;
  72:../Dave/Generated/CMSIS_DSP/Source/SupportFunctions/arm_float_to_q7.c ****     float32_t const *pSrcVec;
  73:../Dave/Generated/CMSIS_DSP/Source/SupportFunctions/arm_float_to_q7.c **** #ifdef ARM_MATH_ROUNDING
  74:../Dave/Generated/CMSIS_DSP/Source/SupportFunctions/arm_float_to_q7.c ****     float32_t in;
  75:../Dave/Generated/CMSIS_DSP/Source/SupportFunctions/arm_float_to_q7.c **** #endif
  76:../Dave/Generated/CMSIS_DSP/Source/SupportFunctions/arm_float_to_q7.c **** 
  77:../Dave/Generated/CMSIS_DSP/Source/SupportFunctions/arm_float_to_q7.c ****     pSrcVec = (float32_t const *) pSrc;
  78:../Dave/Generated/CMSIS_DSP/Source/SupportFunctions/arm_float_to_q7.c ****     blkCnt = blockSize >> 4;
  79:../Dave/Generated/CMSIS_DSP/Source/SupportFunctions/arm_float_to_q7.c ****     while (blkCnt > 0U) {
  80:../Dave/Generated/CMSIS_DSP/Source/SupportFunctions/arm_float_to_q7.c ****         tmp = vld4q(pSrcVec);
  81:../Dave/Generated/CMSIS_DSP/Source/SupportFunctions/arm_float_to_q7.c ****         pSrcVec += 16;
  82:../Dave/Generated/CMSIS_DSP/Source/SupportFunctions/arm_float_to_q7.c ****         /*
  83:../Dave/Generated/CMSIS_DSP/Source/SupportFunctions/arm_float_to_q7.c ****          * C = A * 128.0
  84:../Dave/Generated/CMSIS_DSP/Source/SupportFunctions/arm_float_to_q7.c ****          * convert from float to q7 and then store the results in the destination buffer
  85:../Dave/Generated/CMSIS_DSP/Source/SupportFunctions/arm_float_to_q7.c ****          */
  86:../Dave/Generated/CMSIS_DSP/Source/SupportFunctions/arm_float_to_q7.c ****         tmp.val[0] = vmulq(tmp.val[0], maxQ);
  87:../Dave/Generated/CMSIS_DSP/Source/SupportFunctions/arm_float_to_q7.c ****         tmp.val[1] = vmulq(tmp.val[1], maxQ);
  88:../Dave/Generated/CMSIS_DSP/Source/SupportFunctions/arm_float_to_q7.c ****         tmp.val[2] = vmulq(tmp.val[2], maxQ);
  89:../Dave/Generated/CMSIS_DSP/Source/SupportFunctions/arm_float_to_q7.c ****         tmp.val[3] = vmulq(tmp.val[3], maxQ);
  90:../Dave/Generated/CMSIS_DSP/Source/SupportFunctions/arm_float_to_q7.c **** 
  91:../Dave/Generated/CMSIS_DSP/Source/SupportFunctions/arm_float_to_q7.c ****         /*
  92:../Dave/Generated/CMSIS_DSP/Source/SupportFunctions/arm_float_to_q7.c ****          * convert and pack evens
  93:../Dave/Generated/CMSIS_DSP/Source/SupportFunctions/arm_float_to_q7.c ****          */
  94:../Dave/Generated/CMSIS_DSP/Source/SupportFunctions/arm_float_to_q7.c ****         evVec = vqmovnbq(evVec, vcvtaq_s32_f32(tmp.val[0]));
  95:../Dave/Generated/CMSIS_DSP/Source/SupportFunctions/arm_float_to_q7.c ****         evVec = vqmovntq(evVec, vcvtaq_s32_f32(tmp.val[2]));
  96:../Dave/Generated/CMSIS_DSP/Source/SupportFunctions/arm_float_to_q7.c ****         /*
  97:../Dave/Generated/CMSIS_DSP/Source/SupportFunctions/arm_float_to_q7.c ****          * convert and pack odds
  98:../Dave/Generated/CMSIS_DSP/Source/SupportFunctions/arm_float_to_q7.c ****          */
  99:../Dave/Generated/CMSIS_DSP/Source/SupportFunctions/arm_float_to_q7.c ****         oddVec = vqmovnbq(oddVec, vcvtaq_s32_f32(tmp.val[1]));
 100:../Dave/Generated/CMSIS_DSP/Source/SupportFunctions/arm_float_to_q7.c ****         oddVec = vqmovntq(oddVec, vcvtaq_s32_f32(tmp.val[3]));
 101:../Dave/Generated/CMSIS_DSP/Source/SupportFunctions/arm_float_to_q7.c ****         /*
 102:../Dave/Generated/CMSIS_DSP/Source/SupportFunctions/arm_float_to_q7.c ****          * merge
 103:../Dave/Generated/CMSIS_DSP/Source/SupportFunctions/arm_float_to_q7.c ****          */
 104:../Dave/Generated/CMSIS_DSP/Source/SupportFunctions/arm_float_to_q7.c ****         vecDst = vqmovnbq(vecDst, evVec);
 105:../Dave/Generated/CMSIS_DSP/Source/SupportFunctions/arm_float_to_q7.c ****         vecDst = vqmovntq(vecDst, oddVec);
 106:../Dave/Generated/CMSIS_DSP/Source/SupportFunctions/arm_float_to_q7.c **** 
 107:../Dave/Generated/CMSIS_DSP/Source/SupportFunctions/arm_float_to_q7.c ****         vst1q(pDst, vecDst);
 108:../Dave/Generated/CMSIS_DSP/Source/SupportFunctions/arm_float_to_q7.c ****         pDst += 16;
 109:../Dave/Generated/CMSIS_DSP/Source/SupportFunctions/arm_float_to_q7.c ****         /*
 110:../Dave/Generated/CMSIS_DSP/Source/SupportFunctions/arm_float_to_q7.c ****          * Decrement the blockSize loop counter
 111:../Dave/Generated/CMSIS_DSP/Source/SupportFunctions/arm_float_to_q7.c ****          */
 112:../Dave/Generated/CMSIS_DSP/Source/SupportFunctions/arm_float_to_q7.c ****         blkCnt--;
 113:../Dave/Generated/CMSIS_DSP/Source/SupportFunctions/arm_float_to_q7.c ****     }
 114:../Dave/Generated/CMSIS_DSP/Source/SupportFunctions/arm_float_to_q7.c **** 
 115:../Dave/Generated/CMSIS_DSP/Source/SupportFunctions/arm_float_to_q7.c ****   blkCnt = blockSize & 0xF;
 116:../Dave/Generated/CMSIS_DSP/Source/SupportFunctions/arm_float_to_q7.c ****   while (blkCnt > 0U)
 117:../Dave/Generated/CMSIS_DSP/Source/SupportFunctions/arm_float_to_q7.c ****   {
 118:../Dave/Generated/CMSIS_DSP/Source/SupportFunctions/arm_float_to_q7.c ****     /* C = A * 128 */
 119:../Dave/Generated/CMSIS_DSP/Source/SupportFunctions/arm_float_to_q7.c **** 
 120:../Dave/Generated/CMSIS_DSP/Source/SupportFunctions/arm_float_to_q7.c ****     /* Convert from float to q7 and store result in destination buffer */
 121:../Dave/Generated/CMSIS_DSP/Source/SupportFunctions/arm_float_to_q7.c **** #ifdef ARM_MATH_ROUNDING
 122:../Dave/Generated/CMSIS_DSP/Source/SupportFunctions/arm_float_to_q7.c **** 
 123:../Dave/Generated/CMSIS_DSP/Source/SupportFunctions/arm_float_to_q7.c ****     in = (*pSrcVec++ * 128);
 124:../Dave/Generated/CMSIS_DSP/Source/SupportFunctions/arm_float_to_q7.c ****     in += in > 0.0f ? 0.5f : -0.5f;
 125:../Dave/Generated/CMSIS_DSP/Source/SupportFunctions/arm_float_to_q7.c ****     *pDst++ = (q7_t) (__SSAT((q15_t) (in), 8));
 126:../Dave/Generated/CMSIS_DSP/Source/SupportFunctions/arm_float_to_q7.c **** 
 127:../Dave/Generated/CMSIS_DSP/Source/SupportFunctions/arm_float_to_q7.c **** #else
 128:../Dave/Generated/CMSIS_DSP/Source/SupportFunctions/arm_float_to_q7.c **** 
 129:../Dave/Generated/CMSIS_DSP/Source/SupportFunctions/arm_float_to_q7.c ****     *pDst++ = (q7_t) __SSAT((q31_t) (*pSrcVec++ * 128.0f), 8);
 130:../Dave/Generated/CMSIS_DSP/Source/SupportFunctions/arm_float_to_q7.c **** 
 131:../Dave/Generated/CMSIS_DSP/Source/SupportFunctions/arm_float_to_q7.c **** #endif /* #ifdef ARM_MATH_ROUNDING */
 132:../Dave/Generated/CMSIS_DSP/Source/SupportFunctions/arm_float_to_q7.c **** 
 133:../Dave/Generated/CMSIS_DSP/Source/SupportFunctions/arm_float_to_q7.c ****     /* Decrement loop counter */
 134:../Dave/Generated/CMSIS_DSP/Source/SupportFunctions/arm_float_to_q7.c ****     blkCnt--;
 135:../Dave/Generated/CMSIS_DSP/Source/SupportFunctions/arm_float_to_q7.c ****   }
 136:../Dave/Generated/CMSIS_DSP/Source/SupportFunctions/arm_float_to_q7.c **** 
 137:../Dave/Generated/CMSIS_DSP/Source/SupportFunctions/arm_float_to_q7.c **** }
 138:../Dave/Generated/CMSIS_DSP/Source/SupportFunctions/arm_float_to_q7.c **** #else
 139:../Dave/Generated/CMSIS_DSP/Source/SupportFunctions/arm_float_to_q7.c **** #if defined(ARM_MATH_NEON)
 140:../Dave/Generated/CMSIS_DSP/Source/SupportFunctions/arm_float_to_q7.c **** void arm_float_to_q7(
 141:../Dave/Generated/CMSIS_DSP/Source/SupportFunctions/arm_float_to_q7.c ****   const float32_t * pSrc,
 142:../Dave/Generated/CMSIS_DSP/Source/SupportFunctions/arm_float_to_q7.c ****   q7_t * pDst,
 143:../Dave/Generated/CMSIS_DSP/Source/SupportFunctions/arm_float_to_q7.c ****   uint32_t blockSize)
 144:../Dave/Generated/CMSIS_DSP/Source/SupportFunctions/arm_float_to_q7.c **** {
 145:../Dave/Generated/CMSIS_DSP/Source/SupportFunctions/arm_float_to_q7.c ****   const float32_t *pIn = pSrc;                         /* Src pointer */
 146:../Dave/Generated/CMSIS_DSP/Source/SupportFunctions/arm_float_to_q7.c ****   uint32_t blkCnt;                               /* loop counter */
 147:../Dave/Generated/CMSIS_DSP/Source/SupportFunctions/arm_float_to_q7.c **** 
 148:../Dave/Generated/CMSIS_DSP/Source/SupportFunctions/arm_float_to_q7.c ****   float32x4_t inV;
 149:../Dave/Generated/CMSIS_DSP/Source/SupportFunctions/arm_float_to_q7.c ****   #ifdef ARM_MATH_ROUNDING
 150:../Dave/Generated/CMSIS_DSP/Source/SupportFunctions/arm_float_to_q7.c ****   float32_t in;
 151:../Dave/Generated/CMSIS_DSP/Source/SupportFunctions/arm_float_to_q7.c ****   float32x4_t zeroV = vdupq_n_f32(0.0f);
 152:../Dave/Generated/CMSIS_DSP/Source/SupportFunctions/arm_float_to_q7.c ****   float32x4_t pHalf = vdupq_n_f32(0.5f / 128.0f);
 153:../Dave/Generated/CMSIS_DSP/Source/SupportFunctions/arm_float_to_q7.c ****   float32x4_t mHalf = vdupq_n_f32(-0.5f / 128.0f);
 154:../Dave/Generated/CMSIS_DSP/Source/SupportFunctions/arm_float_to_q7.c ****   float32x4_t r;
 155:../Dave/Generated/CMSIS_DSP/Source/SupportFunctions/arm_float_to_q7.c ****   uint32x4_t cmp;
 156:../Dave/Generated/CMSIS_DSP/Source/SupportFunctions/arm_float_to_q7.c ****   #endif
 157:../Dave/Generated/CMSIS_DSP/Source/SupportFunctions/arm_float_to_q7.c **** 
 158:../Dave/Generated/CMSIS_DSP/Source/SupportFunctions/arm_float_to_q7.c ****   int16x4_t cvt1,cvt2;
 159:../Dave/Generated/CMSIS_DSP/Source/SupportFunctions/arm_float_to_q7.c ****   int8x8_t outV;
 160:../Dave/Generated/CMSIS_DSP/Source/SupportFunctions/arm_float_to_q7.c **** 
 161:../Dave/Generated/CMSIS_DSP/Source/SupportFunctions/arm_float_to_q7.c ****   blkCnt = blockSize >> 3U;
 162:../Dave/Generated/CMSIS_DSP/Source/SupportFunctions/arm_float_to_q7.c **** 
 163:../Dave/Generated/CMSIS_DSP/Source/SupportFunctions/arm_float_to_q7.c ****   /* Compute 8 outputs at a time.
 164:../Dave/Generated/CMSIS_DSP/Source/SupportFunctions/arm_float_to_q7.c ****    ** a second loop below computes the remaining 1 to 7 samples. */
 165:../Dave/Generated/CMSIS_DSP/Source/SupportFunctions/arm_float_to_q7.c ****   while (blkCnt > 0U)
 166:../Dave/Generated/CMSIS_DSP/Source/SupportFunctions/arm_float_to_q7.c ****   {
 167:../Dave/Generated/CMSIS_DSP/Source/SupportFunctions/arm_float_to_q7.c **** 
 168:../Dave/Generated/CMSIS_DSP/Source/SupportFunctions/arm_float_to_q7.c **** #ifdef ARM_MATH_ROUNDING
 169:../Dave/Generated/CMSIS_DSP/Source/SupportFunctions/arm_float_to_q7.c ****     /* C = A * 128 */
 170:../Dave/Generated/CMSIS_DSP/Source/SupportFunctions/arm_float_to_q7.c ****     /* Convert from float to q7 and then store the results in the destination buffer */
 171:../Dave/Generated/CMSIS_DSP/Source/SupportFunctions/arm_float_to_q7.c ****     inV = vld1q_f32(pIn);
 172:../Dave/Generated/CMSIS_DSP/Source/SupportFunctions/arm_float_to_q7.c ****     cmp = vcgtq_f32(inV,zeroV);
 173:../Dave/Generated/CMSIS_DSP/Source/SupportFunctions/arm_float_to_q7.c ****     r = vbslq_f32(cmp,pHalf,mHalf);
 174:../Dave/Generated/CMSIS_DSP/Source/SupportFunctions/arm_float_to_q7.c ****     inV = vaddq_f32(inV, r);
 175:../Dave/Generated/CMSIS_DSP/Source/SupportFunctions/arm_float_to_q7.c ****     cvt1 = vqmovn_s32(vcvtq_n_s32_f32(inV,7));
 176:../Dave/Generated/CMSIS_DSP/Source/SupportFunctions/arm_float_to_q7.c ****     pIn += 4;
 177:../Dave/Generated/CMSIS_DSP/Source/SupportFunctions/arm_float_to_q7.c **** 
 178:../Dave/Generated/CMSIS_DSP/Source/SupportFunctions/arm_float_to_q7.c ****     inV = vld1q_f32(pIn);
 179:../Dave/Generated/CMSIS_DSP/Source/SupportFunctions/arm_float_to_q7.c ****     cmp = vcgtq_f32(inV,zeroV);
 180:../Dave/Generated/CMSIS_DSP/Source/SupportFunctions/arm_float_to_q7.c ****     r = vbslq_f32(cmp,pHalf,mHalf);
 181:../Dave/Generated/CMSIS_DSP/Source/SupportFunctions/arm_float_to_q7.c ****     inV = vaddq_f32(inV, r);
 182:../Dave/Generated/CMSIS_DSP/Source/SupportFunctions/arm_float_to_q7.c ****     cvt2 = vqmovn_s32(vcvtq_n_s32_f32(inV,7));
 183:../Dave/Generated/CMSIS_DSP/Source/SupportFunctions/arm_float_to_q7.c ****     pIn += 4;
 184:../Dave/Generated/CMSIS_DSP/Source/SupportFunctions/arm_float_to_q7.c ****     
 185:../Dave/Generated/CMSIS_DSP/Source/SupportFunctions/arm_float_to_q7.c ****     outV = vqmovn_s16(vcombine_s16(cvt1,cvt2));
 186:../Dave/Generated/CMSIS_DSP/Source/SupportFunctions/arm_float_to_q7.c ****     vst1_s8(pDst, outV);
 187:../Dave/Generated/CMSIS_DSP/Source/SupportFunctions/arm_float_to_q7.c ****     pDst += 8;
 188:../Dave/Generated/CMSIS_DSP/Source/SupportFunctions/arm_float_to_q7.c **** 
 189:../Dave/Generated/CMSIS_DSP/Source/SupportFunctions/arm_float_to_q7.c **** #else
 190:../Dave/Generated/CMSIS_DSP/Source/SupportFunctions/arm_float_to_q7.c **** 
 191:../Dave/Generated/CMSIS_DSP/Source/SupportFunctions/arm_float_to_q7.c ****     /* C = A * 128 */
 192:../Dave/Generated/CMSIS_DSP/Source/SupportFunctions/arm_float_to_q7.c ****     /* Convert from float to q7 and then store the results in the destination buffer */
 193:../Dave/Generated/CMSIS_DSP/Source/SupportFunctions/arm_float_to_q7.c ****     inV = vld1q_f32(pIn);
 194:../Dave/Generated/CMSIS_DSP/Source/SupportFunctions/arm_float_to_q7.c ****     cvt1 = vqmovn_s32(vcvtq_n_s32_f32(inV,7));
 195:../Dave/Generated/CMSIS_DSP/Source/SupportFunctions/arm_float_to_q7.c ****     pIn += 4;
 196:../Dave/Generated/CMSIS_DSP/Source/SupportFunctions/arm_float_to_q7.c **** 
 197:../Dave/Generated/CMSIS_DSP/Source/SupportFunctions/arm_float_to_q7.c ****     inV = vld1q_f32(pIn);
 198:../Dave/Generated/CMSIS_DSP/Source/SupportFunctions/arm_float_to_q7.c ****     cvt2 = vqmovn_s32(vcvtq_n_s32_f32(inV,7));
 199:../Dave/Generated/CMSIS_DSP/Source/SupportFunctions/arm_float_to_q7.c ****     pIn += 4;
 200:../Dave/Generated/CMSIS_DSP/Source/SupportFunctions/arm_float_to_q7.c **** 
 201:../Dave/Generated/CMSIS_DSP/Source/SupportFunctions/arm_float_to_q7.c ****     outV = vqmovn_s16(vcombine_s16(cvt1,cvt2));
 202:../Dave/Generated/CMSIS_DSP/Source/SupportFunctions/arm_float_to_q7.c **** 
 203:../Dave/Generated/CMSIS_DSP/Source/SupportFunctions/arm_float_to_q7.c ****     vst1_s8(pDst, outV);
 204:../Dave/Generated/CMSIS_DSP/Source/SupportFunctions/arm_float_to_q7.c ****     pDst += 8;
 205:../Dave/Generated/CMSIS_DSP/Source/SupportFunctions/arm_float_to_q7.c **** #endif /*      #ifdef ARM_MATH_ROUNDING        */
 206:../Dave/Generated/CMSIS_DSP/Source/SupportFunctions/arm_float_to_q7.c **** 
 207:../Dave/Generated/CMSIS_DSP/Source/SupportFunctions/arm_float_to_q7.c ****     /* Decrement the loop counter */
 208:../Dave/Generated/CMSIS_DSP/Source/SupportFunctions/arm_float_to_q7.c ****     blkCnt--;
 209:../Dave/Generated/CMSIS_DSP/Source/SupportFunctions/arm_float_to_q7.c ****   }
 210:../Dave/Generated/CMSIS_DSP/Source/SupportFunctions/arm_float_to_q7.c **** 
 211:../Dave/Generated/CMSIS_DSP/Source/SupportFunctions/arm_float_to_q7.c ****   /* If the blockSize is not a multiple of 4, compute any remaining output samples here.
 212:../Dave/Generated/CMSIS_DSP/Source/SupportFunctions/arm_float_to_q7.c ****    ** No loop unrolling is used. */
 213:../Dave/Generated/CMSIS_DSP/Source/SupportFunctions/arm_float_to_q7.c ****   blkCnt = blockSize & 7;
 214:../Dave/Generated/CMSIS_DSP/Source/SupportFunctions/arm_float_to_q7.c **** 
 215:../Dave/Generated/CMSIS_DSP/Source/SupportFunctions/arm_float_to_q7.c ****   while (blkCnt > 0U)
 216:../Dave/Generated/CMSIS_DSP/Source/SupportFunctions/arm_float_to_q7.c ****   {
 217:../Dave/Generated/CMSIS_DSP/Source/SupportFunctions/arm_float_to_q7.c **** 
 218:../Dave/Generated/CMSIS_DSP/Source/SupportFunctions/arm_float_to_q7.c **** #ifdef ARM_MATH_ROUNDING
 219:../Dave/Generated/CMSIS_DSP/Source/SupportFunctions/arm_float_to_q7.c ****     /* C = A * 128 */
 220:../Dave/Generated/CMSIS_DSP/Source/SupportFunctions/arm_float_to_q7.c ****     /* Convert from float to q7 and then store the results in the destination buffer */
 221:../Dave/Generated/CMSIS_DSP/Source/SupportFunctions/arm_float_to_q7.c ****     in = *pIn++;
 222:../Dave/Generated/CMSIS_DSP/Source/SupportFunctions/arm_float_to_q7.c ****     in = (in * 128);
 223:../Dave/Generated/CMSIS_DSP/Source/SupportFunctions/arm_float_to_q7.c ****     in += in > 0.0f ? 0.5f : -0.5f;
 224:../Dave/Generated/CMSIS_DSP/Source/SupportFunctions/arm_float_to_q7.c ****     *pDst++ = (q7_t) (__SSAT((q15_t) (in), 8));
 225:../Dave/Generated/CMSIS_DSP/Source/SupportFunctions/arm_float_to_q7.c **** 
 226:../Dave/Generated/CMSIS_DSP/Source/SupportFunctions/arm_float_to_q7.c **** #else
 227:../Dave/Generated/CMSIS_DSP/Source/SupportFunctions/arm_float_to_q7.c **** 
 228:../Dave/Generated/CMSIS_DSP/Source/SupportFunctions/arm_float_to_q7.c ****     /* C = A * 128 */
 229:../Dave/Generated/CMSIS_DSP/Source/SupportFunctions/arm_float_to_q7.c ****     /* Convert from float to q7 and then store the results in the destination buffer */
 230:../Dave/Generated/CMSIS_DSP/Source/SupportFunctions/arm_float_to_q7.c ****     *pDst++ = __SSAT((q31_t) (*pIn++ * 128.0f), 8);
 231:../Dave/Generated/CMSIS_DSP/Source/SupportFunctions/arm_float_to_q7.c **** 
 232:../Dave/Generated/CMSIS_DSP/Source/SupportFunctions/arm_float_to_q7.c **** #endif /*      #ifdef ARM_MATH_ROUNDING        */
 233:../Dave/Generated/CMSIS_DSP/Source/SupportFunctions/arm_float_to_q7.c **** 
 234:../Dave/Generated/CMSIS_DSP/Source/SupportFunctions/arm_float_to_q7.c ****     /* Decrement the loop counter */
 235:../Dave/Generated/CMSIS_DSP/Source/SupportFunctions/arm_float_to_q7.c ****     blkCnt--;
 236:../Dave/Generated/CMSIS_DSP/Source/SupportFunctions/arm_float_to_q7.c ****   }
 237:../Dave/Generated/CMSIS_DSP/Source/SupportFunctions/arm_float_to_q7.c **** 
 238:../Dave/Generated/CMSIS_DSP/Source/SupportFunctions/arm_float_to_q7.c **** }
 239:../Dave/Generated/CMSIS_DSP/Source/SupportFunctions/arm_float_to_q7.c **** #else
 240:../Dave/Generated/CMSIS_DSP/Source/SupportFunctions/arm_float_to_q7.c **** void arm_float_to_q7(
 241:../Dave/Generated/CMSIS_DSP/Source/SupportFunctions/arm_float_to_q7.c ****   const float32_t * pSrc,
 242:../Dave/Generated/CMSIS_DSP/Source/SupportFunctions/arm_float_to_q7.c ****         q7_t * pDst,
 243:../Dave/Generated/CMSIS_DSP/Source/SupportFunctions/arm_float_to_q7.c ****         uint32_t blockSize)
 244:../Dave/Generated/CMSIS_DSP/Source/SupportFunctions/arm_float_to_q7.c **** {
  28              	 .loc 1 244 0
  29              	 .cfi_startproc
  30              	 
  31              	 
  32              	 
  33 0000 80B4     	 push {r7}
  34              	.LCFI0:
  35              	 .cfi_def_cfa_offset 4
  36              	 .cfi_offset 7,-4
  37 0002 8BB0     	 sub sp,sp,#44
  38              	.LCFI1:
  39              	 .cfi_def_cfa_offset 48
  40 0004 00AF     	 add r7,sp,#0
  41              	.LCFI2:
  42              	 .cfi_def_cfa_register 7
  43 0006 F860     	 str r0,[r7,#12]
  44 0008 B960     	 str r1,[r7,#8]
  45 000a 7A60     	 str r2,[r7,#4]
 245:../Dave/Generated/CMSIS_DSP/Source/SupportFunctions/arm_float_to_q7.c ****         uint32_t blkCnt;                               /* Loop counter */
 246:../Dave/Generated/CMSIS_DSP/Source/SupportFunctions/arm_float_to_q7.c ****   const float32_t *pIn = pSrc;                         /* Source pointer */
  46              	 .loc 1 246 0
  47 000c FB68     	 ldr r3,[r7,#12]
  48 000e 3B62     	 str r3,[r7,#32]
 247:../Dave/Generated/CMSIS_DSP/Source/SupportFunctions/arm_float_to_q7.c **** 
 248:../Dave/Generated/CMSIS_DSP/Source/SupportFunctions/arm_float_to_q7.c **** #ifdef ARM_MATH_ROUNDING
 249:../Dave/Generated/CMSIS_DSP/Source/SupportFunctions/arm_float_to_q7.c ****         float32_t in;
 250:../Dave/Generated/CMSIS_DSP/Source/SupportFunctions/arm_float_to_q7.c **** #endif /* #ifdef ARM_MATH_ROUNDING */
 251:../Dave/Generated/CMSIS_DSP/Source/SupportFunctions/arm_float_to_q7.c **** 
 252:../Dave/Generated/CMSIS_DSP/Source/SupportFunctions/arm_float_to_q7.c **** #if defined (ARM_MATH_LOOPUNROLL)
 253:../Dave/Generated/CMSIS_DSP/Source/SupportFunctions/arm_float_to_q7.c **** 
 254:../Dave/Generated/CMSIS_DSP/Source/SupportFunctions/arm_float_to_q7.c ****   /* Loop unrolling: Compute 4 outputs at a time */
 255:../Dave/Generated/CMSIS_DSP/Source/SupportFunctions/arm_float_to_q7.c ****   blkCnt = blockSize >> 2U;
 256:../Dave/Generated/CMSIS_DSP/Source/SupportFunctions/arm_float_to_q7.c **** 
 257:../Dave/Generated/CMSIS_DSP/Source/SupportFunctions/arm_float_to_q7.c ****   while (blkCnt > 0U)
 258:../Dave/Generated/CMSIS_DSP/Source/SupportFunctions/arm_float_to_q7.c ****   {
 259:../Dave/Generated/CMSIS_DSP/Source/SupportFunctions/arm_float_to_q7.c ****     /* C = A * 128 */
 260:../Dave/Generated/CMSIS_DSP/Source/SupportFunctions/arm_float_to_q7.c **** 
 261:../Dave/Generated/CMSIS_DSP/Source/SupportFunctions/arm_float_to_q7.c ****     /* Convert from float to q7 and store result in destination buffer */
 262:../Dave/Generated/CMSIS_DSP/Source/SupportFunctions/arm_float_to_q7.c **** #ifdef ARM_MATH_ROUNDING
 263:../Dave/Generated/CMSIS_DSP/Source/SupportFunctions/arm_float_to_q7.c **** 
 264:../Dave/Generated/CMSIS_DSP/Source/SupportFunctions/arm_float_to_q7.c ****     in = (*pIn++ * 128);
 265:../Dave/Generated/CMSIS_DSP/Source/SupportFunctions/arm_float_to_q7.c ****     in += in > 0.0f ? 0.5f : -0.5f;
 266:../Dave/Generated/CMSIS_DSP/Source/SupportFunctions/arm_float_to_q7.c ****     *pDst++ = (q7_t) (__SSAT((q15_t) (in), 8));
 267:../Dave/Generated/CMSIS_DSP/Source/SupportFunctions/arm_float_to_q7.c **** 
 268:../Dave/Generated/CMSIS_DSP/Source/SupportFunctions/arm_float_to_q7.c ****     in = (*pIn++ * 128);
 269:../Dave/Generated/CMSIS_DSP/Source/SupportFunctions/arm_float_to_q7.c ****     in += in > 0.0f ? 0.5f : -0.5f;
 270:../Dave/Generated/CMSIS_DSP/Source/SupportFunctions/arm_float_to_q7.c ****     *pDst++ = (q7_t) (__SSAT((q15_t) (in), 8));
 271:../Dave/Generated/CMSIS_DSP/Source/SupportFunctions/arm_float_to_q7.c **** 
 272:../Dave/Generated/CMSIS_DSP/Source/SupportFunctions/arm_float_to_q7.c ****     in = (*pIn++ * 128);
 273:../Dave/Generated/CMSIS_DSP/Source/SupportFunctions/arm_float_to_q7.c ****     in += in > 0.0f ? 0.5f : -0.5f;
 274:../Dave/Generated/CMSIS_DSP/Source/SupportFunctions/arm_float_to_q7.c ****     *pDst++ = (q7_t) (__SSAT((q15_t) (in), 8));
 275:../Dave/Generated/CMSIS_DSP/Source/SupportFunctions/arm_float_to_q7.c **** 
 276:../Dave/Generated/CMSIS_DSP/Source/SupportFunctions/arm_float_to_q7.c ****     in = (*pIn++ * 128);
 277:../Dave/Generated/CMSIS_DSP/Source/SupportFunctions/arm_float_to_q7.c ****     in += in > 0.0f ? 0.5f : -0.5f;
 278:../Dave/Generated/CMSIS_DSP/Source/SupportFunctions/arm_float_to_q7.c ****     *pDst++ = (q7_t) (__SSAT((q15_t) (in), 8));
 279:../Dave/Generated/CMSIS_DSP/Source/SupportFunctions/arm_float_to_q7.c **** 
 280:../Dave/Generated/CMSIS_DSP/Source/SupportFunctions/arm_float_to_q7.c **** #else
 281:../Dave/Generated/CMSIS_DSP/Source/SupportFunctions/arm_float_to_q7.c **** 
 282:../Dave/Generated/CMSIS_DSP/Source/SupportFunctions/arm_float_to_q7.c ****     *pDst++ = __SSAT((q31_t) (*pIn++ * 128.0f), 8);
 283:../Dave/Generated/CMSIS_DSP/Source/SupportFunctions/arm_float_to_q7.c ****     *pDst++ = __SSAT((q31_t) (*pIn++ * 128.0f), 8);
 284:../Dave/Generated/CMSIS_DSP/Source/SupportFunctions/arm_float_to_q7.c ****     *pDst++ = __SSAT((q31_t) (*pIn++ * 128.0f), 8);
 285:../Dave/Generated/CMSIS_DSP/Source/SupportFunctions/arm_float_to_q7.c ****     *pDst++ = __SSAT((q31_t) (*pIn++ * 128.0f), 8);
 286:../Dave/Generated/CMSIS_DSP/Source/SupportFunctions/arm_float_to_q7.c **** 
 287:../Dave/Generated/CMSIS_DSP/Source/SupportFunctions/arm_float_to_q7.c **** #endif /* #ifdef ARM_MATH_ROUNDING */
 288:../Dave/Generated/CMSIS_DSP/Source/SupportFunctions/arm_float_to_q7.c **** 
 289:../Dave/Generated/CMSIS_DSP/Source/SupportFunctions/arm_float_to_q7.c ****     /* Decrement loop counter */
 290:../Dave/Generated/CMSIS_DSP/Source/SupportFunctions/arm_float_to_q7.c ****     blkCnt--;
 291:../Dave/Generated/CMSIS_DSP/Source/SupportFunctions/arm_float_to_q7.c ****   }
 292:../Dave/Generated/CMSIS_DSP/Source/SupportFunctions/arm_float_to_q7.c **** 
 293:../Dave/Generated/CMSIS_DSP/Source/SupportFunctions/arm_float_to_q7.c ****   /* Loop unrolling: Compute remaining outputs */
 294:../Dave/Generated/CMSIS_DSP/Source/SupportFunctions/arm_float_to_q7.c ****   blkCnt = blockSize % 0x4U;
 295:../Dave/Generated/CMSIS_DSP/Source/SupportFunctions/arm_float_to_q7.c **** 
 296:../Dave/Generated/CMSIS_DSP/Source/SupportFunctions/arm_float_to_q7.c **** #else
 297:../Dave/Generated/CMSIS_DSP/Source/SupportFunctions/arm_float_to_q7.c **** 
 298:../Dave/Generated/CMSIS_DSP/Source/SupportFunctions/arm_float_to_q7.c ****   /* Initialize blkCnt with number of samples */
 299:../Dave/Generated/CMSIS_DSP/Source/SupportFunctions/arm_float_to_q7.c ****   blkCnt = blockSize;
  49              	 .loc 1 299 0
  50 0010 7B68     	 ldr r3,[r7,#4]
  51 0012 7B62     	 str r3,[r7,#36]
 300:../Dave/Generated/CMSIS_DSP/Source/SupportFunctions/arm_float_to_q7.c **** 
 301:../Dave/Generated/CMSIS_DSP/Source/SupportFunctions/arm_float_to_q7.c **** #endif /* #if defined (ARM_MATH_LOOPUNROLL) */
 302:../Dave/Generated/CMSIS_DSP/Source/SupportFunctions/arm_float_to_q7.c **** 
 303:../Dave/Generated/CMSIS_DSP/Source/SupportFunctions/arm_float_to_q7.c ****   while (blkCnt > 0U)
  52              	 .loc 1 303 0
  53 0014 33E0     	 b .L2
  54              	.L6:
 304:../Dave/Generated/CMSIS_DSP/Source/SupportFunctions/arm_float_to_q7.c ****   {
 305:../Dave/Generated/CMSIS_DSP/Source/SupportFunctions/arm_float_to_q7.c ****     /* C = A * 128 */
 306:../Dave/Generated/CMSIS_DSP/Source/SupportFunctions/arm_float_to_q7.c **** 
 307:../Dave/Generated/CMSIS_DSP/Source/SupportFunctions/arm_float_to_q7.c ****     /* Convert from float to q7 and store result in destination buffer */
 308:../Dave/Generated/CMSIS_DSP/Source/SupportFunctions/arm_float_to_q7.c **** #ifdef ARM_MATH_ROUNDING
 309:../Dave/Generated/CMSIS_DSP/Source/SupportFunctions/arm_float_to_q7.c **** 
 310:../Dave/Generated/CMSIS_DSP/Source/SupportFunctions/arm_float_to_q7.c ****     in = (*pIn++ * 128);
  55              	 .loc 1 310 0
  56 0016 3B6A     	 ldr r3,[r7,#32]
  57 0018 1A1D     	 adds r2,r3,#4
  58 001a 3A62     	 str r2,[r7,#32]
  59 001c D3ED007A 	 flds s15,[r3]
  60 0020 9FED1B7A 	 flds s14,.L9
  61 0024 67EE877A 	 fmuls s15,s15,s14
  62 0028 C7ED077A 	 fsts s15,[r7,#28]
 311:../Dave/Generated/CMSIS_DSP/Source/SupportFunctions/arm_float_to_q7.c ****     in += in > 0.0f ? 0.5f : -0.5f;
  63              	 .loc 1 311 0
  64 002c D7ED077A 	 flds s15,[r7,#28]
  65 0030 F5EEC07A 	 fcmpezs s15
  66 0034 F1EE10FA 	 fmstat
  67 0038 02DD     	 ble .L8
  68              	 .loc 1 311 0 is_stmt 0 discriminator 1
  69 003a F6EE007A 	 fconsts s15,#96
  70 003e 01E0     	 b .L5
  71              	.L8:
  72              	 .loc 1 311 0 discriminator 2
  73 0040 FEEE007A 	 fconsts s15,#224
  74              	.L5:
  75              	 .loc 1 311 0 discriminator 4
  76 0044 97ED077A 	 flds s14,[r7,#28]
  77 0048 77EE277A 	 fadds s15,s14,s15
  78 004c C7ED077A 	 fsts s15,[r7,#28]
 312:../Dave/Generated/CMSIS_DSP/Source/SupportFunctions/arm_float_to_q7.c ****     *pDst++ = (q7_t) (__SSAT((q15_t) (in), 8));
  79              	 .loc 1 312 0 is_stmt 1 discriminator 4
  80 0050 BB68     	 ldr r3,[r7,#8]
  81 0052 5A1C     	 adds r2,r3,#1
  82 0054 BA60     	 str r2,[r7,#8]
  83              	.LBB2:
  84 0056 D7ED077A 	 flds s15,[r7,#28]
  85 005a FDEEE77A 	 ftosizs s15,s15
  86 005e C7ED007A 	 fsts s15,[r7]
  87 0062 3A88     	 ldrh r2,[r7]
  88 0064 92B2     	 uxth r2,r2
  89 0066 12B2     	 sxth r2,r2
  90 0068 BA61     	 str r2,[r7,#24]
  91 006a BA69     	 ldr r2,[r7,#24]
  92              	
  93 006c 02F30702 	 ssat r2,#8,r2
  94              	
  95              	 .thumb
  96 0070 7A61     	 str r2,[r7,#20]
  97 0072 7A69     	 ldr r2,[r7,#20]
  98              	.LBE2:
  99 0074 D2B2     	 uxtb r2,r2
 100 0076 1A70     	 strb r2,[r3]
 313:../Dave/Generated/CMSIS_DSP/Source/SupportFunctions/arm_float_to_q7.c **** 
 314:../Dave/Generated/CMSIS_DSP/Source/SupportFunctions/arm_float_to_q7.c **** #else
 315:../Dave/Generated/CMSIS_DSP/Source/SupportFunctions/arm_float_to_q7.c **** 
 316:../Dave/Generated/CMSIS_DSP/Source/SupportFunctions/arm_float_to_q7.c ****     *pDst++ = (q7_t) __SSAT((q31_t) (*pIn++ * 128.0f), 8);
 317:../Dave/Generated/CMSIS_DSP/Source/SupportFunctions/arm_float_to_q7.c **** 
 318:../Dave/Generated/CMSIS_DSP/Source/SupportFunctions/arm_float_to_q7.c **** #endif /* #ifdef ARM_MATH_ROUNDING */
 319:../Dave/Generated/CMSIS_DSP/Source/SupportFunctions/arm_float_to_q7.c **** 
 320:../Dave/Generated/CMSIS_DSP/Source/SupportFunctions/arm_float_to_q7.c ****     /* Decrement loop counter */
 321:../Dave/Generated/CMSIS_DSP/Source/SupportFunctions/arm_float_to_q7.c ****     blkCnt--;
 101              	 .loc 1 321 0 discriminator 4
 102 0078 7B6A     	 ldr r3,[r7,#36]
 103 007a 013B     	 subs r3,r3,#1
 104 007c 7B62     	 str r3,[r7,#36]
 105              	.L2:
 303:../Dave/Generated/CMSIS_DSP/Source/SupportFunctions/arm_float_to_q7.c ****   {
 106              	 .loc 1 303 0
 107 007e 7B6A     	 ldr r3,[r7,#36]
 108 0080 002B     	 cmp r3,#0
 109 0082 C8D1     	 bne .L6
 322:../Dave/Generated/CMSIS_DSP/Source/SupportFunctions/arm_float_to_q7.c ****   }
 323:../Dave/Generated/CMSIS_DSP/Source/SupportFunctions/arm_float_to_q7.c **** 
 324:../Dave/Generated/CMSIS_DSP/Source/SupportFunctions/arm_float_to_q7.c **** }
 110              	 .loc 1 324 0
 111 0084 2C37     	 adds r7,r7,#44
 112              	.LCFI3:
 113              	 .cfi_def_cfa_offset 4
 114 0086 BD46     	 mov sp,r7
 115              	.LCFI4:
 116              	 .cfi_def_cfa_register 13
 117              	 
 118 0088 5DF8047B 	 ldr r7,[sp],#4
 119              	.LCFI5:
 120              	 .cfi_restore 7
 121              	 .cfi_def_cfa_offset 0
 122 008c 7047     	 bx lr
 123              	.L10:
 124 008e 00BF     	 .align 2
 125              	.L9:
 126 0090 00000043 	 .word 1124073472
 127              	 .cfi_endproc
 128              	.LFE149:
 130              	 .text
 131              	.Letext0:
 132              	 .file 2 "c:\\infineon\\tools\\dave ide\\4.5.0.202105191637\\eclipse\\arm-gcc-49\\arm-none-eabi\\include\\machine\\_default_types.h"
 133              	 .file 3 "c:\\infineon\\tools\\dave ide\\4.5.0.202105191637\\eclipse\\arm-gcc-49\\arm-none-eabi\\include\\stdint.h"
 134              	 .file 4 "C:/Users/Rui Mendes/Desktop/DAVE/_Naive/_ForTesting/Dave/Generated/CMSIS_DSP/Include/arm_math.h"
 135              	 .file 5 "C:/Users/Rui Mendes/Desktop/DAVE/_Naive/_ForTesting/Libraries/CMSIS/Include/cmsis_gcc.h"