   1              	 .syntax unified
   2              	 .cpu cortex-m4
   3              	 .eabi_attribute 27,3
   4              	 .fpu fpv4-sp-d16
   5              	 .eabi_attribute 20,1
   6              	 .eabi_attribute 21,1
   7              	 .eabi_attribute 23,3
   8              	 .eabi_attribute 24,1
   9              	 .eabi_attribute 25,1
  10              	 .eabi_attribute 26,1
  11              	 .eabi_attribute 30,6
  12              	 .eabi_attribute 34,1
  13              	 .eabi_attribute 18,4
  14              	 .thumb
  15              	 .file "arm_q7_to_float.c"
  16              	 .text
  17              	.Ltext0:
  18              	 .cfi_sections .debug_frame
  19              	 .section .text.arm_q7_to_float,"ax",%progbits
  20              	 .align 2
  21              	 .global arm_q7_to_float
  22              	 .thumb
  23              	 .thumb_func
  25              	arm_q7_to_float:
  26              	.LFB149:
  27              	 .file 1 "../Dave/Generated/CMSIS_DSP/Source/SupportFunctions/arm_q7_to_float.c"
   1:../Dave/Generated/CMSIS_DSP/Source/SupportFunctions/arm_q7_to_float.c **** /* ----------------------------------------------------------------------
   2:../Dave/Generated/CMSIS_DSP/Source/SupportFunctions/arm_q7_to_float.c ****  * Project:      CMSIS DSP Library
   3:../Dave/Generated/CMSIS_DSP/Source/SupportFunctions/arm_q7_to_float.c ****  * Title:        arm_q7_to_float.c
   4:../Dave/Generated/CMSIS_DSP/Source/SupportFunctions/arm_q7_to_float.c ****  * Description:  Converts the elements of the Q7 vector to floating-point vector
   5:../Dave/Generated/CMSIS_DSP/Source/SupportFunctions/arm_q7_to_float.c ****  *
   6:../Dave/Generated/CMSIS_DSP/Source/SupportFunctions/arm_q7_to_float.c ****  * $Date:        18. March 2019
   7:../Dave/Generated/CMSIS_DSP/Source/SupportFunctions/arm_q7_to_float.c ****  * $Revision:    V1.6.0
   8:../Dave/Generated/CMSIS_DSP/Source/SupportFunctions/arm_q7_to_float.c ****  *
   9:../Dave/Generated/CMSIS_DSP/Source/SupportFunctions/arm_q7_to_float.c ****  * Target Processor: Cortex-M cores
  10:../Dave/Generated/CMSIS_DSP/Source/SupportFunctions/arm_q7_to_float.c ****  * -------------------------------------------------------------------- */
  11:../Dave/Generated/CMSIS_DSP/Source/SupportFunctions/arm_q7_to_float.c **** /*
  12:../Dave/Generated/CMSIS_DSP/Source/SupportFunctions/arm_q7_to_float.c ****  * Copyright (C) 2010-2019 ARM Limited or its affiliates. All rights reserved.
  13:../Dave/Generated/CMSIS_DSP/Source/SupportFunctions/arm_q7_to_float.c ****  *
  14:../Dave/Generated/CMSIS_DSP/Source/SupportFunctions/arm_q7_to_float.c ****  * SPDX-License-Identifier: Apache-2.0
  15:../Dave/Generated/CMSIS_DSP/Source/SupportFunctions/arm_q7_to_float.c ****  *
  16:../Dave/Generated/CMSIS_DSP/Source/SupportFunctions/arm_q7_to_float.c ****  * Licensed under the Apache License, Version 2.0 (the License); you may
  17:../Dave/Generated/CMSIS_DSP/Source/SupportFunctions/arm_q7_to_float.c ****  * not use this file except in compliance with the License.
  18:../Dave/Generated/CMSIS_DSP/Source/SupportFunctions/arm_q7_to_float.c ****  * You may obtain a copy of the License at
  19:../Dave/Generated/CMSIS_DSP/Source/SupportFunctions/arm_q7_to_float.c ****  *
  20:../Dave/Generated/CMSIS_DSP/Source/SupportFunctions/arm_q7_to_float.c ****  * www.apache.org/licenses/LICENSE-2.0
  21:../Dave/Generated/CMSIS_DSP/Source/SupportFunctions/arm_q7_to_float.c ****  *
  22:../Dave/Generated/CMSIS_DSP/Source/SupportFunctions/arm_q7_to_float.c ****  * Unless required by applicable law or agreed to in writing, software
  23:../Dave/Generated/CMSIS_DSP/Source/SupportFunctions/arm_q7_to_float.c ****  * distributed under the License is distributed on an AS IS BASIS, WITHOUT
  24:../Dave/Generated/CMSIS_DSP/Source/SupportFunctions/arm_q7_to_float.c ****  * WARRANTIES OR CONDITIONS OF ANY KIND, either express or implied.
  25:../Dave/Generated/CMSIS_DSP/Source/SupportFunctions/arm_q7_to_float.c ****  * See the License for the specific language governing permissions and
  26:../Dave/Generated/CMSIS_DSP/Source/SupportFunctions/arm_q7_to_float.c ****  * limitations under the License.
  27:../Dave/Generated/CMSIS_DSP/Source/SupportFunctions/arm_q7_to_float.c ****  */
  28:../Dave/Generated/CMSIS_DSP/Source/SupportFunctions/arm_q7_to_float.c **** 
  29:../Dave/Generated/CMSIS_DSP/Source/SupportFunctions/arm_q7_to_float.c **** #include "CMSIS_DSP/cmsis_dsp.h"
  30:../Dave/Generated/CMSIS_DSP/Source/SupportFunctions/arm_q7_to_float.c **** 
  31:../Dave/Generated/CMSIS_DSP/Source/SupportFunctions/arm_q7_to_float.c **** /**
  32:../Dave/Generated/CMSIS_DSP/Source/SupportFunctions/arm_q7_to_float.c ****   @ingroup groupSupport
  33:../Dave/Generated/CMSIS_DSP/Source/SupportFunctions/arm_q7_to_float.c ****  */
  34:../Dave/Generated/CMSIS_DSP/Source/SupportFunctions/arm_q7_to_float.c **** 
  35:../Dave/Generated/CMSIS_DSP/Source/SupportFunctions/arm_q7_to_float.c **** /**
  36:../Dave/Generated/CMSIS_DSP/Source/SupportFunctions/arm_q7_to_float.c ****  * @defgroup q7_to_x  Convert 8-bit Integer value
  37:../Dave/Generated/CMSIS_DSP/Source/SupportFunctions/arm_q7_to_float.c ****  */
  38:../Dave/Generated/CMSIS_DSP/Source/SupportFunctions/arm_q7_to_float.c **** 
  39:../Dave/Generated/CMSIS_DSP/Source/SupportFunctions/arm_q7_to_float.c **** /**
  40:../Dave/Generated/CMSIS_DSP/Source/SupportFunctions/arm_q7_to_float.c ****   @addtogroup q7_to_x
  41:../Dave/Generated/CMSIS_DSP/Source/SupportFunctions/arm_q7_to_float.c ****   @{
  42:../Dave/Generated/CMSIS_DSP/Source/SupportFunctions/arm_q7_to_float.c ****  */
  43:../Dave/Generated/CMSIS_DSP/Source/SupportFunctions/arm_q7_to_float.c **** 
  44:../Dave/Generated/CMSIS_DSP/Source/SupportFunctions/arm_q7_to_float.c **** /**
  45:../Dave/Generated/CMSIS_DSP/Source/SupportFunctions/arm_q7_to_float.c ****   @brief         Converts the elements of the Q7 vector to floating-point vector.
  46:../Dave/Generated/CMSIS_DSP/Source/SupportFunctions/arm_q7_to_float.c ****   @param[in]     pSrc       points to the Q7 input vector
  47:../Dave/Generated/CMSIS_DSP/Source/SupportFunctions/arm_q7_to_float.c ****   @param[out]    pDst       points to the floating-point output vector
  48:../Dave/Generated/CMSIS_DSP/Source/SupportFunctions/arm_q7_to_float.c ****   @param[in]     blockSize  number of samples in each vector
  49:../Dave/Generated/CMSIS_DSP/Source/SupportFunctions/arm_q7_to_float.c ****   @return        none
  50:../Dave/Generated/CMSIS_DSP/Source/SupportFunctions/arm_q7_to_float.c **** 
  51:../Dave/Generated/CMSIS_DSP/Source/SupportFunctions/arm_q7_to_float.c ****  @par            Details
  52:../Dave/Generated/CMSIS_DSP/Source/SupportFunctions/arm_q7_to_float.c ****                    The equation used for the conversion process is:
  53:../Dave/Generated/CMSIS_DSP/Source/SupportFunctions/arm_q7_to_float.c ****   <pre>
  54:../Dave/Generated/CMSIS_DSP/Source/SupportFunctions/arm_q7_to_float.c ****       pDst[n] = (float32_t) pSrc[n] / 128;   0 <= n < blockSize.
  55:../Dave/Generated/CMSIS_DSP/Source/SupportFunctions/arm_q7_to_float.c ****   </pre>
  56:../Dave/Generated/CMSIS_DSP/Source/SupportFunctions/arm_q7_to_float.c ****  */
  57:../Dave/Generated/CMSIS_DSP/Source/SupportFunctions/arm_q7_to_float.c **** #if defined(ARM_MATH_MVEF) && !defined(ARM_MATH_AUTOVECTORIZE)
  58:../Dave/Generated/CMSIS_DSP/Source/SupportFunctions/arm_q7_to_float.c **** void arm_q7_to_float(
  59:../Dave/Generated/CMSIS_DSP/Source/SupportFunctions/arm_q7_to_float.c ****   const q7_t * pSrc,
  60:../Dave/Generated/CMSIS_DSP/Source/SupportFunctions/arm_q7_to_float.c ****   float32_t * pDst,
  61:../Dave/Generated/CMSIS_DSP/Source/SupportFunctions/arm_q7_to_float.c ****   uint32_t blockSize)
  62:../Dave/Generated/CMSIS_DSP/Source/SupportFunctions/arm_q7_to_float.c **** {
  63:../Dave/Generated/CMSIS_DSP/Source/SupportFunctions/arm_q7_to_float.c ****     uint32_t  blkCnt;           /* loop counters */
  64:../Dave/Generated/CMSIS_DSP/Source/SupportFunctions/arm_q7_to_float.c ****     q7x16_t vecDst;
  65:../Dave/Generated/CMSIS_DSP/Source/SupportFunctions/arm_q7_to_float.c ****     q7_t const *pSrcVec;
  66:../Dave/Generated/CMSIS_DSP/Source/SupportFunctions/arm_q7_to_float.c **** 
  67:../Dave/Generated/CMSIS_DSP/Source/SupportFunctions/arm_q7_to_float.c ****     pSrcVec = (q7_t const *) pSrc;
  68:../Dave/Generated/CMSIS_DSP/Source/SupportFunctions/arm_q7_to_float.c ****     blkCnt = blockSize >> 2;
  69:../Dave/Generated/CMSIS_DSP/Source/SupportFunctions/arm_q7_to_float.c ****     while (blkCnt > 0U)
  70:../Dave/Generated/CMSIS_DSP/Source/SupportFunctions/arm_q7_to_float.c ****     {
  71:../Dave/Generated/CMSIS_DSP/Source/SupportFunctions/arm_q7_to_float.c ****         /* C = (float32_t) A / 32768 */
  72:../Dave/Generated/CMSIS_DSP/Source/SupportFunctions/arm_q7_to_float.c ****         /* convert from q7 to float and then store the results in the destination buffer */
  73:../Dave/Generated/CMSIS_DSP/Source/SupportFunctions/arm_q7_to_float.c ****         vecDst = vldrbq_s32(pSrcVec);    
  74:../Dave/Generated/CMSIS_DSP/Source/SupportFunctions/arm_q7_to_float.c ****         pSrcVec += 4;
  75:../Dave/Generated/CMSIS_DSP/Source/SupportFunctions/arm_q7_to_float.c ****         vstrwq(pDst, vcvtq_n_f32_s32(vecDst, 7));   
  76:../Dave/Generated/CMSIS_DSP/Source/SupportFunctions/arm_q7_to_float.c ****         pDst += 4;
  77:../Dave/Generated/CMSIS_DSP/Source/SupportFunctions/arm_q7_to_float.c ****         /*
  78:../Dave/Generated/CMSIS_DSP/Source/SupportFunctions/arm_q7_to_float.c ****          * Decrement the blockSize loop counter
  79:../Dave/Generated/CMSIS_DSP/Source/SupportFunctions/arm_q7_to_float.c ****          */
  80:../Dave/Generated/CMSIS_DSP/Source/SupportFunctions/arm_q7_to_float.c ****         blkCnt--;
  81:../Dave/Generated/CMSIS_DSP/Source/SupportFunctions/arm_q7_to_float.c ****     }
  82:../Dave/Generated/CMSIS_DSP/Source/SupportFunctions/arm_q7_to_float.c **** 
  83:../Dave/Generated/CMSIS_DSP/Source/SupportFunctions/arm_q7_to_float.c ****   blkCnt = blockSize & 3;
  84:../Dave/Generated/CMSIS_DSP/Source/SupportFunctions/arm_q7_to_float.c ****   while (blkCnt > 0U)
  85:../Dave/Generated/CMSIS_DSP/Source/SupportFunctions/arm_q7_to_float.c ****   {
  86:../Dave/Generated/CMSIS_DSP/Source/SupportFunctions/arm_q7_to_float.c ****     /* C = (float32_t) A / 128 */
  87:../Dave/Generated/CMSIS_DSP/Source/SupportFunctions/arm_q7_to_float.c **** 
  88:../Dave/Generated/CMSIS_DSP/Source/SupportFunctions/arm_q7_to_float.c ****     /* Convert from q7 to float and store result in destination buffer */
  89:../Dave/Generated/CMSIS_DSP/Source/SupportFunctions/arm_q7_to_float.c ****     *pDst++ = ((float32_t) * pSrcVec++ / 128.0f);
  90:../Dave/Generated/CMSIS_DSP/Source/SupportFunctions/arm_q7_to_float.c **** 
  91:../Dave/Generated/CMSIS_DSP/Source/SupportFunctions/arm_q7_to_float.c ****     /* Decrement loop counter */
  92:../Dave/Generated/CMSIS_DSP/Source/SupportFunctions/arm_q7_to_float.c ****     blkCnt--;
  93:../Dave/Generated/CMSIS_DSP/Source/SupportFunctions/arm_q7_to_float.c ****   }
  94:../Dave/Generated/CMSIS_DSP/Source/SupportFunctions/arm_q7_to_float.c **** }
  95:../Dave/Generated/CMSIS_DSP/Source/SupportFunctions/arm_q7_to_float.c **** #else
  96:../Dave/Generated/CMSIS_DSP/Source/SupportFunctions/arm_q7_to_float.c **** #if defined(ARM_MATH_NEON)
  97:../Dave/Generated/CMSIS_DSP/Source/SupportFunctions/arm_q7_to_float.c **** void arm_q7_to_float(
  98:../Dave/Generated/CMSIS_DSP/Source/SupportFunctions/arm_q7_to_float.c ****   const q7_t * pSrc,
  99:../Dave/Generated/CMSIS_DSP/Source/SupportFunctions/arm_q7_to_float.c ****   float32_t * pDst,
 100:../Dave/Generated/CMSIS_DSP/Source/SupportFunctions/arm_q7_to_float.c ****   uint32_t blockSize)
 101:../Dave/Generated/CMSIS_DSP/Source/SupportFunctions/arm_q7_to_float.c **** {
 102:../Dave/Generated/CMSIS_DSP/Source/SupportFunctions/arm_q7_to_float.c ****   const q7_t *pIn = pSrc;                              /* Src pointer */
 103:../Dave/Generated/CMSIS_DSP/Source/SupportFunctions/arm_q7_to_float.c ****   uint32_t blkCnt;                               /* loop counter */
 104:../Dave/Generated/CMSIS_DSP/Source/SupportFunctions/arm_q7_to_float.c **** 
 105:../Dave/Generated/CMSIS_DSP/Source/SupportFunctions/arm_q7_to_float.c ****   int8x16_t inV;
 106:../Dave/Generated/CMSIS_DSP/Source/SupportFunctions/arm_q7_to_float.c ****   int16x8_t inVLO, inVHI;
 107:../Dave/Generated/CMSIS_DSP/Source/SupportFunctions/arm_q7_to_float.c ****   int32x4_t inVLL, inVLH, inVHL, inVHH;
 108:../Dave/Generated/CMSIS_DSP/Source/SupportFunctions/arm_q7_to_float.c ****   float32x4_t outV;
 109:../Dave/Generated/CMSIS_DSP/Source/SupportFunctions/arm_q7_to_float.c **** 
 110:../Dave/Generated/CMSIS_DSP/Source/SupportFunctions/arm_q7_to_float.c ****   blkCnt = blockSize >> 4U;
 111:../Dave/Generated/CMSIS_DSP/Source/SupportFunctions/arm_q7_to_float.c **** 
 112:../Dave/Generated/CMSIS_DSP/Source/SupportFunctions/arm_q7_to_float.c ****   /* Compute 16 outputs at a time.
 113:../Dave/Generated/CMSIS_DSP/Source/SupportFunctions/arm_q7_to_float.c ****    ** a second loop below computes the remaining 1 to 15 samples. */
 114:../Dave/Generated/CMSIS_DSP/Source/SupportFunctions/arm_q7_to_float.c ****   while (blkCnt > 0U)
 115:../Dave/Generated/CMSIS_DSP/Source/SupportFunctions/arm_q7_to_float.c ****   {
 116:../Dave/Generated/CMSIS_DSP/Source/SupportFunctions/arm_q7_to_float.c ****     /* C = (float32_t) A / 128 */
 117:../Dave/Generated/CMSIS_DSP/Source/SupportFunctions/arm_q7_to_float.c ****     /* Convert from q7 to float and then store the results in the destination buffer */
 118:../Dave/Generated/CMSIS_DSP/Source/SupportFunctions/arm_q7_to_float.c ****     inV = vld1q_s8(pIn);
 119:../Dave/Generated/CMSIS_DSP/Source/SupportFunctions/arm_q7_to_float.c ****     pIn += 16;
 120:../Dave/Generated/CMSIS_DSP/Source/SupportFunctions/arm_q7_to_float.c **** 
 121:../Dave/Generated/CMSIS_DSP/Source/SupportFunctions/arm_q7_to_float.c ****     inVLO = vmovl_s8(vget_low_s8(inV));
 122:../Dave/Generated/CMSIS_DSP/Source/SupportFunctions/arm_q7_to_float.c ****     inVHI = vmovl_s8(vget_high_s8(inV));
 123:../Dave/Generated/CMSIS_DSP/Source/SupportFunctions/arm_q7_to_float.c **** 
 124:../Dave/Generated/CMSIS_DSP/Source/SupportFunctions/arm_q7_to_float.c ****     inVLL = vmovl_s16(vget_low_s16(inVLO));
 125:../Dave/Generated/CMSIS_DSP/Source/SupportFunctions/arm_q7_to_float.c ****     inVLH = vmovl_s16(vget_high_s16(inVLO));
 126:../Dave/Generated/CMSIS_DSP/Source/SupportFunctions/arm_q7_to_float.c ****     inVHL = vmovl_s16(vget_low_s16(inVHI));
 127:../Dave/Generated/CMSIS_DSP/Source/SupportFunctions/arm_q7_to_float.c ****     inVHH = vmovl_s16(vget_high_s16(inVHI));
 128:../Dave/Generated/CMSIS_DSP/Source/SupportFunctions/arm_q7_to_float.c **** 
 129:../Dave/Generated/CMSIS_DSP/Source/SupportFunctions/arm_q7_to_float.c ****     outV = vcvtq_n_f32_s32(inVLL,7);
 130:../Dave/Generated/CMSIS_DSP/Source/SupportFunctions/arm_q7_to_float.c ****     vst1q_f32(pDst, outV);
 131:../Dave/Generated/CMSIS_DSP/Source/SupportFunctions/arm_q7_to_float.c ****     pDst += 4;
 132:../Dave/Generated/CMSIS_DSP/Source/SupportFunctions/arm_q7_to_float.c **** 
 133:../Dave/Generated/CMSIS_DSP/Source/SupportFunctions/arm_q7_to_float.c ****     outV = vcvtq_n_f32_s32(inVLH,7);
 134:../Dave/Generated/CMSIS_DSP/Source/SupportFunctions/arm_q7_to_float.c ****     vst1q_f32(pDst, outV);
 135:../Dave/Generated/CMSIS_DSP/Source/SupportFunctions/arm_q7_to_float.c ****     pDst += 4;
 136:../Dave/Generated/CMSIS_DSP/Source/SupportFunctions/arm_q7_to_float.c **** 
 137:../Dave/Generated/CMSIS_DSP/Source/SupportFunctions/arm_q7_to_float.c ****     outV = vcvtq_n_f32_s32(inVHL,7);
 138:../Dave/Generated/CMSIS_DSP/Source/SupportFunctions/arm_q7_to_float.c ****     vst1q_f32(pDst, outV);
 139:../Dave/Generated/CMSIS_DSP/Source/SupportFunctions/arm_q7_to_float.c ****     pDst += 4;
 140:../Dave/Generated/CMSIS_DSP/Source/SupportFunctions/arm_q7_to_float.c **** 
 141:../Dave/Generated/CMSIS_DSP/Source/SupportFunctions/arm_q7_to_float.c ****     outV = vcvtq_n_f32_s32(inVHH,7);
 142:../Dave/Generated/CMSIS_DSP/Source/SupportFunctions/arm_q7_to_float.c ****     vst1q_f32(pDst, outV);
 143:../Dave/Generated/CMSIS_DSP/Source/SupportFunctions/arm_q7_to_float.c ****     pDst += 4;
 144:../Dave/Generated/CMSIS_DSP/Source/SupportFunctions/arm_q7_to_float.c **** 
 145:../Dave/Generated/CMSIS_DSP/Source/SupportFunctions/arm_q7_to_float.c ****     /* Decrement the loop counter */
 146:../Dave/Generated/CMSIS_DSP/Source/SupportFunctions/arm_q7_to_float.c ****     blkCnt--;
 147:../Dave/Generated/CMSIS_DSP/Source/SupportFunctions/arm_q7_to_float.c ****   }
 148:../Dave/Generated/CMSIS_DSP/Source/SupportFunctions/arm_q7_to_float.c **** 
 149:../Dave/Generated/CMSIS_DSP/Source/SupportFunctions/arm_q7_to_float.c ****   /* If the blockSize is not a multiple of 16, compute any remaining output samples here.
 150:../Dave/Generated/CMSIS_DSP/Source/SupportFunctions/arm_q7_to_float.c ****    ** No loop unrolling is used. */
 151:../Dave/Generated/CMSIS_DSP/Source/SupportFunctions/arm_q7_to_float.c ****   blkCnt = blockSize & 0xF;
 152:../Dave/Generated/CMSIS_DSP/Source/SupportFunctions/arm_q7_to_float.c **** 
 153:../Dave/Generated/CMSIS_DSP/Source/SupportFunctions/arm_q7_to_float.c ****   while (blkCnt > 0U)
 154:../Dave/Generated/CMSIS_DSP/Source/SupportFunctions/arm_q7_to_float.c ****   {
 155:../Dave/Generated/CMSIS_DSP/Source/SupportFunctions/arm_q7_to_float.c ****     /* C = (float32_t) A / 128 */
 156:../Dave/Generated/CMSIS_DSP/Source/SupportFunctions/arm_q7_to_float.c ****     /* Convert from q7 to float and then store the results in the destination buffer */
 157:../Dave/Generated/CMSIS_DSP/Source/SupportFunctions/arm_q7_to_float.c ****     *pDst++ = ((float32_t) * pIn++ / 128.0f);
 158:../Dave/Generated/CMSIS_DSP/Source/SupportFunctions/arm_q7_to_float.c **** 
 159:../Dave/Generated/CMSIS_DSP/Source/SupportFunctions/arm_q7_to_float.c ****     /* Decrement the loop counter */
 160:../Dave/Generated/CMSIS_DSP/Source/SupportFunctions/arm_q7_to_float.c ****     blkCnt--;
 161:../Dave/Generated/CMSIS_DSP/Source/SupportFunctions/arm_q7_to_float.c ****   }
 162:../Dave/Generated/CMSIS_DSP/Source/SupportFunctions/arm_q7_to_float.c **** }
 163:../Dave/Generated/CMSIS_DSP/Source/SupportFunctions/arm_q7_to_float.c **** #else
 164:../Dave/Generated/CMSIS_DSP/Source/SupportFunctions/arm_q7_to_float.c **** void arm_q7_to_float(
 165:../Dave/Generated/CMSIS_DSP/Source/SupportFunctions/arm_q7_to_float.c ****   const q7_t * pSrc,
 166:../Dave/Generated/CMSIS_DSP/Source/SupportFunctions/arm_q7_to_float.c ****         float32_t * pDst,
 167:../Dave/Generated/CMSIS_DSP/Source/SupportFunctions/arm_q7_to_float.c ****         uint32_t blockSize)
 168:../Dave/Generated/CMSIS_DSP/Source/SupportFunctions/arm_q7_to_float.c **** {
  28              	 .loc 1 168 0
  29              	 .cfi_startproc
  30              	 
  31              	 
  32              	 
  33 0000 80B4     	 push {r7}
  34              	.LCFI0:
  35              	 .cfi_def_cfa_offset 4
  36              	 .cfi_offset 7,-4
  37 0002 87B0     	 sub sp,sp,#28
  38              	.LCFI1:
  39              	 .cfi_def_cfa_offset 32
  40 0004 00AF     	 add r7,sp,#0
  41              	.LCFI2:
  42              	 .cfi_def_cfa_register 7
  43 0006 F860     	 str r0,[r7,#12]
  44 0008 B960     	 str r1,[r7,#8]
  45 000a 7A60     	 str r2,[r7,#4]
 169:../Dave/Generated/CMSIS_DSP/Source/SupportFunctions/arm_q7_to_float.c ****         uint32_t blkCnt;                               /* Loop counter */
 170:../Dave/Generated/CMSIS_DSP/Source/SupportFunctions/arm_q7_to_float.c ****   const q7_t *pIn = pSrc;                              /* Source pointer */
  46              	 .loc 1 170 0
  47 000c FB68     	 ldr r3,[r7,#12]
  48 000e 3B61     	 str r3,[r7,#16]
 171:../Dave/Generated/CMSIS_DSP/Source/SupportFunctions/arm_q7_to_float.c **** 
 172:../Dave/Generated/CMSIS_DSP/Source/SupportFunctions/arm_q7_to_float.c **** #if defined (ARM_MATH_LOOPUNROLL)
 173:../Dave/Generated/CMSIS_DSP/Source/SupportFunctions/arm_q7_to_float.c **** 
 174:../Dave/Generated/CMSIS_DSP/Source/SupportFunctions/arm_q7_to_float.c ****   /* Loop unrolling: Compute 4 outputs at a time */
 175:../Dave/Generated/CMSIS_DSP/Source/SupportFunctions/arm_q7_to_float.c ****   blkCnt = blockSize >> 2U;
 176:../Dave/Generated/CMSIS_DSP/Source/SupportFunctions/arm_q7_to_float.c **** 
 177:../Dave/Generated/CMSIS_DSP/Source/SupportFunctions/arm_q7_to_float.c ****   while (blkCnt > 0U)
 178:../Dave/Generated/CMSIS_DSP/Source/SupportFunctions/arm_q7_to_float.c ****   {
 179:../Dave/Generated/CMSIS_DSP/Source/SupportFunctions/arm_q7_to_float.c ****     /* C = (float32_t) A / 128 */
 180:../Dave/Generated/CMSIS_DSP/Source/SupportFunctions/arm_q7_to_float.c **** 
 181:../Dave/Generated/CMSIS_DSP/Source/SupportFunctions/arm_q7_to_float.c ****     /* Convert from q7 to float and store result in destination buffer */
 182:../Dave/Generated/CMSIS_DSP/Source/SupportFunctions/arm_q7_to_float.c ****     *pDst++ = ((float32_t) * pIn++ / 128.0f);
 183:../Dave/Generated/CMSIS_DSP/Source/SupportFunctions/arm_q7_to_float.c ****     *pDst++ = ((float32_t) * pIn++ / 128.0f);
 184:../Dave/Generated/CMSIS_DSP/Source/SupportFunctions/arm_q7_to_float.c ****     *pDst++ = ((float32_t) * pIn++ / 128.0f);
 185:../Dave/Generated/CMSIS_DSP/Source/SupportFunctions/arm_q7_to_float.c ****     *pDst++ = ((float32_t) * pIn++ / 128.0f);
 186:../Dave/Generated/CMSIS_DSP/Source/SupportFunctions/arm_q7_to_float.c **** 
 187:../Dave/Generated/CMSIS_DSP/Source/SupportFunctions/arm_q7_to_float.c ****     /* Decrement loop counter */
 188:../Dave/Generated/CMSIS_DSP/Source/SupportFunctions/arm_q7_to_float.c ****     blkCnt--;
 189:../Dave/Generated/CMSIS_DSP/Source/SupportFunctions/arm_q7_to_float.c ****   }
 190:../Dave/Generated/CMSIS_DSP/Source/SupportFunctions/arm_q7_to_float.c **** 
 191:../Dave/Generated/CMSIS_DSP/Source/SupportFunctions/arm_q7_to_float.c ****   /* Loop unrolling: Compute remaining outputs */
 192:../Dave/Generated/CMSIS_DSP/Source/SupportFunctions/arm_q7_to_float.c ****   blkCnt = blockSize % 0x4U;
 193:../Dave/Generated/CMSIS_DSP/Source/SupportFunctions/arm_q7_to_float.c **** 
 194:../Dave/Generated/CMSIS_DSP/Source/SupportFunctions/arm_q7_to_float.c **** #else
 195:../Dave/Generated/CMSIS_DSP/Source/SupportFunctions/arm_q7_to_float.c **** 
 196:../Dave/Generated/CMSIS_DSP/Source/SupportFunctions/arm_q7_to_float.c ****   /* Initialize blkCnt with number of samples */
 197:../Dave/Generated/CMSIS_DSP/Source/SupportFunctions/arm_q7_to_float.c ****   blkCnt = blockSize;
  49              	 .loc 1 197 0
  50 0010 7B68     	 ldr r3,[r7,#4]
  51 0012 7B61     	 str r3,[r7,#20]
 198:../Dave/Generated/CMSIS_DSP/Source/SupportFunctions/arm_q7_to_float.c **** 
 199:../Dave/Generated/CMSIS_DSP/Source/SupportFunctions/arm_q7_to_float.c **** #endif /* #if defined (ARM_MATH_LOOPUNROLL) */
 200:../Dave/Generated/CMSIS_DSP/Source/SupportFunctions/arm_q7_to_float.c **** 
 201:../Dave/Generated/CMSIS_DSP/Source/SupportFunctions/arm_q7_to_float.c ****   while (blkCnt > 0U)
  52              	 .loc 1 201 0
  53 0014 14E0     	 b .L2
  54              	.L3:
 202:../Dave/Generated/CMSIS_DSP/Source/SupportFunctions/arm_q7_to_float.c ****   {
 203:../Dave/Generated/CMSIS_DSP/Source/SupportFunctions/arm_q7_to_float.c ****     /* C = (float32_t) A / 128 */
 204:../Dave/Generated/CMSIS_DSP/Source/SupportFunctions/arm_q7_to_float.c **** 
 205:../Dave/Generated/CMSIS_DSP/Source/SupportFunctions/arm_q7_to_float.c ****     /* Convert from q7 to float and store result in destination buffer */
 206:../Dave/Generated/CMSIS_DSP/Source/SupportFunctions/arm_q7_to_float.c ****     *pDst++ = ((float32_t) * pIn++ / 128.0f);
  55              	 .loc 1 206 0
  56 0016 BB68     	 ldr r3,[r7,#8]
  57 0018 1A1D     	 adds r2,r3,#4
  58 001a BA60     	 str r2,[r7,#8]
  59 001c 3A69     	 ldr r2,[r7,#16]
  60 001e 511C     	 adds r1,r2,#1
  61 0020 3961     	 str r1,[r7,#16]
  62 0022 1278     	 ldrb r2,[r2]
  63 0024 52B2     	 sxtb r2,r2
  64 0026 07EE902A 	 fmsr s15,r2
  65 002a F8EEE77A 	 fsitos s15,s15
  66 002e 9FED087A 	 flds s14,.L4
  67 0032 C7EE877A 	 fdivs s15,s15,s14
  68 0036 C3ED007A 	 fsts s15,[r3]
 207:../Dave/Generated/CMSIS_DSP/Source/SupportFunctions/arm_q7_to_float.c **** 
 208:../Dave/Generated/CMSIS_DSP/Source/SupportFunctions/arm_q7_to_float.c ****     /* Decrement loop counter */
 209:../Dave/Generated/CMSIS_DSP/Source/SupportFunctions/arm_q7_to_float.c ****     blkCnt--;
  69              	 .loc 1 209 0
  70 003a 7B69     	 ldr r3,[r7,#20]
  71 003c 013B     	 subs r3,r3,#1
  72 003e 7B61     	 str r3,[r7,#20]
  73              	.L2:
 201:../Dave/Generated/CMSIS_DSP/Source/SupportFunctions/arm_q7_to_float.c ****   {
  74              	 .loc 1 201 0
  75 0040 7B69     	 ldr r3,[r7,#20]
  76 0042 002B     	 cmp r3,#0
  77 0044 E7D1     	 bne .L3
 210:../Dave/Generated/CMSIS_DSP/Source/SupportFunctions/arm_q7_to_float.c ****   }
 211:../Dave/Generated/CMSIS_DSP/Source/SupportFunctions/arm_q7_to_float.c **** 
 212:../Dave/Generated/CMSIS_DSP/Source/SupportFunctions/arm_q7_to_float.c **** }
  78              	 .loc 1 212 0
  79 0046 1C37     	 adds r7,r7,#28
  80              	.LCFI3:
  81              	 .cfi_def_cfa_offset 4
  82 0048 BD46     	 mov sp,r7
  83              	.LCFI4:
  84              	 .cfi_def_cfa_register 13
  85              	 
  86 004a 5DF8047B 	 ldr r7,[sp],#4
  87              	.LCFI5:
  88              	 .cfi_restore 7
  89              	 .cfi_def_cfa_offset 0
  90 004e 7047     	 bx lr
  91              	.L5:
  92              	 .align 2
  93              	.L4:
  94 0050 00000043 	 .word 1124073472
  95              	 .cfi_endproc
  96              	.LFE149:
  98              	 .text
  99              	.Letext0:
 100              	 .file 2 "c:\\infineon\\tools\\dave ide\\4.5.0.202105191637\\eclipse\\arm-gcc-49\\arm-none-eabi\\include\\machine\\_default_types.h"
 101              	 .file 3 "c:\\infineon\\tools\\dave ide\\4.5.0.202105191637\\eclipse\\arm-gcc-49\\arm-none-eabi\\include\\stdint.h"
 102              	 .file 4 "C:/Users/Rui Mendes/Desktop/DAVE/_Naive/_ForTesting/Dave/Generated/CMSIS_DSP/Include/arm_math.h"
 103              	 .file 5 "C:/Users/Rui Mendes/Desktop/DAVE/_Naive/_ForTesting/Libraries/CMSIS/Include/cmsis_gcc.h"