   1              	 .syntax unified
   2              	 .cpu cortex-m4
   3              	 .eabi_attribute 27,3
   4              	 .fpu fpv4-sp-d16
   5              	 .eabi_attribute 20,1
   6              	 .eabi_attribute 21,1
   7              	 .eabi_attribute 23,3
   8              	 .eabi_attribute 24,1
   9              	 .eabi_attribute 25,1
  10              	 .eabi_attribute 26,1
  11              	 .eabi_attribute 30,6
  12              	 .eabi_attribute 34,1
  13              	 .eabi_attribute 18,4
  14              	 .thumb
  15              	 .file "arm_merge_sort_init_f32.c"
  16              	 .text
  17              	.Ltext0:
  18              	 .cfi_sections .debug_frame
  19              	 .section .text.arm_merge_sort_init_f32,"ax",%progbits
  20              	 .align 2
  21              	 .global arm_merge_sort_init_f32
  22              	 .thumb
  23              	 .thumb_func
  25              	arm_merge_sort_init_f32:
  26              	.LFB149:
  27              	 .file 1 "../Dave/Generated/CMSIS_DSP/Source/SupportFunctions/arm_merge_sort_init_f32.c"
   1:../Dave/Generated/CMSIS_DSP/Source/SupportFunctions/arm_merge_sort_init_f32.c **** /* ----------------------------------------------------------------------
   2:../Dave/Generated/CMSIS_DSP/Source/SupportFunctions/arm_merge_sort_init_f32.c ****  * Project:      CMSIS DSP Library
   3:../Dave/Generated/CMSIS_DSP/Source/SupportFunctions/arm_merge_sort_init_f32.c ****  * Title:        arm_merge_sort_init_f32.c
   4:../Dave/Generated/CMSIS_DSP/Source/SupportFunctions/arm_merge_sort_init_f32.c ****  * Description:  Floating point merge sort initialization function
   5:../Dave/Generated/CMSIS_DSP/Source/SupportFunctions/arm_merge_sort_init_f32.c ****  *
   6:../Dave/Generated/CMSIS_DSP/Source/SupportFunctions/arm_merge_sort_init_f32.c ****  * $Date:        2019
   7:../Dave/Generated/CMSIS_DSP/Source/SupportFunctions/arm_merge_sort_init_f32.c ****  * $Revision:    V1.6.0
   8:../Dave/Generated/CMSIS_DSP/Source/SupportFunctions/arm_merge_sort_init_f32.c ****  *
   9:../Dave/Generated/CMSIS_DSP/Source/SupportFunctions/arm_merge_sort_init_f32.c ****  * Target Processor: Cortex-M and Cortex-A cores
  10:../Dave/Generated/CMSIS_DSP/Source/SupportFunctions/arm_merge_sort_init_f32.c ****  * -------------------------------------------------------------------- */
  11:../Dave/Generated/CMSIS_DSP/Source/SupportFunctions/arm_merge_sort_init_f32.c **** /*
  12:../Dave/Generated/CMSIS_DSP/Source/SupportFunctions/arm_merge_sort_init_f32.c ****  * Copyright (C) 2010-2019 ARM Limited or its affiliates. All rights reserved.
  13:../Dave/Generated/CMSIS_DSP/Source/SupportFunctions/arm_merge_sort_init_f32.c ****  *
  14:../Dave/Generated/CMSIS_DSP/Source/SupportFunctions/arm_merge_sort_init_f32.c ****  * SPDX-License-Identifier: Apache-2.0
  15:../Dave/Generated/CMSIS_DSP/Source/SupportFunctions/arm_merge_sort_init_f32.c ****  *
  16:../Dave/Generated/CMSIS_DSP/Source/SupportFunctions/arm_merge_sort_init_f32.c ****  * Licensed under the Apache License, Version 2.0 (the License); you may
  17:../Dave/Generated/CMSIS_DSP/Source/SupportFunctions/arm_merge_sort_init_f32.c ****  * not use this file except in compliance with the License.
  18:../Dave/Generated/CMSIS_DSP/Source/SupportFunctions/arm_merge_sort_init_f32.c ****  * You may obtain a copy of the License at
  19:../Dave/Generated/CMSIS_DSP/Source/SupportFunctions/arm_merge_sort_init_f32.c ****  *
  20:../Dave/Generated/CMSIS_DSP/Source/SupportFunctions/arm_merge_sort_init_f32.c ****  * www.apache.org/licenses/LICENSE-2.0
  21:../Dave/Generated/CMSIS_DSP/Source/SupportFunctions/arm_merge_sort_init_f32.c ****  *
  22:../Dave/Generated/CMSIS_DSP/Source/SupportFunctions/arm_merge_sort_init_f32.c ****  * Unless required by applicable law or agreed to in writing, software
  23:../Dave/Generated/CMSIS_DSP/Source/SupportFunctions/arm_merge_sort_init_f32.c ****  * distributed under the License is distributed on an AS IS BASIS, WITHOUT
  24:../Dave/Generated/CMSIS_DSP/Source/SupportFunctions/arm_merge_sort_init_f32.c ****  * WARRANTIES OR CONDITIONS OF ANY KIND, either express or implied.
  25:../Dave/Generated/CMSIS_DSP/Source/SupportFunctions/arm_merge_sort_init_f32.c ****  * See the License for the specific language governing permissions and
  26:../Dave/Generated/CMSIS_DSP/Source/SupportFunctions/arm_merge_sort_init_f32.c ****  * limitations under the License.
  27:../Dave/Generated/CMSIS_DSP/Source/SupportFunctions/arm_merge_sort_init_f32.c ****  */
  28:../Dave/Generated/CMSIS_DSP/Source/SupportFunctions/arm_merge_sort_init_f32.c **** 
  29:../Dave/Generated/CMSIS_DSP/Source/SupportFunctions/arm_merge_sort_init_f32.c **** #include "CMSIS_DSP/cmsis_dsp.h"
  30:../Dave/Generated/CMSIS_DSP/Source/SupportFunctions/arm_merge_sort_init_f32.c **** 
  31:../Dave/Generated/CMSIS_DSP/Source/SupportFunctions/arm_merge_sort_init_f32.c **** /**
  32:../Dave/Generated/CMSIS_DSP/Source/SupportFunctions/arm_merge_sort_init_f32.c ****   @ingroup groupSupport
  33:../Dave/Generated/CMSIS_DSP/Source/SupportFunctions/arm_merge_sort_init_f32.c ****  */
  34:../Dave/Generated/CMSIS_DSP/Source/SupportFunctions/arm_merge_sort_init_f32.c **** 
  35:../Dave/Generated/CMSIS_DSP/Source/SupportFunctions/arm_merge_sort_init_f32.c **** /**
  36:../Dave/Generated/CMSIS_DSP/Source/SupportFunctions/arm_merge_sort_init_f32.c ****   @addtogroup Sorting
  37:../Dave/Generated/CMSIS_DSP/Source/SupportFunctions/arm_merge_sort_init_f32.c ****   @{
  38:../Dave/Generated/CMSIS_DSP/Source/SupportFunctions/arm_merge_sort_init_f32.c ****  */
  39:../Dave/Generated/CMSIS_DSP/Source/SupportFunctions/arm_merge_sort_init_f32.c **** 
  40:../Dave/Generated/CMSIS_DSP/Source/SupportFunctions/arm_merge_sort_init_f32.c **** 
  41:../Dave/Generated/CMSIS_DSP/Source/SupportFunctions/arm_merge_sort_init_f32.c ****   /**
  42:../Dave/Generated/CMSIS_DSP/Source/SupportFunctions/arm_merge_sort_init_f32.c ****    * @param[in,out]  S            points to an instance of the sorting structure.
  43:../Dave/Generated/CMSIS_DSP/Source/SupportFunctions/arm_merge_sort_init_f32.c ****    * @param[in]      dir          Sorting order.
  44:../Dave/Generated/CMSIS_DSP/Source/SupportFunctions/arm_merge_sort_init_f32.c ****    * @param[in]      buffer       Working buffer.
  45:../Dave/Generated/CMSIS_DSP/Source/SupportFunctions/arm_merge_sort_init_f32.c ****    */
  46:../Dave/Generated/CMSIS_DSP/Source/SupportFunctions/arm_merge_sort_init_f32.c **** void arm_merge_sort_init_f32(arm_merge_sort_instance_f32 * S, arm_sort_dir dir, float32_t * buffer)
  47:../Dave/Generated/CMSIS_DSP/Source/SupportFunctions/arm_merge_sort_init_f32.c **** {
  28              	 .loc 1 47 0
  29              	 .cfi_startproc
  30              	 
  31              	 
  32              	 
  33 0000 80B4     	 push {r7}
  34              	.LCFI0:
  35              	 .cfi_def_cfa_offset 4
  36              	 .cfi_offset 7,-4
  37 0002 85B0     	 sub sp,sp,#20
  38              	.LCFI1:
  39              	 .cfi_def_cfa_offset 24
  40 0004 00AF     	 add r7,sp,#0
  41              	.LCFI2:
  42              	 .cfi_def_cfa_register 7
  43 0006 F860     	 str r0,[r7,#12]
  44 0008 0B46     	 mov r3,r1
  45 000a 7A60     	 str r2,[r7,#4]
  46 000c FB72     	 strb r3,[r7,#11]
  48:../Dave/Generated/CMSIS_DSP/Source/SupportFunctions/arm_merge_sort_init_f32.c ****     S->dir    = dir;
  47              	 .loc 1 48 0
  48 000e FB68     	 ldr r3,[r7,#12]
  49 0010 FA7A     	 ldrb r2,[r7,#11]
  50 0012 1A70     	 strb r2,[r3]
  49:../Dave/Generated/CMSIS_DSP/Source/SupportFunctions/arm_merge_sort_init_f32.c ****     S->buffer = buffer;
  51              	 .loc 1 49 0
  52 0014 FB68     	 ldr r3,[r7,#12]
  53 0016 7A68     	 ldr r2,[r7,#4]
  54 0018 5A60     	 str r2,[r3,#4]
  50:../Dave/Generated/CMSIS_DSP/Source/SupportFunctions/arm_merge_sort_init_f32.c **** }
  55              	 .loc 1 50 0
  56 001a 1437     	 adds r7,r7,#20
  57              	.LCFI3:
  58              	 .cfi_def_cfa_offset 4
  59 001c BD46     	 mov sp,r7
  60              	.LCFI4:
  61              	 .cfi_def_cfa_register 13
  62              	 
  63 001e 5DF8047B 	 ldr r7,[sp],#4
  64              	.LCFI5:
  65              	 .cfi_restore 7
  66              	 .cfi_def_cfa_offset 0
  67 0022 7047     	 bx lr
  68              	 .cfi_endproc
  69              	.LFE149:
  71              	 .text
  72              	.Letext0:
  73              	 .file 2 "c:\\infineon\\tools\\dave ide\\4.5.0.202105191637\\eclipse\\arm-gcc-49\\arm-none-eabi\\include\\machine\\_default_types.h"
  74              	 .file 3 "c:\\infineon\\tools\\dave ide\\4.5.0.202105191637\\eclipse\\arm-gcc-49\\arm-none-eabi\\include\\stdint.h"
  75              	 .file 4 "C:/Users/Rui Mendes/Desktop/DAVE/_Naive/_ForTesting/Dave/Generated/CMSIS_DSP/Include/arm_math.h"
  76              	 .file 5 "C:/Users/Rui Mendes/Desktop/DAVE/_Naive/_ForTesting/Libraries/CMSIS/Include/cmsis_gcc.h"