   1              	 .syntax unified
   2              	 .cpu cortex-m4
   3              	 .eabi_attribute 27,3
   4              	 .fpu fpv4-sp-d16
   5              	 .eabi_attribute 20,1
   6              	 .eabi_attribute 21,1
   7              	 .eabi_attribute 23,3
   8              	 .eabi_attribute 24,1
   9              	 .eabi_attribute 25,1
  10              	 .eabi_attribute 26,1
  11              	 .eabi_attribute 30,6
  12              	 .eabi_attribute 34,1
  13              	 .eabi_attribute 18,4
  14              	 .thumb
  15              	 .file "arm_float_to_q31.c"
  16              	 .text
  17              	.Ltext0:
  18              	 .cfi_sections .debug_frame
  19              	 .global __aeabi_f2lz
  20              	 .section .text.arm_float_to_q31,"ax",%progbits
  21              	 .align 2
  22              	 .global arm_float_to_q31
  23              	 .thumb
  24              	 .thumb_func
  26              	arm_float_to_q31:
  27              	.LFB149:
  28              	 .file 1 "../Dave/Generated/CMSIS_DSP/Source/SupportFunctions/arm_float_to_q31.c"
   1:../Dave/Generated/CMSIS_DSP/Source/SupportFunctions/arm_float_to_q31.c **** /* ----------------------------------------------------------------------
   2:../Dave/Generated/CMSIS_DSP/Source/SupportFunctions/arm_float_to_q31.c ****  * Project:      CMSIS DSP Library
   3:../Dave/Generated/CMSIS_DSP/Source/SupportFunctions/arm_float_to_q31.c ****  * Title:        arm_float_to_q31.c
   4:../Dave/Generated/CMSIS_DSP/Source/SupportFunctions/arm_float_to_q31.c ****  * Description:  Converts the elements of the floating-point vector to Q31 vector
   5:../Dave/Generated/CMSIS_DSP/Source/SupportFunctions/arm_float_to_q31.c ****  *
   6:../Dave/Generated/CMSIS_DSP/Source/SupportFunctions/arm_float_to_q31.c ****  * $Date:        18. March 2019
   7:../Dave/Generated/CMSIS_DSP/Source/SupportFunctions/arm_float_to_q31.c ****  * $Revision:    V1.6.0
   8:../Dave/Generated/CMSIS_DSP/Source/SupportFunctions/arm_float_to_q31.c ****  *
   9:../Dave/Generated/CMSIS_DSP/Source/SupportFunctions/arm_float_to_q31.c ****  * Target Processor: Cortex-M cores
  10:../Dave/Generated/CMSIS_DSP/Source/SupportFunctions/arm_float_to_q31.c ****  * -------------------------------------------------------------------- */
  11:../Dave/Generated/CMSIS_DSP/Source/SupportFunctions/arm_float_to_q31.c **** /*
  12:../Dave/Generated/CMSIS_DSP/Source/SupportFunctions/arm_float_to_q31.c ****  * Copyright (C) 2010-2019 ARM Limited or its affiliates. All rights reserved.
  13:../Dave/Generated/CMSIS_DSP/Source/SupportFunctions/arm_float_to_q31.c ****  *
  14:../Dave/Generated/CMSIS_DSP/Source/SupportFunctions/arm_float_to_q31.c ****  * SPDX-License-Identifier: Apache-2.0
  15:../Dave/Generated/CMSIS_DSP/Source/SupportFunctions/arm_float_to_q31.c ****  *
  16:../Dave/Generated/CMSIS_DSP/Source/SupportFunctions/arm_float_to_q31.c ****  * Licensed under the Apache License, Version 2.0 (the License); you may
  17:../Dave/Generated/CMSIS_DSP/Source/SupportFunctions/arm_float_to_q31.c ****  * not use this file except in compliance with the License.
  18:../Dave/Generated/CMSIS_DSP/Source/SupportFunctions/arm_float_to_q31.c ****  * You may obtain a copy of the License at
  19:../Dave/Generated/CMSIS_DSP/Source/SupportFunctions/arm_float_to_q31.c ****  *
  20:../Dave/Generated/CMSIS_DSP/Source/SupportFunctions/arm_float_to_q31.c ****  * www.apache.org/licenses/LICENSE-2.0
  21:../Dave/Generated/CMSIS_DSP/Source/SupportFunctions/arm_float_to_q31.c ****  *
  22:../Dave/Generated/CMSIS_DSP/Source/SupportFunctions/arm_float_to_q31.c ****  * Unless required by applicable law or agreed to in writing, software
  23:../Dave/Generated/CMSIS_DSP/Source/SupportFunctions/arm_float_to_q31.c ****  * distributed under the License is distributed on an AS IS BASIS, WITHOUT
  24:../Dave/Generated/CMSIS_DSP/Source/SupportFunctions/arm_float_to_q31.c ****  * WARRANTIES OR CONDITIONS OF ANY KIND, either express or implied.
  25:../Dave/Generated/CMSIS_DSP/Source/SupportFunctions/arm_float_to_q31.c ****  * See the License for the specific language governing permissions and
  26:../Dave/Generated/CMSIS_DSP/Source/SupportFunctions/arm_float_to_q31.c ****  * limitations under the License.
  27:../Dave/Generated/CMSIS_DSP/Source/SupportFunctions/arm_float_to_q31.c ****  */
  28:../Dave/Generated/CMSIS_DSP/Source/SupportFunctions/arm_float_to_q31.c **** 
  29:../Dave/Generated/CMSIS_DSP/Source/SupportFunctions/arm_float_to_q31.c **** #include "CMSIS_DSP/cmsis_dsp.h"
  30:../Dave/Generated/CMSIS_DSP/Source/SupportFunctions/arm_float_to_q31.c **** 
  31:../Dave/Generated/CMSIS_DSP/Source/SupportFunctions/arm_float_to_q31.c **** /**
  32:../Dave/Generated/CMSIS_DSP/Source/SupportFunctions/arm_float_to_q31.c ****   @ingroup groupSupport
  33:../Dave/Generated/CMSIS_DSP/Source/SupportFunctions/arm_float_to_q31.c ****  */
  34:../Dave/Generated/CMSIS_DSP/Source/SupportFunctions/arm_float_to_q31.c **** 
  35:../Dave/Generated/CMSIS_DSP/Source/SupportFunctions/arm_float_to_q31.c **** /**
  36:../Dave/Generated/CMSIS_DSP/Source/SupportFunctions/arm_float_to_q31.c ****  * @defgroup float_to_x  Convert 32-bit floating point value
  37:../Dave/Generated/CMSIS_DSP/Source/SupportFunctions/arm_float_to_q31.c ****  */
  38:../Dave/Generated/CMSIS_DSP/Source/SupportFunctions/arm_float_to_q31.c **** 
  39:../Dave/Generated/CMSIS_DSP/Source/SupportFunctions/arm_float_to_q31.c **** /**
  40:../Dave/Generated/CMSIS_DSP/Source/SupportFunctions/arm_float_to_q31.c ****   @addtogroup float_to_x
  41:../Dave/Generated/CMSIS_DSP/Source/SupportFunctions/arm_float_to_q31.c ****   @{
  42:../Dave/Generated/CMSIS_DSP/Source/SupportFunctions/arm_float_to_q31.c ****  */
  43:../Dave/Generated/CMSIS_DSP/Source/SupportFunctions/arm_float_to_q31.c **** 
  44:../Dave/Generated/CMSIS_DSP/Source/SupportFunctions/arm_float_to_q31.c **** /**
  45:../Dave/Generated/CMSIS_DSP/Source/SupportFunctions/arm_float_to_q31.c ****   @brief         Converts the elements of the floating-point vector to Q31 vector.
  46:../Dave/Generated/CMSIS_DSP/Source/SupportFunctions/arm_float_to_q31.c ****   @param[in]     pSrc       points to the floating-point input vector
  47:../Dave/Generated/CMSIS_DSP/Source/SupportFunctions/arm_float_to_q31.c ****   @param[out]    pDst       points to the Q31 output vector
  48:../Dave/Generated/CMSIS_DSP/Source/SupportFunctions/arm_float_to_q31.c ****   @param[in]     blockSize  number of samples in each vector
  49:../Dave/Generated/CMSIS_DSP/Source/SupportFunctions/arm_float_to_q31.c ****   @return        none
  50:../Dave/Generated/CMSIS_DSP/Source/SupportFunctions/arm_float_to_q31.c **** 
  51:../Dave/Generated/CMSIS_DSP/Source/SupportFunctions/arm_float_to_q31.c ****   @par           Details
  52:../Dave/Generated/CMSIS_DSP/Source/SupportFunctions/arm_float_to_q31.c ****                    The equation used for the conversion process is:
  53:../Dave/Generated/CMSIS_DSP/Source/SupportFunctions/arm_float_to_q31.c ****   <pre>
  54:../Dave/Generated/CMSIS_DSP/Source/SupportFunctions/arm_float_to_q31.c ****       pDst[n] = (q31_t)(pSrc[n] * 2147483648);   0 <= n < blockSize.
  55:../Dave/Generated/CMSIS_DSP/Source/SupportFunctions/arm_float_to_q31.c ****   </pre>
  56:../Dave/Generated/CMSIS_DSP/Source/SupportFunctions/arm_float_to_q31.c **** 
  57:../Dave/Generated/CMSIS_DSP/Source/SupportFunctions/arm_float_to_q31.c ****   @par           Scaling and Overflow Behavior
  58:../Dave/Generated/CMSIS_DSP/Source/SupportFunctions/arm_float_to_q31.c ****                    The function uses saturating arithmetic.
  59:../Dave/Generated/CMSIS_DSP/Source/SupportFunctions/arm_float_to_q31.c ****                    Results outside of the allowable Q31 range[0x80000000 0x7FFFFFFF] are saturated.
  60:../Dave/Generated/CMSIS_DSP/Source/SupportFunctions/arm_float_to_q31.c **** 
  61:../Dave/Generated/CMSIS_DSP/Source/SupportFunctions/arm_float_to_q31.c ****   @note
  62:../Dave/Generated/CMSIS_DSP/Source/SupportFunctions/arm_float_to_q31.c ****                    In order to apply rounding, the library should be rebuilt with the ROUNDING macr
  63:../Dave/Generated/CMSIS_DSP/Source/SupportFunctions/arm_float_to_q31.c ****                    defined in the preprocessor section of project options.
  64:../Dave/Generated/CMSIS_DSP/Source/SupportFunctions/arm_float_to_q31.c ****  */
  65:../Dave/Generated/CMSIS_DSP/Source/SupportFunctions/arm_float_to_q31.c **** 
  66:../Dave/Generated/CMSIS_DSP/Source/SupportFunctions/arm_float_to_q31.c **** #if defined(ARM_MATH_MVEF) && !defined(ARM_MATH_AUTOVECTORIZE)
  67:../Dave/Generated/CMSIS_DSP/Source/SupportFunctions/arm_float_to_q31.c **** void arm_float_to_q31(
  68:../Dave/Generated/CMSIS_DSP/Source/SupportFunctions/arm_float_to_q31.c ****   const float32_t * pSrc,
  69:../Dave/Generated/CMSIS_DSP/Source/SupportFunctions/arm_float_to_q31.c ****   q31_t * pDst,
  70:../Dave/Generated/CMSIS_DSP/Source/SupportFunctions/arm_float_to_q31.c ****   uint32_t blockSize)
  71:../Dave/Generated/CMSIS_DSP/Source/SupportFunctions/arm_float_to_q31.c **** {
  72:../Dave/Generated/CMSIS_DSP/Source/SupportFunctions/arm_float_to_q31.c ****     uint32_t         blkCnt;
  73:../Dave/Generated/CMSIS_DSP/Source/SupportFunctions/arm_float_to_q31.c ****     float32_t       maxQ = (float32_t) Q31_MAX;
  74:../Dave/Generated/CMSIS_DSP/Source/SupportFunctions/arm_float_to_q31.c ****     f32x4_t         vecDst;
  75:../Dave/Generated/CMSIS_DSP/Source/SupportFunctions/arm_float_to_q31.c **** #ifdef ARM_MATH_ROUNDING
  76:../Dave/Generated/CMSIS_DSP/Source/SupportFunctions/arm_float_to_q31.c ****     float32_t in;
  77:../Dave/Generated/CMSIS_DSP/Source/SupportFunctions/arm_float_to_q31.c **** #endif
  78:../Dave/Generated/CMSIS_DSP/Source/SupportFunctions/arm_float_to_q31.c **** 
  79:../Dave/Generated/CMSIS_DSP/Source/SupportFunctions/arm_float_to_q31.c **** 
  80:../Dave/Generated/CMSIS_DSP/Source/SupportFunctions/arm_float_to_q31.c ****     blkCnt = blockSize >> 2U;
  81:../Dave/Generated/CMSIS_DSP/Source/SupportFunctions/arm_float_to_q31.c **** 
  82:../Dave/Generated/CMSIS_DSP/Source/SupportFunctions/arm_float_to_q31.c ****     /* Compute 4 outputs at a time. */
  83:../Dave/Generated/CMSIS_DSP/Source/SupportFunctions/arm_float_to_q31.c ****     while (blkCnt > 0U)
  84:../Dave/Generated/CMSIS_DSP/Source/SupportFunctions/arm_float_to_q31.c ****     {
  85:../Dave/Generated/CMSIS_DSP/Source/SupportFunctions/arm_float_to_q31.c **** 
  86:../Dave/Generated/CMSIS_DSP/Source/SupportFunctions/arm_float_to_q31.c ****         vecDst = vldrwq_f32(pSrc);
  87:../Dave/Generated/CMSIS_DSP/Source/SupportFunctions/arm_float_to_q31.c ****         /* C = A * 2147483648 */
  88:../Dave/Generated/CMSIS_DSP/Source/SupportFunctions/arm_float_to_q31.c ****         /* convert from float to Q31 and then store the results in the destination buffer */
  89:../Dave/Generated/CMSIS_DSP/Source/SupportFunctions/arm_float_to_q31.c ****         vecDst = vmulq(vecDst, maxQ);
  90:../Dave/Generated/CMSIS_DSP/Source/SupportFunctions/arm_float_to_q31.c **** 
  91:../Dave/Generated/CMSIS_DSP/Source/SupportFunctions/arm_float_to_q31.c ****         vstrwq_s32(pDst, vcvtaq_s32_f32(vecDst));
  92:../Dave/Generated/CMSIS_DSP/Source/SupportFunctions/arm_float_to_q31.c ****         /*
  93:../Dave/Generated/CMSIS_DSP/Source/SupportFunctions/arm_float_to_q31.c ****          * Decrement the blockSize loop counter
  94:../Dave/Generated/CMSIS_DSP/Source/SupportFunctions/arm_float_to_q31.c ****          * Advance vector source and destination pointers
  95:../Dave/Generated/CMSIS_DSP/Source/SupportFunctions/arm_float_to_q31.c ****          */
  96:../Dave/Generated/CMSIS_DSP/Source/SupportFunctions/arm_float_to_q31.c ****         pSrc += 4;
  97:../Dave/Generated/CMSIS_DSP/Source/SupportFunctions/arm_float_to_q31.c ****         pDst += 4;
  98:../Dave/Generated/CMSIS_DSP/Source/SupportFunctions/arm_float_to_q31.c ****         blkCnt --;
  99:../Dave/Generated/CMSIS_DSP/Source/SupportFunctions/arm_float_to_q31.c ****     }
 100:../Dave/Generated/CMSIS_DSP/Source/SupportFunctions/arm_float_to_q31.c **** 
 101:../Dave/Generated/CMSIS_DSP/Source/SupportFunctions/arm_float_to_q31.c ****     blkCnt = blockSize & 3;
 102:../Dave/Generated/CMSIS_DSP/Source/SupportFunctions/arm_float_to_q31.c **** 
 103:../Dave/Generated/CMSIS_DSP/Source/SupportFunctions/arm_float_to_q31.c ****     while (blkCnt > 0U)
 104:../Dave/Generated/CMSIS_DSP/Source/SupportFunctions/arm_float_to_q31.c ****     {
 105:../Dave/Generated/CMSIS_DSP/Source/SupportFunctions/arm_float_to_q31.c ****        /* C = A * 2147483648 */
 106:../Dave/Generated/CMSIS_DSP/Source/SupportFunctions/arm_float_to_q31.c ****    
 107:../Dave/Generated/CMSIS_DSP/Source/SupportFunctions/arm_float_to_q31.c ****        /* convert from float to Q31 and store result in destination buffer */
 108:../Dave/Generated/CMSIS_DSP/Source/SupportFunctions/arm_float_to_q31.c **** #ifdef ARM_MATH_ROUNDING
 109:../Dave/Generated/CMSIS_DSP/Source/SupportFunctions/arm_float_to_q31.c **** 
 110:../Dave/Generated/CMSIS_DSP/Source/SupportFunctions/arm_float_to_q31.c ****        in = (*pSrc++ * 2147483648.0f);
 111:../Dave/Generated/CMSIS_DSP/Source/SupportFunctions/arm_float_to_q31.c ****        in += in > 0.0f ? 0.5f : -0.5f;
 112:../Dave/Generated/CMSIS_DSP/Source/SupportFunctions/arm_float_to_q31.c ****        *pDst++ = clip_q63_to_q31((q63_t) (in));
 113:../Dave/Generated/CMSIS_DSP/Source/SupportFunctions/arm_float_to_q31.c **** 
 114:../Dave/Generated/CMSIS_DSP/Source/SupportFunctions/arm_float_to_q31.c **** #else
 115:../Dave/Generated/CMSIS_DSP/Source/SupportFunctions/arm_float_to_q31.c **** 
 116:../Dave/Generated/CMSIS_DSP/Source/SupportFunctions/arm_float_to_q31.c ****        /* C = A * 2147483648 */
 117:../Dave/Generated/CMSIS_DSP/Source/SupportFunctions/arm_float_to_q31.c ****        /* Convert from float to Q31 and then store the results in the destination buffer */
 118:../Dave/Generated/CMSIS_DSP/Source/SupportFunctions/arm_float_to_q31.c ****        *pDst++ = clip_q63_to_q31((q63_t) (*pSrc++ * 2147483648.0f));
 119:../Dave/Generated/CMSIS_DSP/Source/SupportFunctions/arm_float_to_q31.c **** 
 120:../Dave/Generated/CMSIS_DSP/Source/SupportFunctions/arm_float_to_q31.c **** #endif /* #ifdef ARM_MATH_ROUNDING */
 121:../Dave/Generated/CMSIS_DSP/Source/SupportFunctions/arm_float_to_q31.c **** 
 122:../Dave/Generated/CMSIS_DSP/Source/SupportFunctions/arm_float_to_q31.c ****        /* Decrement loop counter */
 123:../Dave/Generated/CMSIS_DSP/Source/SupportFunctions/arm_float_to_q31.c ****        blkCnt--;
 124:../Dave/Generated/CMSIS_DSP/Source/SupportFunctions/arm_float_to_q31.c ****   }
 125:../Dave/Generated/CMSIS_DSP/Source/SupportFunctions/arm_float_to_q31.c **** }
 126:../Dave/Generated/CMSIS_DSP/Source/SupportFunctions/arm_float_to_q31.c **** #else
 127:../Dave/Generated/CMSIS_DSP/Source/SupportFunctions/arm_float_to_q31.c **** #if defined(ARM_MATH_NEON)
 128:../Dave/Generated/CMSIS_DSP/Source/SupportFunctions/arm_float_to_q31.c **** void arm_float_to_q31(
 129:../Dave/Generated/CMSIS_DSP/Source/SupportFunctions/arm_float_to_q31.c ****   const float32_t * pSrc,
 130:../Dave/Generated/CMSIS_DSP/Source/SupportFunctions/arm_float_to_q31.c ****   q31_t * pDst,
 131:../Dave/Generated/CMSIS_DSP/Source/SupportFunctions/arm_float_to_q31.c ****   uint32_t blockSize)
 132:../Dave/Generated/CMSIS_DSP/Source/SupportFunctions/arm_float_to_q31.c **** {
 133:../Dave/Generated/CMSIS_DSP/Source/SupportFunctions/arm_float_to_q31.c ****   const float32_t *pIn = pSrc;                         /* Src pointer */
 134:../Dave/Generated/CMSIS_DSP/Source/SupportFunctions/arm_float_to_q31.c ****   uint32_t blkCnt;                               /* loop counter */
 135:../Dave/Generated/CMSIS_DSP/Source/SupportFunctions/arm_float_to_q31.c **** 
 136:../Dave/Generated/CMSIS_DSP/Source/SupportFunctions/arm_float_to_q31.c ****   float32x4_t inV;
 137:../Dave/Generated/CMSIS_DSP/Source/SupportFunctions/arm_float_to_q31.c ****   #ifdef ARM_MATH_ROUNDING
 138:../Dave/Generated/CMSIS_DSP/Source/SupportFunctions/arm_float_to_q31.c ****   float32_t in;
 139:../Dave/Generated/CMSIS_DSP/Source/SupportFunctions/arm_float_to_q31.c ****   float32x4_t zeroV = vdupq_n_f32(0.0f);
 140:../Dave/Generated/CMSIS_DSP/Source/SupportFunctions/arm_float_to_q31.c ****   float32x4_t pHalf = vdupq_n_f32(0.5f / 2147483648.0f);
 141:../Dave/Generated/CMSIS_DSP/Source/SupportFunctions/arm_float_to_q31.c ****   float32x4_t mHalf = vdupq_n_f32(-0.5f / 2147483648.0f);
 142:../Dave/Generated/CMSIS_DSP/Source/SupportFunctions/arm_float_to_q31.c ****   float32x4_t r;
 143:../Dave/Generated/CMSIS_DSP/Source/SupportFunctions/arm_float_to_q31.c ****   uint32x4_t cmp;
 144:../Dave/Generated/CMSIS_DSP/Source/SupportFunctions/arm_float_to_q31.c ****   #endif
 145:../Dave/Generated/CMSIS_DSP/Source/SupportFunctions/arm_float_to_q31.c **** 
 146:../Dave/Generated/CMSIS_DSP/Source/SupportFunctions/arm_float_to_q31.c ****   int32x4_t outV;
 147:../Dave/Generated/CMSIS_DSP/Source/SupportFunctions/arm_float_to_q31.c **** 
 148:../Dave/Generated/CMSIS_DSP/Source/SupportFunctions/arm_float_to_q31.c ****   blkCnt = blockSize >> 2U;
 149:../Dave/Generated/CMSIS_DSP/Source/SupportFunctions/arm_float_to_q31.c **** 
 150:../Dave/Generated/CMSIS_DSP/Source/SupportFunctions/arm_float_to_q31.c ****   /* Compute 4 outputs at a time.
 151:../Dave/Generated/CMSIS_DSP/Source/SupportFunctions/arm_float_to_q31.c ****    ** a second loop below computes the remaining 1 to 3 samples. */
 152:../Dave/Generated/CMSIS_DSP/Source/SupportFunctions/arm_float_to_q31.c ****   while (blkCnt > 0U)
 153:../Dave/Generated/CMSIS_DSP/Source/SupportFunctions/arm_float_to_q31.c ****   {
 154:../Dave/Generated/CMSIS_DSP/Source/SupportFunctions/arm_float_to_q31.c **** 
 155:../Dave/Generated/CMSIS_DSP/Source/SupportFunctions/arm_float_to_q31.c **** #ifdef ARM_MATH_ROUNDING
 156:../Dave/Generated/CMSIS_DSP/Source/SupportFunctions/arm_float_to_q31.c **** 
 157:../Dave/Generated/CMSIS_DSP/Source/SupportFunctions/arm_float_to_q31.c ****     /* C = A * 32768 */
 158:../Dave/Generated/CMSIS_DSP/Source/SupportFunctions/arm_float_to_q31.c ****     /* Convert from float to Q31 and then store the results in the destination buffer */
 159:../Dave/Generated/CMSIS_DSP/Source/SupportFunctions/arm_float_to_q31.c ****     inV = vld1q_f32(pIn);
 160:../Dave/Generated/CMSIS_DSP/Source/SupportFunctions/arm_float_to_q31.c ****     cmp = vcgtq_f32(inV,zeroV);
 161:../Dave/Generated/CMSIS_DSP/Source/SupportFunctions/arm_float_to_q31.c ****     r = vbslq_f32(cmp,pHalf,mHalf);
 162:../Dave/Generated/CMSIS_DSP/Source/SupportFunctions/arm_float_to_q31.c ****     inV = vaddq_f32(inV, r);
 163:../Dave/Generated/CMSIS_DSP/Source/SupportFunctions/arm_float_to_q31.c **** 
 164:../Dave/Generated/CMSIS_DSP/Source/SupportFunctions/arm_float_to_q31.c ****     pIn += 4;
 165:../Dave/Generated/CMSIS_DSP/Source/SupportFunctions/arm_float_to_q31.c **** 
 166:../Dave/Generated/CMSIS_DSP/Source/SupportFunctions/arm_float_to_q31.c ****     outV = vcvtq_n_s32_f32(inV,31);
 167:../Dave/Generated/CMSIS_DSP/Source/SupportFunctions/arm_float_to_q31.c **** 
 168:../Dave/Generated/CMSIS_DSP/Source/SupportFunctions/arm_float_to_q31.c ****     vst1q_s32(pDst, outV);
 169:../Dave/Generated/CMSIS_DSP/Source/SupportFunctions/arm_float_to_q31.c ****     pDst += 4;
 170:../Dave/Generated/CMSIS_DSP/Source/SupportFunctions/arm_float_to_q31.c **** 
 171:../Dave/Generated/CMSIS_DSP/Source/SupportFunctions/arm_float_to_q31.c **** #else
 172:../Dave/Generated/CMSIS_DSP/Source/SupportFunctions/arm_float_to_q31.c **** 
 173:../Dave/Generated/CMSIS_DSP/Source/SupportFunctions/arm_float_to_q31.c ****     /* C = A * 2147483648 */
 174:../Dave/Generated/CMSIS_DSP/Source/SupportFunctions/arm_float_to_q31.c ****     /* Convert from float to Q31 and then store the results in the destination buffer */
 175:../Dave/Generated/CMSIS_DSP/Source/SupportFunctions/arm_float_to_q31.c ****     inV = vld1q_f32(pIn);
 176:../Dave/Generated/CMSIS_DSP/Source/SupportFunctions/arm_float_to_q31.c **** 
 177:../Dave/Generated/CMSIS_DSP/Source/SupportFunctions/arm_float_to_q31.c ****     outV = vcvtq_n_s32_f32(inV,31);
 178:../Dave/Generated/CMSIS_DSP/Source/SupportFunctions/arm_float_to_q31.c **** 
 179:../Dave/Generated/CMSIS_DSP/Source/SupportFunctions/arm_float_to_q31.c ****     vst1q_s32(pDst, outV);
 180:../Dave/Generated/CMSIS_DSP/Source/SupportFunctions/arm_float_to_q31.c ****     pDst += 4;
 181:../Dave/Generated/CMSIS_DSP/Source/SupportFunctions/arm_float_to_q31.c ****     pIn += 4;
 182:../Dave/Generated/CMSIS_DSP/Source/SupportFunctions/arm_float_to_q31.c **** 
 183:../Dave/Generated/CMSIS_DSP/Source/SupportFunctions/arm_float_to_q31.c **** #endif /*      #ifdef ARM_MATH_ROUNDING        */
 184:../Dave/Generated/CMSIS_DSP/Source/SupportFunctions/arm_float_to_q31.c **** 
 185:../Dave/Generated/CMSIS_DSP/Source/SupportFunctions/arm_float_to_q31.c ****     /* Decrement the loop counter */
 186:../Dave/Generated/CMSIS_DSP/Source/SupportFunctions/arm_float_to_q31.c ****     blkCnt--;
 187:../Dave/Generated/CMSIS_DSP/Source/SupportFunctions/arm_float_to_q31.c ****   }
 188:../Dave/Generated/CMSIS_DSP/Source/SupportFunctions/arm_float_to_q31.c **** 
 189:../Dave/Generated/CMSIS_DSP/Source/SupportFunctions/arm_float_to_q31.c ****   /* If the blockSize is not a multiple of 4, compute any remaining output samples here.
 190:../Dave/Generated/CMSIS_DSP/Source/SupportFunctions/arm_float_to_q31.c ****    ** No loop unrolling is used. */
 191:../Dave/Generated/CMSIS_DSP/Source/SupportFunctions/arm_float_to_q31.c ****   blkCnt = blockSize & 3;
 192:../Dave/Generated/CMSIS_DSP/Source/SupportFunctions/arm_float_to_q31.c **** 
 193:../Dave/Generated/CMSIS_DSP/Source/SupportFunctions/arm_float_to_q31.c ****   while (blkCnt > 0U)
 194:../Dave/Generated/CMSIS_DSP/Source/SupportFunctions/arm_float_to_q31.c ****   {
 195:../Dave/Generated/CMSIS_DSP/Source/SupportFunctions/arm_float_to_q31.c **** 
 196:../Dave/Generated/CMSIS_DSP/Source/SupportFunctions/arm_float_to_q31.c **** #ifdef ARM_MATH_ROUNDING
 197:../Dave/Generated/CMSIS_DSP/Source/SupportFunctions/arm_float_to_q31.c **** 
 198:../Dave/Generated/CMSIS_DSP/Source/SupportFunctions/arm_float_to_q31.c ****     /* C = A * 2147483648 */
 199:../Dave/Generated/CMSIS_DSP/Source/SupportFunctions/arm_float_to_q31.c ****     /* Convert from float to Q31 and then store the results in the destination buffer */
 200:../Dave/Generated/CMSIS_DSP/Source/SupportFunctions/arm_float_to_q31.c ****     in = *pIn++;
 201:../Dave/Generated/CMSIS_DSP/Source/SupportFunctions/arm_float_to_q31.c ****     in = (in * 2147483648.0f);
 202:../Dave/Generated/CMSIS_DSP/Source/SupportFunctions/arm_float_to_q31.c ****     in += in > 0.0f ? 0.5f : -0.5f;
 203:../Dave/Generated/CMSIS_DSP/Source/SupportFunctions/arm_float_to_q31.c ****     *pDst++ = clip_q63_to_q31((q63_t) (in));
 204:../Dave/Generated/CMSIS_DSP/Source/SupportFunctions/arm_float_to_q31.c **** 
 205:../Dave/Generated/CMSIS_DSP/Source/SupportFunctions/arm_float_to_q31.c **** #else
 206:../Dave/Generated/CMSIS_DSP/Source/SupportFunctions/arm_float_to_q31.c **** 
 207:../Dave/Generated/CMSIS_DSP/Source/SupportFunctions/arm_float_to_q31.c ****     /* C = A * 2147483648 */
 208:../Dave/Generated/CMSIS_DSP/Source/SupportFunctions/arm_float_to_q31.c ****     /* Convert from float to Q31 and then store the results in the destination buffer */
 209:../Dave/Generated/CMSIS_DSP/Source/SupportFunctions/arm_float_to_q31.c ****     *pDst++ = clip_q63_to_q31((q63_t) (*pIn++ * 2147483648.0f));
 210:../Dave/Generated/CMSIS_DSP/Source/SupportFunctions/arm_float_to_q31.c **** 
 211:../Dave/Generated/CMSIS_DSP/Source/SupportFunctions/arm_float_to_q31.c **** #endif /*      #ifdef ARM_MATH_ROUNDING        */
 212:../Dave/Generated/CMSIS_DSP/Source/SupportFunctions/arm_float_to_q31.c **** 
 213:../Dave/Generated/CMSIS_DSP/Source/SupportFunctions/arm_float_to_q31.c ****     /* Decrement the loop counter */
 214:../Dave/Generated/CMSIS_DSP/Source/SupportFunctions/arm_float_to_q31.c ****     blkCnt--;
 215:../Dave/Generated/CMSIS_DSP/Source/SupportFunctions/arm_float_to_q31.c ****   }
 216:../Dave/Generated/CMSIS_DSP/Source/SupportFunctions/arm_float_to_q31.c **** 
 217:../Dave/Generated/CMSIS_DSP/Source/SupportFunctions/arm_float_to_q31.c **** 
 218:../Dave/Generated/CMSIS_DSP/Source/SupportFunctions/arm_float_to_q31.c **** }
 219:../Dave/Generated/CMSIS_DSP/Source/SupportFunctions/arm_float_to_q31.c **** #else
 220:../Dave/Generated/CMSIS_DSP/Source/SupportFunctions/arm_float_to_q31.c **** void arm_float_to_q31(
 221:../Dave/Generated/CMSIS_DSP/Source/SupportFunctions/arm_float_to_q31.c ****   const float32_t * pSrc,
 222:../Dave/Generated/CMSIS_DSP/Source/SupportFunctions/arm_float_to_q31.c ****         q31_t * pDst,
 223:../Dave/Generated/CMSIS_DSP/Source/SupportFunctions/arm_float_to_q31.c ****         uint32_t blockSize)
 224:../Dave/Generated/CMSIS_DSP/Source/SupportFunctions/arm_float_to_q31.c **** {
  29              	 .loc 1 224 0
  30              	 .cfi_startproc
  31              	 
  32              	 
  33 0000 2DE9F043 	 push {r4,r5,r6,r7,r8,r9,lr}
  34              	.LCFI0:
  35              	 .cfi_def_cfa_offset 28
  36              	 .cfi_offset 4,-28
  37              	 .cfi_offset 5,-24
  38              	 .cfi_offset 6,-20
  39              	 .cfi_offset 7,-16
  40              	 .cfi_offset 8,-12
  41              	 .cfi_offset 9,-8
  42              	 .cfi_offset 14,-4
  43 0004 8BB0     	 sub sp,sp,#44
  44              	.LCFI1:
  45              	 .cfi_def_cfa_offset 72
  46 0006 00AF     	 add r7,sp,#0
  47              	.LCFI2:
  48              	 .cfi_def_cfa_register 7
  49 0008 F860     	 str r0,[r7,#12]
  50 000a B960     	 str r1,[r7,#8]
  51 000c 7A60     	 str r2,[r7,#4]
 225:../Dave/Generated/CMSIS_DSP/Source/SupportFunctions/arm_float_to_q31.c ****         uint32_t blkCnt;                               /* Loop counter */
 226:../Dave/Generated/CMSIS_DSP/Source/SupportFunctions/arm_float_to_q31.c ****   const float32_t *pIn = pSrc;                         /* Source pointer */
  52              	 .loc 1 226 0
  53 000e FB68     	 ldr r3,[r7,#12]
  54 0010 3B62     	 str r3,[r7,#32]
 227:../Dave/Generated/CMSIS_DSP/Source/SupportFunctions/arm_float_to_q31.c **** 
 228:../Dave/Generated/CMSIS_DSP/Source/SupportFunctions/arm_float_to_q31.c **** #ifdef ARM_MATH_ROUNDING
 229:../Dave/Generated/CMSIS_DSP/Source/SupportFunctions/arm_float_to_q31.c ****         float32_t in;
 230:../Dave/Generated/CMSIS_DSP/Source/SupportFunctions/arm_float_to_q31.c **** #endif /* #ifdef ARM_MATH_ROUNDING */
 231:../Dave/Generated/CMSIS_DSP/Source/SupportFunctions/arm_float_to_q31.c **** 
 232:../Dave/Generated/CMSIS_DSP/Source/SupportFunctions/arm_float_to_q31.c **** #if defined (ARM_MATH_LOOPUNROLL)
 233:../Dave/Generated/CMSIS_DSP/Source/SupportFunctions/arm_float_to_q31.c **** 
 234:../Dave/Generated/CMSIS_DSP/Source/SupportFunctions/arm_float_to_q31.c ****   /* Loop unrolling: Compute 4 outputs at a time */
 235:../Dave/Generated/CMSIS_DSP/Source/SupportFunctions/arm_float_to_q31.c ****   blkCnt = blockSize >> 2U;
 236:../Dave/Generated/CMSIS_DSP/Source/SupportFunctions/arm_float_to_q31.c **** 
 237:../Dave/Generated/CMSIS_DSP/Source/SupportFunctions/arm_float_to_q31.c ****   while (blkCnt > 0U)
 238:../Dave/Generated/CMSIS_DSP/Source/SupportFunctions/arm_float_to_q31.c ****   {
 239:../Dave/Generated/CMSIS_DSP/Source/SupportFunctions/arm_float_to_q31.c ****     /* C = A * 2147483648 */
 240:../Dave/Generated/CMSIS_DSP/Source/SupportFunctions/arm_float_to_q31.c **** 
 241:../Dave/Generated/CMSIS_DSP/Source/SupportFunctions/arm_float_to_q31.c ****     /* convert from float to Q31 and store result in destination buffer */
 242:../Dave/Generated/CMSIS_DSP/Source/SupportFunctions/arm_float_to_q31.c **** #ifdef ARM_MATH_ROUNDING
 243:../Dave/Generated/CMSIS_DSP/Source/SupportFunctions/arm_float_to_q31.c **** 
 244:../Dave/Generated/CMSIS_DSP/Source/SupportFunctions/arm_float_to_q31.c ****     in = (*pIn++ * 2147483648.0f);
 245:../Dave/Generated/CMSIS_DSP/Source/SupportFunctions/arm_float_to_q31.c ****     in += in > 0.0f ? 0.5f : -0.5f;
 246:../Dave/Generated/CMSIS_DSP/Source/SupportFunctions/arm_float_to_q31.c ****     *pDst++ = clip_q63_to_q31((q63_t) (in));
 247:../Dave/Generated/CMSIS_DSP/Source/SupportFunctions/arm_float_to_q31.c **** 
 248:../Dave/Generated/CMSIS_DSP/Source/SupportFunctions/arm_float_to_q31.c ****     in = (*pIn++ * 2147483648.0f);
 249:../Dave/Generated/CMSIS_DSP/Source/SupportFunctions/arm_float_to_q31.c ****     in += in > 0.0f ? 0.5f : -0.5f;
 250:../Dave/Generated/CMSIS_DSP/Source/SupportFunctions/arm_float_to_q31.c ****     *pDst++ = clip_q63_to_q31((q63_t) (in));
 251:../Dave/Generated/CMSIS_DSP/Source/SupportFunctions/arm_float_to_q31.c **** 
 252:../Dave/Generated/CMSIS_DSP/Source/SupportFunctions/arm_float_to_q31.c ****     in = (*pIn++ * 2147483648.0f);
 253:../Dave/Generated/CMSIS_DSP/Source/SupportFunctions/arm_float_to_q31.c ****     in += in > 0.0f ? 0.5f : -0.5f;
 254:../Dave/Generated/CMSIS_DSP/Source/SupportFunctions/arm_float_to_q31.c ****     *pDst++ = clip_q63_to_q31((q63_t) (in));
 255:../Dave/Generated/CMSIS_DSP/Source/SupportFunctions/arm_float_to_q31.c **** 
 256:../Dave/Generated/CMSIS_DSP/Source/SupportFunctions/arm_float_to_q31.c ****     in = (*pIn++ * 2147483648.0f);
 257:../Dave/Generated/CMSIS_DSP/Source/SupportFunctions/arm_float_to_q31.c ****     in += in > 0.0f ? 0.5f : -0.5f;
 258:../Dave/Generated/CMSIS_DSP/Source/SupportFunctions/arm_float_to_q31.c ****     *pDst++ = clip_q63_to_q31((q63_t) (in));
 259:../Dave/Generated/CMSIS_DSP/Source/SupportFunctions/arm_float_to_q31.c **** 
 260:../Dave/Generated/CMSIS_DSP/Source/SupportFunctions/arm_float_to_q31.c **** #else
 261:../Dave/Generated/CMSIS_DSP/Source/SupportFunctions/arm_float_to_q31.c **** 
 262:../Dave/Generated/CMSIS_DSP/Source/SupportFunctions/arm_float_to_q31.c ****     /* C = A * 2147483648 */
 263:../Dave/Generated/CMSIS_DSP/Source/SupportFunctions/arm_float_to_q31.c ****     /* Convert from float to Q31 and then store the results in the destination buffer */
 264:../Dave/Generated/CMSIS_DSP/Source/SupportFunctions/arm_float_to_q31.c ****     *pDst++ = clip_q63_to_q31((q63_t) (*pIn++ * 2147483648.0f));
 265:../Dave/Generated/CMSIS_DSP/Source/SupportFunctions/arm_float_to_q31.c ****     *pDst++ = clip_q63_to_q31((q63_t) (*pIn++ * 2147483648.0f));
 266:../Dave/Generated/CMSIS_DSP/Source/SupportFunctions/arm_float_to_q31.c ****     *pDst++ = clip_q63_to_q31((q63_t) (*pIn++ * 2147483648.0f));
 267:../Dave/Generated/CMSIS_DSP/Source/SupportFunctions/arm_float_to_q31.c ****     *pDst++ = clip_q63_to_q31((q63_t) (*pIn++ * 2147483648.0f));
 268:../Dave/Generated/CMSIS_DSP/Source/SupportFunctions/arm_float_to_q31.c **** 
 269:../Dave/Generated/CMSIS_DSP/Source/SupportFunctions/arm_float_to_q31.c **** #endif /* #ifdef ARM_MATH_ROUNDING */
 270:../Dave/Generated/CMSIS_DSP/Source/SupportFunctions/arm_float_to_q31.c **** 
 271:../Dave/Generated/CMSIS_DSP/Source/SupportFunctions/arm_float_to_q31.c ****     /* Decrement loop counter */
 272:../Dave/Generated/CMSIS_DSP/Source/SupportFunctions/arm_float_to_q31.c ****     blkCnt--;
 273:../Dave/Generated/CMSIS_DSP/Source/SupportFunctions/arm_float_to_q31.c ****   }
 274:../Dave/Generated/CMSIS_DSP/Source/SupportFunctions/arm_float_to_q31.c **** 
 275:../Dave/Generated/CMSIS_DSP/Source/SupportFunctions/arm_float_to_q31.c ****   /* Loop unrolling: Compute remaining outputs */
 276:../Dave/Generated/CMSIS_DSP/Source/SupportFunctions/arm_float_to_q31.c ****   blkCnt = blockSize % 0x4U;
 277:../Dave/Generated/CMSIS_DSP/Source/SupportFunctions/arm_float_to_q31.c **** 
 278:../Dave/Generated/CMSIS_DSP/Source/SupportFunctions/arm_float_to_q31.c **** #else
 279:../Dave/Generated/CMSIS_DSP/Source/SupportFunctions/arm_float_to_q31.c **** 
 280:../Dave/Generated/CMSIS_DSP/Source/SupportFunctions/arm_float_to_q31.c ****   /* Initialize blkCnt with number of samples */
 281:../Dave/Generated/CMSIS_DSP/Source/SupportFunctions/arm_float_to_q31.c ****   blkCnt = blockSize;
  55              	 .loc 1 281 0
  56 0012 7B68     	 ldr r3,[r7,#4]
  57 0014 7B62     	 str r3,[r7,#36]
 282:../Dave/Generated/CMSIS_DSP/Source/SupportFunctions/arm_float_to_q31.c **** 
 283:../Dave/Generated/CMSIS_DSP/Source/SupportFunctions/arm_float_to_q31.c **** #endif /* #if defined (ARM_MATH_LOOPUNROLL) */
 284:../Dave/Generated/CMSIS_DSP/Source/SupportFunctions/arm_float_to_q31.c **** 
 285:../Dave/Generated/CMSIS_DSP/Source/SupportFunctions/arm_float_to_q31.c ****   while (blkCnt > 0U)
  58              	 .loc 1 285 0
  59 0016 3FE0     	 b .L2
  60              	.L9:
 286:../Dave/Generated/CMSIS_DSP/Source/SupportFunctions/arm_float_to_q31.c ****   {
 287:../Dave/Generated/CMSIS_DSP/Source/SupportFunctions/arm_float_to_q31.c ****     /* C = A * 2147483648 */
 288:../Dave/Generated/CMSIS_DSP/Source/SupportFunctions/arm_float_to_q31.c **** 
 289:../Dave/Generated/CMSIS_DSP/Source/SupportFunctions/arm_float_to_q31.c ****     /* convert from float to Q31 and store result in destination buffer */
 290:../Dave/Generated/CMSIS_DSP/Source/SupportFunctions/arm_float_to_q31.c **** #ifdef ARM_MATH_ROUNDING
 291:../Dave/Generated/CMSIS_DSP/Source/SupportFunctions/arm_float_to_q31.c **** 
 292:../Dave/Generated/CMSIS_DSP/Source/SupportFunctions/arm_float_to_q31.c ****     in = (*pIn++ * 2147483648.0f);
  61              	 .loc 1 292 0
  62 0018 3B6A     	 ldr r3,[r7,#32]
  63 001a 1A1D     	 adds r2,r3,#4
  64 001c 3A62     	 str r2,[r7,#32]
  65 001e D3ED007A 	 flds s15,[r3]
  66 0022 9FED217A 	 flds s14,.L13
  67 0026 67EE877A 	 fmuls s15,s15,s14
  68 002a C7ED077A 	 fsts s15,[r7,#28]
 293:../Dave/Generated/CMSIS_DSP/Source/SupportFunctions/arm_float_to_q31.c ****     in += in > 0.0f ? 0.5f : -0.5f;
  69              	 .loc 1 293 0
  70 002e D7ED077A 	 flds s15,[r7,#28]
  71 0032 F5EEC07A 	 fcmpezs s15
  72 0036 F1EE10FA 	 fmstat
  73 003a 02DD     	 ble .L12
  74              	 .loc 1 293 0 is_stmt 0 discriminator 1
  75 003c F6EE007A 	 fconsts s15,#96
  76 0040 01E0     	 b .L5
  77              	.L12:
  78              	 .loc 1 293 0 discriminator 2
  79 0042 FEEE007A 	 fconsts s15,#224
  80              	.L5:
  81              	 .loc 1 293 0 discriminator 4
  82 0046 97ED077A 	 flds s14,[r7,#28]
  83 004a 77EE277A 	 fadds s15,s14,s15
  84 004e C7ED077A 	 fsts s15,[r7,#28]
 294:../Dave/Generated/CMSIS_DSP/Source/SupportFunctions/arm_float_to_q31.c ****     *pDst++ = clip_q63_to_q31((q63_t) (in));
  85              	 .loc 1 294 0 is_stmt 1 discriminator 4
  86 0052 BE68     	 ldr r6,[r7,#8]
  87 0054 331D     	 adds r3,r6,#4
  88 0056 BB60     	 str r3,[r7,#8]
  89 0058 F869     	 ldr r0,[r7,#28]
  90 005a FFF7FEFF 	 bl __aeabi_f2lz
  91 005e 0246     	 mov r2,r0
  92 0060 0B46     	 mov r3,r1
  93 0062 C7E90423 	 strd r2,[r7,#16]
  94              	.LBB4:
  95              	.LBB5:
  96              	 .file 2 "C:/Users/Rui Mendes/Desktop/DAVE/_Naive/_ForTesting/Dave/Generated/CMSIS_DSP/Include/arm_math.h"
   1:C:/Users/Rui Mendes/Desktop/DAVE/_Naive/_ForTesting/Dave/Generated/CMSIS_DSP/Include\arm_math.h **** /******************************************************************************
   2:C:/Users/Rui Mendes/Desktop/DAVE/_Naive/_ForTesting/Dave/Generated/CMSIS_DSP/Include\arm_math.h ****  * @file     arm_math.h
   3:C:/Users/Rui Mendes/Desktop/DAVE/_Naive/_ForTesting/Dave/Generated/CMSIS_DSP/Include\arm_math.h ****  * @brief    Public header file for CMSIS DSP Library
   4:C:/Users/Rui Mendes/Desktop/DAVE/_Naive/_ForTesting/Dave/Generated/CMSIS_DSP/Include\arm_math.h ****  * @version  V1.7.0
   5:C:/Users/Rui Mendes/Desktop/DAVE/_Naive/_ForTesting/Dave/Generated/CMSIS_DSP/Include\arm_math.h ****  * @date     18. March 2019
   6:C:/Users/Rui Mendes/Desktop/DAVE/_Naive/_ForTesting/Dave/Generated/CMSIS_DSP/Include\arm_math.h ****  ******************************************************************************/
   7:C:/Users/Rui Mendes/Desktop/DAVE/_Naive/_ForTesting/Dave/Generated/CMSIS_DSP/Include\arm_math.h **** /*
   8:C:/Users/Rui Mendes/Desktop/DAVE/_Naive/_ForTesting/Dave/Generated/CMSIS_DSP/Include\arm_math.h ****  * Copyright (c) 2010-2019 Arm Limited or its affiliates. All rights reserved.
   9:C:/Users/Rui Mendes/Desktop/DAVE/_Naive/_ForTesting/Dave/Generated/CMSIS_DSP/Include\arm_math.h ****  *
  10:C:/Users/Rui Mendes/Desktop/DAVE/_Naive/_ForTesting/Dave/Generated/CMSIS_DSP/Include\arm_math.h ****  * SPDX-License-Identifier: Apache-2.0
  11:C:/Users/Rui Mendes/Desktop/DAVE/_Naive/_ForTesting/Dave/Generated/CMSIS_DSP/Include\arm_math.h ****  *
  12:C:/Users/Rui Mendes/Desktop/DAVE/_Naive/_ForTesting/Dave/Generated/CMSIS_DSP/Include\arm_math.h ****  * Licensed under the Apache License, Version 2.0 (the License); you may
  13:C:/Users/Rui Mendes/Desktop/DAVE/_Naive/_ForTesting/Dave/Generated/CMSIS_DSP/Include\arm_math.h ****  * not use this file except in compliance with the License.
  14:C:/Users/Rui Mendes/Desktop/DAVE/_Naive/_ForTesting/Dave/Generated/CMSIS_DSP/Include\arm_math.h ****  * You may obtain a copy of the License at
  15:C:/Users/Rui Mendes/Desktop/DAVE/_Naive/_ForTesting/Dave/Generated/CMSIS_DSP/Include\arm_math.h ****  *
  16:C:/Users/Rui Mendes/Desktop/DAVE/_Naive/_ForTesting/Dave/Generated/CMSIS_DSP/Include\arm_math.h ****  * www.apache.org/licenses/LICENSE-2.0
  17:C:/Users/Rui Mendes/Desktop/DAVE/_Naive/_ForTesting/Dave/Generated/CMSIS_DSP/Include\arm_math.h ****  *
  18:C:/Users/Rui Mendes/Desktop/DAVE/_Naive/_ForTesting/Dave/Generated/CMSIS_DSP/Include\arm_math.h ****  * Unless required by applicable law or agreed to in writing, software
  19:C:/Users/Rui Mendes/Desktop/DAVE/_Naive/_ForTesting/Dave/Generated/CMSIS_DSP/Include\arm_math.h ****  * distributed under the License is distributed on an AS IS BASIS, WITHOUT
  20:C:/Users/Rui Mendes/Desktop/DAVE/_Naive/_ForTesting/Dave/Generated/CMSIS_DSP/Include\arm_math.h ****  * WARRANTIES OR CONDITIONS OF ANY KIND, either express or implied.
  21:C:/Users/Rui Mendes/Desktop/DAVE/_Naive/_ForTesting/Dave/Generated/CMSIS_DSP/Include\arm_math.h ****  * See the License for the specific language governing permissions and
  22:C:/Users/Rui Mendes/Desktop/DAVE/_Naive/_ForTesting/Dave/Generated/CMSIS_DSP/Include\arm_math.h ****  * limitations under the License.
  23:C:/Users/Rui Mendes/Desktop/DAVE/_Naive/_ForTesting/Dave/Generated/CMSIS_DSP/Include\arm_math.h ****  */
  24:C:/Users/Rui Mendes/Desktop/DAVE/_Naive/_ForTesting/Dave/Generated/CMSIS_DSP/Include\arm_math.h **** 
  25:C:/Users/Rui Mendes/Desktop/DAVE/_Naive/_ForTesting/Dave/Generated/CMSIS_DSP/Include\arm_math.h **** /**
  26:C:/Users/Rui Mendes/Desktop/DAVE/_Naive/_ForTesting/Dave/Generated/CMSIS_DSP/Include\arm_math.h ****    \mainpage CMSIS DSP Software Library
  27:C:/Users/Rui Mendes/Desktop/DAVE/_Naive/_ForTesting/Dave/Generated/CMSIS_DSP/Include\arm_math.h ****    *
  28:C:/Users/Rui Mendes/Desktop/DAVE/_Naive/_ForTesting/Dave/Generated/CMSIS_DSP/Include\arm_math.h ****    * Introduction
  29:C:/Users/Rui Mendes/Desktop/DAVE/_Naive/_ForTesting/Dave/Generated/CMSIS_DSP/Include\arm_math.h ****    * ------------
  30:C:/Users/Rui Mendes/Desktop/DAVE/_Naive/_ForTesting/Dave/Generated/CMSIS_DSP/Include\arm_math.h ****    *
  31:C:/Users/Rui Mendes/Desktop/DAVE/_Naive/_ForTesting/Dave/Generated/CMSIS_DSP/Include\arm_math.h ****    * This user manual describes the CMSIS DSP software library,
  32:C:/Users/Rui Mendes/Desktop/DAVE/_Naive/_ForTesting/Dave/Generated/CMSIS_DSP/Include\arm_math.h ****    * a suite of common signal processing functions for use on Cortex-M and Cortex-A processor 
  33:C:/Users/Rui Mendes/Desktop/DAVE/_Naive/_ForTesting/Dave/Generated/CMSIS_DSP/Include\arm_math.h ****    * based devices.
  34:C:/Users/Rui Mendes/Desktop/DAVE/_Naive/_ForTesting/Dave/Generated/CMSIS_DSP/Include\arm_math.h ****    *
  35:C:/Users/Rui Mendes/Desktop/DAVE/_Naive/_ForTesting/Dave/Generated/CMSIS_DSP/Include\arm_math.h ****    * The library is divided into a number of functions each covering a specific category:
  36:C:/Users/Rui Mendes/Desktop/DAVE/_Naive/_ForTesting/Dave/Generated/CMSIS_DSP/Include\arm_math.h ****    * - Basic math functions
  37:C:/Users/Rui Mendes/Desktop/DAVE/_Naive/_ForTesting/Dave/Generated/CMSIS_DSP/Include\arm_math.h ****    * - Fast math functions
  38:C:/Users/Rui Mendes/Desktop/DAVE/_Naive/_ForTesting/Dave/Generated/CMSIS_DSP/Include\arm_math.h ****    * - Complex math functions
  39:C:/Users/Rui Mendes/Desktop/DAVE/_Naive/_ForTesting/Dave/Generated/CMSIS_DSP/Include\arm_math.h ****    * - Filtering functions
  40:C:/Users/Rui Mendes/Desktop/DAVE/_Naive/_ForTesting/Dave/Generated/CMSIS_DSP/Include\arm_math.h ****    * - Matrix functions
  41:C:/Users/Rui Mendes/Desktop/DAVE/_Naive/_ForTesting/Dave/Generated/CMSIS_DSP/Include\arm_math.h ****    * - Transform functions
  42:C:/Users/Rui Mendes/Desktop/DAVE/_Naive/_ForTesting/Dave/Generated/CMSIS_DSP/Include\arm_math.h ****    * - Motor control functions
  43:C:/Users/Rui Mendes/Desktop/DAVE/_Naive/_ForTesting/Dave/Generated/CMSIS_DSP/Include\arm_math.h ****    * - Statistical functions
  44:C:/Users/Rui Mendes/Desktop/DAVE/_Naive/_ForTesting/Dave/Generated/CMSIS_DSP/Include\arm_math.h ****    * - Support functions
  45:C:/Users/Rui Mendes/Desktop/DAVE/_Naive/_ForTesting/Dave/Generated/CMSIS_DSP/Include\arm_math.h ****    * - Interpolation functions
  46:C:/Users/Rui Mendes/Desktop/DAVE/_Naive/_ForTesting/Dave/Generated/CMSIS_DSP/Include\arm_math.h ****    * - Support Vector Machine functions (SVM)
  47:C:/Users/Rui Mendes/Desktop/DAVE/_Naive/_ForTesting/Dave/Generated/CMSIS_DSP/Include\arm_math.h ****    * - Bayes classifier functions
  48:C:/Users/Rui Mendes/Desktop/DAVE/_Naive/_ForTesting/Dave/Generated/CMSIS_DSP/Include\arm_math.h ****    * - Distance functions
  49:C:/Users/Rui Mendes/Desktop/DAVE/_Naive/_ForTesting/Dave/Generated/CMSIS_DSP/Include\arm_math.h ****    *
  50:C:/Users/Rui Mendes/Desktop/DAVE/_Naive/_ForTesting/Dave/Generated/CMSIS_DSP/Include\arm_math.h ****    * The library has generally separate functions for operating on 8-bit integers, 16-bit integers,
  51:C:/Users/Rui Mendes/Desktop/DAVE/_Naive/_ForTesting/Dave/Generated/CMSIS_DSP/Include\arm_math.h ****    * 32-bit integer and 32-bit floating-point values.
  52:C:/Users/Rui Mendes/Desktop/DAVE/_Naive/_ForTesting/Dave/Generated/CMSIS_DSP/Include\arm_math.h ****    *
  53:C:/Users/Rui Mendes/Desktop/DAVE/_Naive/_ForTesting/Dave/Generated/CMSIS_DSP/Include\arm_math.h ****    * Using the Library
  54:C:/Users/Rui Mendes/Desktop/DAVE/_Naive/_ForTesting/Dave/Generated/CMSIS_DSP/Include\arm_math.h ****    * ------------
  55:C:/Users/Rui Mendes/Desktop/DAVE/_Naive/_ForTesting/Dave/Generated/CMSIS_DSP/Include\arm_math.h ****    *
  56:C:/Users/Rui Mendes/Desktop/DAVE/_Naive/_ForTesting/Dave/Generated/CMSIS_DSP/Include\arm_math.h ****    * The library installer contains prebuilt versions of the libraries in the <code>Lib</code> fold
  57:C:/Users/Rui Mendes/Desktop/DAVE/_Naive/_ForTesting/Dave/Generated/CMSIS_DSP/Include\arm_math.h ****    *
  58:C:/Users/Rui Mendes/Desktop/DAVE/_Naive/_ForTesting/Dave/Generated/CMSIS_DSP/Include\arm_math.h ****    * Here is the list of pre-built libraries :
  59:C:/Users/Rui Mendes/Desktop/DAVE/_Naive/_ForTesting/Dave/Generated/CMSIS_DSP/Include\arm_math.h ****    * - arm_cortexM7lfdp_math.lib (Cortex-M7, Little endian, Double Precision Floating Point Unit)
  60:C:/Users/Rui Mendes/Desktop/DAVE/_Naive/_ForTesting/Dave/Generated/CMSIS_DSP/Include\arm_math.h ****    * - arm_cortexM7bfdp_math.lib (Cortex-M7, Big endian, Double Precision Floating Point Unit)
  61:C:/Users/Rui Mendes/Desktop/DAVE/_Naive/_ForTesting/Dave/Generated/CMSIS_DSP/Include\arm_math.h ****    * - arm_cortexM7lfsp_math.lib (Cortex-M7, Little endian, Single Precision Floating Point Unit)
  62:C:/Users/Rui Mendes/Desktop/DAVE/_Naive/_ForTesting/Dave/Generated/CMSIS_DSP/Include\arm_math.h ****    * - arm_cortexM7bfsp_math.lib (Cortex-M7, Big endian and Single Precision Floating Point Unit on
  63:C:/Users/Rui Mendes/Desktop/DAVE/_Naive/_ForTesting/Dave/Generated/CMSIS_DSP/Include\arm_math.h ****    * - arm_cortexM7l_math.lib (Cortex-M7, Little endian)
  64:C:/Users/Rui Mendes/Desktop/DAVE/_Naive/_ForTesting/Dave/Generated/CMSIS_DSP/Include\arm_math.h ****    * - arm_cortexM7b_math.lib (Cortex-M7, Big endian)
  65:C:/Users/Rui Mendes/Desktop/DAVE/_Naive/_ForTesting/Dave/Generated/CMSIS_DSP/Include\arm_math.h ****    * - arm_cortexM4lf_math.lib (Cortex-M4, Little endian, Floating Point Unit)
  66:C:/Users/Rui Mendes/Desktop/DAVE/_Naive/_ForTesting/Dave/Generated/CMSIS_DSP/Include\arm_math.h ****    * - arm_cortexM4bf_math.lib (Cortex-M4, Big endian, Floating Point Unit)
  67:C:/Users/Rui Mendes/Desktop/DAVE/_Naive/_ForTesting/Dave/Generated/CMSIS_DSP/Include\arm_math.h ****    * - arm_cortexM4l_math.lib (Cortex-M4, Little endian)
  68:C:/Users/Rui Mendes/Desktop/DAVE/_Naive/_ForTesting/Dave/Generated/CMSIS_DSP/Include\arm_math.h ****    * - arm_cortexM4b_math.lib (Cortex-M4, Big endian)
  69:C:/Users/Rui Mendes/Desktop/DAVE/_Naive/_ForTesting/Dave/Generated/CMSIS_DSP/Include\arm_math.h ****    * - arm_cortexM3l_math.lib (Cortex-M3, Little endian)
  70:C:/Users/Rui Mendes/Desktop/DAVE/_Naive/_ForTesting/Dave/Generated/CMSIS_DSP/Include\arm_math.h ****    * - arm_cortexM3b_math.lib (Cortex-M3, Big endian)
  71:C:/Users/Rui Mendes/Desktop/DAVE/_Naive/_ForTesting/Dave/Generated/CMSIS_DSP/Include\arm_math.h ****    * - arm_cortexM0l_math.lib (Cortex-M0 / Cortex-M0+, Little endian)
  72:C:/Users/Rui Mendes/Desktop/DAVE/_Naive/_ForTesting/Dave/Generated/CMSIS_DSP/Include\arm_math.h ****    * - arm_cortexM0b_math.lib (Cortex-M0 / Cortex-M0+, Big endian)
  73:C:/Users/Rui Mendes/Desktop/DAVE/_Naive/_ForTesting/Dave/Generated/CMSIS_DSP/Include\arm_math.h ****    * - arm_ARMv8MBLl_math.lib (Armv8-M Baseline, Little endian)
  74:C:/Users/Rui Mendes/Desktop/DAVE/_Naive/_ForTesting/Dave/Generated/CMSIS_DSP/Include\arm_math.h ****    * - arm_ARMv8MMLl_math.lib (Armv8-M Mainline, Little endian)
  75:C:/Users/Rui Mendes/Desktop/DAVE/_Naive/_ForTesting/Dave/Generated/CMSIS_DSP/Include\arm_math.h ****    * - arm_ARMv8MMLlfsp_math.lib (Armv8-M Mainline, Little endian, Single Precision Floating Point 
  76:C:/Users/Rui Mendes/Desktop/DAVE/_Naive/_ForTesting/Dave/Generated/CMSIS_DSP/Include\arm_math.h ****    * - arm_ARMv8MMLld_math.lib (Armv8-M Mainline, Little endian, DSP instructions)
  77:C:/Users/Rui Mendes/Desktop/DAVE/_Naive/_ForTesting/Dave/Generated/CMSIS_DSP/Include\arm_math.h ****    * - arm_ARMv8MMLldfsp_math.lib (Armv8-M Mainline, Little endian, DSP instructions, Single Precis
  78:C:/Users/Rui Mendes/Desktop/DAVE/_Naive/_ForTesting/Dave/Generated/CMSIS_DSP/Include\arm_math.h ****    *
  79:C:/Users/Rui Mendes/Desktop/DAVE/_Naive/_ForTesting/Dave/Generated/CMSIS_DSP/Include\arm_math.h ****    * The library functions are declared in the public file <code>arm_math.h</code> which is placed 
  80:C:/Users/Rui Mendes/Desktop/DAVE/_Naive/_ForTesting/Dave/Generated/CMSIS_DSP/Include\arm_math.h ****    * Simply include this file and link the appropriate library in the application and begin calling
  81:C:/Users/Rui Mendes/Desktop/DAVE/_Naive/_ForTesting/Dave/Generated/CMSIS_DSP/Include\arm_math.h ****    * public header file <code> arm_math.h</code> for Cortex-M cores with little endian and big endi
  82:C:/Users/Rui Mendes/Desktop/DAVE/_Naive/_ForTesting/Dave/Generated/CMSIS_DSP/Include\arm_math.h ****    *
  83:C:/Users/Rui Mendes/Desktop/DAVE/_Naive/_ForTesting/Dave/Generated/CMSIS_DSP/Include\arm_math.h ****    *
  84:C:/Users/Rui Mendes/Desktop/DAVE/_Naive/_ForTesting/Dave/Generated/CMSIS_DSP/Include\arm_math.h ****    * Examples
  85:C:/Users/Rui Mendes/Desktop/DAVE/_Naive/_ForTesting/Dave/Generated/CMSIS_DSP/Include\arm_math.h ****    * --------
  86:C:/Users/Rui Mendes/Desktop/DAVE/_Naive/_ForTesting/Dave/Generated/CMSIS_DSP/Include\arm_math.h ****    *
  87:C:/Users/Rui Mendes/Desktop/DAVE/_Naive/_ForTesting/Dave/Generated/CMSIS_DSP/Include\arm_math.h ****    * The library ships with a number of examples which demonstrate how to use the library functions
  88:C:/Users/Rui Mendes/Desktop/DAVE/_Naive/_ForTesting/Dave/Generated/CMSIS_DSP/Include\arm_math.h ****    *
  89:C:/Users/Rui Mendes/Desktop/DAVE/_Naive/_ForTesting/Dave/Generated/CMSIS_DSP/Include\arm_math.h ****    * Toolchain Support
  90:C:/Users/Rui Mendes/Desktop/DAVE/_Naive/_ForTesting/Dave/Generated/CMSIS_DSP/Include\arm_math.h ****    * ------------
  91:C:/Users/Rui Mendes/Desktop/DAVE/_Naive/_ForTesting/Dave/Generated/CMSIS_DSP/Include\arm_math.h ****    *
  92:C:/Users/Rui Mendes/Desktop/DAVE/_Naive/_ForTesting/Dave/Generated/CMSIS_DSP/Include\arm_math.h ****    * The library is now tested on Fast Models building with cmake.
  93:C:/Users/Rui Mendes/Desktop/DAVE/_Naive/_ForTesting/Dave/Generated/CMSIS_DSP/Include\arm_math.h ****    * Core M0, M7, A5 are tested.
  94:C:/Users/Rui Mendes/Desktop/DAVE/_Naive/_ForTesting/Dave/Generated/CMSIS_DSP/Include\arm_math.h ****    * 
  95:C:/Users/Rui Mendes/Desktop/DAVE/_Naive/_ForTesting/Dave/Generated/CMSIS_DSP/Include\arm_math.h ****    * 
  96:C:/Users/Rui Mendes/Desktop/DAVE/_Naive/_ForTesting/Dave/Generated/CMSIS_DSP/Include\arm_math.h ****    *
  97:C:/Users/Rui Mendes/Desktop/DAVE/_Naive/_ForTesting/Dave/Generated/CMSIS_DSP/Include\arm_math.h ****    * Building the Library
  98:C:/Users/Rui Mendes/Desktop/DAVE/_Naive/_ForTesting/Dave/Generated/CMSIS_DSP/Include\arm_math.h ****    * ------------
  99:C:/Users/Rui Mendes/Desktop/DAVE/_Naive/_ForTesting/Dave/Generated/CMSIS_DSP/Include\arm_math.h ****    *
 100:C:/Users/Rui Mendes/Desktop/DAVE/_Naive/_ForTesting/Dave/Generated/CMSIS_DSP/Include\arm_math.h ****    * The library installer contains a project file to rebuild libraries on MDK toolchain in the <co
 101:C:/Users/Rui Mendes/Desktop/DAVE/_Naive/_ForTesting/Dave/Generated/CMSIS_DSP/Include\arm_math.h ****    * - arm_cortexM_math.uvprojx
 102:C:/Users/Rui Mendes/Desktop/DAVE/_Naive/_ForTesting/Dave/Generated/CMSIS_DSP/Include\arm_math.h ****    *
 103:C:/Users/Rui Mendes/Desktop/DAVE/_Naive/_ForTesting/Dave/Generated/CMSIS_DSP/Include\arm_math.h ****    *
 104:C:/Users/Rui Mendes/Desktop/DAVE/_Naive/_ForTesting/Dave/Generated/CMSIS_DSP/Include\arm_math.h ****    * The libraries can be built by opening the arm_cortexM_math.uvprojx project in MDK-ARM, selecti
 105:C:/Users/Rui Mendes/Desktop/DAVE/_Naive/_ForTesting/Dave/Generated/CMSIS_DSP/Include\arm_math.h ****    *
 106:C:/Users/Rui Mendes/Desktop/DAVE/_Naive/_ForTesting/Dave/Generated/CMSIS_DSP/Include\arm_math.h ****    * There is also a work in progress cmake build. The README file is giving more details.
 107:C:/Users/Rui Mendes/Desktop/DAVE/_Naive/_ForTesting/Dave/Generated/CMSIS_DSP/Include\arm_math.h ****    *
 108:C:/Users/Rui Mendes/Desktop/DAVE/_Naive/_ForTesting/Dave/Generated/CMSIS_DSP/Include\arm_math.h ****    * Preprocessor Macros
 109:C:/Users/Rui Mendes/Desktop/DAVE/_Naive/_ForTesting/Dave/Generated/CMSIS_DSP/Include\arm_math.h ****    * ------------
 110:C:/Users/Rui Mendes/Desktop/DAVE/_Naive/_ForTesting/Dave/Generated/CMSIS_DSP/Include\arm_math.h ****    *
 111:C:/Users/Rui Mendes/Desktop/DAVE/_Naive/_ForTesting/Dave/Generated/CMSIS_DSP/Include\arm_math.h ****    * Each library project have different preprocessor macros.
 112:C:/Users/Rui Mendes/Desktop/DAVE/_Naive/_ForTesting/Dave/Generated/CMSIS_DSP/Include\arm_math.h ****    *
 113:C:/Users/Rui Mendes/Desktop/DAVE/_Naive/_ForTesting/Dave/Generated/CMSIS_DSP/Include\arm_math.h ****    * - ARM_MATH_BIG_ENDIAN:
 114:C:/Users/Rui Mendes/Desktop/DAVE/_Naive/_ForTesting/Dave/Generated/CMSIS_DSP/Include\arm_math.h ****    *
 115:C:/Users/Rui Mendes/Desktop/DAVE/_Naive/_ForTesting/Dave/Generated/CMSIS_DSP/Include\arm_math.h ****    * Define macro ARM_MATH_BIG_ENDIAN to build the library for big endian targets. By default libra
 116:C:/Users/Rui Mendes/Desktop/DAVE/_Naive/_ForTesting/Dave/Generated/CMSIS_DSP/Include\arm_math.h ****    *
 117:C:/Users/Rui Mendes/Desktop/DAVE/_Naive/_ForTesting/Dave/Generated/CMSIS_DSP/Include\arm_math.h ****    * - ARM_MATH_MATRIX_CHECK:
 118:C:/Users/Rui Mendes/Desktop/DAVE/_Naive/_ForTesting/Dave/Generated/CMSIS_DSP/Include\arm_math.h ****    *
 119:C:/Users/Rui Mendes/Desktop/DAVE/_Naive/_ForTesting/Dave/Generated/CMSIS_DSP/Include\arm_math.h ****    * Define macro ARM_MATH_MATRIX_CHECK for checking on the input and output sizes of matrices
 120:C:/Users/Rui Mendes/Desktop/DAVE/_Naive/_ForTesting/Dave/Generated/CMSIS_DSP/Include\arm_math.h ****    *
 121:C:/Users/Rui Mendes/Desktop/DAVE/_Naive/_ForTesting/Dave/Generated/CMSIS_DSP/Include\arm_math.h ****    * - ARM_MATH_ROUNDING:
 122:C:/Users/Rui Mendes/Desktop/DAVE/_Naive/_ForTesting/Dave/Generated/CMSIS_DSP/Include\arm_math.h ****    *
 123:C:/Users/Rui Mendes/Desktop/DAVE/_Naive/_ForTesting/Dave/Generated/CMSIS_DSP/Include\arm_math.h ****    * Define macro ARM_MATH_ROUNDING for rounding on support functions
 124:C:/Users/Rui Mendes/Desktop/DAVE/_Naive/_ForTesting/Dave/Generated/CMSIS_DSP/Include\arm_math.h ****    *
 125:C:/Users/Rui Mendes/Desktop/DAVE/_Naive/_ForTesting/Dave/Generated/CMSIS_DSP/Include\arm_math.h ****    * - ARM_MATH_LOOPUNROLL:
 126:C:/Users/Rui Mendes/Desktop/DAVE/_Naive/_ForTesting/Dave/Generated/CMSIS_DSP/Include\arm_math.h ****    *
 127:C:/Users/Rui Mendes/Desktop/DAVE/_Naive/_ForTesting/Dave/Generated/CMSIS_DSP/Include\arm_math.h ****    * Define macro ARM_MATH_LOOPUNROLL to enable manual loop unrolling in DSP functions
 128:C:/Users/Rui Mendes/Desktop/DAVE/_Naive/_ForTesting/Dave/Generated/CMSIS_DSP/Include\arm_math.h ****    *
 129:C:/Users/Rui Mendes/Desktop/DAVE/_Naive/_ForTesting/Dave/Generated/CMSIS_DSP/Include\arm_math.h ****    * - ARM_MATH_NEON:
 130:C:/Users/Rui Mendes/Desktop/DAVE/_Naive/_ForTesting/Dave/Generated/CMSIS_DSP/Include\arm_math.h ****    *
 131:C:/Users/Rui Mendes/Desktop/DAVE/_Naive/_ForTesting/Dave/Generated/CMSIS_DSP/Include\arm_math.h ****    * Define macro ARM_MATH_NEON to enable Neon versions of the DSP functions.
 132:C:/Users/Rui Mendes/Desktop/DAVE/_Naive/_ForTesting/Dave/Generated/CMSIS_DSP/Include\arm_math.h ****    * It is not enabled by default when Neon is available because performances are 
 133:C:/Users/Rui Mendes/Desktop/DAVE/_Naive/_ForTesting/Dave/Generated/CMSIS_DSP/Include\arm_math.h ****    * dependent on the compiler and target architecture.
 134:C:/Users/Rui Mendes/Desktop/DAVE/_Naive/_ForTesting/Dave/Generated/CMSIS_DSP/Include\arm_math.h ****    *
 135:C:/Users/Rui Mendes/Desktop/DAVE/_Naive/_ForTesting/Dave/Generated/CMSIS_DSP/Include\arm_math.h ****    * - ARM_MATH_NEON_EXPERIMENTAL:
 136:C:/Users/Rui Mendes/Desktop/DAVE/_Naive/_ForTesting/Dave/Generated/CMSIS_DSP/Include\arm_math.h ****    *
 137:C:/Users/Rui Mendes/Desktop/DAVE/_Naive/_ForTesting/Dave/Generated/CMSIS_DSP/Include\arm_math.h ****    * Define macro ARM_MATH_NEON_EXPERIMENTAL to enable experimental Neon versions of 
 138:C:/Users/Rui Mendes/Desktop/DAVE/_Naive/_ForTesting/Dave/Generated/CMSIS_DSP/Include\arm_math.h ****    * of some DSP functions. Experimental Neon versions currently do not have better
 139:C:/Users/Rui Mendes/Desktop/DAVE/_Naive/_ForTesting/Dave/Generated/CMSIS_DSP/Include\arm_math.h ****    * performances than the scalar versions.
 140:C:/Users/Rui Mendes/Desktop/DAVE/_Naive/_ForTesting/Dave/Generated/CMSIS_DSP/Include\arm_math.h ****    *
 141:C:/Users/Rui Mendes/Desktop/DAVE/_Naive/_ForTesting/Dave/Generated/CMSIS_DSP/Include\arm_math.h ****    * - ARM_MATH_HELIUM:
 142:C:/Users/Rui Mendes/Desktop/DAVE/_Naive/_ForTesting/Dave/Generated/CMSIS_DSP/Include\arm_math.h ****    *
 143:C:/Users/Rui Mendes/Desktop/DAVE/_Naive/_ForTesting/Dave/Generated/CMSIS_DSP/Include\arm_math.h ****    * It implies the flags ARM_MATH_MVEF and ARM_MATH_MVEI and ARM_MATH_FLOAT16.
 144:C:/Users/Rui Mendes/Desktop/DAVE/_Naive/_ForTesting/Dave/Generated/CMSIS_DSP/Include\arm_math.h ****    *
 145:C:/Users/Rui Mendes/Desktop/DAVE/_Naive/_ForTesting/Dave/Generated/CMSIS_DSP/Include\arm_math.h ****    * - ARM_MATH_MVEF:
 146:C:/Users/Rui Mendes/Desktop/DAVE/_Naive/_ForTesting/Dave/Generated/CMSIS_DSP/Include\arm_math.h ****    *
 147:C:/Users/Rui Mendes/Desktop/DAVE/_Naive/_ForTesting/Dave/Generated/CMSIS_DSP/Include\arm_math.h ****    * Select Helium versions of the f32 algorithms.
 148:C:/Users/Rui Mendes/Desktop/DAVE/_Naive/_ForTesting/Dave/Generated/CMSIS_DSP/Include\arm_math.h ****    * It implies ARM_MATH_FLOAT16 and ARM_MATH_MVEI.
 149:C:/Users/Rui Mendes/Desktop/DAVE/_Naive/_ForTesting/Dave/Generated/CMSIS_DSP/Include\arm_math.h ****    *
 150:C:/Users/Rui Mendes/Desktop/DAVE/_Naive/_ForTesting/Dave/Generated/CMSIS_DSP/Include\arm_math.h ****    * - ARM_MATH_MVEI:
 151:C:/Users/Rui Mendes/Desktop/DAVE/_Naive/_ForTesting/Dave/Generated/CMSIS_DSP/Include\arm_math.h ****    *
 152:C:/Users/Rui Mendes/Desktop/DAVE/_Naive/_ForTesting/Dave/Generated/CMSIS_DSP/Include\arm_math.h ****    * Select Helium versions of the int and fixed point algorithms.
 153:C:/Users/Rui Mendes/Desktop/DAVE/_Naive/_ForTesting/Dave/Generated/CMSIS_DSP/Include\arm_math.h ****    *
 154:C:/Users/Rui Mendes/Desktop/DAVE/_Naive/_ForTesting/Dave/Generated/CMSIS_DSP/Include\arm_math.h ****    * - ARM_MATH_FLOAT16:
 155:C:/Users/Rui Mendes/Desktop/DAVE/_Naive/_ForTesting/Dave/Generated/CMSIS_DSP/Include\arm_math.h ****    *
 156:C:/Users/Rui Mendes/Desktop/DAVE/_Naive/_ForTesting/Dave/Generated/CMSIS_DSP/Include\arm_math.h ****    * Float16 implementations of some algorithms (Requires MVE extension).
 157:C:/Users/Rui Mendes/Desktop/DAVE/_Naive/_ForTesting/Dave/Generated/CMSIS_DSP/Include\arm_math.h ****    *
 158:C:/Users/Rui Mendes/Desktop/DAVE/_Naive/_ForTesting/Dave/Generated/CMSIS_DSP/Include\arm_math.h ****    * <hr>
 159:C:/Users/Rui Mendes/Desktop/DAVE/_Naive/_ForTesting/Dave/Generated/CMSIS_DSP/Include\arm_math.h ****    * CMSIS-DSP in ARM::CMSIS Pack
 160:C:/Users/Rui Mendes/Desktop/DAVE/_Naive/_ForTesting/Dave/Generated/CMSIS_DSP/Include\arm_math.h ****    * -----------------------------
 161:C:/Users/Rui Mendes/Desktop/DAVE/_Naive/_ForTesting/Dave/Generated/CMSIS_DSP/Include\arm_math.h ****    *
 162:C:/Users/Rui Mendes/Desktop/DAVE/_Naive/_ForTesting/Dave/Generated/CMSIS_DSP/Include\arm_math.h ****    * The following files relevant to CMSIS-DSP are present in the <b>ARM::CMSIS</b> Pack directorie
 163:C:/Users/Rui Mendes/Desktop/DAVE/_Naive/_ForTesting/Dave/Generated/CMSIS_DSP/Include\arm_math.h ****    * |File/Folder                      |Content                                                    
 164:C:/Users/Rui Mendes/Desktop/DAVE/_Naive/_ForTesting/Dave/Generated/CMSIS_DSP/Include\arm_math.h ****    * |---------------------------------|-----------------------------------------------------------
 165:C:/Users/Rui Mendes/Desktop/DAVE/_Naive/_ForTesting/Dave/Generated/CMSIS_DSP/Include\arm_math.h ****    * |\b CMSIS\\Documentation\\DSP     | This documentation                                        
 166:C:/Users/Rui Mendes/Desktop/DAVE/_Naive/_ForTesting/Dave/Generated/CMSIS_DSP/Include\arm_math.h ****    * |\b CMSIS\\DSP\\DSP_Lib_TestSuite | DSP_Lib test suite                                        
 167:C:/Users/Rui Mendes/Desktop/DAVE/_Naive/_ForTesting/Dave/Generated/CMSIS_DSP/Include\arm_math.h ****    * |\b CMSIS\\DSP\\Examples          | Example projects demonstrating the usage of the library fu
 168:C:/Users/Rui Mendes/Desktop/DAVE/_Naive/_ForTesting/Dave/Generated/CMSIS_DSP/Include\arm_math.h ****    * |\b CMSIS\\DSP\\Include           | DSP_Lib include files                                     
 169:C:/Users/Rui Mendes/Desktop/DAVE/_Naive/_ForTesting/Dave/Generated/CMSIS_DSP/Include\arm_math.h ****    * |\b CMSIS\\DSP\\Lib               | DSP_Lib binaries                                          
 170:C:/Users/Rui Mendes/Desktop/DAVE/_Naive/_ForTesting/Dave/Generated/CMSIS_DSP/Include\arm_math.h ****    * |\b CMSIS\\DSP\\Projects          | Projects to rebuild DSP_Lib binaries                      
 171:C:/Users/Rui Mendes/Desktop/DAVE/_Naive/_ForTesting/Dave/Generated/CMSIS_DSP/Include\arm_math.h ****    * |\b CMSIS\\DSP\\Source            | DSP_Lib source files                                      
 172:C:/Users/Rui Mendes/Desktop/DAVE/_Naive/_ForTesting/Dave/Generated/CMSIS_DSP/Include\arm_math.h ****    *
 173:C:/Users/Rui Mendes/Desktop/DAVE/_Naive/_ForTesting/Dave/Generated/CMSIS_DSP/Include\arm_math.h ****    * <hr>
 174:C:/Users/Rui Mendes/Desktop/DAVE/_Naive/_ForTesting/Dave/Generated/CMSIS_DSP/Include\arm_math.h ****    * Revision History of CMSIS-DSP
 175:C:/Users/Rui Mendes/Desktop/DAVE/_Naive/_ForTesting/Dave/Generated/CMSIS_DSP/Include\arm_math.h ****    * ------------
 176:C:/Users/Rui Mendes/Desktop/DAVE/_Naive/_ForTesting/Dave/Generated/CMSIS_DSP/Include\arm_math.h ****    * Please refer to \ref ChangeLog_pg.
 177:C:/Users/Rui Mendes/Desktop/DAVE/_Naive/_ForTesting/Dave/Generated/CMSIS_DSP/Include\arm_math.h ****    */
 178:C:/Users/Rui Mendes/Desktop/DAVE/_Naive/_ForTesting/Dave/Generated/CMSIS_DSP/Include\arm_math.h **** 
 179:C:/Users/Rui Mendes/Desktop/DAVE/_Naive/_ForTesting/Dave/Generated/CMSIS_DSP/Include\arm_math.h **** 
 180:C:/Users/Rui Mendes/Desktop/DAVE/_Naive/_ForTesting/Dave/Generated/CMSIS_DSP/Include\arm_math.h **** /**
 181:C:/Users/Rui Mendes/Desktop/DAVE/_Naive/_ForTesting/Dave/Generated/CMSIS_DSP/Include\arm_math.h ****  * @defgroup groupMath Basic Math Functions
 182:C:/Users/Rui Mendes/Desktop/DAVE/_Naive/_ForTesting/Dave/Generated/CMSIS_DSP/Include\arm_math.h ****  */
 183:C:/Users/Rui Mendes/Desktop/DAVE/_Naive/_ForTesting/Dave/Generated/CMSIS_DSP/Include\arm_math.h **** 
 184:C:/Users/Rui Mendes/Desktop/DAVE/_Naive/_ForTesting/Dave/Generated/CMSIS_DSP/Include\arm_math.h **** /**
 185:C:/Users/Rui Mendes/Desktop/DAVE/_Naive/_ForTesting/Dave/Generated/CMSIS_DSP/Include\arm_math.h ****  * @defgroup groupFastMath Fast Math Functions
 186:C:/Users/Rui Mendes/Desktop/DAVE/_Naive/_ForTesting/Dave/Generated/CMSIS_DSP/Include\arm_math.h ****  * This set of functions provides a fast approximation to sine, cosine, and square root.
 187:C:/Users/Rui Mendes/Desktop/DAVE/_Naive/_ForTesting/Dave/Generated/CMSIS_DSP/Include\arm_math.h ****  * As compared to most of the other functions in the CMSIS math library, the fast math functions
 188:C:/Users/Rui Mendes/Desktop/DAVE/_Naive/_ForTesting/Dave/Generated/CMSIS_DSP/Include\arm_math.h ****  * operate on individual values and not arrays.
 189:C:/Users/Rui Mendes/Desktop/DAVE/_Naive/_ForTesting/Dave/Generated/CMSIS_DSP/Include\arm_math.h ****  * There are separate functions for Q15, Q31, and floating-point data.
 190:C:/Users/Rui Mendes/Desktop/DAVE/_Naive/_ForTesting/Dave/Generated/CMSIS_DSP/Include\arm_math.h ****  *
 191:C:/Users/Rui Mendes/Desktop/DAVE/_Naive/_ForTesting/Dave/Generated/CMSIS_DSP/Include\arm_math.h ****  */
 192:C:/Users/Rui Mendes/Desktop/DAVE/_Naive/_ForTesting/Dave/Generated/CMSIS_DSP/Include\arm_math.h **** 
 193:C:/Users/Rui Mendes/Desktop/DAVE/_Naive/_ForTesting/Dave/Generated/CMSIS_DSP/Include\arm_math.h **** /**
 194:C:/Users/Rui Mendes/Desktop/DAVE/_Naive/_ForTesting/Dave/Generated/CMSIS_DSP/Include\arm_math.h ****  * @defgroup groupCmplxMath Complex Math Functions
 195:C:/Users/Rui Mendes/Desktop/DAVE/_Naive/_ForTesting/Dave/Generated/CMSIS_DSP/Include\arm_math.h ****  * This set of functions operates on complex data vectors.
 196:C:/Users/Rui Mendes/Desktop/DAVE/_Naive/_ForTesting/Dave/Generated/CMSIS_DSP/Include\arm_math.h ****  * The data in the complex arrays is stored in an interleaved fashion
 197:C:/Users/Rui Mendes/Desktop/DAVE/_Naive/_ForTesting/Dave/Generated/CMSIS_DSP/Include\arm_math.h ****  * (real, imag, real, imag, ...).
 198:C:/Users/Rui Mendes/Desktop/DAVE/_Naive/_ForTesting/Dave/Generated/CMSIS_DSP/Include\arm_math.h ****  * In the API functions, the number of samples in a complex array refers
 199:C:/Users/Rui Mendes/Desktop/DAVE/_Naive/_ForTesting/Dave/Generated/CMSIS_DSP/Include\arm_math.h ****  * to the number of complex values; the array contains twice this number of
 200:C:/Users/Rui Mendes/Desktop/DAVE/_Naive/_ForTesting/Dave/Generated/CMSIS_DSP/Include\arm_math.h ****  * real values.
 201:C:/Users/Rui Mendes/Desktop/DAVE/_Naive/_ForTesting/Dave/Generated/CMSIS_DSP/Include\arm_math.h ****  */
 202:C:/Users/Rui Mendes/Desktop/DAVE/_Naive/_ForTesting/Dave/Generated/CMSIS_DSP/Include\arm_math.h **** 
 203:C:/Users/Rui Mendes/Desktop/DAVE/_Naive/_ForTesting/Dave/Generated/CMSIS_DSP/Include\arm_math.h **** /**
 204:C:/Users/Rui Mendes/Desktop/DAVE/_Naive/_ForTesting/Dave/Generated/CMSIS_DSP/Include\arm_math.h ****  * @defgroup groupFilters Filtering Functions
 205:C:/Users/Rui Mendes/Desktop/DAVE/_Naive/_ForTesting/Dave/Generated/CMSIS_DSP/Include\arm_math.h ****  */
 206:C:/Users/Rui Mendes/Desktop/DAVE/_Naive/_ForTesting/Dave/Generated/CMSIS_DSP/Include\arm_math.h **** 
 207:C:/Users/Rui Mendes/Desktop/DAVE/_Naive/_ForTesting/Dave/Generated/CMSIS_DSP/Include\arm_math.h **** /**
 208:C:/Users/Rui Mendes/Desktop/DAVE/_Naive/_ForTesting/Dave/Generated/CMSIS_DSP/Include\arm_math.h ****  * @defgroup groupMatrix Matrix Functions
 209:C:/Users/Rui Mendes/Desktop/DAVE/_Naive/_ForTesting/Dave/Generated/CMSIS_DSP/Include\arm_math.h ****  *
 210:C:/Users/Rui Mendes/Desktop/DAVE/_Naive/_ForTesting/Dave/Generated/CMSIS_DSP/Include\arm_math.h ****  * This set of functions provides basic matrix math operations.
 211:C:/Users/Rui Mendes/Desktop/DAVE/_Naive/_ForTesting/Dave/Generated/CMSIS_DSP/Include\arm_math.h ****  * The functions operate on matrix data structures.  For example,
 212:C:/Users/Rui Mendes/Desktop/DAVE/_Naive/_ForTesting/Dave/Generated/CMSIS_DSP/Include\arm_math.h ****  * the type
 213:C:/Users/Rui Mendes/Desktop/DAVE/_Naive/_ForTesting/Dave/Generated/CMSIS_DSP/Include\arm_math.h ****  * definition for the floating-point matrix structure is shown
 214:C:/Users/Rui Mendes/Desktop/DAVE/_Naive/_ForTesting/Dave/Generated/CMSIS_DSP/Include\arm_math.h ****  * below:
 215:C:/Users/Rui Mendes/Desktop/DAVE/_Naive/_ForTesting/Dave/Generated/CMSIS_DSP/Include\arm_math.h ****  * <pre>
 216:C:/Users/Rui Mendes/Desktop/DAVE/_Naive/_ForTesting/Dave/Generated/CMSIS_DSP/Include\arm_math.h ****  *     typedef struct
 217:C:/Users/Rui Mendes/Desktop/DAVE/_Naive/_ForTesting/Dave/Generated/CMSIS_DSP/Include\arm_math.h ****  *     {
 218:C:/Users/Rui Mendes/Desktop/DAVE/_Naive/_ForTesting/Dave/Generated/CMSIS_DSP/Include\arm_math.h ****  *       uint16_t numRows;     // number of rows of the matrix.
 219:C:/Users/Rui Mendes/Desktop/DAVE/_Naive/_ForTesting/Dave/Generated/CMSIS_DSP/Include\arm_math.h ****  *       uint16_t numCols;     // number of columns of the matrix.
 220:C:/Users/Rui Mendes/Desktop/DAVE/_Naive/_ForTesting/Dave/Generated/CMSIS_DSP/Include\arm_math.h ****  *       float32_t *pData;     // points to the data of the matrix.
 221:C:/Users/Rui Mendes/Desktop/DAVE/_Naive/_ForTesting/Dave/Generated/CMSIS_DSP/Include\arm_math.h ****  *     } arm_matrix_instance_f32;
 222:C:/Users/Rui Mendes/Desktop/DAVE/_Naive/_ForTesting/Dave/Generated/CMSIS_DSP/Include\arm_math.h ****  * </pre>
 223:C:/Users/Rui Mendes/Desktop/DAVE/_Naive/_ForTesting/Dave/Generated/CMSIS_DSP/Include\arm_math.h ****  * There are similar definitions for Q15 and Q31 data types.
 224:C:/Users/Rui Mendes/Desktop/DAVE/_Naive/_ForTesting/Dave/Generated/CMSIS_DSP/Include\arm_math.h ****  *
 225:C:/Users/Rui Mendes/Desktop/DAVE/_Naive/_ForTesting/Dave/Generated/CMSIS_DSP/Include\arm_math.h ****  * The structure specifies the size of the matrix and then points to
 226:C:/Users/Rui Mendes/Desktop/DAVE/_Naive/_ForTesting/Dave/Generated/CMSIS_DSP/Include\arm_math.h ****  * an array of data.  The array is of size <code>numRows X numCols</code>
 227:C:/Users/Rui Mendes/Desktop/DAVE/_Naive/_ForTesting/Dave/Generated/CMSIS_DSP/Include\arm_math.h ****  * and the values are arranged in row order.  That is, the
 228:C:/Users/Rui Mendes/Desktop/DAVE/_Naive/_ForTesting/Dave/Generated/CMSIS_DSP/Include\arm_math.h ****  * matrix element (i, j) is stored at:
 229:C:/Users/Rui Mendes/Desktop/DAVE/_Naive/_ForTesting/Dave/Generated/CMSIS_DSP/Include\arm_math.h ****  * <pre>
 230:C:/Users/Rui Mendes/Desktop/DAVE/_Naive/_ForTesting/Dave/Generated/CMSIS_DSP/Include\arm_math.h ****  *     pData[i*numCols + j]
 231:C:/Users/Rui Mendes/Desktop/DAVE/_Naive/_ForTesting/Dave/Generated/CMSIS_DSP/Include\arm_math.h ****  * </pre>
 232:C:/Users/Rui Mendes/Desktop/DAVE/_Naive/_ForTesting/Dave/Generated/CMSIS_DSP/Include\arm_math.h ****  *
 233:C:/Users/Rui Mendes/Desktop/DAVE/_Naive/_ForTesting/Dave/Generated/CMSIS_DSP/Include\arm_math.h ****  * \par Init Functions
 234:C:/Users/Rui Mendes/Desktop/DAVE/_Naive/_ForTesting/Dave/Generated/CMSIS_DSP/Include\arm_math.h ****  * There is an associated initialization function for each type of matrix
 235:C:/Users/Rui Mendes/Desktop/DAVE/_Naive/_ForTesting/Dave/Generated/CMSIS_DSP/Include\arm_math.h ****  * data structure.
 236:C:/Users/Rui Mendes/Desktop/DAVE/_Naive/_ForTesting/Dave/Generated/CMSIS_DSP/Include\arm_math.h ****  * The initialization function sets the values of the internal structure fields.
 237:C:/Users/Rui Mendes/Desktop/DAVE/_Naive/_ForTesting/Dave/Generated/CMSIS_DSP/Include\arm_math.h ****  * Refer to \ref arm_mat_init_f32(), \ref arm_mat_init_q31() and \ref arm_mat_init_q15()
 238:C:/Users/Rui Mendes/Desktop/DAVE/_Naive/_ForTesting/Dave/Generated/CMSIS_DSP/Include\arm_math.h ****  * for floating-point, Q31 and Q15 types,  respectively.
 239:C:/Users/Rui Mendes/Desktop/DAVE/_Naive/_ForTesting/Dave/Generated/CMSIS_DSP/Include\arm_math.h ****  *
 240:C:/Users/Rui Mendes/Desktop/DAVE/_Naive/_ForTesting/Dave/Generated/CMSIS_DSP/Include\arm_math.h ****  * \par
 241:C:/Users/Rui Mendes/Desktop/DAVE/_Naive/_ForTesting/Dave/Generated/CMSIS_DSP/Include\arm_math.h ****  * Use of the initialization function is optional. However, if initialization function is used
 242:C:/Users/Rui Mendes/Desktop/DAVE/_Naive/_ForTesting/Dave/Generated/CMSIS_DSP/Include\arm_math.h ****  * then the instance structure cannot be placed into a const data section.
 243:C:/Users/Rui Mendes/Desktop/DAVE/_Naive/_ForTesting/Dave/Generated/CMSIS_DSP/Include\arm_math.h ****  * To place the instance structure in a const data
 244:C:/Users/Rui Mendes/Desktop/DAVE/_Naive/_ForTesting/Dave/Generated/CMSIS_DSP/Include\arm_math.h ****  * section, manually initialize the data structure.  For example:
 245:C:/Users/Rui Mendes/Desktop/DAVE/_Naive/_ForTesting/Dave/Generated/CMSIS_DSP/Include\arm_math.h ****  * <pre>
 246:C:/Users/Rui Mendes/Desktop/DAVE/_Naive/_ForTesting/Dave/Generated/CMSIS_DSP/Include\arm_math.h ****  * <code>arm_matrix_instance_f32 S = {nRows, nColumns, pData};</code>
 247:C:/Users/Rui Mendes/Desktop/DAVE/_Naive/_ForTesting/Dave/Generated/CMSIS_DSP/Include\arm_math.h ****  * <code>arm_matrix_instance_q31 S = {nRows, nColumns, pData};</code>
 248:C:/Users/Rui Mendes/Desktop/DAVE/_Naive/_ForTesting/Dave/Generated/CMSIS_DSP/Include\arm_math.h ****  * <code>arm_matrix_instance_q15 S = {nRows, nColumns, pData};</code>
 249:C:/Users/Rui Mendes/Desktop/DAVE/_Naive/_ForTesting/Dave/Generated/CMSIS_DSP/Include\arm_math.h ****  * </pre>
 250:C:/Users/Rui Mendes/Desktop/DAVE/_Naive/_ForTesting/Dave/Generated/CMSIS_DSP/Include\arm_math.h ****  * where <code>nRows</code> specifies the number of rows, <code>nColumns</code>
 251:C:/Users/Rui Mendes/Desktop/DAVE/_Naive/_ForTesting/Dave/Generated/CMSIS_DSP/Include\arm_math.h ****  * specifies the number of columns, and <code>pData</code> points to the
 252:C:/Users/Rui Mendes/Desktop/DAVE/_Naive/_ForTesting/Dave/Generated/CMSIS_DSP/Include\arm_math.h ****  * data array.
 253:C:/Users/Rui Mendes/Desktop/DAVE/_Naive/_ForTesting/Dave/Generated/CMSIS_DSP/Include\arm_math.h ****  *
 254:C:/Users/Rui Mendes/Desktop/DAVE/_Naive/_ForTesting/Dave/Generated/CMSIS_DSP/Include\arm_math.h ****  * \par Size Checking
 255:C:/Users/Rui Mendes/Desktop/DAVE/_Naive/_ForTesting/Dave/Generated/CMSIS_DSP/Include\arm_math.h ****  * By default all of the matrix functions perform size checking on the input and
 256:C:/Users/Rui Mendes/Desktop/DAVE/_Naive/_ForTesting/Dave/Generated/CMSIS_DSP/Include\arm_math.h ****  * output matrices. For example, the matrix addition function verifies that the
 257:C:/Users/Rui Mendes/Desktop/DAVE/_Naive/_ForTesting/Dave/Generated/CMSIS_DSP/Include\arm_math.h ****  * two input matrices and the output matrix all have the same number of rows and
 258:C:/Users/Rui Mendes/Desktop/DAVE/_Naive/_ForTesting/Dave/Generated/CMSIS_DSP/Include\arm_math.h ****  * columns. If the size check fails the functions return:
 259:C:/Users/Rui Mendes/Desktop/DAVE/_Naive/_ForTesting/Dave/Generated/CMSIS_DSP/Include\arm_math.h ****  * <pre>
 260:C:/Users/Rui Mendes/Desktop/DAVE/_Naive/_ForTesting/Dave/Generated/CMSIS_DSP/Include\arm_math.h ****  *     ARM_MATH_SIZE_MISMATCH
 261:C:/Users/Rui Mendes/Desktop/DAVE/_Naive/_ForTesting/Dave/Generated/CMSIS_DSP/Include\arm_math.h ****  * </pre>
 262:C:/Users/Rui Mendes/Desktop/DAVE/_Naive/_ForTesting/Dave/Generated/CMSIS_DSP/Include\arm_math.h ****  * Otherwise the functions return
 263:C:/Users/Rui Mendes/Desktop/DAVE/_Naive/_ForTesting/Dave/Generated/CMSIS_DSP/Include\arm_math.h ****  * <pre>
 264:C:/Users/Rui Mendes/Desktop/DAVE/_Naive/_ForTesting/Dave/Generated/CMSIS_DSP/Include\arm_math.h ****  *     ARM_MATH_SUCCESS
 265:C:/Users/Rui Mendes/Desktop/DAVE/_Naive/_ForTesting/Dave/Generated/CMSIS_DSP/Include\arm_math.h ****  * </pre>
 266:C:/Users/Rui Mendes/Desktop/DAVE/_Naive/_ForTesting/Dave/Generated/CMSIS_DSP/Include\arm_math.h ****  * There is some overhead associated with this matrix size checking.
 267:C:/Users/Rui Mendes/Desktop/DAVE/_Naive/_ForTesting/Dave/Generated/CMSIS_DSP/Include\arm_math.h ****  * The matrix size checking is enabled via the \#define
 268:C:/Users/Rui Mendes/Desktop/DAVE/_Naive/_ForTesting/Dave/Generated/CMSIS_DSP/Include\arm_math.h ****  * <pre>
 269:C:/Users/Rui Mendes/Desktop/DAVE/_Naive/_ForTesting/Dave/Generated/CMSIS_DSP/Include\arm_math.h ****  *     ARM_MATH_MATRIX_CHECK
 270:C:/Users/Rui Mendes/Desktop/DAVE/_Naive/_ForTesting/Dave/Generated/CMSIS_DSP/Include\arm_math.h ****  * </pre>
 271:C:/Users/Rui Mendes/Desktop/DAVE/_Naive/_ForTesting/Dave/Generated/CMSIS_DSP/Include\arm_math.h ****  * within the library project settings.  By default this macro is defined
 272:C:/Users/Rui Mendes/Desktop/DAVE/_Naive/_ForTesting/Dave/Generated/CMSIS_DSP/Include\arm_math.h ****  * and size checking is enabled. By changing the project settings and
 273:C:/Users/Rui Mendes/Desktop/DAVE/_Naive/_ForTesting/Dave/Generated/CMSIS_DSP/Include\arm_math.h ****  * undefining this macro size checking is eliminated and the functions
 274:C:/Users/Rui Mendes/Desktop/DAVE/_Naive/_ForTesting/Dave/Generated/CMSIS_DSP/Include\arm_math.h ****  * run a bit faster. With size checking disabled the functions always
 275:C:/Users/Rui Mendes/Desktop/DAVE/_Naive/_ForTesting/Dave/Generated/CMSIS_DSP/Include\arm_math.h ****  * return <code>ARM_MATH_SUCCESS</code>.
 276:C:/Users/Rui Mendes/Desktop/DAVE/_Naive/_ForTesting/Dave/Generated/CMSIS_DSP/Include\arm_math.h ****  */
 277:C:/Users/Rui Mendes/Desktop/DAVE/_Naive/_ForTesting/Dave/Generated/CMSIS_DSP/Include\arm_math.h **** 
 278:C:/Users/Rui Mendes/Desktop/DAVE/_Naive/_ForTesting/Dave/Generated/CMSIS_DSP/Include\arm_math.h **** /**
 279:C:/Users/Rui Mendes/Desktop/DAVE/_Naive/_ForTesting/Dave/Generated/CMSIS_DSP/Include\arm_math.h ****  * @defgroup groupTransforms Transform Functions
 280:C:/Users/Rui Mendes/Desktop/DAVE/_Naive/_ForTesting/Dave/Generated/CMSIS_DSP/Include\arm_math.h ****  */
 281:C:/Users/Rui Mendes/Desktop/DAVE/_Naive/_ForTesting/Dave/Generated/CMSIS_DSP/Include\arm_math.h **** 
 282:C:/Users/Rui Mendes/Desktop/DAVE/_Naive/_ForTesting/Dave/Generated/CMSIS_DSP/Include\arm_math.h **** /**
 283:C:/Users/Rui Mendes/Desktop/DAVE/_Naive/_ForTesting/Dave/Generated/CMSIS_DSP/Include\arm_math.h ****  * @defgroup groupController Controller Functions
 284:C:/Users/Rui Mendes/Desktop/DAVE/_Naive/_ForTesting/Dave/Generated/CMSIS_DSP/Include\arm_math.h ****  */
 285:C:/Users/Rui Mendes/Desktop/DAVE/_Naive/_ForTesting/Dave/Generated/CMSIS_DSP/Include\arm_math.h **** 
 286:C:/Users/Rui Mendes/Desktop/DAVE/_Naive/_ForTesting/Dave/Generated/CMSIS_DSP/Include\arm_math.h **** /**
 287:C:/Users/Rui Mendes/Desktop/DAVE/_Naive/_ForTesting/Dave/Generated/CMSIS_DSP/Include\arm_math.h ****  * @defgroup groupStats Statistics Functions
 288:C:/Users/Rui Mendes/Desktop/DAVE/_Naive/_ForTesting/Dave/Generated/CMSIS_DSP/Include\arm_math.h ****  */
 289:C:/Users/Rui Mendes/Desktop/DAVE/_Naive/_ForTesting/Dave/Generated/CMSIS_DSP/Include\arm_math.h **** 
 290:C:/Users/Rui Mendes/Desktop/DAVE/_Naive/_ForTesting/Dave/Generated/CMSIS_DSP/Include\arm_math.h **** /**
 291:C:/Users/Rui Mendes/Desktop/DAVE/_Naive/_ForTesting/Dave/Generated/CMSIS_DSP/Include\arm_math.h ****  * @defgroup groupSupport Support Functions
 292:C:/Users/Rui Mendes/Desktop/DAVE/_Naive/_ForTesting/Dave/Generated/CMSIS_DSP/Include\arm_math.h ****  */
 293:C:/Users/Rui Mendes/Desktop/DAVE/_Naive/_ForTesting/Dave/Generated/CMSIS_DSP/Include\arm_math.h **** 
 294:C:/Users/Rui Mendes/Desktop/DAVE/_Naive/_ForTesting/Dave/Generated/CMSIS_DSP/Include\arm_math.h **** /**
 295:C:/Users/Rui Mendes/Desktop/DAVE/_Naive/_ForTesting/Dave/Generated/CMSIS_DSP/Include\arm_math.h ****  * @defgroup groupInterpolation Interpolation Functions
 296:C:/Users/Rui Mendes/Desktop/DAVE/_Naive/_ForTesting/Dave/Generated/CMSIS_DSP/Include\arm_math.h ****  * These functions perform 1- and 2-dimensional interpolation of data.
 297:C:/Users/Rui Mendes/Desktop/DAVE/_Naive/_ForTesting/Dave/Generated/CMSIS_DSP/Include\arm_math.h ****  * Linear interpolation is used for 1-dimensional data and
 298:C:/Users/Rui Mendes/Desktop/DAVE/_Naive/_ForTesting/Dave/Generated/CMSIS_DSP/Include\arm_math.h ****  * bilinear interpolation is used for 2-dimensional data.
 299:C:/Users/Rui Mendes/Desktop/DAVE/_Naive/_ForTesting/Dave/Generated/CMSIS_DSP/Include\arm_math.h ****  */
 300:C:/Users/Rui Mendes/Desktop/DAVE/_Naive/_ForTesting/Dave/Generated/CMSIS_DSP/Include\arm_math.h **** 
 301:C:/Users/Rui Mendes/Desktop/DAVE/_Naive/_ForTesting/Dave/Generated/CMSIS_DSP/Include\arm_math.h **** /**
 302:C:/Users/Rui Mendes/Desktop/DAVE/_Naive/_ForTesting/Dave/Generated/CMSIS_DSP/Include\arm_math.h ****  * @defgroup groupExamples Examples
 303:C:/Users/Rui Mendes/Desktop/DAVE/_Naive/_ForTesting/Dave/Generated/CMSIS_DSP/Include\arm_math.h ****  */
 304:C:/Users/Rui Mendes/Desktop/DAVE/_Naive/_ForTesting/Dave/Generated/CMSIS_DSP/Include\arm_math.h **** 
 305:C:/Users/Rui Mendes/Desktop/DAVE/_Naive/_ForTesting/Dave/Generated/CMSIS_DSP/Include\arm_math.h **** /**
 306:C:/Users/Rui Mendes/Desktop/DAVE/_Naive/_ForTesting/Dave/Generated/CMSIS_DSP/Include\arm_math.h ****  * @defgroup groupSVM SVM Functions
 307:C:/Users/Rui Mendes/Desktop/DAVE/_Naive/_ForTesting/Dave/Generated/CMSIS_DSP/Include\arm_math.h ****  * This set of functions is implementing SVM classification on 2 classes.
 308:C:/Users/Rui Mendes/Desktop/DAVE/_Naive/_ForTesting/Dave/Generated/CMSIS_DSP/Include\arm_math.h ****  * The training must be done from scikit-learn. The parameters can be easily
 309:C:/Users/Rui Mendes/Desktop/DAVE/_Naive/_ForTesting/Dave/Generated/CMSIS_DSP/Include\arm_math.h ****  * generated from the scikit-learn object. Some examples are given in
 310:C:/Users/Rui Mendes/Desktop/DAVE/_Naive/_ForTesting/Dave/Generated/CMSIS_DSP/Include\arm_math.h ****  * DSP/Testing/PatternGeneration/SVM.py
 311:C:/Users/Rui Mendes/Desktop/DAVE/_Naive/_ForTesting/Dave/Generated/CMSIS_DSP/Include\arm_math.h ****  *
 312:C:/Users/Rui Mendes/Desktop/DAVE/_Naive/_ForTesting/Dave/Generated/CMSIS_DSP/Include\arm_math.h ****  * If more than 2 classes are needed, the functions in this folder 
 313:C:/Users/Rui Mendes/Desktop/DAVE/_Naive/_ForTesting/Dave/Generated/CMSIS_DSP/Include\arm_math.h ****  * will have to be used, as building blocks, to do multi-class classification.
 314:C:/Users/Rui Mendes/Desktop/DAVE/_Naive/_ForTesting/Dave/Generated/CMSIS_DSP/Include\arm_math.h ****  *
 315:C:/Users/Rui Mendes/Desktop/DAVE/_Naive/_ForTesting/Dave/Generated/CMSIS_DSP/Include\arm_math.h ****  * No multi-class classification is provided in this SVM folder.
 316:C:/Users/Rui Mendes/Desktop/DAVE/_Naive/_ForTesting/Dave/Generated/CMSIS_DSP/Include\arm_math.h ****  * 
 317:C:/Users/Rui Mendes/Desktop/DAVE/_Naive/_ForTesting/Dave/Generated/CMSIS_DSP/Include\arm_math.h ****  */
 318:C:/Users/Rui Mendes/Desktop/DAVE/_Naive/_ForTesting/Dave/Generated/CMSIS_DSP/Include\arm_math.h **** 
 319:C:/Users/Rui Mendes/Desktop/DAVE/_Naive/_ForTesting/Dave/Generated/CMSIS_DSP/Include\arm_math.h **** 
 320:C:/Users/Rui Mendes/Desktop/DAVE/_Naive/_ForTesting/Dave/Generated/CMSIS_DSP/Include\arm_math.h **** /**
 321:C:/Users/Rui Mendes/Desktop/DAVE/_Naive/_ForTesting/Dave/Generated/CMSIS_DSP/Include\arm_math.h ****  * @defgroup groupBayes Bayesian estimators
 322:C:/Users/Rui Mendes/Desktop/DAVE/_Naive/_ForTesting/Dave/Generated/CMSIS_DSP/Include\arm_math.h ****  *
 323:C:/Users/Rui Mendes/Desktop/DAVE/_Naive/_ForTesting/Dave/Generated/CMSIS_DSP/Include\arm_math.h ****  * Implement the naive gaussian Bayes estimator.
 324:C:/Users/Rui Mendes/Desktop/DAVE/_Naive/_ForTesting/Dave/Generated/CMSIS_DSP/Include\arm_math.h ****  * The training must be done from scikit-learn.
 325:C:/Users/Rui Mendes/Desktop/DAVE/_Naive/_ForTesting/Dave/Generated/CMSIS_DSP/Include\arm_math.h ****  *
 326:C:/Users/Rui Mendes/Desktop/DAVE/_Naive/_ForTesting/Dave/Generated/CMSIS_DSP/Include\arm_math.h ****  * The parameters can be easily
 327:C:/Users/Rui Mendes/Desktop/DAVE/_Naive/_ForTesting/Dave/Generated/CMSIS_DSP/Include\arm_math.h ****  * generated from the scikit-learn object. Some examples are given in
 328:C:/Users/Rui Mendes/Desktop/DAVE/_Naive/_ForTesting/Dave/Generated/CMSIS_DSP/Include\arm_math.h ****  * DSP/Testing/PatternGeneration/Bayes.py
 329:C:/Users/Rui Mendes/Desktop/DAVE/_Naive/_ForTesting/Dave/Generated/CMSIS_DSP/Include\arm_math.h ****  */
 330:C:/Users/Rui Mendes/Desktop/DAVE/_Naive/_ForTesting/Dave/Generated/CMSIS_DSP/Include\arm_math.h **** 
 331:C:/Users/Rui Mendes/Desktop/DAVE/_Naive/_ForTesting/Dave/Generated/CMSIS_DSP/Include\arm_math.h **** /**
 332:C:/Users/Rui Mendes/Desktop/DAVE/_Naive/_ForTesting/Dave/Generated/CMSIS_DSP/Include\arm_math.h ****  * @defgroup groupDistance Distance functions
 333:C:/Users/Rui Mendes/Desktop/DAVE/_Naive/_ForTesting/Dave/Generated/CMSIS_DSP/Include\arm_math.h ****  *
 334:C:/Users/Rui Mendes/Desktop/DAVE/_Naive/_ForTesting/Dave/Generated/CMSIS_DSP/Include\arm_math.h ****  * Distance functions for use with clustering algorithms.
 335:C:/Users/Rui Mendes/Desktop/DAVE/_Naive/_ForTesting/Dave/Generated/CMSIS_DSP/Include\arm_math.h ****  * There are distance functions for float vectors and boolean vectors.
 336:C:/Users/Rui Mendes/Desktop/DAVE/_Naive/_ForTesting/Dave/Generated/CMSIS_DSP/Include\arm_math.h ****  *
 337:C:/Users/Rui Mendes/Desktop/DAVE/_Naive/_ForTesting/Dave/Generated/CMSIS_DSP/Include\arm_math.h ****  */
 338:C:/Users/Rui Mendes/Desktop/DAVE/_Naive/_ForTesting/Dave/Generated/CMSIS_DSP/Include\arm_math.h **** 
 339:C:/Users/Rui Mendes/Desktop/DAVE/_Naive/_ForTesting/Dave/Generated/CMSIS_DSP/Include\arm_math.h **** 
 340:C:/Users/Rui Mendes/Desktop/DAVE/_Naive/_ForTesting/Dave/Generated/CMSIS_DSP/Include\arm_math.h **** #ifndef _ARM_MATH_H
 341:C:/Users/Rui Mendes/Desktop/DAVE/_Naive/_ForTesting/Dave/Generated/CMSIS_DSP/Include\arm_math.h **** #define _ARM_MATH_H
 342:C:/Users/Rui Mendes/Desktop/DAVE/_Naive/_ForTesting/Dave/Generated/CMSIS_DSP/Include\arm_math.h **** 
 343:C:/Users/Rui Mendes/Desktop/DAVE/_Naive/_ForTesting/Dave/Generated/CMSIS_DSP/Include\arm_math.h **** #ifdef   __cplusplus
 344:C:/Users/Rui Mendes/Desktop/DAVE/_Naive/_ForTesting/Dave/Generated/CMSIS_DSP/Include\arm_math.h **** extern "C"
 345:C:/Users/Rui Mendes/Desktop/DAVE/_Naive/_ForTesting/Dave/Generated/CMSIS_DSP/Include\arm_math.h **** {
 346:C:/Users/Rui Mendes/Desktop/DAVE/_Naive/_ForTesting/Dave/Generated/CMSIS_DSP/Include\arm_math.h **** #endif
 347:C:/Users/Rui Mendes/Desktop/DAVE/_Naive/_ForTesting/Dave/Generated/CMSIS_DSP/Include\arm_math.h **** 
 348:C:/Users/Rui Mendes/Desktop/DAVE/_Naive/_ForTesting/Dave/Generated/CMSIS_DSP/Include\arm_math.h **** /* Compiler specific diagnostic adjustment */
 349:C:/Users/Rui Mendes/Desktop/DAVE/_Naive/_ForTesting/Dave/Generated/CMSIS_DSP/Include\arm_math.h **** #if   defined ( __CC_ARM )
 350:C:/Users/Rui Mendes/Desktop/DAVE/_Naive/_ForTesting/Dave/Generated/CMSIS_DSP/Include\arm_math.h **** 
 351:C:/Users/Rui Mendes/Desktop/DAVE/_Naive/_ForTesting/Dave/Generated/CMSIS_DSP/Include\arm_math.h **** #elif defined ( __ARMCC_VERSION ) && ( __ARMCC_VERSION >= 6010050 )
 352:C:/Users/Rui Mendes/Desktop/DAVE/_Naive/_ForTesting/Dave/Generated/CMSIS_DSP/Include\arm_math.h **** 
 353:C:/Users/Rui Mendes/Desktop/DAVE/_Naive/_ForTesting/Dave/Generated/CMSIS_DSP/Include\arm_math.h **** #elif defined ( __GNUC__ )
 354:C:/Users/Rui Mendes/Desktop/DAVE/_Naive/_ForTesting/Dave/Generated/CMSIS_DSP/Include\arm_math.h ****   #pragma GCC diagnostic push
 355:C:/Users/Rui Mendes/Desktop/DAVE/_Naive/_ForTesting/Dave/Generated/CMSIS_DSP/Include\arm_math.h ****   #pragma GCC diagnostic ignored "-Wsign-conversion"
 356:C:/Users/Rui Mendes/Desktop/DAVE/_Naive/_ForTesting/Dave/Generated/CMSIS_DSP/Include\arm_math.h ****   #pragma GCC diagnostic ignored "-Wconversion"
 357:C:/Users/Rui Mendes/Desktop/DAVE/_Naive/_ForTesting/Dave/Generated/CMSIS_DSP/Include\arm_math.h ****   #pragma GCC diagnostic ignored "-Wunused-parameter"
 358:C:/Users/Rui Mendes/Desktop/DAVE/_Naive/_ForTesting/Dave/Generated/CMSIS_DSP/Include\arm_math.h **** 
 359:C:/Users/Rui Mendes/Desktop/DAVE/_Naive/_ForTesting/Dave/Generated/CMSIS_DSP/Include\arm_math.h **** #elif defined ( __ICCARM__ )
 360:C:/Users/Rui Mendes/Desktop/DAVE/_Naive/_ForTesting/Dave/Generated/CMSIS_DSP/Include\arm_math.h **** 
 361:C:/Users/Rui Mendes/Desktop/DAVE/_Naive/_ForTesting/Dave/Generated/CMSIS_DSP/Include\arm_math.h **** #elif defined ( __TI_ARM__ )
 362:C:/Users/Rui Mendes/Desktop/DAVE/_Naive/_ForTesting/Dave/Generated/CMSIS_DSP/Include\arm_math.h **** 
 363:C:/Users/Rui Mendes/Desktop/DAVE/_Naive/_ForTesting/Dave/Generated/CMSIS_DSP/Include\arm_math.h **** #elif defined ( __CSMC__ )
 364:C:/Users/Rui Mendes/Desktop/DAVE/_Naive/_ForTesting/Dave/Generated/CMSIS_DSP/Include\arm_math.h **** 
 365:C:/Users/Rui Mendes/Desktop/DAVE/_Naive/_ForTesting/Dave/Generated/CMSIS_DSP/Include\arm_math.h **** #elif defined ( __TASKING__ )
 366:C:/Users/Rui Mendes/Desktop/DAVE/_Naive/_ForTesting/Dave/Generated/CMSIS_DSP/Include\arm_math.h **** 
 367:C:/Users/Rui Mendes/Desktop/DAVE/_Naive/_ForTesting/Dave/Generated/CMSIS_DSP/Include\arm_math.h **** #elif defined ( _MSC_VER )
 368:C:/Users/Rui Mendes/Desktop/DAVE/_Naive/_ForTesting/Dave/Generated/CMSIS_DSP/Include\arm_math.h **** 
 369:C:/Users/Rui Mendes/Desktop/DAVE/_Naive/_ForTesting/Dave/Generated/CMSIS_DSP/Include\arm_math.h **** #else
 370:C:/Users/Rui Mendes/Desktop/DAVE/_Naive/_ForTesting/Dave/Generated/CMSIS_DSP/Include\arm_math.h ****   #error Unknown compiler
 371:C:/Users/Rui Mendes/Desktop/DAVE/_Naive/_ForTesting/Dave/Generated/CMSIS_DSP/Include\arm_math.h **** #endif
 372:C:/Users/Rui Mendes/Desktop/DAVE/_Naive/_ForTesting/Dave/Generated/CMSIS_DSP/Include\arm_math.h **** 
 373:C:/Users/Rui Mendes/Desktop/DAVE/_Naive/_ForTesting/Dave/Generated/CMSIS_DSP/Include\arm_math.h **** 
 374:C:/Users/Rui Mendes/Desktop/DAVE/_Naive/_ForTesting/Dave/Generated/CMSIS_DSP/Include\arm_math.h **** /* Included for instrinsics definitions */
 375:C:/Users/Rui Mendes/Desktop/DAVE/_Naive/_ForTesting/Dave/Generated/CMSIS_DSP/Include\arm_math.h **** #if defined (_MSC_VER ) 
 376:C:/Users/Rui Mendes/Desktop/DAVE/_Naive/_ForTesting/Dave/Generated/CMSIS_DSP/Include\arm_math.h **** #include <stdint.h>
 377:C:/Users/Rui Mendes/Desktop/DAVE/_Naive/_ForTesting/Dave/Generated/CMSIS_DSP/Include\arm_math.h **** #define __STATIC_FORCEINLINE static __forceinline
 378:C:/Users/Rui Mendes/Desktop/DAVE/_Naive/_ForTesting/Dave/Generated/CMSIS_DSP/Include\arm_math.h **** #define __STATIC_INLINE static __inline
 379:C:/Users/Rui Mendes/Desktop/DAVE/_Naive/_ForTesting/Dave/Generated/CMSIS_DSP/Include\arm_math.h **** #define __ALIGNED(x) __declspec(align(x))
 380:C:/Users/Rui Mendes/Desktop/DAVE/_Naive/_ForTesting/Dave/Generated/CMSIS_DSP/Include\arm_math.h **** 
 381:C:/Users/Rui Mendes/Desktop/DAVE/_Naive/_ForTesting/Dave/Generated/CMSIS_DSP/Include\arm_math.h **** #elif defined (__GNUC_PYTHON__)
 382:C:/Users/Rui Mendes/Desktop/DAVE/_Naive/_ForTesting/Dave/Generated/CMSIS_DSP/Include\arm_math.h **** #include <stdint.h>
 383:C:/Users/Rui Mendes/Desktop/DAVE/_Naive/_ForTesting/Dave/Generated/CMSIS_DSP/Include\arm_math.h **** #define  __ALIGNED(x) __attribute__((aligned(x)))
 384:C:/Users/Rui Mendes/Desktop/DAVE/_Naive/_ForTesting/Dave/Generated/CMSIS_DSP/Include\arm_math.h **** #define __STATIC_FORCEINLINE static __attribute__((inline))
 385:C:/Users/Rui Mendes/Desktop/DAVE/_Naive/_ForTesting/Dave/Generated/CMSIS_DSP/Include\arm_math.h **** #define __STATIC_INLINE static __attribute__((inline))
 386:C:/Users/Rui Mendes/Desktop/DAVE/_Naive/_ForTesting/Dave/Generated/CMSIS_DSP/Include\arm_math.h **** #pragma GCC diagnostic ignored "-Wunused-function"
 387:C:/Users/Rui Mendes/Desktop/DAVE/_Naive/_ForTesting/Dave/Generated/CMSIS_DSP/Include\arm_math.h **** #pragma GCC diagnostic ignored "-Wattributes"
 388:C:/Users/Rui Mendes/Desktop/DAVE/_Naive/_ForTesting/Dave/Generated/CMSIS_DSP/Include\arm_math.h **** 
 389:C:/Users/Rui Mendes/Desktop/DAVE/_Naive/_ForTesting/Dave/Generated/CMSIS_DSP/Include\arm_math.h **** #else
 390:C:/Users/Rui Mendes/Desktop/DAVE/_Naive/_ForTesting/Dave/Generated/CMSIS_DSP/Include\arm_math.h **** #include "cmsis_compiler.h"
 391:C:/Users/Rui Mendes/Desktop/DAVE/_Naive/_ForTesting/Dave/Generated/CMSIS_DSP/Include\arm_math.h **** #endif
 392:C:/Users/Rui Mendes/Desktop/DAVE/_Naive/_ForTesting/Dave/Generated/CMSIS_DSP/Include\arm_math.h **** 
 393:C:/Users/Rui Mendes/Desktop/DAVE/_Naive/_ForTesting/Dave/Generated/CMSIS_DSP/Include\arm_math.h **** 
 394:C:/Users/Rui Mendes/Desktop/DAVE/_Naive/_ForTesting/Dave/Generated/CMSIS_DSP/Include\arm_math.h **** 
 395:C:/Users/Rui Mendes/Desktop/DAVE/_Naive/_ForTesting/Dave/Generated/CMSIS_DSP/Include\arm_math.h **** #include <string.h>
 396:C:/Users/Rui Mendes/Desktop/DAVE/_Naive/_ForTesting/Dave/Generated/CMSIS_DSP/Include\arm_math.h **** #include <math.h>
 397:C:/Users/Rui Mendes/Desktop/DAVE/_Naive/_ForTesting/Dave/Generated/CMSIS_DSP/Include\arm_math.h **** #include <float.h>
 398:C:/Users/Rui Mendes/Desktop/DAVE/_Naive/_ForTesting/Dave/Generated/CMSIS_DSP/Include\arm_math.h **** #include <limits.h>
 399:C:/Users/Rui Mendes/Desktop/DAVE/_Naive/_ForTesting/Dave/Generated/CMSIS_DSP/Include\arm_math.h **** 
 400:C:/Users/Rui Mendes/Desktop/DAVE/_Naive/_ForTesting/Dave/Generated/CMSIS_DSP/Include\arm_math.h **** 
 401:C:/Users/Rui Mendes/Desktop/DAVE/_Naive/_ForTesting/Dave/Generated/CMSIS_DSP/Include\arm_math.h **** #define F64_MAX   ((float64_t)DBL_MAX)
 402:C:/Users/Rui Mendes/Desktop/DAVE/_Naive/_ForTesting/Dave/Generated/CMSIS_DSP/Include\arm_math.h **** #define F32_MAX   ((float32_t)FLT_MAX)
 403:C:/Users/Rui Mendes/Desktop/DAVE/_Naive/_ForTesting/Dave/Generated/CMSIS_DSP/Include\arm_math.h **** 
 404:C:/Users/Rui Mendes/Desktop/DAVE/_Naive/_ForTesting/Dave/Generated/CMSIS_DSP/Include\arm_math.h **** #if defined(ARM_MATH_FLOAT16)
 405:C:/Users/Rui Mendes/Desktop/DAVE/_Naive/_ForTesting/Dave/Generated/CMSIS_DSP/Include\arm_math.h **** #define F16_MAX   ((float16_t)FLT_MAX)
 406:C:/Users/Rui Mendes/Desktop/DAVE/_Naive/_ForTesting/Dave/Generated/CMSIS_DSP/Include\arm_math.h **** #endif
 407:C:/Users/Rui Mendes/Desktop/DAVE/_Naive/_ForTesting/Dave/Generated/CMSIS_DSP/Include\arm_math.h **** 
 408:C:/Users/Rui Mendes/Desktop/DAVE/_Naive/_ForTesting/Dave/Generated/CMSIS_DSP/Include\arm_math.h **** #define F64_MIN   (-DBL_MAX)
 409:C:/Users/Rui Mendes/Desktop/DAVE/_Naive/_ForTesting/Dave/Generated/CMSIS_DSP/Include\arm_math.h **** #define F32_MIN   (-FLT_MAX)
 410:C:/Users/Rui Mendes/Desktop/DAVE/_Naive/_ForTesting/Dave/Generated/CMSIS_DSP/Include\arm_math.h **** 
 411:C:/Users/Rui Mendes/Desktop/DAVE/_Naive/_ForTesting/Dave/Generated/CMSIS_DSP/Include\arm_math.h **** #if defined(ARM_MATH_FLOAT16)
 412:C:/Users/Rui Mendes/Desktop/DAVE/_Naive/_ForTesting/Dave/Generated/CMSIS_DSP/Include\arm_math.h **** #define F16_MIN   (-(float16_t)FLT_MAX)
 413:C:/Users/Rui Mendes/Desktop/DAVE/_Naive/_ForTesting/Dave/Generated/CMSIS_DSP/Include\arm_math.h **** #endif
 414:C:/Users/Rui Mendes/Desktop/DAVE/_Naive/_ForTesting/Dave/Generated/CMSIS_DSP/Include\arm_math.h **** 
 415:C:/Users/Rui Mendes/Desktop/DAVE/_Naive/_ForTesting/Dave/Generated/CMSIS_DSP/Include\arm_math.h **** #define F64_ABSMAX   ((float64_t)DBL_MAX)
 416:C:/Users/Rui Mendes/Desktop/DAVE/_Naive/_ForTesting/Dave/Generated/CMSIS_DSP/Include\arm_math.h **** #define F32_ABSMAX   ((float32_t)FLT_MAX)
 417:C:/Users/Rui Mendes/Desktop/DAVE/_Naive/_ForTesting/Dave/Generated/CMSIS_DSP/Include\arm_math.h **** 
 418:C:/Users/Rui Mendes/Desktop/DAVE/_Naive/_ForTesting/Dave/Generated/CMSIS_DSP/Include\arm_math.h **** #if defined(ARM_MATH_FLOAT16)
 419:C:/Users/Rui Mendes/Desktop/DAVE/_Naive/_ForTesting/Dave/Generated/CMSIS_DSP/Include\arm_math.h **** #define F16_ABSMAX   ((float16_t)FLT_MAX)
 420:C:/Users/Rui Mendes/Desktop/DAVE/_Naive/_ForTesting/Dave/Generated/CMSIS_DSP/Include\arm_math.h **** #endif
 421:C:/Users/Rui Mendes/Desktop/DAVE/_Naive/_ForTesting/Dave/Generated/CMSIS_DSP/Include\arm_math.h **** 
 422:C:/Users/Rui Mendes/Desktop/DAVE/_Naive/_ForTesting/Dave/Generated/CMSIS_DSP/Include\arm_math.h **** #define F64_ABSMIN   ((float64_t)0.0)
 423:C:/Users/Rui Mendes/Desktop/DAVE/_Naive/_ForTesting/Dave/Generated/CMSIS_DSP/Include\arm_math.h **** #define F32_ABSMIN   ((float32_t)0.0)
 424:C:/Users/Rui Mendes/Desktop/DAVE/_Naive/_ForTesting/Dave/Generated/CMSIS_DSP/Include\arm_math.h **** 
 425:C:/Users/Rui Mendes/Desktop/DAVE/_Naive/_ForTesting/Dave/Generated/CMSIS_DSP/Include\arm_math.h **** #if defined(ARM_MATH_FLOAT16)
 426:C:/Users/Rui Mendes/Desktop/DAVE/_Naive/_ForTesting/Dave/Generated/CMSIS_DSP/Include\arm_math.h **** #define F16_ABSMIN   ((float16_t)0.0)
 427:C:/Users/Rui Mendes/Desktop/DAVE/_Naive/_ForTesting/Dave/Generated/CMSIS_DSP/Include\arm_math.h **** #endif
 428:C:/Users/Rui Mendes/Desktop/DAVE/_Naive/_ForTesting/Dave/Generated/CMSIS_DSP/Include\arm_math.h **** 
 429:C:/Users/Rui Mendes/Desktop/DAVE/_Naive/_ForTesting/Dave/Generated/CMSIS_DSP/Include\arm_math.h **** #define Q31_MAX   ((q31_t)(0x7FFFFFFFL))
 430:C:/Users/Rui Mendes/Desktop/DAVE/_Naive/_ForTesting/Dave/Generated/CMSIS_DSP/Include\arm_math.h **** #define Q15_MAX   ((q15_t)(0x7FFF))
 431:C:/Users/Rui Mendes/Desktop/DAVE/_Naive/_ForTesting/Dave/Generated/CMSIS_DSP/Include\arm_math.h **** #define Q7_MAX    ((q7_t)(0x7F))
 432:C:/Users/Rui Mendes/Desktop/DAVE/_Naive/_ForTesting/Dave/Generated/CMSIS_DSP/Include\arm_math.h **** #define Q31_MIN   ((q31_t)(0x80000000L))
 433:C:/Users/Rui Mendes/Desktop/DAVE/_Naive/_ForTesting/Dave/Generated/CMSIS_DSP/Include\arm_math.h **** #define Q15_MIN   ((q15_t)(0x8000))
 434:C:/Users/Rui Mendes/Desktop/DAVE/_Naive/_ForTesting/Dave/Generated/CMSIS_DSP/Include\arm_math.h **** #define Q7_MIN    ((q7_t)(0x80))
 435:C:/Users/Rui Mendes/Desktop/DAVE/_Naive/_ForTesting/Dave/Generated/CMSIS_DSP/Include\arm_math.h **** 
 436:C:/Users/Rui Mendes/Desktop/DAVE/_Naive/_ForTesting/Dave/Generated/CMSIS_DSP/Include\arm_math.h **** #define Q31_ABSMAX   ((q31_t)(0x7FFFFFFFL))
 437:C:/Users/Rui Mendes/Desktop/DAVE/_Naive/_ForTesting/Dave/Generated/CMSIS_DSP/Include\arm_math.h **** #define Q15_ABSMAX   ((q15_t)(0x7FFF))
 438:C:/Users/Rui Mendes/Desktop/DAVE/_Naive/_ForTesting/Dave/Generated/CMSIS_DSP/Include\arm_math.h **** #define Q7_ABSMAX    ((q7_t)(0x7F))
 439:C:/Users/Rui Mendes/Desktop/DAVE/_Naive/_ForTesting/Dave/Generated/CMSIS_DSP/Include\arm_math.h **** #define Q31_ABSMIN   ((q31_t)0)
 440:C:/Users/Rui Mendes/Desktop/DAVE/_Naive/_ForTesting/Dave/Generated/CMSIS_DSP/Include\arm_math.h **** #define Q15_ABSMIN   ((q15_t)0)
 441:C:/Users/Rui Mendes/Desktop/DAVE/_Naive/_ForTesting/Dave/Generated/CMSIS_DSP/Include\arm_math.h **** #define Q7_ABSMIN    ((q7_t)0)
 442:C:/Users/Rui Mendes/Desktop/DAVE/_Naive/_ForTesting/Dave/Generated/CMSIS_DSP/Include\arm_math.h **** 
 443:C:/Users/Rui Mendes/Desktop/DAVE/_Naive/_ForTesting/Dave/Generated/CMSIS_DSP/Include\arm_math.h **** /* evaluate ARM DSP feature */
 444:C:/Users/Rui Mendes/Desktop/DAVE/_Naive/_ForTesting/Dave/Generated/CMSIS_DSP/Include\arm_math.h **** #if (defined (__ARM_FEATURE_DSP) && (__ARM_FEATURE_DSP == 1))
 445:C:/Users/Rui Mendes/Desktop/DAVE/_Naive/_ForTesting/Dave/Generated/CMSIS_DSP/Include\arm_math.h ****   #define ARM_MATH_DSP                   1
 446:C:/Users/Rui Mendes/Desktop/DAVE/_Naive/_ForTesting/Dave/Generated/CMSIS_DSP/Include\arm_math.h **** #endif
 447:C:/Users/Rui Mendes/Desktop/DAVE/_Naive/_ForTesting/Dave/Generated/CMSIS_DSP/Include\arm_math.h **** 
 448:C:/Users/Rui Mendes/Desktop/DAVE/_Naive/_ForTesting/Dave/Generated/CMSIS_DSP/Include\arm_math.h **** #if defined(ARM_MATH_NEON)
 449:C:/Users/Rui Mendes/Desktop/DAVE/_Naive/_ForTesting/Dave/Generated/CMSIS_DSP/Include\arm_math.h **** #include <arm_neon.h>
 450:C:/Users/Rui Mendes/Desktop/DAVE/_Naive/_ForTesting/Dave/Generated/CMSIS_DSP/Include\arm_math.h **** #endif
 451:C:/Users/Rui Mendes/Desktop/DAVE/_Naive/_ForTesting/Dave/Generated/CMSIS_DSP/Include\arm_math.h **** 
 452:C:/Users/Rui Mendes/Desktop/DAVE/_Naive/_ForTesting/Dave/Generated/CMSIS_DSP/Include\arm_math.h **** #if defined (ARM_MATH_HELIUM)
 453:C:/Users/Rui Mendes/Desktop/DAVE/_Naive/_ForTesting/Dave/Generated/CMSIS_DSP/Include\arm_math.h ****   #define ARM_MATH_MVEF
 454:C:/Users/Rui Mendes/Desktop/DAVE/_Naive/_ForTesting/Dave/Generated/CMSIS_DSP/Include\arm_math.h ****   #define ARM_MATH_FLOAT16
 455:C:/Users/Rui Mendes/Desktop/DAVE/_Naive/_ForTesting/Dave/Generated/CMSIS_DSP/Include\arm_math.h **** #endif
 456:C:/Users/Rui Mendes/Desktop/DAVE/_Naive/_ForTesting/Dave/Generated/CMSIS_DSP/Include\arm_math.h **** 
 457:C:/Users/Rui Mendes/Desktop/DAVE/_Naive/_ForTesting/Dave/Generated/CMSIS_DSP/Include\arm_math.h **** #if defined (ARM_MATH_MVEF)
 458:C:/Users/Rui Mendes/Desktop/DAVE/_Naive/_ForTesting/Dave/Generated/CMSIS_DSP/Include\arm_math.h ****   #define ARM_MATH_MVEI
 459:C:/Users/Rui Mendes/Desktop/DAVE/_Naive/_ForTesting/Dave/Generated/CMSIS_DSP/Include\arm_math.h ****   #define ARM_MATH_FLOAT16
 460:C:/Users/Rui Mendes/Desktop/DAVE/_Naive/_ForTesting/Dave/Generated/CMSIS_DSP/Include\arm_math.h **** #endif
 461:C:/Users/Rui Mendes/Desktop/DAVE/_Naive/_ForTesting/Dave/Generated/CMSIS_DSP/Include\arm_math.h **** 
 462:C:/Users/Rui Mendes/Desktop/DAVE/_Naive/_ForTesting/Dave/Generated/CMSIS_DSP/Include\arm_math.h **** #if defined (ARM_MATH_HELIUM) || defined(ARM_MATH_MVEF) || defined(ARM_MATH_MVEI)
 463:C:/Users/Rui Mendes/Desktop/DAVE/_Naive/_ForTesting/Dave/Generated/CMSIS_DSP/Include\arm_math.h **** #include <arm_mve.h>
 464:C:/Users/Rui Mendes/Desktop/DAVE/_Naive/_ForTesting/Dave/Generated/CMSIS_DSP/Include\arm_math.h **** #endif
 465:C:/Users/Rui Mendes/Desktop/DAVE/_Naive/_ForTesting/Dave/Generated/CMSIS_DSP/Include\arm_math.h **** 
 466:C:/Users/Rui Mendes/Desktop/DAVE/_Naive/_ForTesting/Dave/Generated/CMSIS_DSP/Include\arm_math.h **** 
 467:C:/Users/Rui Mendes/Desktop/DAVE/_Naive/_ForTesting/Dave/Generated/CMSIS_DSP/Include\arm_math.h ****   /**
 468:C:/Users/Rui Mendes/Desktop/DAVE/_Naive/_ForTesting/Dave/Generated/CMSIS_DSP/Include\arm_math.h ****    * @brief Macros required for reciprocal calculation in Normalized LMS
 469:C:/Users/Rui Mendes/Desktop/DAVE/_Naive/_ForTesting/Dave/Generated/CMSIS_DSP/Include\arm_math.h ****    */
 470:C:/Users/Rui Mendes/Desktop/DAVE/_Naive/_ForTesting/Dave/Generated/CMSIS_DSP/Include\arm_math.h **** 
 471:C:/Users/Rui Mendes/Desktop/DAVE/_Naive/_ForTesting/Dave/Generated/CMSIS_DSP/Include\arm_math.h **** #define DELTA_Q31          ((q31_t)(0x100))
 472:C:/Users/Rui Mendes/Desktop/DAVE/_Naive/_ForTesting/Dave/Generated/CMSIS_DSP/Include\arm_math.h **** #define DELTA_Q15          ((q15_t)0x5)
 473:C:/Users/Rui Mendes/Desktop/DAVE/_Naive/_ForTesting/Dave/Generated/CMSIS_DSP/Include\arm_math.h **** #define INDEX_MASK         0x0000003F
 474:C:/Users/Rui Mendes/Desktop/DAVE/_Naive/_ForTesting/Dave/Generated/CMSIS_DSP/Include\arm_math.h **** #ifndef PI
 475:C:/Users/Rui Mendes/Desktop/DAVE/_Naive/_ForTesting/Dave/Generated/CMSIS_DSP/Include\arm_math.h ****   #define PI               3.14159265358979f
 476:C:/Users/Rui Mendes/Desktop/DAVE/_Naive/_ForTesting/Dave/Generated/CMSIS_DSP/Include\arm_math.h **** #endif
 477:C:/Users/Rui Mendes/Desktop/DAVE/_Naive/_ForTesting/Dave/Generated/CMSIS_DSP/Include\arm_math.h **** 
 478:C:/Users/Rui Mendes/Desktop/DAVE/_Naive/_ForTesting/Dave/Generated/CMSIS_DSP/Include\arm_math.h ****   /**
 479:C:/Users/Rui Mendes/Desktop/DAVE/_Naive/_ForTesting/Dave/Generated/CMSIS_DSP/Include\arm_math.h ****    * @brief Macros required for SINE and COSINE Fast math approximations
 480:C:/Users/Rui Mendes/Desktop/DAVE/_Naive/_ForTesting/Dave/Generated/CMSIS_DSP/Include\arm_math.h ****    */
 481:C:/Users/Rui Mendes/Desktop/DAVE/_Naive/_ForTesting/Dave/Generated/CMSIS_DSP/Include\arm_math.h **** 
 482:C:/Users/Rui Mendes/Desktop/DAVE/_Naive/_ForTesting/Dave/Generated/CMSIS_DSP/Include\arm_math.h **** #define FAST_MATH_TABLE_SIZE  512
 483:C:/Users/Rui Mendes/Desktop/DAVE/_Naive/_ForTesting/Dave/Generated/CMSIS_DSP/Include\arm_math.h **** #define FAST_MATH_Q31_SHIFT   (32 - 10)
 484:C:/Users/Rui Mendes/Desktop/DAVE/_Naive/_ForTesting/Dave/Generated/CMSIS_DSP/Include\arm_math.h **** #define FAST_MATH_Q15_SHIFT   (16 - 10)
 485:C:/Users/Rui Mendes/Desktop/DAVE/_Naive/_ForTesting/Dave/Generated/CMSIS_DSP/Include\arm_math.h **** #define CONTROLLER_Q31_SHIFT  (32 - 9)
 486:C:/Users/Rui Mendes/Desktop/DAVE/_Naive/_ForTesting/Dave/Generated/CMSIS_DSP/Include\arm_math.h **** #define TABLE_SPACING_Q31     0x400000
 487:C:/Users/Rui Mendes/Desktop/DAVE/_Naive/_ForTesting/Dave/Generated/CMSIS_DSP/Include\arm_math.h **** #define TABLE_SPACING_Q15     0x80
 488:C:/Users/Rui Mendes/Desktop/DAVE/_Naive/_ForTesting/Dave/Generated/CMSIS_DSP/Include\arm_math.h **** 
 489:C:/Users/Rui Mendes/Desktop/DAVE/_Naive/_ForTesting/Dave/Generated/CMSIS_DSP/Include\arm_math.h ****   /**
 490:C:/Users/Rui Mendes/Desktop/DAVE/_Naive/_ForTesting/Dave/Generated/CMSIS_DSP/Include\arm_math.h ****    * @brief Macros required for SINE and COSINE Controller functions
 491:C:/Users/Rui Mendes/Desktop/DAVE/_Naive/_ForTesting/Dave/Generated/CMSIS_DSP/Include\arm_math.h ****    */
 492:C:/Users/Rui Mendes/Desktop/DAVE/_Naive/_ForTesting/Dave/Generated/CMSIS_DSP/Include\arm_math.h ****   /* 1.31(q31) Fixed value of 2/360 */
 493:C:/Users/Rui Mendes/Desktop/DAVE/_Naive/_ForTesting/Dave/Generated/CMSIS_DSP/Include\arm_math.h ****   /* -1 to +1 is divided into 360 values so total spacing is (2/360) */
 494:C:/Users/Rui Mendes/Desktop/DAVE/_Naive/_ForTesting/Dave/Generated/CMSIS_DSP/Include\arm_math.h **** #define INPUT_SPACING         0xB60B61
 495:C:/Users/Rui Mendes/Desktop/DAVE/_Naive/_ForTesting/Dave/Generated/CMSIS_DSP/Include\arm_math.h **** 
 496:C:/Users/Rui Mendes/Desktop/DAVE/_Naive/_ForTesting/Dave/Generated/CMSIS_DSP/Include\arm_math.h ****   /**
 497:C:/Users/Rui Mendes/Desktop/DAVE/_Naive/_ForTesting/Dave/Generated/CMSIS_DSP/Include\arm_math.h ****    * @brief Macros for complex numbers
 498:C:/Users/Rui Mendes/Desktop/DAVE/_Naive/_ForTesting/Dave/Generated/CMSIS_DSP/Include\arm_math.h ****    */
 499:C:/Users/Rui Mendes/Desktop/DAVE/_Naive/_ForTesting/Dave/Generated/CMSIS_DSP/Include\arm_math.h **** 
 500:C:/Users/Rui Mendes/Desktop/DAVE/_Naive/_ForTesting/Dave/Generated/CMSIS_DSP/Include\arm_math.h ****   /* Dimension C vector space */
 501:C:/Users/Rui Mendes/Desktop/DAVE/_Naive/_ForTesting/Dave/Generated/CMSIS_DSP/Include\arm_math.h ****   #define CMPLX_DIM 2
 502:C:/Users/Rui Mendes/Desktop/DAVE/_Naive/_ForTesting/Dave/Generated/CMSIS_DSP/Include\arm_math.h **** 
 503:C:/Users/Rui Mendes/Desktop/DAVE/_Naive/_ForTesting/Dave/Generated/CMSIS_DSP/Include\arm_math.h ****   /**
 504:C:/Users/Rui Mendes/Desktop/DAVE/_Naive/_ForTesting/Dave/Generated/CMSIS_DSP/Include\arm_math.h ****    * @brief Error status returned by some functions in the library.
 505:C:/Users/Rui Mendes/Desktop/DAVE/_Naive/_ForTesting/Dave/Generated/CMSIS_DSP/Include\arm_math.h ****    */
 506:C:/Users/Rui Mendes/Desktop/DAVE/_Naive/_ForTesting/Dave/Generated/CMSIS_DSP/Include\arm_math.h **** 
 507:C:/Users/Rui Mendes/Desktop/DAVE/_Naive/_ForTesting/Dave/Generated/CMSIS_DSP/Include\arm_math.h ****   typedef enum
 508:C:/Users/Rui Mendes/Desktop/DAVE/_Naive/_ForTesting/Dave/Generated/CMSIS_DSP/Include\arm_math.h ****   {
 509:C:/Users/Rui Mendes/Desktop/DAVE/_Naive/_ForTesting/Dave/Generated/CMSIS_DSP/Include\arm_math.h ****     ARM_MATH_SUCCESS        =  0,        /**< No error */
 510:C:/Users/Rui Mendes/Desktop/DAVE/_Naive/_ForTesting/Dave/Generated/CMSIS_DSP/Include\arm_math.h ****     ARM_MATH_ARGUMENT_ERROR = -1,        /**< One or more arguments are incorrect */
 511:C:/Users/Rui Mendes/Desktop/DAVE/_Naive/_ForTesting/Dave/Generated/CMSIS_DSP/Include\arm_math.h ****     ARM_MATH_LENGTH_ERROR   = -2,        /**< Length of data buffer is incorrect */
 512:C:/Users/Rui Mendes/Desktop/DAVE/_Naive/_ForTesting/Dave/Generated/CMSIS_DSP/Include\arm_math.h ****     ARM_MATH_SIZE_MISMATCH  = -3,        /**< Size of matrices is not compatible with the operation
 513:C:/Users/Rui Mendes/Desktop/DAVE/_Naive/_ForTesting/Dave/Generated/CMSIS_DSP/Include\arm_math.h ****     ARM_MATH_NANINF         = -4,        /**< Not-a-number (NaN) or infinity is generated */
 514:C:/Users/Rui Mendes/Desktop/DAVE/_Naive/_ForTesting/Dave/Generated/CMSIS_DSP/Include\arm_math.h ****     ARM_MATH_SINGULAR       = -5,        /**< Input matrix is singular and cannot be inverted */
 515:C:/Users/Rui Mendes/Desktop/DAVE/_Naive/_ForTesting/Dave/Generated/CMSIS_DSP/Include\arm_math.h ****     ARM_MATH_TEST_FAILURE   = -6         /**< Test Failed */
 516:C:/Users/Rui Mendes/Desktop/DAVE/_Naive/_ForTesting/Dave/Generated/CMSIS_DSP/Include\arm_math.h ****   } arm_status;
 517:C:/Users/Rui Mendes/Desktop/DAVE/_Naive/_ForTesting/Dave/Generated/CMSIS_DSP/Include\arm_math.h **** 
 518:C:/Users/Rui Mendes/Desktop/DAVE/_Naive/_ForTesting/Dave/Generated/CMSIS_DSP/Include\arm_math.h ****   /**
 519:C:/Users/Rui Mendes/Desktop/DAVE/_Naive/_ForTesting/Dave/Generated/CMSIS_DSP/Include\arm_math.h ****    * @brief 8-bit fractional data type in 1.7 format.
 520:C:/Users/Rui Mendes/Desktop/DAVE/_Naive/_ForTesting/Dave/Generated/CMSIS_DSP/Include\arm_math.h ****    */
 521:C:/Users/Rui Mendes/Desktop/DAVE/_Naive/_ForTesting/Dave/Generated/CMSIS_DSP/Include\arm_math.h ****   typedef int8_t q7_t;
 522:C:/Users/Rui Mendes/Desktop/DAVE/_Naive/_ForTesting/Dave/Generated/CMSIS_DSP/Include\arm_math.h **** 
 523:C:/Users/Rui Mendes/Desktop/DAVE/_Naive/_ForTesting/Dave/Generated/CMSIS_DSP/Include\arm_math.h ****   /**
 524:C:/Users/Rui Mendes/Desktop/DAVE/_Naive/_ForTesting/Dave/Generated/CMSIS_DSP/Include\arm_math.h ****    * @brief 16-bit fractional data type in 1.15 format.
 525:C:/Users/Rui Mendes/Desktop/DAVE/_Naive/_ForTesting/Dave/Generated/CMSIS_DSP/Include\arm_math.h ****    */
 526:C:/Users/Rui Mendes/Desktop/DAVE/_Naive/_ForTesting/Dave/Generated/CMSIS_DSP/Include\arm_math.h ****   typedef int16_t q15_t;
 527:C:/Users/Rui Mendes/Desktop/DAVE/_Naive/_ForTesting/Dave/Generated/CMSIS_DSP/Include\arm_math.h **** 
 528:C:/Users/Rui Mendes/Desktop/DAVE/_Naive/_ForTesting/Dave/Generated/CMSIS_DSP/Include\arm_math.h ****   /**
 529:C:/Users/Rui Mendes/Desktop/DAVE/_Naive/_ForTesting/Dave/Generated/CMSIS_DSP/Include\arm_math.h ****    * @brief 32-bit fractional data type in 1.31 format.
 530:C:/Users/Rui Mendes/Desktop/DAVE/_Naive/_ForTesting/Dave/Generated/CMSIS_DSP/Include\arm_math.h ****    */
 531:C:/Users/Rui Mendes/Desktop/DAVE/_Naive/_ForTesting/Dave/Generated/CMSIS_DSP/Include\arm_math.h ****   typedef int32_t q31_t;
 532:C:/Users/Rui Mendes/Desktop/DAVE/_Naive/_ForTesting/Dave/Generated/CMSIS_DSP/Include\arm_math.h **** 
 533:C:/Users/Rui Mendes/Desktop/DAVE/_Naive/_ForTesting/Dave/Generated/CMSIS_DSP/Include\arm_math.h ****   /**
 534:C:/Users/Rui Mendes/Desktop/DAVE/_Naive/_ForTesting/Dave/Generated/CMSIS_DSP/Include\arm_math.h ****    * @brief 64-bit fractional data type in 1.63 format.
 535:C:/Users/Rui Mendes/Desktop/DAVE/_Naive/_ForTesting/Dave/Generated/CMSIS_DSP/Include\arm_math.h ****    */
 536:C:/Users/Rui Mendes/Desktop/DAVE/_Naive/_ForTesting/Dave/Generated/CMSIS_DSP/Include\arm_math.h ****   typedef int64_t q63_t;
 537:C:/Users/Rui Mendes/Desktop/DAVE/_Naive/_ForTesting/Dave/Generated/CMSIS_DSP/Include\arm_math.h **** 
 538:C:/Users/Rui Mendes/Desktop/DAVE/_Naive/_ForTesting/Dave/Generated/CMSIS_DSP/Include\arm_math.h ****   /**
 539:C:/Users/Rui Mendes/Desktop/DAVE/_Naive/_ForTesting/Dave/Generated/CMSIS_DSP/Include\arm_math.h ****    * @brief 32-bit floating-point type definition.
 540:C:/Users/Rui Mendes/Desktop/DAVE/_Naive/_ForTesting/Dave/Generated/CMSIS_DSP/Include\arm_math.h ****    */
 541:C:/Users/Rui Mendes/Desktop/DAVE/_Naive/_ForTesting/Dave/Generated/CMSIS_DSP/Include\arm_math.h ****   typedef float float32_t;
 542:C:/Users/Rui Mendes/Desktop/DAVE/_Naive/_ForTesting/Dave/Generated/CMSIS_DSP/Include\arm_math.h **** 
 543:C:/Users/Rui Mendes/Desktop/DAVE/_Naive/_ForTesting/Dave/Generated/CMSIS_DSP/Include\arm_math.h ****   /**
 544:C:/Users/Rui Mendes/Desktop/DAVE/_Naive/_ForTesting/Dave/Generated/CMSIS_DSP/Include\arm_math.h ****    * @brief 64-bit floating-point type definition.
 545:C:/Users/Rui Mendes/Desktop/DAVE/_Naive/_ForTesting/Dave/Generated/CMSIS_DSP/Include\arm_math.h ****    */
 546:C:/Users/Rui Mendes/Desktop/DAVE/_Naive/_ForTesting/Dave/Generated/CMSIS_DSP/Include\arm_math.h ****   typedef double float64_t;
 547:C:/Users/Rui Mendes/Desktop/DAVE/_Naive/_ForTesting/Dave/Generated/CMSIS_DSP/Include\arm_math.h **** 
 548:C:/Users/Rui Mendes/Desktop/DAVE/_Naive/_ForTesting/Dave/Generated/CMSIS_DSP/Include\arm_math.h ****   /**
 549:C:/Users/Rui Mendes/Desktop/DAVE/_Naive/_ForTesting/Dave/Generated/CMSIS_DSP/Include\arm_math.h ****    * @brief vector types
 550:C:/Users/Rui Mendes/Desktop/DAVE/_Naive/_ForTesting/Dave/Generated/CMSIS_DSP/Include\arm_math.h ****    */
 551:C:/Users/Rui Mendes/Desktop/DAVE/_Naive/_ForTesting/Dave/Generated/CMSIS_DSP/Include\arm_math.h **** #if defined(ARM_MATH_NEON) || defined (ARM_MATH_MVEI)
 552:C:/Users/Rui Mendes/Desktop/DAVE/_Naive/_ForTesting/Dave/Generated/CMSIS_DSP/Include\arm_math.h ****   /**
 553:C:/Users/Rui Mendes/Desktop/DAVE/_Naive/_ForTesting/Dave/Generated/CMSIS_DSP/Include\arm_math.h ****    * @brief 64-bit fractional 128-bit vector data type in 1.63 format
 554:C:/Users/Rui Mendes/Desktop/DAVE/_Naive/_ForTesting/Dave/Generated/CMSIS_DSP/Include\arm_math.h ****    */
 555:C:/Users/Rui Mendes/Desktop/DAVE/_Naive/_ForTesting/Dave/Generated/CMSIS_DSP/Include\arm_math.h ****   typedef int64x2_t q63x2_t;
 556:C:/Users/Rui Mendes/Desktop/DAVE/_Naive/_ForTesting/Dave/Generated/CMSIS_DSP/Include\arm_math.h **** 
 557:C:/Users/Rui Mendes/Desktop/DAVE/_Naive/_ForTesting/Dave/Generated/CMSIS_DSP/Include\arm_math.h ****   /**
 558:C:/Users/Rui Mendes/Desktop/DAVE/_Naive/_ForTesting/Dave/Generated/CMSIS_DSP/Include\arm_math.h ****    * @brief 32-bit fractional 128-bit vector data type in 1.31 format.
 559:C:/Users/Rui Mendes/Desktop/DAVE/_Naive/_ForTesting/Dave/Generated/CMSIS_DSP/Include\arm_math.h ****    */
 560:C:/Users/Rui Mendes/Desktop/DAVE/_Naive/_ForTesting/Dave/Generated/CMSIS_DSP/Include\arm_math.h ****   typedef int32x4_t q31x4_t;
 561:C:/Users/Rui Mendes/Desktop/DAVE/_Naive/_ForTesting/Dave/Generated/CMSIS_DSP/Include\arm_math.h **** 
 562:C:/Users/Rui Mendes/Desktop/DAVE/_Naive/_ForTesting/Dave/Generated/CMSIS_DSP/Include\arm_math.h ****   /**
 563:C:/Users/Rui Mendes/Desktop/DAVE/_Naive/_ForTesting/Dave/Generated/CMSIS_DSP/Include\arm_math.h ****    * @brief 16-bit fractional 128-bit vector data type with 16-bit alignement in 1.15 format.
 564:C:/Users/Rui Mendes/Desktop/DAVE/_Naive/_ForTesting/Dave/Generated/CMSIS_DSP/Include\arm_math.h ****    */
 565:C:/Users/Rui Mendes/Desktop/DAVE/_Naive/_ForTesting/Dave/Generated/CMSIS_DSP/Include\arm_math.h ****   typedef __ALIGNED(2) int16x8_t q15x8_t;
 566:C:/Users/Rui Mendes/Desktop/DAVE/_Naive/_ForTesting/Dave/Generated/CMSIS_DSP/Include\arm_math.h **** 
 567:C:/Users/Rui Mendes/Desktop/DAVE/_Naive/_ForTesting/Dave/Generated/CMSIS_DSP/Include\arm_math.h ****  /**
 568:C:/Users/Rui Mendes/Desktop/DAVE/_Naive/_ForTesting/Dave/Generated/CMSIS_DSP/Include\arm_math.h ****    * @brief 8-bit fractional 128-bit vector data type with 8-bit alignement in 1.7 format.
 569:C:/Users/Rui Mendes/Desktop/DAVE/_Naive/_ForTesting/Dave/Generated/CMSIS_DSP/Include\arm_math.h ****    */
 570:C:/Users/Rui Mendes/Desktop/DAVE/_Naive/_ForTesting/Dave/Generated/CMSIS_DSP/Include\arm_math.h ****   typedef __ALIGNED(1) int8x16_t q7x16_t;
 571:C:/Users/Rui Mendes/Desktop/DAVE/_Naive/_ForTesting/Dave/Generated/CMSIS_DSP/Include\arm_math.h **** 
 572:C:/Users/Rui Mendes/Desktop/DAVE/_Naive/_ForTesting/Dave/Generated/CMSIS_DSP/Include\arm_math.h ****     /**
 573:C:/Users/Rui Mendes/Desktop/DAVE/_Naive/_ForTesting/Dave/Generated/CMSIS_DSP/Include\arm_math.h ****    * @brief 32-bit fractional 128-bit vector pair data type in 1.31 format.
 574:C:/Users/Rui Mendes/Desktop/DAVE/_Naive/_ForTesting/Dave/Generated/CMSIS_DSP/Include\arm_math.h ****    */
 575:C:/Users/Rui Mendes/Desktop/DAVE/_Naive/_ForTesting/Dave/Generated/CMSIS_DSP/Include\arm_math.h ****   typedef int32x4x2_t q31x4x2_t;
 576:C:/Users/Rui Mendes/Desktop/DAVE/_Naive/_ForTesting/Dave/Generated/CMSIS_DSP/Include\arm_math.h **** 
 577:C:/Users/Rui Mendes/Desktop/DAVE/_Naive/_ForTesting/Dave/Generated/CMSIS_DSP/Include\arm_math.h ****   /**
 578:C:/Users/Rui Mendes/Desktop/DAVE/_Naive/_ForTesting/Dave/Generated/CMSIS_DSP/Include\arm_math.h ****    * @brief 32-bit fractional 128-bit vector quadruplet data type in 1.31 format.
 579:C:/Users/Rui Mendes/Desktop/DAVE/_Naive/_ForTesting/Dave/Generated/CMSIS_DSP/Include\arm_math.h ****    */
 580:C:/Users/Rui Mendes/Desktop/DAVE/_Naive/_ForTesting/Dave/Generated/CMSIS_DSP/Include\arm_math.h ****   typedef int32x4x4_t q31x4x4_t;
 581:C:/Users/Rui Mendes/Desktop/DAVE/_Naive/_ForTesting/Dave/Generated/CMSIS_DSP/Include\arm_math.h **** 
 582:C:/Users/Rui Mendes/Desktop/DAVE/_Naive/_ForTesting/Dave/Generated/CMSIS_DSP/Include\arm_math.h ****   /**
 583:C:/Users/Rui Mendes/Desktop/DAVE/_Naive/_ForTesting/Dave/Generated/CMSIS_DSP/Include\arm_math.h ****    * @brief 16-bit fractional 128-bit vector pair data type in 1.15 format.
 584:C:/Users/Rui Mendes/Desktop/DAVE/_Naive/_ForTesting/Dave/Generated/CMSIS_DSP/Include\arm_math.h ****    */
 585:C:/Users/Rui Mendes/Desktop/DAVE/_Naive/_ForTesting/Dave/Generated/CMSIS_DSP/Include\arm_math.h ****   typedef int16x8x2_t q15x8x2_t;
 586:C:/Users/Rui Mendes/Desktop/DAVE/_Naive/_ForTesting/Dave/Generated/CMSIS_DSP/Include\arm_math.h **** 
 587:C:/Users/Rui Mendes/Desktop/DAVE/_Naive/_ForTesting/Dave/Generated/CMSIS_DSP/Include\arm_math.h ****   /**
 588:C:/Users/Rui Mendes/Desktop/DAVE/_Naive/_ForTesting/Dave/Generated/CMSIS_DSP/Include\arm_math.h ****    * @brief 16-bit fractional 128-bit vector quadruplet data type in 1.15 format.
 589:C:/Users/Rui Mendes/Desktop/DAVE/_Naive/_ForTesting/Dave/Generated/CMSIS_DSP/Include\arm_math.h ****    */
 590:C:/Users/Rui Mendes/Desktop/DAVE/_Naive/_ForTesting/Dave/Generated/CMSIS_DSP/Include\arm_math.h ****   typedef int16x8x4_t q15x8x4_t;
 591:C:/Users/Rui Mendes/Desktop/DAVE/_Naive/_ForTesting/Dave/Generated/CMSIS_DSP/Include\arm_math.h **** 
 592:C:/Users/Rui Mendes/Desktop/DAVE/_Naive/_ForTesting/Dave/Generated/CMSIS_DSP/Include\arm_math.h ****   /**
 593:C:/Users/Rui Mendes/Desktop/DAVE/_Naive/_ForTesting/Dave/Generated/CMSIS_DSP/Include\arm_math.h ****    * @brief 8-bit fractional 128-bit vector pair data type in 1.7 format.
 594:C:/Users/Rui Mendes/Desktop/DAVE/_Naive/_ForTesting/Dave/Generated/CMSIS_DSP/Include\arm_math.h ****    */
 595:C:/Users/Rui Mendes/Desktop/DAVE/_Naive/_ForTesting/Dave/Generated/CMSIS_DSP/Include\arm_math.h ****   typedef int8x16x2_t q7x16x2_t;
 596:C:/Users/Rui Mendes/Desktop/DAVE/_Naive/_ForTesting/Dave/Generated/CMSIS_DSP/Include\arm_math.h **** 
 597:C:/Users/Rui Mendes/Desktop/DAVE/_Naive/_ForTesting/Dave/Generated/CMSIS_DSP/Include\arm_math.h ****   /**
 598:C:/Users/Rui Mendes/Desktop/DAVE/_Naive/_ForTesting/Dave/Generated/CMSIS_DSP/Include\arm_math.h ****    * @brief 8-bit fractional 128-bit vector quadruplet data type in 1.7 format.
 599:C:/Users/Rui Mendes/Desktop/DAVE/_Naive/_ForTesting/Dave/Generated/CMSIS_DSP/Include\arm_math.h ****    */
 600:C:/Users/Rui Mendes/Desktop/DAVE/_Naive/_ForTesting/Dave/Generated/CMSIS_DSP/Include\arm_math.h ****    typedef int8x16x4_t q7x16x4_t;
 601:C:/Users/Rui Mendes/Desktop/DAVE/_Naive/_ForTesting/Dave/Generated/CMSIS_DSP/Include\arm_math.h **** 
 602:C:/Users/Rui Mendes/Desktop/DAVE/_Naive/_ForTesting/Dave/Generated/CMSIS_DSP/Include\arm_math.h ****   /**
 603:C:/Users/Rui Mendes/Desktop/DAVE/_Naive/_ForTesting/Dave/Generated/CMSIS_DSP/Include\arm_math.h ****    * @brief 32-bit fractional data type in 9.23 format.
 604:C:/Users/Rui Mendes/Desktop/DAVE/_Naive/_ForTesting/Dave/Generated/CMSIS_DSP/Include\arm_math.h ****    */
 605:C:/Users/Rui Mendes/Desktop/DAVE/_Naive/_ForTesting/Dave/Generated/CMSIS_DSP/Include\arm_math.h ****   typedef int32_t q23_t;
 606:C:/Users/Rui Mendes/Desktop/DAVE/_Naive/_ForTesting/Dave/Generated/CMSIS_DSP/Include\arm_math.h **** 
 607:C:/Users/Rui Mendes/Desktop/DAVE/_Naive/_ForTesting/Dave/Generated/CMSIS_DSP/Include\arm_math.h ****   /**
 608:C:/Users/Rui Mendes/Desktop/DAVE/_Naive/_ForTesting/Dave/Generated/CMSIS_DSP/Include\arm_math.h ****    * @brief 32-bit fractional 128-bit vector data type in 9.23 format.
 609:C:/Users/Rui Mendes/Desktop/DAVE/_Naive/_ForTesting/Dave/Generated/CMSIS_DSP/Include\arm_math.h ****    */
 610:C:/Users/Rui Mendes/Desktop/DAVE/_Naive/_ForTesting/Dave/Generated/CMSIS_DSP/Include\arm_math.h ****   typedef int32x4_t q23x4_t;
 611:C:/Users/Rui Mendes/Desktop/DAVE/_Naive/_ForTesting/Dave/Generated/CMSIS_DSP/Include\arm_math.h **** 
 612:C:/Users/Rui Mendes/Desktop/DAVE/_Naive/_ForTesting/Dave/Generated/CMSIS_DSP/Include\arm_math.h ****   /**
 613:C:/Users/Rui Mendes/Desktop/DAVE/_Naive/_ForTesting/Dave/Generated/CMSIS_DSP/Include\arm_math.h ****    * @brief 64-bit status 128-bit vector data type.
 614:C:/Users/Rui Mendes/Desktop/DAVE/_Naive/_ForTesting/Dave/Generated/CMSIS_DSP/Include\arm_math.h ****    */
 615:C:/Users/Rui Mendes/Desktop/DAVE/_Naive/_ForTesting/Dave/Generated/CMSIS_DSP/Include\arm_math.h ****   typedef int64x2_t status64x2_t;
 616:C:/Users/Rui Mendes/Desktop/DAVE/_Naive/_ForTesting/Dave/Generated/CMSIS_DSP/Include\arm_math.h **** 
 617:C:/Users/Rui Mendes/Desktop/DAVE/_Naive/_ForTesting/Dave/Generated/CMSIS_DSP/Include\arm_math.h ****   /**
 618:C:/Users/Rui Mendes/Desktop/DAVE/_Naive/_ForTesting/Dave/Generated/CMSIS_DSP/Include\arm_math.h ****    * @brief 32-bit status 128-bit vector data type.
 619:C:/Users/Rui Mendes/Desktop/DAVE/_Naive/_ForTesting/Dave/Generated/CMSIS_DSP/Include\arm_math.h ****    */
 620:C:/Users/Rui Mendes/Desktop/DAVE/_Naive/_ForTesting/Dave/Generated/CMSIS_DSP/Include\arm_math.h ****   typedef int32x4_t status32x4_t;
 621:C:/Users/Rui Mendes/Desktop/DAVE/_Naive/_ForTesting/Dave/Generated/CMSIS_DSP/Include\arm_math.h **** 
 622:C:/Users/Rui Mendes/Desktop/DAVE/_Naive/_ForTesting/Dave/Generated/CMSIS_DSP/Include\arm_math.h ****   /**
 623:C:/Users/Rui Mendes/Desktop/DAVE/_Naive/_ForTesting/Dave/Generated/CMSIS_DSP/Include\arm_math.h ****    * @brief 16-bit status 128-bit vector data type.
 624:C:/Users/Rui Mendes/Desktop/DAVE/_Naive/_ForTesting/Dave/Generated/CMSIS_DSP/Include\arm_math.h ****    */
 625:C:/Users/Rui Mendes/Desktop/DAVE/_Naive/_ForTesting/Dave/Generated/CMSIS_DSP/Include\arm_math.h ****   typedef int16x8_t status16x8_t;
 626:C:/Users/Rui Mendes/Desktop/DAVE/_Naive/_ForTesting/Dave/Generated/CMSIS_DSP/Include\arm_math.h **** 
 627:C:/Users/Rui Mendes/Desktop/DAVE/_Naive/_ForTesting/Dave/Generated/CMSIS_DSP/Include\arm_math.h ****   /**
 628:C:/Users/Rui Mendes/Desktop/DAVE/_Naive/_ForTesting/Dave/Generated/CMSIS_DSP/Include\arm_math.h ****    * @brief 8-bit status 128-bit vector data type.
 629:C:/Users/Rui Mendes/Desktop/DAVE/_Naive/_ForTesting/Dave/Generated/CMSIS_DSP/Include\arm_math.h ****    */
 630:C:/Users/Rui Mendes/Desktop/DAVE/_Naive/_ForTesting/Dave/Generated/CMSIS_DSP/Include\arm_math.h ****   typedef int8x16_t status8x16_t;
 631:C:/Users/Rui Mendes/Desktop/DAVE/_Naive/_ForTesting/Dave/Generated/CMSIS_DSP/Include\arm_math.h **** 
 632:C:/Users/Rui Mendes/Desktop/DAVE/_Naive/_ForTesting/Dave/Generated/CMSIS_DSP/Include\arm_math.h **** 
 633:C:/Users/Rui Mendes/Desktop/DAVE/_Naive/_ForTesting/Dave/Generated/CMSIS_DSP/Include\arm_math.h **** #endif
 634:C:/Users/Rui Mendes/Desktop/DAVE/_Naive/_ForTesting/Dave/Generated/CMSIS_DSP/Include\arm_math.h **** 
 635:C:/Users/Rui Mendes/Desktop/DAVE/_Naive/_ForTesting/Dave/Generated/CMSIS_DSP/Include\arm_math.h **** #if defined(ARM_MATH_NEON) || defined(ARM_MATH_MVEF) /* floating point vector*/
 636:C:/Users/Rui Mendes/Desktop/DAVE/_Naive/_ForTesting/Dave/Generated/CMSIS_DSP/Include\arm_math.h ****   /**
 637:C:/Users/Rui Mendes/Desktop/DAVE/_Naive/_ForTesting/Dave/Generated/CMSIS_DSP/Include\arm_math.h ****    * @brief 32-bit floating-point 128-bit vector type
 638:C:/Users/Rui Mendes/Desktop/DAVE/_Naive/_ForTesting/Dave/Generated/CMSIS_DSP/Include\arm_math.h ****    */
 639:C:/Users/Rui Mendes/Desktop/DAVE/_Naive/_ForTesting/Dave/Generated/CMSIS_DSP/Include\arm_math.h ****   typedef float32x4_t f32x4_t;
 640:C:/Users/Rui Mendes/Desktop/DAVE/_Naive/_ForTesting/Dave/Generated/CMSIS_DSP/Include\arm_math.h **** 
 641:C:/Users/Rui Mendes/Desktop/DAVE/_Naive/_ForTesting/Dave/Generated/CMSIS_DSP/Include\arm_math.h **** #if defined(ARM_MATH_FLOAT16)
 642:C:/Users/Rui Mendes/Desktop/DAVE/_Naive/_ForTesting/Dave/Generated/CMSIS_DSP/Include\arm_math.h ****   /**
 643:C:/Users/Rui Mendes/Desktop/DAVE/_Naive/_ForTesting/Dave/Generated/CMSIS_DSP/Include\arm_math.h ****    * @brief 16-bit floating-point 128-bit vector data type
 644:C:/Users/Rui Mendes/Desktop/DAVE/_Naive/_ForTesting/Dave/Generated/CMSIS_DSP/Include\arm_math.h ****    */
 645:C:/Users/Rui Mendes/Desktop/DAVE/_Naive/_ForTesting/Dave/Generated/CMSIS_DSP/Include\arm_math.h ****   typedef __ALIGNED(2) float16x8_t f16x8_t;
 646:C:/Users/Rui Mendes/Desktop/DAVE/_Naive/_ForTesting/Dave/Generated/CMSIS_DSP/Include\arm_math.h **** #endif
 647:C:/Users/Rui Mendes/Desktop/DAVE/_Naive/_ForTesting/Dave/Generated/CMSIS_DSP/Include\arm_math.h **** 
 648:C:/Users/Rui Mendes/Desktop/DAVE/_Naive/_ForTesting/Dave/Generated/CMSIS_DSP/Include\arm_math.h ****   /**
 649:C:/Users/Rui Mendes/Desktop/DAVE/_Naive/_ForTesting/Dave/Generated/CMSIS_DSP/Include\arm_math.h ****    * @brief 32-bit floating-point 128-bit vector pair data type
 650:C:/Users/Rui Mendes/Desktop/DAVE/_Naive/_ForTesting/Dave/Generated/CMSIS_DSP/Include\arm_math.h ****    */
 651:C:/Users/Rui Mendes/Desktop/DAVE/_Naive/_ForTesting/Dave/Generated/CMSIS_DSP/Include\arm_math.h ****   typedef float32x4x2_t f32x4x2_t;
 652:C:/Users/Rui Mendes/Desktop/DAVE/_Naive/_ForTesting/Dave/Generated/CMSIS_DSP/Include\arm_math.h **** 
 653:C:/Users/Rui Mendes/Desktop/DAVE/_Naive/_ForTesting/Dave/Generated/CMSIS_DSP/Include\arm_math.h ****   /**
 654:C:/Users/Rui Mendes/Desktop/DAVE/_Naive/_ForTesting/Dave/Generated/CMSIS_DSP/Include\arm_math.h ****    * @brief 32-bit floating-point 128-bit vector quadruplet data type
 655:C:/Users/Rui Mendes/Desktop/DAVE/_Naive/_ForTesting/Dave/Generated/CMSIS_DSP/Include\arm_math.h ****    */
 656:C:/Users/Rui Mendes/Desktop/DAVE/_Naive/_ForTesting/Dave/Generated/CMSIS_DSP/Include\arm_math.h ****   typedef float32x4x4_t f32x4x4_t;
 657:C:/Users/Rui Mendes/Desktop/DAVE/_Naive/_ForTesting/Dave/Generated/CMSIS_DSP/Include\arm_math.h **** 
 658:C:/Users/Rui Mendes/Desktop/DAVE/_Naive/_ForTesting/Dave/Generated/CMSIS_DSP/Include\arm_math.h **** #if defined(ARM_MATH_FLOAT16)
 659:C:/Users/Rui Mendes/Desktop/DAVE/_Naive/_ForTesting/Dave/Generated/CMSIS_DSP/Include\arm_math.h ****   /**
 660:C:/Users/Rui Mendes/Desktop/DAVE/_Naive/_ForTesting/Dave/Generated/CMSIS_DSP/Include\arm_math.h ****    * @brief 16-bit floating-point 128-bit vector pair data type
 661:C:/Users/Rui Mendes/Desktop/DAVE/_Naive/_ForTesting/Dave/Generated/CMSIS_DSP/Include\arm_math.h ****    */
 662:C:/Users/Rui Mendes/Desktop/DAVE/_Naive/_ForTesting/Dave/Generated/CMSIS_DSP/Include\arm_math.h ****   typedef float16x8x2_t f16x8x2_t;
 663:C:/Users/Rui Mendes/Desktop/DAVE/_Naive/_ForTesting/Dave/Generated/CMSIS_DSP/Include\arm_math.h **** 
 664:C:/Users/Rui Mendes/Desktop/DAVE/_Naive/_ForTesting/Dave/Generated/CMSIS_DSP/Include\arm_math.h ****   /**
 665:C:/Users/Rui Mendes/Desktop/DAVE/_Naive/_ForTesting/Dave/Generated/CMSIS_DSP/Include\arm_math.h ****    * @brief 16-bit floating-point 128-bit vector quadruplet data type
 666:C:/Users/Rui Mendes/Desktop/DAVE/_Naive/_ForTesting/Dave/Generated/CMSIS_DSP/Include\arm_math.h ****    */
 667:C:/Users/Rui Mendes/Desktop/DAVE/_Naive/_ForTesting/Dave/Generated/CMSIS_DSP/Include\arm_math.h ****   typedef float16x8x4_t f16x8x4_t;
 668:C:/Users/Rui Mendes/Desktop/DAVE/_Naive/_ForTesting/Dave/Generated/CMSIS_DSP/Include\arm_math.h **** #endif
 669:C:/Users/Rui Mendes/Desktop/DAVE/_Naive/_ForTesting/Dave/Generated/CMSIS_DSP/Include\arm_math.h **** 
 670:C:/Users/Rui Mendes/Desktop/DAVE/_Naive/_ForTesting/Dave/Generated/CMSIS_DSP/Include\arm_math.h ****   /**
 671:C:/Users/Rui Mendes/Desktop/DAVE/_Naive/_ForTesting/Dave/Generated/CMSIS_DSP/Include\arm_math.h ****    * @brief 32-bit ubiquitous 128-bit vector data type
 672:C:/Users/Rui Mendes/Desktop/DAVE/_Naive/_ForTesting/Dave/Generated/CMSIS_DSP/Include\arm_math.h ****    */
 673:C:/Users/Rui Mendes/Desktop/DAVE/_Naive/_ForTesting/Dave/Generated/CMSIS_DSP/Include\arm_math.h ****   typedef union _any32x4_t
 674:C:/Users/Rui Mendes/Desktop/DAVE/_Naive/_ForTesting/Dave/Generated/CMSIS_DSP/Include\arm_math.h ****   {
 675:C:/Users/Rui Mendes/Desktop/DAVE/_Naive/_ForTesting/Dave/Generated/CMSIS_DSP/Include\arm_math.h ****       float32x4_t     f;
 676:C:/Users/Rui Mendes/Desktop/DAVE/_Naive/_ForTesting/Dave/Generated/CMSIS_DSP/Include\arm_math.h ****       int32x4_t       i;
 677:C:/Users/Rui Mendes/Desktop/DAVE/_Naive/_ForTesting/Dave/Generated/CMSIS_DSP/Include\arm_math.h ****   } any32x4_t;
 678:C:/Users/Rui Mendes/Desktop/DAVE/_Naive/_ForTesting/Dave/Generated/CMSIS_DSP/Include\arm_math.h **** 
 679:C:/Users/Rui Mendes/Desktop/DAVE/_Naive/_ForTesting/Dave/Generated/CMSIS_DSP/Include\arm_math.h **** #if defined(ARM_MATH_FLOAT16)
 680:C:/Users/Rui Mendes/Desktop/DAVE/_Naive/_ForTesting/Dave/Generated/CMSIS_DSP/Include\arm_math.h ****   /**
 681:C:/Users/Rui Mendes/Desktop/DAVE/_Naive/_ForTesting/Dave/Generated/CMSIS_DSP/Include\arm_math.h ****    * @brief 16-bit ubiquitous 128-bit vector data type
 682:C:/Users/Rui Mendes/Desktop/DAVE/_Naive/_ForTesting/Dave/Generated/CMSIS_DSP/Include\arm_math.h ****    */
 683:C:/Users/Rui Mendes/Desktop/DAVE/_Naive/_ForTesting/Dave/Generated/CMSIS_DSP/Include\arm_math.h ****   typedef union _any16x8_t
 684:C:/Users/Rui Mendes/Desktop/DAVE/_Naive/_ForTesting/Dave/Generated/CMSIS_DSP/Include\arm_math.h ****   {
 685:C:/Users/Rui Mendes/Desktop/DAVE/_Naive/_ForTesting/Dave/Generated/CMSIS_DSP/Include\arm_math.h ****       float16x8_t     f;
 686:C:/Users/Rui Mendes/Desktop/DAVE/_Naive/_ForTesting/Dave/Generated/CMSIS_DSP/Include\arm_math.h ****       int16x8_t       i;
 687:C:/Users/Rui Mendes/Desktop/DAVE/_Naive/_ForTesting/Dave/Generated/CMSIS_DSP/Include\arm_math.h ****   } any16x8_t;
 688:C:/Users/Rui Mendes/Desktop/DAVE/_Naive/_ForTesting/Dave/Generated/CMSIS_DSP/Include\arm_math.h **** #endif
 689:C:/Users/Rui Mendes/Desktop/DAVE/_Naive/_ForTesting/Dave/Generated/CMSIS_DSP/Include\arm_math.h **** 
 690:C:/Users/Rui Mendes/Desktop/DAVE/_Naive/_ForTesting/Dave/Generated/CMSIS_DSP/Include\arm_math.h **** #endif
 691:C:/Users/Rui Mendes/Desktop/DAVE/_Naive/_ForTesting/Dave/Generated/CMSIS_DSP/Include\arm_math.h **** 
 692:C:/Users/Rui Mendes/Desktop/DAVE/_Naive/_ForTesting/Dave/Generated/CMSIS_DSP/Include\arm_math.h **** #if defined(ARM_MATH_NEON)
 693:C:/Users/Rui Mendes/Desktop/DAVE/_Naive/_ForTesting/Dave/Generated/CMSIS_DSP/Include\arm_math.h ****   /**
 694:C:/Users/Rui Mendes/Desktop/DAVE/_Naive/_ForTesting/Dave/Generated/CMSIS_DSP/Include\arm_math.h ****    * @brief 32-bit fractional 64-bit vector data type in 1.31 format.
 695:C:/Users/Rui Mendes/Desktop/DAVE/_Naive/_ForTesting/Dave/Generated/CMSIS_DSP/Include\arm_math.h ****    */
 696:C:/Users/Rui Mendes/Desktop/DAVE/_Naive/_ForTesting/Dave/Generated/CMSIS_DSP/Include\arm_math.h ****   typedef int32x2_t  q31x2_t;
 697:C:/Users/Rui Mendes/Desktop/DAVE/_Naive/_ForTesting/Dave/Generated/CMSIS_DSP/Include\arm_math.h **** 
 698:C:/Users/Rui Mendes/Desktop/DAVE/_Naive/_ForTesting/Dave/Generated/CMSIS_DSP/Include\arm_math.h ****   /**
 699:C:/Users/Rui Mendes/Desktop/DAVE/_Naive/_ForTesting/Dave/Generated/CMSIS_DSP/Include\arm_math.h ****    * @brief 16-bit fractional 64-bit vector data type in 1.15 format.
 700:C:/Users/Rui Mendes/Desktop/DAVE/_Naive/_ForTesting/Dave/Generated/CMSIS_DSP/Include\arm_math.h ****    */
 701:C:/Users/Rui Mendes/Desktop/DAVE/_Naive/_ForTesting/Dave/Generated/CMSIS_DSP/Include\arm_math.h ****   typedef  __ALIGNED(2) int16x4_t q15x4_t;
 702:C:/Users/Rui Mendes/Desktop/DAVE/_Naive/_ForTesting/Dave/Generated/CMSIS_DSP/Include\arm_math.h **** 
 703:C:/Users/Rui Mendes/Desktop/DAVE/_Naive/_ForTesting/Dave/Generated/CMSIS_DSP/Include\arm_math.h ****   /**
 704:C:/Users/Rui Mendes/Desktop/DAVE/_Naive/_ForTesting/Dave/Generated/CMSIS_DSP/Include\arm_math.h ****    * @brief 8-bit fractional 64-bit vector data type in 1.7 format.
 705:C:/Users/Rui Mendes/Desktop/DAVE/_Naive/_ForTesting/Dave/Generated/CMSIS_DSP/Include\arm_math.h ****    */
 706:C:/Users/Rui Mendes/Desktop/DAVE/_Naive/_ForTesting/Dave/Generated/CMSIS_DSP/Include\arm_math.h ****   typedef  __ALIGNED(1) int8x8_t q7x8_t;
 707:C:/Users/Rui Mendes/Desktop/DAVE/_Naive/_ForTesting/Dave/Generated/CMSIS_DSP/Include\arm_math.h **** 
 708:C:/Users/Rui Mendes/Desktop/DAVE/_Naive/_ForTesting/Dave/Generated/CMSIS_DSP/Include\arm_math.h ****   /**
 709:C:/Users/Rui Mendes/Desktop/DAVE/_Naive/_ForTesting/Dave/Generated/CMSIS_DSP/Include\arm_math.h ****    * @brief 32-bit float 64-bit vector data type.
 710:C:/Users/Rui Mendes/Desktop/DAVE/_Naive/_ForTesting/Dave/Generated/CMSIS_DSP/Include\arm_math.h ****    */
 711:C:/Users/Rui Mendes/Desktop/DAVE/_Naive/_ForTesting/Dave/Generated/CMSIS_DSP/Include\arm_math.h ****   typedef float32x2_t  f32x2_t;
 712:C:/Users/Rui Mendes/Desktop/DAVE/_Naive/_ForTesting/Dave/Generated/CMSIS_DSP/Include\arm_math.h **** 
 713:C:/Users/Rui Mendes/Desktop/DAVE/_Naive/_ForTesting/Dave/Generated/CMSIS_DSP/Include\arm_math.h **** #if defined(ARM_MATH_FLOAT16)
 714:C:/Users/Rui Mendes/Desktop/DAVE/_Naive/_ForTesting/Dave/Generated/CMSIS_DSP/Include\arm_math.h ****   /**
 715:C:/Users/Rui Mendes/Desktop/DAVE/_Naive/_ForTesting/Dave/Generated/CMSIS_DSP/Include\arm_math.h ****    * @brief 16-bit float 64-bit vector data type.
 716:C:/Users/Rui Mendes/Desktop/DAVE/_Naive/_ForTesting/Dave/Generated/CMSIS_DSP/Include\arm_math.h ****    */
 717:C:/Users/Rui Mendes/Desktop/DAVE/_Naive/_ForTesting/Dave/Generated/CMSIS_DSP/Include\arm_math.h ****   typedef  __ALIGNED(2) float16x4_t f16x4_t;
 718:C:/Users/Rui Mendes/Desktop/DAVE/_Naive/_ForTesting/Dave/Generated/CMSIS_DSP/Include\arm_math.h **** #endif 
 719:C:/Users/Rui Mendes/Desktop/DAVE/_Naive/_ForTesting/Dave/Generated/CMSIS_DSP/Include\arm_math.h **** 
 720:C:/Users/Rui Mendes/Desktop/DAVE/_Naive/_ForTesting/Dave/Generated/CMSIS_DSP/Include\arm_math.h ****   /**
 721:C:/Users/Rui Mendes/Desktop/DAVE/_Naive/_ForTesting/Dave/Generated/CMSIS_DSP/Include\arm_math.h ****    * @brief 32-bit floating-point 128-bit vector triplet data type
 722:C:/Users/Rui Mendes/Desktop/DAVE/_Naive/_ForTesting/Dave/Generated/CMSIS_DSP/Include\arm_math.h ****    */
 723:C:/Users/Rui Mendes/Desktop/DAVE/_Naive/_ForTesting/Dave/Generated/CMSIS_DSP/Include\arm_math.h ****   typedef float32x4x3_t f32x4x3_t;
 724:C:/Users/Rui Mendes/Desktop/DAVE/_Naive/_ForTesting/Dave/Generated/CMSIS_DSP/Include\arm_math.h **** 
 725:C:/Users/Rui Mendes/Desktop/DAVE/_Naive/_ForTesting/Dave/Generated/CMSIS_DSP/Include\arm_math.h **** #if defined(ARM_MATH_FLOAT16)
 726:C:/Users/Rui Mendes/Desktop/DAVE/_Naive/_ForTesting/Dave/Generated/CMSIS_DSP/Include\arm_math.h ****   /**
 727:C:/Users/Rui Mendes/Desktop/DAVE/_Naive/_ForTesting/Dave/Generated/CMSIS_DSP/Include\arm_math.h ****    * @brief 16-bit floating-point 128-bit vector triplet data type
 728:C:/Users/Rui Mendes/Desktop/DAVE/_Naive/_ForTesting/Dave/Generated/CMSIS_DSP/Include\arm_math.h ****    */
 729:C:/Users/Rui Mendes/Desktop/DAVE/_Naive/_ForTesting/Dave/Generated/CMSIS_DSP/Include\arm_math.h ****   typedef float16x8x3_t f16x8x3_t;
 730:C:/Users/Rui Mendes/Desktop/DAVE/_Naive/_ForTesting/Dave/Generated/CMSIS_DSP/Include\arm_math.h **** #endif
 731:C:/Users/Rui Mendes/Desktop/DAVE/_Naive/_ForTesting/Dave/Generated/CMSIS_DSP/Include\arm_math.h **** 
 732:C:/Users/Rui Mendes/Desktop/DAVE/_Naive/_ForTesting/Dave/Generated/CMSIS_DSP/Include\arm_math.h ****   /**
 733:C:/Users/Rui Mendes/Desktop/DAVE/_Naive/_ForTesting/Dave/Generated/CMSIS_DSP/Include\arm_math.h ****    * @brief 32-bit fractional 128-bit vector triplet data type in 1.31 format
 734:C:/Users/Rui Mendes/Desktop/DAVE/_Naive/_ForTesting/Dave/Generated/CMSIS_DSP/Include\arm_math.h ****    */
 735:C:/Users/Rui Mendes/Desktop/DAVE/_Naive/_ForTesting/Dave/Generated/CMSIS_DSP/Include\arm_math.h ****   typedef int32x4x3_t q31x4x3_t;
 736:C:/Users/Rui Mendes/Desktop/DAVE/_Naive/_ForTesting/Dave/Generated/CMSIS_DSP/Include\arm_math.h **** 
 737:C:/Users/Rui Mendes/Desktop/DAVE/_Naive/_ForTesting/Dave/Generated/CMSIS_DSP/Include\arm_math.h ****   /**
 738:C:/Users/Rui Mendes/Desktop/DAVE/_Naive/_ForTesting/Dave/Generated/CMSIS_DSP/Include\arm_math.h ****    * @brief 16-bit fractional 128-bit vector triplet data type in 1.15 format
 739:C:/Users/Rui Mendes/Desktop/DAVE/_Naive/_ForTesting/Dave/Generated/CMSIS_DSP/Include\arm_math.h ****    */
 740:C:/Users/Rui Mendes/Desktop/DAVE/_Naive/_ForTesting/Dave/Generated/CMSIS_DSP/Include\arm_math.h ****   typedef int16x8x3_t q15x8x3_t;
 741:C:/Users/Rui Mendes/Desktop/DAVE/_Naive/_ForTesting/Dave/Generated/CMSIS_DSP/Include\arm_math.h **** 
 742:C:/Users/Rui Mendes/Desktop/DAVE/_Naive/_ForTesting/Dave/Generated/CMSIS_DSP/Include\arm_math.h ****   /**
 743:C:/Users/Rui Mendes/Desktop/DAVE/_Naive/_ForTesting/Dave/Generated/CMSIS_DSP/Include\arm_math.h ****    * @brief 8-bit fractional 128-bit vector triplet data type in 1.7 format
 744:C:/Users/Rui Mendes/Desktop/DAVE/_Naive/_ForTesting/Dave/Generated/CMSIS_DSP/Include\arm_math.h ****    */
 745:C:/Users/Rui Mendes/Desktop/DAVE/_Naive/_ForTesting/Dave/Generated/CMSIS_DSP/Include\arm_math.h ****   typedef int8x16x3_t q7x16x3_t;
 746:C:/Users/Rui Mendes/Desktop/DAVE/_Naive/_ForTesting/Dave/Generated/CMSIS_DSP/Include\arm_math.h **** 
 747:C:/Users/Rui Mendes/Desktop/DAVE/_Naive/_ForTesting/Dave/Generated/CMSIS_DSP/Include\arm_math.h ****   /**
 748:C:/Users/Rui Mendes/Desktop/DAVE/_Naive/_ForTesting/Dave/Generated/CMSIS_DSP/Include\arm_math.h ****    * @brief 32-bit floating-point 64-bit vector pair data type
 749:C:/Users/Rui Mendes/Desktop/DAVE/_Naive/_ForTesting/Dave/Generated/CMSIS_DSP/Include\arm_math.h ****    */
 750:C:/Users/Rui Mendes/Desktop/DAVE/_Naive/_ForTesting/Dave/Generated/CMSIS_DSP/Include\arm_math.h ****   typedef float32x2x2_t f32x2x2_t;
 751:C:/Users/Rui Mendes/Desktop/DAVE/_Naive/_ForTesting/Dave/Generated/CMSIS_DSP/Include\arm_math.h **** 
 752:C:/Users/Rui Mendes/Desktop/DAVE/_Naive/_ForTesting/Dave/Generated/CMSIS_DSP/Include\arm_math.h ****   /**
 753:C:/Users/Rui Mendes/Desktop/DAVE/_Naive/_ForTesting/Dave/Generated/CMSIS_DSP/Include\arm_math.h ****    * @brief 32-bit floating-point 64-bit vector triplet data type
 754:C:/Users/Rui Mendes/Desktop/DAVE/_Naive/_ForTesting/Dave/Generated/CMSIS_DSP/Include\arm_math.h ****    */
 755:C:/Users/Rui Mendes/Desktop/DAVE/_Naive/_ForTesting/Dave/Generated/CMSIS_DSP/Include\arm_math.h ****   typedef float32x2x3_t f32x2x3_t;
 756:C:/Users/Rui Mendes/Desktop/DAVE/_Naive/_ForTesting/Dave/Generated/CMSIS_DSP/Include\arm_math.h **** 
 757:C:/Users/Rui Mendes/Desktop/DAVE/_Naive/_ForTesting/Dave/Generated/CMSIS_DSP/Include\arm_math.h ****   /**
 758:C:/Users/Rui Mendes/Desktop/DAVE/_Naive/_ForTesting/Dave/Generated/CMSIS_DSP/Include\arm_math.h ****    * @brief 32-bit floating-point 64-bit vector quadruplet data type
 759:C:/Users/Rui Mendes/Desktop/DAVE/_Naive/_ForTesting/Dave/Generated/CMSIS_DSP/Include\arm_math.h ****    */
 760:C:/Users/Rui Mendes/Desktop/DAVE/_Naive/_ForTesting/Dave/Generated/CMSIS_DSP/Include\arm_math.h ****   typedef float32x2x4_t f32x2x4_t;
 761:C:/Users/Rui Mendes/Desktop/DAVE/_Naive/_ForTesting/Dave/Generated/CMSIS_DSP/Include\arm_math.h **** 
 762:C:/Users/Rui Mendes/Desktop/DAVE/_Naive/_ForTesting/Dave/Generated/CMSIS_DSP/Include\arm_math.h **** #if defined(ARM_MATH_FLOAT16)
 763:C:/Users/Rui Mendes/Desktop/DAVE/_Naive/_ForTesting/Dave/Generated/CMSIS_DSP/Include\arm_math.h ****   /**
 764:C:/Users/Rui Mendes/Desktop/DAVE/_Naive/_ForTesting/Dave/Generated/CMSIS_DSP/Include\arm_math.h ****    * @brief 16-bit floating-point 64-bit vector pair data type
 765:C:/Users/Rui Mendes/Desktop/DAVE/_Naive/_ForTesting/Dave/Generated/CMSIS_DSP/Include\arm_math.h ****    */
 766:C:/Users/Rui Mendes/Desktop/DAVE/_Naive/_ForTesting/Dave/Generated/CMSIS_DSP/Include\arm_math.h ****   typedef float16x4x2_t f16x4x2_t;
 767:C:/Users/Rui Mendes/Desktop/DAVE/_Naive/_ForTesting/Dave/Generated/CMSIS_DSP/Include\arm_math.h **** 
 768:C:/Users/Rui Mendes/Desktop/DAVE/_Naive/_ForTesting/Dave/Generated/CMSIS_DSP/Include\arm_math.h ****   /**
 769:C:/Users/Rui Mendes/Desktop/DAVE/_Naive/_ForTesting/Dave/Generated/CMSIS_DSP/Include\arm_math.h ****    * @brief 16-bit floating-point 64-bit vector triplet data type
 770:C:/Users/Rui Mendes/Desktop/DAVE/_Naive/_ForTesting/Dave/Generated/CMSIS_DSP/Include\arm_math.h ****    */
 771:C:/Users/Rui Mendes/Desktop/DAVE/_Naive/_ForTesting/Dave/Generated/CMSIS_DSP/Include\arm_math.h ****   typedef float16x4x3_t f16x4x3_t;
 772:C:/Users/Rui Mendes/Desktop/DAVE/_Naive/_ForTesting/Dave/Generated/CMSIS_DSP/Include\arm_math.h **** 
 773:C:/Users/Rui Mendes/Desktop/DAVE/_Naive/_ForTesting/Dave/Generated/CMSIS_DSP/Include\arm_math.h ****   /**
 774:C:/Users/Rui Mendes/Desktop/DAVE/_Naive/_ForTesting/Dave/Generated/CMSIS_DSP/Include\arm_math.h ****    * @brief 16-bit floating-point 64-bit vector quadruplet data type
 775:C:/Users/Rui Mendes/Desktop/DAVE/_Naive/_ForTesting/Dave/Generated/CMSIS_DSP/Include\arm_math.h ****    */
 776:C:/Users/Rui Mendes/Desktop/DAVE/_Naive/_ForTesting/Dave/Generated/CMSIS_DSP/Include\arm_math.h ****   typedef float16x4x4_t f16x4x4_t;
 777:C:/Users/Rui Mendes/Desktop/DAVE/_Naive/_ForTesting/Dave/Generated/CMSIS_DSP/Include\arm_math.h **** #endif 
 778:C:/Users/Rui Mendes/Desktop/DAVE/_Naive/_ForTesting/Dave/Generated/CMSIS_DSP/Include\arm_math.h **** 
 779:C:/Users/Rui Mendes/Desktop/DAVE/_Naive/_ForTesting/Dave/Generated/CMSIS_DSP/Include\arm_math.h ****   /**
 780:C:/Users/Rui Mendes/Desktop/DAVE/_Naive/_ForTesting/Dave/Generated/CMSIS_DSP/Include\arm_math.h ****    * @brief 32-bit fractional 64-bit vector pair data type in 1.31 format
 781:C:/Users/Rui Mendes/Desktop/DAVE/_Naive/_ForTesting/Dave/Generated/CMSIS_DSP/Include\arm_math.h ****    */
 782:C:/Users/Rui Mendes/Desktop/DAVE/_Naive/_ForTesting/Dave/Generated/CMSIS_DSP/Include\arm_math.h ****   typedef int32x2x2_t q31x2x2_t;
 783:C:/Users/Rui Mendes/Desktop/DAVE/_Naive/_ForTesting/Dave/Generated/CMSIS_DSP/Include\arm_math.h **** 
 784:C:/Users/Rui Mendes/Desktop/DAVE/_Naive/_ForTesting/Dave/Generated/CMSIS_DSP/Include\arm_math.h ****   /**
 785:C:/Users/Rui Mendes/Desktop/DAVE/_Naive/_ForTesting/Dave/Generated/CMSIS_DSP/Include\arm_math.h ****    * @brief 32-bit fractional 64-bit vector triplet data type in 1.31 format
 786:C:/Users/Rui Mendes/Desktop/DAVE/_Naive/_ForTesting/Dave/Generated/CMSIS_DSP/Include\arm_math.h ****    */
 787:C:/Users/Rui Mendes/Desktop/DAVE/_Naive/_ForTesting/Dave/Generated/CMSIS_DSP/Include\arm_math.h ****   typedef int32x2x3_t q31x2x3_t;
 788:C:/Users/Rui Mendes/Desktop/DAVE/_Naive/_ForTesting/Dave/Generated/CMSIS_DSP/Include\arm_math.h **** 
 789:C:/Users/Rui Mendes/Desktop/DAVE/_Naive/_ForTesting/Dave/Generated/CMSIS_DSP/Include\arm_math.h ****   /**
 790:C:/Users/Rui Mendes/Desktop/DAVE/_Naive/_ForTesting/Dave/Generated/CMSIS_DSP/Include\arm_math.h ****    * @brief 32-bit fractional 64-bit vector quadruplet data type in 1.31 format
 791:C:/Users/Rui Mendes/Desktop/DAVE/_Naive/_ForTesting/Dave/Generated/CMSIS_DSP/Include\arm_math.h ****    */
 792:C:/Users/Rui Mendes/Desktop/DAVE/_Naive/_ForTesting/Dave/Generated/CMSIS_DSP/Include\arm_math.h ****   typedef int32x4x3_t q31x2x4_t;
 793:C:/Users/Rui Mendes/Desktop/DAVE/_Naive/_ForTesting/Dave/Generated/CMSIS_DSP/Include\arm_math.h **** 
 794:C:/Users/Rui Mendes/Desktop/DAVE/_Naive/_ForTesting/Dave/Generated/CMSIS_DSP/Include\arm_math.h ****   /**
 795:C:/Users/Rui Mendes/Desktop/DAVE/_Naive/_ForTesting/Dave/Generated/CMSIS_DSP/Include\arm_math.h ****    * @brief 16-bit fractional 64-bit vector pair data type in 1.15 format
 796:C:/Users/Rui Mendes/Desktop/DAVE/_Naive/_ForTesting/Dave/Generated/CMSIS_DSP/Include\arm_math.h ****    */
 797:C:/Users/Rui Mendes/Desktop/DAVE/_Naive/_ForTesting/Dave/Generated/CMSIS_DSP/Include\arm_math.h ****   typedef int16x4x2_t q15x4x2_t;
 798:C:/Users/Rui Mendes/Desktop/DAVE/_Naive/_ForTesting/Dave/Generated/CMSIS_DSP/Include\arm_math.h **** 
 799:C:/Users/Rui Mendes/Desktop/DAVE/_Naive/_ForTesting/Dave/Generated/CMSIS_DSP/Include\arm_math.h ****   /**
 800:C:/Users/Rui Mendes/Desktop/DAVE/_Naive/_ForTesting/Dave/Generated/CMSIS_DSP/Include\arm_math.h ****    * @brief 16-bit fractional 64-bit vector triplet data type in 1.15 format
 801:C:/Users/Rui Mendes/Desktop/DAVE/_Naive/_ForTesting/Dave/Generated/CMSIS_DSP/Include\arm_math.h ****    */
 802:C:/Users/Rui Mendes/Desktop/DAVE/_Naive/_ForTesting/Dave/Generated/CMSIS_DSP/Include\arm_math.h ****   typedef int16x4x2_t q15x4x3_t;
 803:C:/Users/Rui Mendes/Desktop/DAVE/_Naive/_ForTesting/Dave/Generated/CMSIS_DSP/Include\arm_math.h **** 
 804:C:/Users/Rui Mendes/Desktop/DAVE/_Naive/_ForTesting/Dave/Generated/CMSIS_DSP/Include\arm_math.h ****   /**
 805:C:/Users/Rui Mendes/Desktop/DAVE/_Naive/_ForTesting/Dave/Generated/CMSIS_DSP/Include\arm_math.h ****    * @brief 16-bit fractional 64-bit vector quadruplet data type in 1.15 format
 806:C:/Users/Rui Mendes/Desktop/DAVE/_Naive/_ForTesting/Dave/Generated/CMSIS_DSP/Include\arm_math.h ****    */
 807:C:/Users/Rui Mendes/Desktop/DAVE/_Naive/_ForTesting/Dave/Generated/CMSIS_DSP/Include\arm_math.h ****   typedef int16x4x3_t q15x4x4_t;
 808:C:/Users/Rui Mendes/Desktop/DAVE/_Naive/_ForTesting/Dave/Generated/CMSIS_DSP/Include\arm_math.h **** 
 809:C:/Users/Rui Mendes/Desktop/DAVE/_Naive/_ForTesting/Dave/Generated/CMSIS_DSP/Include\arm_math.h ****   /**
 810:C:/Users/Rui Mendes/Desktop/DAVE/_Naive/_ForTesting/Dave/Generated/CMSIS_DSP/Include\arm_math.h ****    * @brief 8-bit fractional 64-bit vector pair data type in 1.7 format
 811:C:/Users/Rui Mendes/Desktop/DAVE/_Naive/_ForTesting/Dave/Generated/CMSIS_DSP/Include\arm_math.h ****    */
 812:C:/Users/Rui Mendes/Desktop/DAVE/_Naive/_ForTesting/Dave/Generated/CMSIS_DSP/Include\arm_math.h ****   typedef int8x8x2_t q7x8x2_t;
 813:C:/Users/Rui Mendes/Desktop/DAVE/_Naive/_ForTesting/Dave/Generated/CMSIS_DSP/Include\arm_math.h **** 
 814:C:/Users/Rui Mendes/Desktop/DAVE/_Naive/_ForTesting/Dave/Generated/CMSIS_DSP/Include\arm_math.h ****   /**
 815:C:/Users/Rui Mendes/Desktop/DAVE/_Naive/_ForTesting/Dave/Generated/CMSIS_DSP/Include\arm_math.h ****    * @brief 8-bit fractional 64-bit vector triplet data type in 1.7 format
 816:C:/Users/Rui Mendes/Desktop/DAVE/_Naive/_ForTesting/Dave/Generated/CMSIS_DSP/Include\arm_math.h ****    */
 817:C:/Users/Rui Mendes/Desktop/DAVE/_Naive/_ForTesting/Dave/Generated/CMSIS_DSP/Include\arm_math.h ****   typedef int8x8x3_t q7x8x3_t;
 818:C:/Users/Rui Mendes/Desktop/DAVE/_Naive/_ForTesting/Dave/Generated/CMSIS_DSP/Include\arm_math.h **** 
 819:C:/Users/Rui Mendes/Desktop/DAVE/_Naive/_ForTesting/Dave/Generated/CMSIS_DSP/Include\arm_math.h ****   /**
 820:C:/Users/Rui Mendes/Desktop/DAVE/_Naive/_ForTesting/Dave/Generated/CMSIS_DSP/Include\arm_math.h ****    * @brief 8-bit fractional 64-bit vector quadruplet data type in 1.7 format
 821:C:/Users/Rui Mendes/Desktop/DAVE/_Naive/_ForTesting/Dave/Generated/CMSIS_DSP/Include\arm_math.h ****    */
 822:C:/Users/Rui Mendes/Desktop/DAVE/_Naive/_ForTesting/Dave/Generated/CMSIS_DSP/Include\arm_math.h ****   typedef int8x8x4_t q7x8x4_t;
 823:C:/Users/Rui Mendes/Desktop/DAVE/_Naive/_ForTesting/Dave/Generated/CMSIS_DSP/Include\arm_math.h **** 
 824:C:/Users/Rui Mendes/Desktop/DAVE/_Naive/_ForTesting/Dave/Generated/CMSIS_DSP/Include\arm_math.h ****   /**
 825:C:/Users/Rui Mendes/Desktop/DAVE/_Naive/_ForTesting/Dave/Generated/CMSIS_DSP/Include\arm_math.h ****    * @brief 32-bit ubiquitous 64-bit vector data type
 826:C:/Users/Rui Mendes/Desktop/DAVE/_Naive/_ForTesting/Dave/Generated/CMSIS_DSP/Include\arm_math.h ****    */
 827:C:/Users/Rui Mendes/Desktop/DAVE/_Naive/_ForTesting/Dave/Generated/CMSIS_DSP/Include\arm_math.h ****   typedef union _any32x2_t
 828:C:/Users/Rui Mendes/Desktop/DAVE/_Naive/_ForTesting/Dave/Generated/CMSIS_DSP/Include\arm_math.h ****   {
 829:C:/Users/Rui Mendes/Desktop/DAVE/_Naive/_ForTesting/Dave/Generated/CMSIS_DSP/Include\arm_math.h ****       float32x2_t     f;
 830:C:/Users/Rui Mendes/Desktop/DAVE/_Naive/_ForTesting/Dave/Generated/CMSIS_DSP/Include\arm_math.h ****       int32x2_t       i;
 831:C:/Users/Rui Mendes/Desktop/DAVE/_Naive/_ForTesting/Dave/Generated/CMSIS_DSP/Include\arm_math.h ****   } any32x2_t;
 832:C:/Users/Rui Mendes/Desktop/DAVE/_Naive/_ForTesting/Dave/Generated/CMSIS_DSP/Include\arm_math.h **** 
 833:C:/Users/Rui Mendes/Desktop/DAVE/_Naive/_ForTesting/Dave/Generated/CMSIS_DSP/Include\arm_math.h **** #if defined(ARM_MATH_FLOAT16)
 834:C:/Users/Rui Mendes/Desktop/DAVE/_Naive/_ForTesting/Dave/Generated/CMSIS_DSP/Include\arm_math.h ****   /**
 835:C:/Users/Rui Mendes/Desktop/DAVE/_Naive/_ForTesting/Dave/Generated/CMSIS_DSP/Include\arm_math.h ****    * @brief 16-bit ubiquitous 64-bit vector data type
 836:C:/Users/Rui Mendes/Desktop/DAVE/_Naive/_ForTesting/Dave/Generated/CMSIS_DSP/Include\arm_math.h ****    */
 837:C:/Users/Rui Mendes/Desktop/DAVE/_Naive/_ForTesting/Dave/Generated/CMSIS_DSP/Include\arm_math.h ****   typedef union _any16x4_t
 838:C:/Users/Rui Mendes/Desktop/DAVE/_Naive/_ForTesting/Dave/Generated/CMSIS_DSP/Include\arm_math.h ****   {
 839:C:/Users/Rui Mendes/Desktop/DAVE/_Naive/_ForTesting/Dave/Generated/CMSIS_DSP/Include\arm_math.h ****       float16x4_t     f;
 840:C:/Users/Rui Mendes/Desktop/DAVE/_Naive/_ForTesting/Dave/Generated/CMSIS_DSP/Include\arm_math.h ****       int16x4_t       i;
 841:C:/Users/Rui Mendes/Desktop/DAVE/_Naive/_ForTesting/Dave/Generated/CMSIS_DSP/Include\arm_math.h ****   } any16x4_t;
 842:C:/Users/Rui Mendes/Desktop/DAVE/_Naive/_ForTesting/Dave/Generated/CMSIS_DSP/Include\arm_math.h **** #endif 
 843:C:/Users/Rui Mendes/Desktop/DAVE/_Naive/_ForTesting/Dave/Generated/CMSIS_DSP/Include\arm_math.h **** 
 844:C:/Users/Rui Mendes/Desktop/DAVE/_Naive/_ForTesting/Dave/Generated/CMSIS_DSP/Include\arm_math.h ****   /**
 845:C:/Users/Rui Mendes/Desktop/DAVE/_Naive/_ForTesting/Dave/Generated/CMSIS_DSP/Include\arm_math.h ****    * @brief 32-bit status 64-bit vector data type.
 846:C:/Users/Rui Mendes/Desktop/DAVE/_Naive/_ForTesting/Dave/Generated/CMSIS_DSP/Include\arm_math.h ****    */
 847:C:/Users/Rui Mendes/Desktop/DAVE/_Naive/_ForTesting/Dave/Generated/CMSIS_DSP/Include\arm_math.h ****   typedef int32x4_t status32x2_t;
 848:C:/Users/Rui Mendes/Desktop/DAVE/_Naive/_ForTesting/Dave/Generated/CMSIS_DSP/Include\arm_math.h **** 
 849:C:/Users/Rui Mendes/Desktop/DAVE/_Naive/_ForTesting/Dave/Generated/CMSIS_DSP/Include\arm_math.h ****   /**
 850:C:/Users/Rui Mendes/Desktop/DAVE/_Naive/_ForTesting/Dave/Generated/CMSIS_DSP/Include\arm_math.h ****    * @brief 16-bit status 64-bit vector data type.
 851:C:/Users/Rui Mendes/Desktop/DAVE/_Naive/_ForTesting/Dave/Generated/CMSIS_DSP/Include\arm_math.h ****    */
 852:C:/Users/Rui Mendes/Desktop/DAVE/_Naive/_ForTesting/Dave/Generated/CMSIS_DSP/Include\arm_math.h ****   typedef int16x8_t status16x4_t;
 853:C:/Users/Rui Mendes/Desktop/DAVE/_Naive/_ForTesting/Dave/Generated/CMSIS_DSP/Include\arm_math.h **** 
 854:C:/Users/Rui Mendes/Desktop/DAVE/_Naive/_ForTesting/Dave/Generated/CMSIS_DSP/Include\arm_math.h ****   /**
 855:C:/Users/Rui Mendes/Desktop/DAVE/_Naive/_ForTesting/Dave/Generated/CMSIS_DSP/Include\arm_math.h ****    * @brief 8-bit status 64-bit vector data type.
 856:C:/Users/Rui Mendes/Desktop/DAVE/_Naive/_ForTesting/Dave/Generated/CMSIS_DSP/Include\arm_math.h ****    */
 857:C:/Users/Rui Mendes/Desktop/DAVE/_Naive/_ForTesting/Dave/Generated/CMSIS_DSP/Include\arm_math.h ****   typedef int8x16_t status8x8_t;
 858:C:/Users/Rui Mendes/Desktop/DAVE/_Naive/_ForTesting/Dave/Generated/CMSIS_DSP/Include\arm_math.h **** 
 859:C:/Users/Rui Mendes/Desktop/DAVE/_Naive/_ForTesting/Dave/Generated/CMSIS_DSP/Include\arm_math.h **** #endif
 860:C:/Users/Rui Mendes/Desktop/DAVE/_Naive/_ForTesting/Dave/Generated/CMSIS_DSP/Include\arm_math.h **** 
 861:C:/Users/Rui Mendes/Desktop/DAVE/_Naive/_ForTesting/Dave/Generated/CMSIS_DSP/Include\arm_math.h **** 
 862:C:/Users/Rui Mendes/Desktop/DAVE/_Naive/_ForTesting/Dave/Generated/CMSIS_DSP/Include\arm_math.h **** 
 863:C:/Users/Rui Mendes/Desktop/DAVE/_Naive/_ForTesting/Dave/Generated/CMSIS_DSP/Include\arm_math.h **** /**
 864:C:/Users/Rui Mendes/Desktop/DAVE/_Naive/_ForTesting/Dave/Generated/CMSIS_DSP/Include\arm_math.h ****   @brief definition to read/write two 16 bit values.
 865:C:/Users/Rui Mendes/Desktop/DAVE/_Naive/_ForTesting/Dave/Generated/CMSIS_DSP/Include\arm_math.h ****   @deprecated
 866:C:/Users/Rui Mendes/Desktop/DAVE/_Naive/_ForTesting/Dave/Generated/CMSIS_DSP/Include\arm_math.h ****  */
 867:C:/Users/Rui Mendes/Desktop/DAVE/_Naive/_ForTesting/Dave/Generated/CMSIS_DSP/Include\arm_math.h **** #if   defined ( __CC_ARM )
 868:C:/Users/Rui Mendes/Desktop/DAVE/_Naive/_ForTesting/Dave/Generated/CMSIS_DSP/Include\arm_math.h ****   #define __SIMD32_TYPE int32_t __packed
 869:C:/Users/Rui Mendes/Desktop/DAVE/_Naive/_ForTesting/Dave/Generated/CMSIS_DSP/Include\arm_math.h **** #elif defined ( __ARMCC_VERSION ) && ( __ARMCC_VERSION >= 6010050 )
 870:C:/Users/Rui Mendes/Desktop/DAVE/_Naive/_ForTesting/Dave/Generated/CMSIS_DSP/Include\arm_math.h ****   #define __SIMD32_TYPE int32_t
 871:C:/Users/Rui Mendes/Desktop/DAVE/_Naive/_ForTesting/Dave/Generated/CMSIS_DSP/Include\arm_math.h **** #elif defined ( __GNUC__ )
 872:C:/Users/Rui Mendes/Desktop/DAVE/_Naive/_ForTesting/Dave/Generated/CMSIS_DSP/Include\arm_math.h ****   #define __SIMD32_TYPE int32_t
 873:C:/Users/Rui Mendes/Desktop/DAVE/_Naive/_ForTesting/Dave/Generated/CMSIS_DSP/Include\arm_math.h **** #elif defined ( __ICCARM__ )
 874:C:/Users/Rui Mendes/Desktop/DAVE/_Naive/_ForTesting/Dave/Generated/CMSIS_DSP/Include\arm_math.h ****   #define __SIMD32_TYPE int32_t __packed
 875:C:/Users/Rui Mendes/Desktop/DAVE/_Naive/_ForTesting/Dave/Generated/CMSIS_DSP/Include\arm_math.h **** #elif defined ( __TI_ARM__ )
 876:C:/Users/Rui Mendes/Desktop/DAVE/_Naive/_ForTesting/Dave/Generated/CMSIS_DSP/Include\arm_math.h ****   #define __SIMD32_TYPE int32_t
 877:C:/Users/Rui Mendes/Desktop/DAVE/_Naive/_ForTesting/Dave/Generated/CMSIS_DSP/Include\arm_math.h **** #elif defined ( __CSMC__ )
 878:C:/Users/Rui Mendes/Desktop/DAVE/_Naive/_ForTesting/Dave/Generated/CMSIS_DSP/Include\arm_math.h ****   #define __SIMD32_TYPE int32_t
 879:C:/Users/Rui Mendes/Desktop/DAVE/_Naive/_ForTesting/Dave/Generated/CMSIS_DSP/Include\arm_math.h **** #elif defined ( __TASKING__ )
 880:C:/Users/Rui Mendes/Desktop/DAVE/_Naive/_ForTesting/Dave/Generated/CMSIS_DSP/Include\arm_math.h ****   #define __SIMD32_TYPE __un(aligned) int32_t
 881:C:/Users/Rui Mendes/Desktop/DAVE/_Naive/_ForTesting/Dave/Generated/CMSIS_DSP/Include\arm_math.h **** #elif defined(_MSC_VER )
 882:C:/Users/Rui Mendes/Desktop/DAVE/_Naive/_ForTesting/Dave/Generated/CMSIS_DSP/Include\arm_math.h ****   #define __SIMD32_TYPE int32_t
 883:C:/Users/Rui Mendes/Desktop/DAVE/_Naive/_ForTesting/Dave/Generated/CMSIS_DSP/Include\arm_math.h **** #else
 884:C:/Users/Rui Mendes/Desktop/DAVE/_Naive/_ForTesting/Dave/Generated/CMSIS_DSP/Include\arm_math.h ****   #error Unknown compiler
 885:C:/Users/Rui Mendes/Desktop/DAVE/_Naive/_ForTesting/Dave/Generated/CMSIS_DSP/Include\arm_math.h **** #endif
 886:C:/Users/Rui Mendes/Desktop/DAVE/_Naive/_ForTesting/Dave/Generated/CMSIS_DSP/Include\arm_math.h **** 
 887:C:/Users/Rui Mendes/Desktop/DAVE/_Naive/_ForTesting/Dave/Generated/CMSIS_DSP/Include\arm_math.h **** #define __SIMD32(addr)        (*(__SIMD32_TYPE **) & (addr))
 888:C:/Users/Rui Mendes/Desktop/DAVE/_Naive/_ForTesting/Dave/Generated/CMSIS_DSP/Include\arm_math.h **** #define __SIMD32_CONST(addr)  ( (__SIMD32_TYPE * )   (addr))
 889:C:/Users/Rui Mendes/Desktop/DAVE/_Naive/_ForTesting/Dave/Generated/CMSIS_DSP/Include\arm_math.h **** #define _SIMD32_OFFSET(addr)  (*(__SIMD32_TYPE * )   (addr))
 890:C:/Users/Rui Mendes/Desktop/DAVE/_Naive/_ForTesting/Dave/Generated/CMSIS_DSP/Include\arm_math.h **** #define __SIMD64(addr)        (*(      int64_t **) & (addr))
 891:C:/Users/Rui Mendes/Desktop/DAVE/_Naive/_ForTesting/Dave/Generated/CMSIS_DSP/Include\arm_math.h **** 
 892:C:/Users/Rui Mendes/Desktop/DAVE/_Naive/_ForTesting/Dave/Generated/CMSIS_DSP/Include\arm_math.h **** #define STEP(x) (x) <= 0 ? 0 : 1
 893:C:/Users/Rui Mendes/Desktop/DAVE/_Naive/_ForTesting/Dave/Generated/CMSIS_DSP/Include\arm_math.h **** #define SQ(x) ((x) * (x))
 894:C:/Users/Rui Mendes/Desktop/DAVE/_Naive/_ForTesting/Dave/Generated/CMSIS_DSP/Include\arm_math.h **** 
 895:C:/Users/Rui Mendes/Desktop/DAVE/_Naive/_ForTesting/Dave/Generated/CMSIS_DSP/Include\arm_math.h **** /* SIMD replacement */
 896:C:/Users/Rui Mendes/Desktop/DAVE/_Naive/_ForTesting/Dave/Generated/CMSIS_DSP/Include\arm_math.h **** 
 897:C:/Users/Rui Mendes/Desktop/DAVE/_Naive/_ForTesting/Dave/Generated/CMSIS_DSP/Include\arm_math.h **** 
 898:C:/Users/Rui Mendes/Desktop/DAVE/_Naive/_ForTesting/Dave/Generated/CMSIS_DSP/Include\arm_math.h **** /**
 899:C:/Users/Rui Mendes/Desktop/DAVE/_Naive/_ForTesting/Dave/Generated/CMSIS_DSP/Include\arm_math.h ****   @brief         Read 2 Q15 from Q15 pointer.
 900:C:/Users/Rui Mendes/Desktop/DAVE/_Naive/_ForTesting/Dave/Generated/CMSIS_DSP/Include\arm_math.h ****   @param[in]     pQ15      points to input value
 901:C:/Users/Rui Mendes/Desktop/DAVE/_Naive/_ForTesting/Dave/Generated/CMSIS_DSP/Include\arm_math.h ****   @return        Q31 value
 902:C:/Users/Rui Mendes/Desktop/DAVE/_Naive/_ForTesting/Dave/Generated/CMSIS_DSP/Include\arm_math.h ****  */
 903:C:/Users/Rui Mendes/Desktop/DAVE/_Naive/_ForTesting/Dave/Generated/CMSIS_DSP/Include\arm_math.h **** __STATIC_FORCEINLINE q31_t read_q15x2 (
 904:C:/Users/Rui Mendes/Desktop/DAVE/_Naive/_ForTesting/Dave/Generated/CMSIS_DSP/Include\arm_math.h ****   q15_t * pQ15)
 905:C:/Users/Rui Mendes/Desktop/DAVE/_Naive/_ForTesting/Dave/Generated/CMSIS_DSP/Include\arm_math.h **** {
 906:C:/Users/Rui Mendes/Desktop/DAVE/_Naive/_ForTesting/Dave/Generated/CMSIS_DSP/Include\arm_math.h ****   q31_t val;
 907:C:/Users/Rui Mendes/Desktop/DAVE/_Naive/_ForTesting/Dave/Generated/CMSIS_DSP/Include\arm_math.h **** 
 908:C:/Users/Rui Mendes/Desktop/DAVE/_Naive/_ForTesting/Dave/Generated/CMSIS_DSP/Include\arm_math.h **** #ifdef __ARM_FEATURE_UNALIGNED
 909:C:/Users/Rui Mendes/Desktop/DAVE/_Naive/_ForTesting/Dave/Generated/CMSIS_DSP/Include\arm_math.h ****   memcpy (&val, pQ15, 4);
 910:C:/Users/Rui Mendes/Desktop/DAVE/_Naive/_ForTesting/Dave/Generated/CMSIS_DSP/Include\arm_math.h **** #else
 911:C:/Users/Rui Mendes/Desktop/DAVE/_Naive/_ForTesting/Dave/Generated/CMSIS_DSP/Include\arm_math.h ****   val = (pQ15[1] << 16) | (pQ15[0] & 0x0FFFF) ;
 912:C:/Users/Rui Mendes/Desktop/DAVE/_Naive/_ForTesting/Dave/Generated/CMSIS_DSP/Include\arm_math.h **** #endif
 913:C:/Users/Rui Mendes/Desktop/DAVE/_Naive/_ForTesting/Dave/Generated/CMSIS_DSP/Include\arm_math.h **** 
 914:C:/Users/Rui Mendes/Desktop/DAVE/_Naive/_ForTesting/Dave/Generated/CMSIS_DSP/Include\arm_math.h ****   return (val);
 915:C:/Users/Rui Mendes/Desktop/DAVE/_Naive/_ForTesting/Dave/Generated/CMSIS_DSP/Include\arm_math.h **** }
 916:C:/Users/Rui Mendes/Desktop/DAVE/_Naive/_ForTesting/Dave/Generated/CMSIS_DSP/Include\arm_math.h **** 
 917:C:/Users/Rui Mendes/Desktop/DAVE/_Naive/_ForTesting/Dave/Generated/CMSIS_DSP/Include\arm_math.h **** /**
 918:C:/Users/Rui Mendes/Desktop/DAVE/_Naive/_ForTesting/Dave/Generated/CMSIS_DSP/Include\arm_math.h ****   @brief         Read 2 Q15 from Q15 pointer and increment pointer afterwards.
 919:C:/Users/Rui Mendes/Desktop/DAVE/_Naive/_ForTesting/Dave/Generated/CMSIS_DSP/Include\arm_math.h ****   @param[in]     pQ15      points to input value
 920:C:/Users/Rui Mendes/Desktop/DAVE/_Naive/_ForTesting/Dave/Generated/CMSIS_DSP/Include\arm_math.h ****   @return        Q31 value
 921:C:/Users/Rui Mendes/Desktop/DAVE/_Naive/_ForTesting/Dave/Generated/CMSIS_DSP/Include\arm_math.h ****  */
 922:C:/Users/Rui Mendes/Desktop/DAVE/_Naive/_ForTesting/Dave/Generated/CMSIS_DSP/Include\arm_math.h **** __STATIC_FORCEINLINE q31_t read_q15x2_ia (
 923:C:/Users/Rui Mendes/Desktop/DAVE/_Naive/_ForTesting/Dave/Generated/CMSIS_DSP/Include\arm_math.h ****   q15_t ** pQ15)
 924:C:/Users/Rui Mendes/Desktop/DAVE/_Naive/_ForTesting/Dave/Generated/CMSIS_DSP/Include\arm_math.h **** {
 925:C:/Users/Rui Mendes/Desktop/DAVE/_Naive/_ForTesting/Dave/Generated/CMSIS_DSP/Include\arm_math.h ****   q31_t val;
 926:C:/Users/Rui Mendes/Desktop/DAVE/_Naive/_ForTesting/Dave/Generated/CMSIS_DSP/Include\arm_math.h **** 
 927:C:/Users/Rui Mendes/Desktop/DAVE/_Naive/_ForTesting/Dave/Generated/CMSIS_DSP/Include\arm_math.h **** #ifdef __ARM_FEATURE_UNALIGNED
 928:C:/Users/Rui Mendes/Desktop/DAVE/_Naive/_ForTesting/Dave/Generated/CMSIS_DSP/Include\arm_math.h ****   memcpy (&val, *pQ15, 4);
 929:C:/Users/Rui Mendes/Desktop/DAVE/_Naive/_ForTesting/Dave/Generated/CMSIS_DSP/Include\arm_math.h **** #else
 930:C:/Users/Rui Mendes/Desktop/DAVE/_Naive/_ForTesting/Dave/Generated/CMSIS_DSP/Include\arm_math.h ****   val = ((*pQ15)[1] << 16) | ((*pQ15)[0] & 0x0FFFF);
 931:C:/Users/Rui Mendes/Desktop/DAVE/_Naive/_ForTesting/Dave/Generated/CMSIS_DSP/Include\arm_math.h **** #endif
 932:C:/Users/Rui Mendes/Desktop/DAVE/_Naive/_ForTesting/Dave/Generated/CMSIS_DSP/Include\arm_math.h **** 
 933:C:/Users/Rui Mendes/Desktop/DAVE/_Naive/_ForTesting/Dave/Generated/CMSIS_DSP/Include\arm_math.h ****  *pQ15 += 2;
 934:C:/Users/Rui Mendes/Desktop/DAVE/_Naive/_ForTesting/Dave/Generated/CMSIS_DSP/Include\arm_math.h ****  return (val);
 935:C:/Users/Rui Mendes/Desktop/DAVE/_Naive/_ForTesting/Dave/Generated/CMSIS_DSP/Include\arm_math.h **** }
 936:C:/Users/Rui Mendes/Desktop/DAVE/_Naive/_ForTesting/Dave/Generated/CMSIS_DSP/Include\arm_math.h **** 
 937:C:/Users/Rui Mendes/Desktop/DAVE/_Naive/_ForTesting/Dave/Generated/CMSIS_DSP/Include\arm_math.h **** /**
 938:C:/Users/Rui Mendes/Desktop/DAVE/_Naive/_ForTesting/Dave/Generated/CMSIS_DSP/Include\arm_math.h ****   @brief         Read 2 Q15 from Q15 pointer and decrement pointer afterwards.
 939:C:/Users/Rui Mendes/Desktop/DAVE/_Naive/_ForTesting/Dave/Generated/CMSIS_DSP/Include\arm_math.h ****   @param[in]     pQ15      points to input value
 940:C:/Users/Rui Mendes/Desktop/DAVE/_Naive/_ForTesting/Dave/Generated/CMSIS_DSP/Include\arm_math.h ****   @return        Q31 value
 941:C:/Users/Rui Mendes/Desktop/DAVE/_Naive/_ForTesting/Dave/Generated/CMSIS_DSP/Include\arm_math.h ****  */
 942:C:/Users/Rui Mendes/Desktop/DAVE/_Naive/_ForTesting/Dave/Generated/CMSIS_DSP/Include\arm_math.h **** __STATIC_FORCEINLINE q31_t read_q15x2_da (
 943:C:/Users/Rui Mendes/Desktop/DAVE/_Naive/_ForTesting/Dave/Generated/CMSIS_DSP/Include\arm_math.h ****   q15_t ** pQ15)
 944:C:/Users/Rui Mendes/Desktop/DAVE/_Naive/_ForTesting/Dave/Generated/CMSIS_DSP/Include\arm_math.h **** {
 945:C:/Users/Rui Mendes/Desktop/DAVE/_Naive/_ForTesting/Dave/Generated/CMSIS_DSP/Include\arm_math.h ****   q31_t val;
 946:C:/Users/Rui Mendes/Desktop/DAVE/_Naive/_ForTesting/Dave/Generated/CMSIS_DSP/Include\arm_math.h **** 
 947:C:/Users/Rui Mendes/Desktop/DAVE/_Naive/_ForTesting/Dave/Generated/CMSIS_DSP/Include\arm_math.h **** #ifdef __ARM_FEATURE_UNALIGNED
 948:C:/Users/Rui Mendes/Desktop/DAVE/_Naive/_ForTesting/Dave/Generated/CMSIS_DSP/Include\arm_math.h ****   memcpy (&val, *pQ15, 4);
 949:C:/Users/Rui Mendes/Desktop/DAVE/_Naive/_ForTesting/Dave/Generated/CMSIS_DSP/Include\arm_math.h **** #else
 950:C:/Users/Rui Mendes/Desktop/DAVE/_Naive/_ForTesting/Dave/Generated/CMSIS_DSP/Include\arm_math.h ****   val = ((*pQ15)[1] << 16) | ((*pQ15)[0] & 0x0FFFF);
 951:C:/Users/Rui Mendes/Desktop/DAVE/_Naive/_ForTesting/Dave/Generated/CMSIS_DSP/Include\arm_math.h **** #endif
 952:C:/Users/Rui Mendes/Desktop/DAVE/_Naive/_ForTesting/Dave/Generated/CMSIS_DSP/Include\arm_math.h **** 
 953:C:/Users/Rui Mendes/Desktop/DAVE/_Naive/_ForTesting/Dave/Generated/CMSIS_DSP/Include\arm_math.h ****   *pQ15 -= 2;
 954:C:/Users/Rui Mendes/Desktop/DAVE/_Naive/_ForTesting/Dave/Generated/CMSIS_DSP/Include\arm_math.h ****   return (val);
 955:C:/Users/Rui Mendes/Desktop/DAVE/_Naive/_ForTesting/Dave/Generated/CMSIS_DSP/Include\arm_math.h **** }
 956:C:/Users/Rui Mendes/Desktop/DAVE/_Naive/_ForTesting/Dave/Generated/CMSIS_DSP/Include\arm_math.h **** 
 957:C:/Users/Rui Mendes/Desktop/DAVE/_Naive/_ForTesting/Dave/Generated/CMSIS_DSP/Include\arm_math.h **** /**
 958:C:/Users/Rui Mendes/Desktop/DAVE/_Naive/_ForTesting/Dave/Generated/CMSIS_DSP/Include\arm_math.h ****   @brief         Write 2 Q15 to Q15 pointer and increment pointer afterwards.
 959:C:/Users/Rui Mendes/Desktop/DAVE/_Naive/_ForTesting/Dave/Generated/CMSIS_DSP/Include\arm_math.h ****   @param[in]     pQ15      points to input value
 960:C:/Users/Rui Mendes/Desktop/DAVE/_Naive/_ForTesting/Dave/Generated/CMSIS_DSP/Include\arm_math.h ****   @param[in]     value     Q31 value
 961:C:/Users/Rui Mendes/Desktop/DAVE/_Naive/_ForTesting/Dave/Generated/CMSIS_DSP/Include\arm_math.h ****   @return        none
 962:C:/Users/Rui Mendes/Desktop/DAVE/_Naive/_ForTesting/Dave/Generated/CMSIS_DSP/Include\arm_math.h ****  */
 963:C:/Users/Rui Mendes/Desktop/DAVE/_Naive/_ForTesting/Dave/Generated/CMSIS_DSP/Include\arm_math.h **** __STATIC_FORCEINLINE void write_q15x2_ia (
 964:C:/Users/Rui Mendes/Desktop/DAVE/_Naive/_ForTesting/Dave/Generated/CMSIS_DSP/Include\arm_math.h ****   q15_t ** pQ15,
 965:C:/Users/Rui Mendes/Desktop/DAVE/_Naive/_ForTesting/Dave/Generated/CMSIS_DSP/Include\arm_math.h ****   q31_t    value)
 966:C:/Users/Rui Mendes/Desktop/DAVE/_Naive/_ForTesting/Dave/Generated/CMSIS_DSP/Include\arm_math.h **** {
 967:C:/Users/Rui Mendes/Desktop/DAVE/_Naive/_ForTesting/Dave/Generated/CMSIS_DSP/Include\arm_math.h ****   q31_t val = value;
 968:C:/Users/Rui Mendes/Desktop/DAVE/_Naive/_ForTesting/Dave/Generated/CMSIS_DSP/Include\arm_math.h **** #ifdef __ARM_FEATURE_UNALIGNED
 969:C:/Users/Rui Mendes/Desktop/DAVE/_Naive/_ForTesting/Dave/Generated/CMSIS_DSP/Include\arm_math.h ****   memcpy (*pQ15, &val, 4);
 970:C:/Users/Rui Mendes/Desktop/DAVE/_Naive/_ForTesting/Dave/Generated/CMSIS_DSP/Include\arm_math.h **** #else
 971:C:/Users/Rui Mendes/Desktop/DAVE/_Naive/_ForTesting/Dave/Generated/CMSIS_DSP/Include\arm_math.h ****   (*pQ15)[0] = (val & 0x0FFFF);
 972:C:/Users/Rui Mendes/Desktop/DAVE/_Naive/_ForTesting/Dave/Generated/CMSIS_DSP/Include\arm_math.h ****   (*pQ15)[1] = (val >> 16) & 0x0FFFF;
 973:C:/Users/Rui Mendes/Desktop/DAVE/_Naive/_ForTesting/Dave/Generated/CMSIS_DSP/Include\arm_math.h **** #endif
 974:C:/Users/Rui Mendes/Desktop/DAVE/_Naive/_ForTesting/Dave/Generated/CMSIS_DSP/Include\arm_math.h **** 
 975:C:/Users/Rui Mendes/Desktop/DAVE/_Naive/_ForTesting/Dave/Generated/CMSIS_DSP/Include\arm_math.h ****  *pQ15 += 2;
 976:C:/Users/Rui Mendes/Desktop/DAVE/_Naive/_ForTesting/Dave/Generated/CMSIS_DSP/Include\arm_math.h **** }
 977:C:/Users/Rui Mendes/Desktop/DAVE/_Naive/_ForTesting/Dave/Generated/CMSIS_DSP/Include\arm_math.h **** 
 978:C:/Users/Rui Mendes/Desktop/DAVE/_Naive/_ForTesting/Dave/Generated/CMSIS_DSP/Include\arm_math.h **** /**
 979:C:/Users/Rui Mendes/Desktop/DAVE/_Naive/_ForTesting/Dave/Generated/CMSIS_DSP/Include\arm_math.h ****   @brief         Write 2 Q15 to Q15 pointer.
 980:C:/Users/Rui Mendes/Desktop/DAVE/_Naive/_ForTesting/Dave/Generated/CMSIS_DSP/Include\arm_math.h ****   @param[in]     pQ15      points to input value
 981:C:/Users/Rui Mendes/Desktop/DAVE/_Naive/_ForTesting/Dave/Generated/CMSIS_DSP/Include\arm_math.h ****   @param[in]     value     Q31 value
 982:C:/Users/Rui Mendes/Desktop/DAVE/_Naive/_ForTesting/Dave/Generated/CMSIS_DSP/Include\arm_math.h ****   @return        none
 983:C:/Users/Rui Mendes/Desktop/DAVE/_Naive/_ForTesting/Dave/Generated/CMSIS_DSP/Include\arm_math.h ****  */
 984:C:/Users/Rui Mendes/Desktop/DAVE/_Naive/_ForTesting/Dave/Generated/CMSIS_DSP/Include\arm_math.h **** __STATIC_FORCEINLINE void write_q15x2 (
 985:C:/Users/Rui Mendes/Desktop/DAVE/_Naive/_ForTesting/Dave/Generated/CMSIS_DSP/Include\arm_math.h ****   q15_t * pQ15,
 986:C:/Users/Rui Mendes/Desktop/DAVE/_Naive/_ForTesting/Dave/Generated/CMSIS_DSP/Include\arm_math.h ****   q31_t   value)
 987:C:/Users/Rui Mendes/Desktop/DAVE/_Naive/_ForTesting/Dave/Generated/CMSIS_DSP/Include\arm_math.h **** {
 988:C:/Users/Rui Mendes/Desktop/DAVE/_Naive/_ForTesting/Dave/Generated/CMSIS_DSP/Include\arm_math.h ****   q31_t val = value;
 989:C:/Users/Rui Mendes/Desktop/DAVE/_Naive/_ForTesting/Dave/Generated/CMSIS_DSP/Include\arm_math.h **** 
 990:C:/Users/Rui Mendes/Desktop/DAVE/_Naive/_ForTesting/Dave/Generated/CMSIS_DSP/Include\arm_math.h **** #ifdef __ARM_FEATURE_UNALIGNED
 991:C:/Users/Rui Mendes/Desktop/DAVE/_Naive/_ForTesting/Dave/Generated/CMSIS_DSP/Include\arm_math.h ****   memcpy (pQ15, &val, 4);
 992:C:/Users/Rui Mendes/Desktop/DAVE/_Naive/_ForTesting/Dave/Generated/CMSIS_DSP/Include\arm_math.h **** #else
 993:C:/Users/Rui Mendes/Desktop/DAVE/_Naive/_ForTesting/Dave/Generated/CMSIS_DSP/Include\arm_math.h ****   pQ15[0] = val & 0x0FFFF;
 994:C:/Users/Rui Mendes/Desktop/DAVE/_Naive/_ForTesting/Dave/Generated/CMSIS_DSP/Include\arm_math.h ****   pQ15[1] = val >> 16;
 995:C:/Users/Rui Mendes/Desktop/DAVE/_Naive/_ForTesting/Dave/Generated/CMSIS_DSP/Include\arm_math.h **** #endif
 996:C:/Users/Rui Mendes/Desktop/DAVE/_Naive/_ForTesting/Dave/Generated/CMSIS_DSP/Include\arm_math.h **** }
 997:C:/Users/Rui Mendes/Desktop/DAVE/_Naive/_ForTesting/Dave/Generated/CMSIS_DSP/Include\arm_math.h **** 
 998:C:/Users/Rui Mendes/Desktop/DAVE/_Naive/_ForTesting/Dave/Generated/CMSIS_DSP/Include\arm_math.h **** 
 999:C:/Users/Rui Mendes/Desktop/DAVE/_Naive/_ForTesting/Dave/Generated/CMSIS_DSP/Include\arm_math.h **** /**
1000:C:/Users/Rui Mendes/Desktop/DAVE/_Naive/_ForTesting/Dave/Generated/CMSIS_DSP/Include\arm_math.h ****   @brief         Read 4 Q7 from Q7 pointer and increment pointer afterwards.
1001:C:/Users/Rui Mendes/Desktop/DAVE/_Naive/_ForTesting/Dave/Generated/CMSIS_DSP/Include\arm_math.h ****   @param[in]     pQ7       points to input value
1002:C:/Users/Rui Mendes/Desktop/DAVE/_Naive/_ForTesting/Dave/Generated/CMSIS_DSP/Include\arm_math.h ****   @return        Q31 value
1003:C:/Users/Rui Mendes/Desktop/DAVE/_Naive/_ForTesting/Dave/Generated/CMSIS_DSP/Include\arm_math.h ****  */
1004:C:/Users/Rui Mendes/Desktop/DAVE/_Naive/_ForTesting/Dave/Generated/CMSIS_DSP/Include\arm_math.h **** __STATIC_FORCEINLINE q31_t read_q7x4_ia (
1005:C:/Users/Rui Mendes/Desktop/DAVE/_Naive/_ForTesting/Dave/Generated/CMSIS_DSP/Include\arm_math.h ****   q7_t ** pQ7)
1006:C:/Users/Rui Mendes/Desktop/DAVE/_Naive/_ForTesting/Dave/Generated/CMSIS_DSP/Include\arm_math.h **** {
1007:C:/Users/Rui Mendes/Desktop/DAVE/_Naive/_ForTesting/Dave/Generated/CMSIS_DSP/Include\arm_math.h ****   q31_t val;
1008:C:/Users/Rui Mendes/Desktop/DAVE/_Naive/_ForTesting/Dave/Generated/CMSIS_DSP/Include\arm_math.h **** 
1009:C:/Users/Rui Mendes/Desktop/DAVE/_Naive/_ForTesting/Dave/Generated/CMSIS_DSP/Include\arm_math.h **** 
1010:C:/Users/Rui Mendes/Desktop/DAVE/_Naive/_ForTesting/Dave/Generated/CMSIS_DSP/Include\arm_math.h **** #ifdef __ARM_FEATURE_UNALIGNED
1011:C:/Users/Rui Mendes/Desktop/DAVE/_Naive/_ForTesting/Dave/Generated/CMSIS_DSP/Include\arm_math.h ****   memcpy (&val, *pQ7, 4);
1012:C:/Users/Rui Mendes/Desktop/DAVE/_Naive/_ForTesting/Dave/Generated/CMSIS_DSP/Include\arm_math.h **** #else
1013:C:/Users/Rui Mendes/Desktop/DAVE/_Naive/_ForTesting/Dave/Generated/CMSIS_DSP/Include\arm_math.h ****   val =(((*pQ7)[3] & 0x0FF) << 24)  | (((*pQ7)[2] & 0x0FF) << 16)  | (((*pQ7)[1] & 0x0FF) << 8)  | 
1014:C:/Users/Rui Mendes/Desktop/DAVE/_Naive/_ForTesting/Dave/Generated/CMSIS_DSP/Include\arm_math.h **** #endif 
1015:C:/Users/Rui Mendes/Desktop/DAVE/_Naive/_ForTesting/Dave/Generated/CMSIS_DSP/Include\arm_math.h **** 
1016:C:/Users/Rui Mendes/Desktop/DAVE/_Naive/_ForTesting/Dave/Generated/CMSIS_DSP/Include\arm_math.h ****   *pQ7 += 4;
1017:C:/Users/Rui Mendes/Desktop/DAVE/_Naive/_ForTesting/Dave/Generated/CMSIS_DSP/Include\arm_math.h **** 
1018:C:/Users/Rui Mendes/Desktop/DAVE/_Naive/_ForTesting/Dave/Generated/CMSIS_DSP/Include\arm_math.h ****   return (val);
1019:C:/Users/Rui Mendes/Desktop/DAVE/_Naive/_ForTesting/Dave/Generated/CMSIS_DSP/Include\arm_math.h **** }
1020:C:/Users/Rui Mendes/Desktop/DAVE/_Naive/_ForTesting/Dave/Generated/CMSIS_DSP/Include\arm_math.h **** 
1021:C:/Users/Rui Mendes/Desktop/DAVE/_Naive/_ForTesting/Dave/Generated/CMSIS_DSP/Include\arm_math.h **** /**
1022:C:/Users/Rui Mendes/Desktop/DAVE/_Naive/_ForTesting/Dave/Generated/CMSIS_DSP/Include\arm_math.h ****   @brief         Read 4 Q7 from Q7 pointer and decrement pointer afterwards.
1023:C:/Users/Rui Mendes/Desktop/DAVE/_Naive/_ForTesting/Dave/Generated/CMSIS_DSP/Include\arm_math.h ****   @param[in]     pQ7       points to input value
1024:C:/Users/Rui Mendes/Desktop/DAVE/_Naive/_ForTesting/Dave/Generated/CMSIS_DSP/Include\arm_math.h ****   @return        Q31 value
1025:C:/Users/Rui Mendes/Desktop/DAVE/_Naive/_ForTesting/Dave/Generated/CMSIS_DSP/Include\arm_math.h ****  */
1026:C:/Users/Rui Mendes/Desktop/DAVE/_Naive/_ForTesting/Dave/Generated/CMSIS_DSP/Include\arm_math.h **** __STATIC_FORCEINLINE q31_t read_q7x4_da (
1027:C:/Users/Rui Mendes/Desktop/DAVE/_Naive/_ForTesting/Dave/Generated/CMSIS_DSP/Include\arm_math.h ****   q7_t ** pQ7)
1028:C:/Users/Rui Mendes/Desktop/DAVE/_Naive/_ForTesting/Dave/Generated/CMSIS_DSP/Include\arm_math.h **** {
1029:C:/Users/Rui Mendes/Desktop/DAVE/_Naive/_ForTesting/Dave/Generated/CMSIS_DSP/Include\arm_math.h ****   q31_t val;
1030:C:/Users/Rui Mendes/Desktop/DAVE/_Naive/_ForTesting/Dave/Generated/CMSIS_DSP/Include\arm_math.h **** #ifdef __ARM_FEATURE_UNALIGNED
1031:C:/Users/Rui Mendes/Desktop/DAVE/_Naive/_ForTesting/Dave/Generated/CMSIS_DSP/Include\arm_math.h ****   memcpy (&val, *pQ7, 4);
1032:C:/Users/Rui Mendes/Desktop/DAVE/_Naive/_ForTesting/Dave/Generated/CMSIS_DSP/Include\arm_math.h **** #else
1033:C:/Users/Rui Mendes/Desktop/DAVE/_Naive/_ForTesting/Dave/Generated/CMSIS_DSP/Include\arm_math.h ****   val = ((((*pQ7)[3]) & 0x0FF) << 24) | ((((*pQ7)[2]) & 0x0FF) << 16)   | ((((*pQ7)[1]) & 0x0FF) <<
1034:C:/Users/Rui Mendes/Desktop/DAVE/_Naive/_ForTesting/Dave/Generated/CMSIS_DSP/Include\arm_math.h **** #endif 
1035:C:/Users/Rui Mendes/Desktop/DAVE/_Naive/_ForTesting/Dave/Generated/CMSIS_DSP/Include\arm_math.h ****   *pQ7 -= 4;
1036:C:/Users/Rui Mendes/Desktop/DAVE/_Naive/_ForTesting/Dave/Generated/CMSIS_DSP/Include\arm_math.h **** 
1037:C:/Users/Rui Mendes/Desktop/DAVE/_Naive/_ForTesting/Dave/Generated/CMSIS_DSP/Include\arm_math.h ****   return (val);
1038:C:/Users/Rui Mendes/Desktop/DAVE/_Naive/_ForTesting/Dave/Generated/CMSIS_DSP/Include\arm_math.h **** }
1039:C:/Users/Rui Mendes/Desktop/DAVE/_Naive/_ForTesting/Dave/Generated/CMSIS_DSP/Include\arm_math.h **** 
1040:C:/Users/Rui Mendes/Desktop/DAVE/_Naive/_ForTesting/Dave/Generated/CMSIS_DSP/Include\arm_math.h **** /**
1041:C:/Users/Rui Mendes/Desktop/DAVE/_Naive/_ForTesting/Dave/Generated/CMSIS_DSP/Include\arm_math.h ****   @brief         Write 4 Q7 to Q7 pointer and increment pointer afterwards.
1042:C:/Users/Rui Mendes/Desktop/DAVE/_Naive/_ForTesting/Dave/Generated/CMSIS_DSP/Include\arm_math.h ****   @param[in]     pQ7       points to input value
1043:C:/Users/Rui Mendes/Desktop/DAVE/_Naive/_ForTesting/Dave/Generated/CMSIS_DSP/Include\arm_math.h ****   @param[in]     value     Q31 value
1044:C:/Users/Rui Mendes/Desktop/DAVE/_Naive/_ForTesting/Dave/Generated/CMSIS_DSP/Include\arm_math.h ****   @return        none
1045:C:/Users/Rui Mendes/Desktop/DAVE/_Naive/_ForTesting/Dave/Generated/CMSIS_DSP/Include\arm_math.h ****  */
1046:C:/Users/Rui Mendes/Desktop/DAVE/_Naive/_ForTesting/Dave/Generated/CMSIS_DSP/Include\arm_math.h **** __STATIC_FORCEINLINE void write_q7x4_ia (
1047:C:/Users/Rui Mendes/Desktop/DAVE/_Naive/_ForTesting/Dave/Generated/CMSIS_DSP/Include\arm_math.h ****   q7_t ** pQ7,
1048:C:/Users/Rui Mendes/Desktop/DAVE/_Naive/_ForTesting/Dave/Generated/CMSIS_DSP/Include\arm_math.h ****   q31_t   value)
1049:C:/Users/Rui Mendes/Desktop/DAVE/_Naive/_ForTesting/Dave/Generated/CMSIS_DSP/Include\arm_math.h **** {
1050:C:/Users/Rui Mendes/Desktop/DAVE/_Naive/_ForTesting/Dave/Generated/CMSIS_DSP/Include\arm_math.h ****   q31_t val = value;
1051:C:/Users/Rui Mendes/Desktop/DAVE/_Naive/_ForTesting/Dave/Generated/CMSIS_DSP/Include\arm_math.h **** #ifdef __ARM_FEATURE_UNALIGNED
1052:C:/Users/Rui Mendes/Desktop/DAVE/_Naive/_ForTesting/Dave/Generated/CMSIS_DSP/Include\arm_math.h ****   memcpy (*pQ7, &val, 4);
1053:C:/Users/Rui Mendes/Desktop/DAVE/_Naive/_ForTesting/Dave/Generated/CMSIS_DSP/Include\arm_math.h **** #else
1054:C:/Users/Rui Mendes/Desktop/DAVE/_Naive/_ForTesting/Dave/Generated/CMSIS_DSP/Include\arm_math.h ****   (*pQ7)[0] = val & 0x0FF;
1055:C:/Users/Rui Mendes/Desktop/DAVE/_Naive/_ForTesting/Dave/Generated/CMSIS_DSP/Include\arm_math.h ****   (*pQ7)[1] = (val >> 8) & 0x0FF;
1056:C:/Users/Rui Mendes/Desktop/DAVE/_Naive/_ForTesting/Dave/Generated/CMSIS_DSP/Include\arm_math.h ****   (*pQ7)[2] = (val >> 16) & 0x0FF;
1057:C:/Users/Rui Mendes/Desktop/DAVE/_Naive/_ForTesting/Dave/Generated/CMSIS_DSP/Include\arm_math.h ****   (*pQ7)[3] = (val >> 24) & 0x0FF;
1058:C:/Users/Rui Mendes/Desktop/DAVE/_Naive/_ForTesting/Dave/Generated/CMSIS_DSP/Include\arm_math.h **** 
1059:C:/Users/Rui Mendes/Desktop/DAVE/_Naive/_ForTesting/Dave/Generated/CMSIS_DSP/Include\arm_math.h **** #endif
1060:C:/Users/Rui Mendes/Desktop/DAVE/_Naive/_ForTesting/Dave/Generated/CMSIS_DSP/Include\arm_math.h ****   *pQ7 += 4;
1061:C:/Users/Rui Mendes/Desktop/DAVE/_Naive/_ForTesting/Dave/Generated/CMSIS_DSP/Include\arm_math.h **** }
1062:C:/Users/Rui Mendes/Desktop/DAVE/_Naive/_ForTesting/Dave/Generated/CMSIS_DSP/Include\arm_math.h **** 
1063:C:/Users/Rui Mendes/Desktop/DAVE/_Naive/_ForTesting/Dave/Generated/CMSIS_DSP/Include\arm_math.h **** /*
1064:C:/Users/Rui Mendes/Desktop/DAVE/_Naive/_ForTesting/Dave/Generated/CMSIS_DSP/Include\arm_math.h **** 
1065:C:/Users/Rui Mendes/Desktop/DAVE/_Naive/_ForTesting/Dave/Generated/CMSIS_DSP/Include\arm_math.h **** Normally those kind of definitions are in a compiler file
1066:C:/Users/Rui Mendes/Desktop/DAVE/_Naive/_ForTesting/Dave/Generated/CMSIS_DSP/Include\arm_math.h **** in Core or Core_A.
1067:C:/Users/Rui Mendes/Desktop/DAVE/_Naive/_ForTesting/Dave/Generated/CMSIS_DSP/Include\arm_math.h **** 
1068:C:/Users/Rui Mendes/Desktop/DAVE/_Naive/_ForTesting/Dave/Generated/CMSIS_DSP/Include\arm_math.h **** But for MSVC compiler it is a bit special. The goal is very specific
1069:C:/Users/Rui Mendes/Desktop/DAVE/_Naive/_ForTesting/Dave/Generated/CMSIS_DSP/Include\arm_math.h **** to CMSIS-DSP and only to allow the use of this library from other
1070:C:/Users/Rui Mendes/Desktop/DAVE/_Naive/_ForTesting/Dave/Generated/CMSIS_DSP/Include\arm_math.h **** systems like Python or Matlab.
1071:C:/Users/Rui Mendes/Desktop/DAVE/_Naive/_ForTesting/Dave/Generated/CMSIS_DSP/Include\arm_math.h **** 
1072:C:/Users/Rui Mendes/Desktop/DAVE/_Naive/_ForTesting/Dave/Generated/CMSIS_DSP/Include\arm_math.h **** MSVC is not going to be used to cross-compile to ARM. So, having a MSVC
1073:C:/Users/Rui Mendes/Desktop/DAVE/_Naive/_ForTesting/Dave/Generated/CMSIS_DSP/Include\arm_math.h **** compiler file in Core or Core_A would not make sense.
1074:C:/Users/Rui Mendes/Desktop/DAVE/_Naive/_ForTesting/Dave/Generated/CMSIS_DSP/Include\arm_math.h **** 
1075:C:/Users/Rui Mendes/Desktop/DAVE/_Naive/_ForTesting/Dave/Generated/CMSIS_DSP/Include\arm_math.h **** */
1076:C:/Users/Rui Mendes/Desktop/DAVE/_Naive/_ForTesting/Dave/Generated/CMSIS_DSP/Include\arm_math.h **** #if defined ( _MSC_VER ) || defined(__GNUC_PYTHON__)
1077:C:/Users/Rui Mendes/Desktop/DAVE/_Naive/_ForTesting/Dave/Generated/CMSIS_DSP/Include\arm_math.h ****     __STATIC_FORCEINLINE uint8_t __CLZ(uint32_t data)
1078:C:/Users/Rui Mendes/Desktop/DAVE/_Naive/_ForTesting/Dave/Generated/CMSIS_DSP/Include\arm_math.h ****     {
1079:C:/Users/Rui Mendes/Desktop/DAVE/_Naive/_ForTesting/Dave/Generated/CMSIS_DSP/Include\arm_math.h ****       if (data == 0U) { return 32U; }
1080:C:/Users/Rui Mendes/Desktop/DAVE/_Naive/_ForTesting/Dave/Generated/CMSIS_DSP/Include\arm_math.h **** 
1081:C:/Users/Rui Mendes/Desktop/DAVE/_Naive/_ForTesting/Dave/Generated/CMSIS_DSP/Include\arm_math.h ****       uint32_t count = 0U;
1082:C:/Users/Rui Mendes/Desktop/DAVE/_Naive/_ForTesting/Dave/Generated/CMSIS_DSP/Include\arm_math.h ****       uint32_t mask = 0x80000000U;
1083:C:/Users/Rui Mendes/Desktop/DAVE/_Naive/_ForTesting/Dave/Generated/CMSIS_DSP/Include\arm_math.h **** 
1084:C:/Users/Rui Mendes/Desktop/DAVE/_Naive/_ForTesting/Dave/Generated/CMSIS_DSP/Include\arm_math.h ****       while ((data & mask) == 0U)
1085:C:/Users/Rui Mendes/Desktop/DAVE/_Naive/_ForTesting/Dave/Generated/CMSIS_DSP/Include\arm_math.h ****       {
1086:C:/Users/Rui Mendes/Desktop/DAVE/_Naive/_ForTesting/Dave/Generated/CMSIS_DSP/Include\arm_math.h ****         count += 1U;
1087:C:/Users/Rui Mendes/Desktop/DAVE/_Naive/_ForTesting/Dave/Generated/CMSIS_DSP/Include\arm_math.h ****         mask = mask >> 1U;
1088:C:/Users/Rui Mendes/Desktop/DAVE/_Naive/_ForTesting/Dave/Generated/CMSIS_DSP/Include\arm_math.h ****       }
1089:C:/Users/Rui Mendes/Desktop/DAVE/_Naive/_ForTesting/Dave/Generated/CMSIS_DSP/Include\arm_math.h ****       return count;
1090:C:/Users/Rui Mendes/Desktop/DAVE/_Naive/_ForTesting/Dave/Generated/CMSIS_DSP/Include\arm_math.h ****     }
1091:C:/Users/Rui Mendes/Desktop/DAVE/_Naive/_ForTesting/Dave/Generated/CMSIS_DSP/Include\arm_math.h **** 
1092:C:/Users/Rui Mendes/Desktop/DAVE/_Naive/_ForTesting/Dave/Generated/CMSIS_DSP/Include\arm_math.h ****   __STATIC_FORCEINLINE int32_t __SSAT(int32_t val, uint32_t sat)
1093:C:/Users/Rui Mendes/Desktop/DAVE/_Naive/_ForTesting/Dave/Generated/CMSIS_DSP/Include\arm_math.h ****   {
1094:C:/Users/Rui Mendes/Desktop/DAVE/_Naive/_ForTesting/Dave/Generated/CMSIS_DSP/Include\arm_math.h ****     if ((sat >= 1U) && (sat <= 32U))
1095:C:/Users/Rui Mendes/Desktop/DAVE/_Naive/_ForTesting/Dave/Generated/CMSIS_DSP/Include\arm_math.h ****     {
1096:C:/Users/Rui Mendes/Desktop/DAVE/_Naive/_ForTesting/Dave/Generated/CMSIS_DSP/Include\arm_math.h ****       const int32_t max = (int32_t)((1U << (sat - 1U)) - 1U);
1097:C:/Users/Rui Mendes/Desktop/DAVE/_Naive/_ForTesting/Dave/Generated/CMSIS_DSP/Include\arm_math.h ****       const int32_t min = -1 - max ;
1098:C:/Users/Rui Mendes/Desktop/DAVE/_Naive/_ForTesting/Dave/Generated/CMSIS_DSP/Include\arm_math.h ****       if (val > max)
1099:C:/Users/Rui Mendes/Desktop/DAVE/_Naive/_ForTesting/Dave/Generated/CMSIS_DSP/Include\arm_math.h ****       {
1100:C:/Users/Rui Mendes/Desktop/DAVE/_Naive/_ForTesting/Dave/Generated/CMSIS_DSP/Include\arm_math.h ****         return max;
1101:C:/Users/Rui Mendes/Desktop/DAVE/_Naive/_ForTesting/Dave/Generated/CMSIS_DSP/Include\arm_math.h ****       }
1102:C:/Users/Rui Mendes/Desktop/DAVE/_Naive/_ForTesting/Dave/Generated/CMSIS_DSP/Include\arm_math.h ****       else if (val < min)
1103:C:/Users/Rui Mendes/Desktop/DAVE/_Naive/_ForTesting/Dave/Generated/CMSIS_DSP/Include\arm_math.h ****       {
1104:C:/Users/Rui Mendes/Desktop/DAVE/_Naive/_ForTesting/Dave/Generated/CMSIS_DSP/Include\arm_math.h ****         return min;
1105:C:/Users/Rui Mendes/Desktop/DAVE/_Naive/_ForTesting/Dave/Generated/CMSIS_DSP/Include\arm_math.h ****       }
1106:C:/Users/Rui Mendes/Desktop/DAVE/_Naive/_ForTesting/Dave/Generated/CMSIS_DSP/Include\arm_math.h ****     }
1107:C:/Users/Rui Mendes/Desktop/DAVE/_Naive/_ForTesting/Dave/Generated/CMSIS_DSP/Include\arm_math.h ****     return val;
1108:C:/Users/Rui Mendes/Desktop/DAVE/_Naive/_ForTesting/Dave/Generated/CMSIS_DSP/Include\arm_math.h ****   }
1109:C:/Users/Rui Mendes/Desktop/DAVE/_Naive/_ForTesting/Dave/Generated/CMSIS_DSP/Include\arm_math.h **** 
1110:C:/Users/Rui Mendes/Desktop/DAVE/_Naive/_ForTesting/Dave/Generated/CMSIS_DSP/Include\arm_math.h ****   __STATIC_FORCEINLINE uint32_t __USAT(int32_t val, uint32_t sat)
1111:C:/Users/Rui Mendes/Desktop/DAVE/_Naive/_ForTesting/Dave/Generated/CMSIS_DSP/Include\arm_math.h ****   {
1112:C:/Users/Rui Mendes/Desktop/DAVE/_Naive/_ForTesting/Dave/Generated/CMSIS_DSP/Include\arm_math.h ****     if (sat <= 31U)
1113:C:/Users/Rui Mendes/Desktop/DAVE/_Naive/_ForTesting/Dave/Generated/CMSIS_DSP/Include\arm_math.h ****     {
1114:C:/Users/Rui Mendes/Desktop/DAVE/_Naive/_ForTesting/Dave/Generated/CMSIS_DSP/Include\arm_math.h ****       const uint32_t max = ((1U << sat) - 1U);
1115:C:/Users/Rui Mendes/Desktop/DAVE/_Naive/_ForTesting/Dave/Generated/CMSIS_DSP/Include\arm_math.h ****       if (val > (int32_t)max)
1116:C:/Users/Rui Mendes/Desktop/DAVE/_Naive/_ForTesting/Dave/Generated/CMSIS_DSP/Include\arm_math.h ****       {
1117:C:/Users/Rui Mendes/Desktop/DAVE/_Naive/_ForTesting/Dave/Generated/CMSIS_DSP/Include\arm_math.h ****         return max;
1118:C:/Users/Rui Mendes/Desktop/DAVE/_Naive/_ForTesting/Dave/Generated/CMSIS_DSP/Include\arm_math.h ****       }
1119:C:/Users/Rui Mendes/Desktop/DAVE/_Naive/_ForTesting/Dave/Generated/CMSIS_DSP/Include\arm_math.h ****       else if (val < 0)
1120:C:/Users/Rui Mendes/Desktop/DAVE/_Naive/_ForTesting/Dave/Generated/CMSIS_DSP/Include\arm_math.h ****       {
1121:C:/Users/Rui Mendes/Desktop/DAVE/_Naive/_ForTesting/Dave/Generated/CMSIS_DSP/Include\arm_math.h ****         return 0U;
1122:C:/Users/Rui Mendes/Desktop/DAVE/_Naive/_ForTesting/Dave/Generated/CMSIS_DSP/Include\arm_math.h ****       }
1123:C:/Users/Rui Mendes/Desktop/DAVE/_Naive/_ForTesting/Dave/Generated/CMSIS_DSP/Include\arm_math.h ****     }
1124:C:/Users/Rui Mendes/Desktop/DAVE/_Naive/_ForTesting/Dave/Generated/CMSIS_DSP/Include\arm_math.h ****     return (uint32_t)val;
1125:C:/Users/Rui Mendes/Desktop/DAVE/_Naive/_ForTesting/Dave/Generated/CMSIS_DSP/Include\arm_math.h ****   }
1126:C:/Users/Rui Mendes/Desktop/DAVE/_Naive/_ForTesting/Dave/Generated/CMSIS_DSP/Include\arm_math.h **** #endif
1127:C:/Users/Rui Mendes/Desktop/DAVE/_Naive/_ForTesting/Dave/Generated/CMSIS_DSP/Include\arm_math.h **** 
1128:C:/Users/Rui Mendes/Desktop/DAVE/_Naive/_ForTesting/Dave/Generated/CMSIS_DSP/Include\arm_math.h **** #ifndef ARM_MATH_DSP
1129:C:/Users/Rui Mendes/Desktop/DAVE/_Naive/_ForTesting/Dave/Generated/CMSIS_DSP/Include\arm_math.h ****   /**
1130:C:/Users/Rui Mendes/Desktop/DAVE/_Naive/_ForTesting/Dave/Generated/CMSIS_DSP/Include\arm_math.h ****    * @brief definition to pack two 16 bit values.
1131:C:/Users/Rui Mendes/Desktop/DAVE/_Naive/_ForTesting/Dave/Generated/CMSIS_DSP/Include\arm_math.h ****    */
1132:C:/Users/Rui Mendes/Desktop/DAVE/_Naive/_ForTesting/Dave/Generated/CMSIS_DSP/Include\arm_math.h ****   #define __PKHBT(ARG1, ARG2, ARG3) ( (((int32_t)(ARG1) <<    0) & (int32_t)0x0000FFFF) | \
1133:C:/Users/Rui Mendes/Desktop/DAVE/_Naive/_ForTesting/Dave/Generated/CMSIS_DSP/Include\arm_math.h ****                                       (((int32_t)(ARG2) << ARG3) & (int32_t)0xFFFF0000)  )
1134:C:/Users/Rui Mendes/Desktop/DAVE/_Naive/_ForTesting/Dave/Generated/CMSIS_DSP/Include\arm_math.h ****   #define __PKHTB(ARG1, ARG2, ARG3) ( (((int32_t)(ARG1) <<    0) & (int32_t)0xFFFF0000) | \
1135:C:/Users/Rui Mendes/Desktop/DAVE/_Naive/_ForTesting/Dave/Generated/CMSIS_DSP/Include\arm_math.h ****                                       (((int32_t)(ARG2) >> ARG3) & (int32_t)0x0000FFFF)  )
1136:C:/Users/Rui Mendes/Desktop/DAVE/_Naive/_ForTesting/Dave/Generated/CMSIS_DSP/Include\arm_math.h **** #endif
1137:C:/Users/Rui Mendes/Desktop/DAVE/_Naive/_ForTesting/Dave/Generated/CMSIS_DSP/Include\arm_math.h **** 
1138:C:/Users/Rui Mendes/Desktop/DAVE/_Naive/_ForTesting/Dave/Generated/CMSIS_DSP/Include\arm_math.h ****    /**
1139:C:/Users/Rui Mendes/Desktop/DAVE/_Naive/_ForTesting/Dave/Generated/CMSIS_DSP/Include\arm_math.h ****    * @brief definition to pack four 8 bit values.
1140:C:/Users/Rui Mendes/Desktop/DAVE/_Naive/_ForTesting/Dave/Generated/CMSIS_DSP/Include\arm_math.h ****    */
1141:C:/Users/Rui Mendes/Desktop/DAVE/_Naive/_ForTesting/Dave/Generated/CMSIS_DSP/Include\arm_math.h **** #ifndef ARM_MATH_BIG_ENDIAN
1142:C:/Users/Rui Mendes/Desktop/DAVE/_Naive/_ForTesting/Dave/Generated/CMSIS_DSP/Include\arm_math.h ****   #define __PACKq7(v0,v1,v2,v3) ( (((int32_t)(v0) <<  0) & (int32_t)0x000000FF) | \
1143:C:/Users/Rui Mendes/Desktop/DAVE/_Naive/_ForTesting/Dave/Generated/CMSIS_DSP/Include\arm_math.h ****                                   (((int32_t)(v1) <<  8) & (int32_t)0x0000FF00) | \
1144:C:/Users/Rui Mendes/Desktop/DAVE/_Naive/_ForTesting/Dave/Generated/CMSIS_DSP/Include\arm_math.h ****                                   (((int32_t)(v2) << 16) & (int32_t)0x00FF0000) | \
1145:C:/Users/Rui Mendes/Desktop/DAVE/_Naive/_ForTesting/Dave/Generated/CMSIS_DSP/Include\arm_math.h ****                                   (((int32_t)(v3) << 24) & (int32_t)0xFF000000)  )
1146:C:/Users/Rui Mendes/Desktop/DAVE/_Naive/_ForTesting/Dave/Generated/CMSIS_DSP/Include\arm_math.h **** #else
1147:C:/Users/Rui Mendes/Desktop/DAVE/_Naive/_ForTesting/Dave/Generated/CMSIS_DSP/Include\arm_math.h ****   #define __PACKq7(v0,v1,v2,v3) ( (((int32_t)(v3) <<  0) & (int32_t)0x000000FF) | \
1148:C:/Users/Rui Mendes/Desktop/DAVE/_Naive/_ForTesting/Dave/Generated/CMSIS_DSP/Include\arm_math.h ****                                   (((int32_t)(v2) <<  8) & (int32_t)0x0000FF00) | \
1149:C:/Users/Rui Mendes/Desktop/DAVE/_Naive/_ForTesting/Dave/Generated/CMSIS_DSP/Include\arm_math.h ****                                   (((int32_t)(v1) << 16) & (int32_t)0x00FF0000) | \
1150:C:/Users/Rui Mendes/Desktop/DAVE/_Naive/_ForTesting/Dave/Generated/CMSIS_DSP/Include\arm_math.h ****                                   (((int32_t)(v0) << 24) & (int32_t)0xFF000000)  )
1151:C:/Users/Rui Mendes/Desktop/DAVE/_Naive/_ForTesting/Dave/Generated/CMSIS_DSP/Include\arm_math.h **** #endif
1152:C:/Users/Rui Mendes/Desktop/DAVE/_Naive/_ForTesting/Dave/Generated/CMSIS_DSP/Include\arm_math.h **** 
1153:C:/Users/Rui Mendes/Desktop/DAVE/_Naive/_ForTesting/Dave/Generated/CMSIS_DSP/Include\arm_math.h **** 
1154:C:/Users/Rui Mendes/Desktop/DAVE/_Naive/_ForTesting/Dave/Generated/CMSIS_DSP/Include\arm_math.h ****   /**
1155:C:/Users/Rui Mendes/Desktop/DAVE/_Naive/_ForTesting/Dave/Generated/CMSIS_DSP/Include\arm_math.h ****    * @brief Clips Q63 to Q31 values.
1156:C:/Users/Rui Mendes/Desktop/DAVE/_Naive/_ForTesting/Dave/Generated/CMSIS_DSP/Include\arm_math.h ****    */
1157:C:/Users/Rui Mendes/Desktop/DAVE/_Naive/_ForTesting/Dave/Generated/CMSIS_DSP/Include\arm_math.h ****   __STATIC_FORCEINLINE q31_t clip_q63_to_q31(
1158:C:/Users/Rui Mendes/Desktop/DAVE/_Naive/_ForTesting/Dave/Generated/CMSIS_DSP/Include\arm_math.h ****   q63_t x)
1159:C:/Users/Rui Mendes/Desktop/DAVE/_Naive/_ForTesting/Dave/Generated/CMSIS_DSP/Include\arm_math.h ****   {
1160:C:/Users/Rui Mendes/Desktop/DAVE/_Naive/_ForTesting/Dave/Generated/CMSIS_DSP/Include\arm_math.h ****     return ((q31_t) (x >> 32) != ((q31_t) x >> 31)) ?
  97              	 .loc 2 1160 0 discriminator 4
  98 0066 D7E90423 	 ldrd r2,[r7,#16]
  99 006a 1C00     	 movs r4,r3
 100 006c DD17     	 asrs r5,r3,#31
 101 006e 2246     	 mov r2,r4
 102 0070 3B69     	 ldr r3,[r7,#16]
 103 0072 DB17     	 asrs r3,r3,#31
1161:C:/Users/Rui Mendes/Desktop/DAVE/_Naive/_ForTesting/Dave/Generated/CMSIS_DSP/Include\arm_math.h ****       ((0x7FFFFFFF ^ ((q31_t) (x >> 63)))) : (q31_t) x;
 104              	 .loc 2 1161 0 discriminator 4
 105 0074 9A42     	 cmp r2,r3
 106 0076 0AD0     	 beq .L6
 107              	 .loc 2 1161 0 is_stmt 0
 108 0078 D7E90423 	 ldrd r2,[r7,#16]
 109 007c 4FEAE378 	 asr r8,r3,#31
 110 0080 4FEAE379 	 asr r9,r3,#31
 111 0084 4346     	 mov r3,r8
 112 0086 83F00043 	 eor r3,r3,#-2147483648
 113 008a DB43     	 mvns r3,r3
 114 008c 00E0     	 b .L11
 115              	.L6:
 116 008e 3B69     	 ldr r3,[r7,#16]
 117              	.L11:
 118              	.LBE5:
 119              	.LBE4:
 120              	 .loc 1 294 0 is_stmt 1 discriminator 4
 121 0090 3360     	 str r3,[r6]
 295:../Dave/Generated/CMSIS_DSP/Source/SupportFunctions/arm_float_to_q31.c **** 
 296:../Dave/Generated/CMSIS_DSP/Source/SupportFunctions/arm_float_to_q31.c **** #else
 297:../Dave/Generated/CMSIS_DSP/Source/SupportFunctions/arm_float_to_q31.c **** 
 298:../Dave/Generated/CMSIS_DSP/Source/SupportFunctions/arm_float_to_q31.c ****     /* C = A * 2147483648 */
 299:../Dave/Generated/CMSIS_DSP/Source/SupportFunctions/arm_float_to_q31.c ****     /* Convert from float to Q31 and then store the results in the destination buffer */
 300:../Dave/Generated/CMSIS_DSP/Source/SupportFunctions/arm_float_to_q31.c ****     *pDst++ = clip_q63_to_q31((q63_t) (*pIn++ * 2147483648.0f));
 301:../Dave/Generated/CMSIS_DSP/Source/SupportFunctions/arm_float_to_q31.c **** 
 302:../Dave/Generated/CMSIS_DSP/Source/SupportFunctions/arm_float_to_q31.c **** #endif /* #ifdef ARM_MATH_ROUNDING */
 303:../Dave/Generated/CMSIS_DSP/Source/SupportFunctions/arm_float_to_q31.c **** 
 304:../Dave/Generated/CMSIS_DSP/Source/SupportFunctions/arm_float_to_q31.c ****     /* Decrement loop counter */
 305:../Dave/Generated/CMSIS_DSP/Source/SupportFunctions/arm_float_to_q31.c ****     blkCnt--;
 122              	 .loc 1 305 0 discriminator 4
 123 0092 7B6A     	 ldr r3,[r7,#36]
 124 0094 013B     	 subs r3,r3,#1
 125 0096 7B62     	 str r3,[r7,#36]
 126              	.L2:
 285:../Dave/Generated/CMSIS_DSP/Source/SupportFunctions/arm_float_to_q31.c ****   {
 127              	 .loc 1 285 0
 128 0098 7B6A     	 ldr r3,[r7,#36]
 129 009a 002B     	 cmp r3,#0
 130 009c BCD1     	 bne .L9
 306:../Dave/Generated/CMSIS_DSP/Source/SupportFunctions/arm_float_to_q31.c ****   }
 307:../Dave/Generated/CMSIS_DSP/Source/SupportFunctions/arm_float_to_q31.c **** 
 308:../Dave/Generated/CMSIS_DSP/Source/SupportFunctions/arm_float_to_q31.c **** }
 131              	 .loc 1 308 0
 132 009e 2C37     	 adds r7,r7,#44
 133              	.LCFI3:
 134              	 .cfi_def_cfa_offset 28
 135 00a0 BD46     	 mov sp,r7
 136              	.LCFI4:
 137              	 .cfi_def_cfa_register 13
 138              	 
 139 00a2 BDE8F083 	 pop {r4,r5,r6,r7,r8,r9,pc}
 140              	.L14:
 141 00a6 00BF     	 .align 2
 142              	.L13:
 143 00a8 0000004F 	 .word 1325400064
 144              	 .cfi_endproc
 145              	.LFE149:
 147              	 .text
 148              	.Letext0:
 149              	 .file 3 "c:\\infineon\\tools\\dave ide\\4.5.0.202105191637\\eclipse\\arm-gcc-49\\arm-none-eabi\\include\\machine\\_default_types.h"
 150              	 .file 4 "c:\\infineon\\tools\\dave ide\\4.5.0.202105191637\\eclipse\\arm-gcc-49\\arm-none-eabi\\include\\stdint.h"
 151              	 .file 5 "C:/Users/Rui Mendes/Desktop/DAVE/_Naive/_ForTesting/Libraries/CMSIS/Include/cmsis_gcc.h"