   1              	 .syntax unified
   2              	 .cpu cortex-m4
   3              	 .eabi_attribute 27,3
   4              	 .fpu fpv4-sp-d16
   5              	 .eabi_attribute 20,1
   6              	 .eabi_attribute 21,1
   7              	 .eabi_attribute 23,3
   8              	 .eabi_attribute 24,1
   9              	 .eabi_attribute 25,1
  10              	 .eabi_attribute 26,1
  11              	 .eabi_attribute 30,6
  12              	 .eabi_attribute 34,1
  13              	 .eabi_attribute 18,4
  14              	 .thumb
  15              	 .file "arm_conv_partial_fast_q31.c"
  16              	 .text
  17              	.Ltext0:
  18              	 .cfi_sections .debug_frame
  19              	 .section .text.arm_conv_partial_fast_q31,"ax",%progbits
  20              	 .align 2
  21              	 .global arm_conv_partial_fast_q31
  22              	 .thumb
  23              	 .thumb_func
  25              	arm_conv_partial_fast_q31:
  26              	.LFB149:
  27              	 .file 1 "../Dave/Generated/CMSIS_DSP/Source/FilteringFunctions/arm_conv_partial_fast_q31.c"
   1:../Dave/Generated/CMSIS_DSP/Source/FilteringFunctions/arm_conv_partial_fast_q31.c **** /* ----------------------------------------------------------------------
   2:../Dave/Generated/CMSIS_DSP/Source/FilteringFunctions/arm_conv_partial_fast_q31.c ****  * Project:      CMSIS DSP Library
   3:../Dave/Generated/CMSIS_DSP/Source/FilteringFunctions/arm_conv_partial_fast_q31.c ****  * Title:        arm_conv_partial_fast_q31.c
   4:../Dave/Generated/CMSIS_DSP/Source/FilteringFunctions/arm_conv_partial_fast_q31.c ****  * Description:  Fast Q31 Partial convolution
   5:../Dave/Generated/CMSIS_DSP/Source/FilteringFunctions/arm_conv_partial_fast_q31.c ****  *
   6:../Dave/Generated/CMSIS_DSP/Source/FilteringFunctions/arm_conv_partial_fast_q31.c ****  * $Date:        18. March 2019
   7:../Dave/Generated/CMSIS_DSP/Source/FilteringFunctions/arm_conv_partial_fast_q31.c ****  * $Revision:    V1.6.0
   8:../Dave/Generated/CMSIS_DSP/Source/FilteringFunctions/arm_conv_partial_fast_q31.c ****  *
   9:../Dave/Generated/CMSIS_DSP/Source/FilteringFunctions/arm_conv_partial_fast_q31.c ****  * Target Processor: Cortex-M cores
  10:../Dave/Generated/CMSIS_DSP/Source/FilteringFunctions/arm_conv_partial_fast_q31.c ****  * -------------------------------------------------------------------- */
  11:../Dave/Generated/CMSIS_DSP/Source/FilteringFunctions/arm_conv_partial_fast_q31.c **** /*
  12:../Dave/Generated/CMSIS_DSP/Source/FilteringFunctions/arm_conv_partial_fast_q31.c ****  * Copyright (C) 2010-2019 ARM Limited or its affiliates. All rights reserved.
  13:../Dave/Generated/CMSIS_DSP/Source/FilteringFunctions/arm_conv_partial_fast_q31.c ****  *
  14:../Dave/Generated/CMSIS_DSP/Source/FilteringFunctions/arm_conv_partial_fast_q31.c ****  * SPDX-License-Identifier: Apache-2.0
  15:../Dave/Generated/CMSIS_DSP/Source/FilteringFunctions/arm_conv_partial_fast_q31.c ****  *
  16:../Dave/Generated/CMSIS_DSP/Source/FilteringFunctions/arm_conv_partial_fast_q31.c ****  * Licensed under the Apache License, Version 2.0 (the License); you may
  17:../Dave/Generated/CMSIS_DSP/Source/FilteringFunctions/arm_conv_partial_fast_q31.c ****  * not use this file except in compliance with the License.
  18:../Dave/Generated/CMSIS_DSP/Source/FilteringFunctions/arm_conv_partial_fast_q31.c ****  * You may obtain a copy of the License at
  19:../Dave/Generated/CMSIS_DSP/Source/FilteringFunctions/arm_conv_partial_fast_q31.c ****  *
  20:../Dave/Generated/CMSIS_DSP/Source/FilteringFunctions/arm_conv_partial_fast_q31.c ****  * www.apache.org/licenses/LICENSE-2.0
  21:../Dave/Generated/CMSIS_DSP/Source/FilteringFunctions/arm_conv_partial_fast_q31.c ****  *
  22:../Dave/Generated/CMSIS_DSP/Source/FilteringFunctions/arm_conv_partial_fast_q31.c ****  * Unless required by applicable law or agreed to in writing, software
  23:../Dave/Generated/CMSIS_DSP/Source/FilteringFunctions/arm_conv_partial_fast_q31.c ****  * distributed under the License is distributed on an AS IS BASIS, WITHOUT
  24:../Dave/Generated/CMSIS_DSP/Source/FilteringFunctions/arm_conv_partial_fast_q31.c ****  * WARRANTIES OR CONDITIONS OF ANY KIND, either express or implied.
  25:../Dave/Generated/CMSIS_DSP/Source/FilteringFunctions/arm_conv_partial_fast_q31.c ****  * See the License for the specific language governing permissions and
  26:../Dave/Generated/CMSIS_DSP/Source/FilteringFunctions/arm_conv_partial_fast_q31.c ****  * limitations under the License.
  27:../Dave/Generated/CMSIS_DSP/Source/FilteringFunctions/arm_conv_partial_fast_q31.c ****  */
  28:../Dave/Generated/CMSIS_DSP/Source/FilteringFunctions/arm_conv_partial_fast_q31.c **** 
  29:../Dave/Generated/CMSIS_DSP/Source/FilteringFunctions/arm_conv_partial_fast_q31.c **** #include "CMSIS_DSP/cmsis_dsp.h"
  30:../Dave/Generated/CMSIS_DSP/Source/FilteringFunctions/arm_conv_partial_fast_q31.c **** 
  31:../Dave/Generated/CMSIS_DSP/Source/FilteringFunctions/arm_conv_partial_fast_q31.c **** /**
  32:../Dave/Generated/CMSIS_DSP/Source/FilteringFunctions/arm_conv_partial_fast_q31.c ****   @ingroup groupFilters
  33:../Dave/Generated/CMSIS_DSP/Source/FilteringFunctions/arm_conv_partial_fast_q31.c ****  */
  34:../Dave/Generated/CMSIS_DSP/Source/FilteringFunctions/arm_conv_partial_fast_q31.c **** 
  35:../Dave/Generated/CMSIS_DSP/Source/FilteringFunctions/arm_conv_partial_fast_q31.c **** /**
  36:../Dave/Generated/CMSIS_DSP/Source/FilteringFunctions/arm_conv_partial_fast_q31.c ****   @addtogroup PartialConv
  37:../Dave/Generated/CMSIS_DSP/Source/FilteringFunctions/arm_conv_partial_fast_q31.c ****   @{
  38:../Dave/Generated/CMSIS_DSP/Source/FilteringFunctions/arm_conv_partial_fast_q31.c ****  */
  39:../Dave/Generated/CMSIS_DSP/Source/FilteringFunctions/arm_conv_partial_fast_q31.c **** 
  40:../Dave/Generated/CMSIS_DSP/Source/FilteringFunctions/arm_conv_partial_fast_q31.c **** /**
  41:../Dave/Generated/CMSIS_DSP/Source/FilteringFunctions/arm_conv_partial_fast_q31.c ****   @brief         Partial convolution of Q31 sequences (fast version).
  42:../Dave/Generated/CMSIS_DSP/Source/FilteringFunctions/arm_conv_partial_fast_q31.c ****   @param[in]     pSrcA      points to the first input sequence
  43:../Dave/Generated/CMSIS_DSP/Source/FilteringFunctions/arm_conv_partial_fast_q31.c ****   @param[in]     srcALen    length of the first input sequence
  44:../Dave/Generated/CMSIS_DSP/Source/FilteringFunctions/arm_conv_partial_fast_q31.c ****   @param[in]     pSrcB      points to the second input sequence
  45:../Dave/Generated/CMSIS_DSP/Source/FilteringFunctions/arm_conv_partial_fast_q31.c ****   @param[in]     srcBLen    length of the second input sequence
  46:../Dave/Generated/CMSIS_DSP/Source/FilteringFunctions/arm_conv_partial_fast_q31.c ****   @param[out]    pDst       points to the location where the output result is written
  47:../Dave/Generated/CMSIS_DSP/Source/FilteringFunctions/arm_conv_partial_fast_q31.c ****   @param[in]     firstIndex is the first output sample to start with
  48:../Dave/Generated/CMSIS_DSP/Source/FilteringFunctions/arm_conv_partial_fast_q31.c ****   @param[in]     numPoints  is the number of output points to be computed
  49:../Dave/Generated/CMSIS_DSP/Source/FilteringFunctions/arm_conv_partial_fast_q31.c ****   @return        execution status
  50:../Dave/Generated/CMSIS_DSP/Source/FilteringFunctions/arm_conv_partial_fast_q31.c ****                    - \ref ARM_MATH_SUCCESS        : Operation successful
  51:../Dave/Generated/CMSIS_DSP/Source/FilteringFunctions/arm_conv_partial_fast_q31.c ****                    - \ref ARM_MATH_ARGUMENT_ERROR : requested subset is not in the range [0 srcALen
  52:../Dave/Generated/CMSIS_DSP/Source/FilteringFunctions/arm_conv_partial_fast_q31.c **** 
  53:../Dave/Generated/CMSIS_DSP/Source/FilteringFunctions/arm_conv_partial_fast_q31.c ****   @remark
  54:../Dave/Generated/CMSIS_DSP/Source/FilteringFunctions/arm_conv_partial_fast_q31.c ****                    Refer to \ref arm_conv_partial_q31() for a slower implementation of this functio
  55:../Dave/Generated/CMSIS_DSP/Source/FilteringFunctions/arm_conv_partial_fast_q31.c ****  */
  56:../Dave/Generated/CMSIS_DSP/Source/FilteringFunctions/arm_conv_partial_fast_q31.c **** 
  57:../Dave/Generated/CMSIS_DSP/Source/FilteringFunctions/arm_conv_partial_fast_q31.c **** arm_status arm_conv_partial_fast_q31(
  58:../Dave/Generated/CMSIS_DSP/Source/FilteringFunctions/arm_conv_partial_fast_q31.c ****   const q31_t * pSrcA,
  59:../Dave/Generated/CMSIS_DSP/Source/FilteringFunctions/arm_conv_partial_fast_q31.c ****         uint32_t srcALen,
  60:../Dave/Generated/CMSIS_DSP/Source/FilteringFunctions/arm_conv_partial_fast_q31.c ****   const q31_t * pSrcB,
  61:../Dave/Generated/CMSIS_DSP/Source/FilteringFunctions/arm_conv_partial_fast_q31.c ****         uint32_t srcBLen,
  62:../Dave/Generated/CMSIS_DSP/Source/FilteringFunctions/arm_conv_partial_fast_q31.c ****         q31_t * pDst,
  63:../Dave/Generated/CMSIS_DSP/Source/FilteringFunctions/arm_conv_partial_fast_q31.c ****         uint32_t firstIndex,
  64:../Dave/Generated/CMSIS_DSP/Source/FilteringFunctions/arm_conv_partial_fast_q31.c ****         uint32_t numPoints)
  65:../Dave/Generated/CMSIS_DSP/Source/FilteringFunctions/arm_conv_partial_fast_q31.c **** {
  28              	 .loc 1 65 0
  29              	 .cfi_startproc
  30              	 
  31              	 
  32              	 
  33 0000 2DE9B00F 	 push {r4,r5,r7,r8,r9,r10,fp}
  34              	.LCFI0:
  35              	 .cfi_def_cfa_offset 28
  36              	 .cfi_offset 4,-28
  37              	 .cfi_offset 5,-24
  38              	 .cfi_offset 7,-20
  39              	 .cfi_offset 8,-16
  40              	 .cfi_offset 9,-12
  41              	 .cfi_offset 10,-8
  42              	 .cfi_offset 11,-4
  43 0004 A3B0     	 sub sp,sp,#140
  44              	.LCFI1:
  45              	 .cfi_def_cfa_offset 168
  46 0006 00AF     	 add r7,sp,#0
  47              	.LCFI2:
  48              	 .cfi_def_cfa_register 7
  49 0008 F863     	 str r0,[r7,#60]
  50 000a B963     	 str r1,[r7,#56]
  51 000c 7A63     	 str r2,[r7,#52]
  52 000e 3B63     	 str r3,[r7,#48]
  66:../Dave/Generated/CMSIS_DSP/Source/FilteringFunctions/arm_conv_partial_fast_q31.c ****   const q31_t *pIn1;                                   /* InputA pointer */
  67:../Dave/Generated/CMSIS_DSP/Source/FilteringFunctions/arm_conv_partial_fast_q31.c ****   const q31_t *pIn2;                                   /* InputB pointer */
  68:../Dave/Generated/CMSIS_DSP/Source/FilteringFunctions/arm_conv_partial_fast_q31.c ****         q31_t *pOut = pDst;                            /* Output pointer */
  53              	 .loc 1 68 0
  54 0010 D7F8A830 	 ldr r3,[r7,#168]
  55 0014 FB67     	 str r3,[r7,#124]
  69:../Dave/Generated/CMSIS_DSP/Source/FilteringFunctions/arm_conv_partial_fast_q31.c ****   const q31_t *px;                                     /* Intermediate inputA pointer */
  70:../Dave/Generated/CMSIS_DSP/Source/FilteringFunctions/arm_conv_partial_fast_q31.c ****   const q31_t *py;                                     /* Intermediate inputB pointer */
  71:../Dave/Generated/CMSIS_DSP/Source/FilteringFunctions/arm_conv_partial_fast_q31.c ****   const q31_t *pSrc1, *pSrc2;                          /* Intermediate pointers */
  72:../Dave/Generated/CMSIS_DSP/Source/FilteringFunctions/arm_conv_partial_fast_q31.c ****         q31_t sum;                                     /* Accumulators */
  73:../Dave/Generated/CMSIS_DSP/Source/FilteringFunctions/arm_conv_partial_fast_q31.c ****         uint32_t j, k, count, check, blkCnt;
  74:../Dave/Generated/CMSIS_DSP/Source/FilteringFunctions/arm_conv_partial_fast_q31.c ****         uint32_t blockSize1, blockSize2, blockSize3;    /* Loop counters */
  75:../Dave/Generated/CMSIS_DSP/Source/FilteringFunctions/arm_conv_partial_fast_q31.c ****         arm_status status;                             /* Status of Partial convolution */
  76:../Dave/Generated/CMSIS_DSP/Source/FilteringFunctions/arm_conv_partial_fast_q31.c **** 
  77:../Dave/Generated/CMSIS_DSP/Source/FilteringFunctions/arm_conv_partial_fast_q31.c **** #if defined (ARM_MATH_LOOPUNROLL)
  78:../Dave/Generated/CMSIS_DSP/Source/FilteringFunctions/arm_conv_partial_fast_q31.c ****         q31_t acc0, acc1, acc2, acc3;                  /* Accumulators */
  79:../Dave/Generated/CMSIS_DSP/Source/FilteringFunctions/arm_conv_partial_fast_q31.c ****         q31_t x0, x1, x2, x3, c0;
  80:../Dave/Generated/CMSIS_DSP/Source/FilteringFunctions/arm_conv_partial_fast_q31.c **** #endif
  81:../Dave/Generated/CMSIS_DSP/Source/FilteringFunctions/arm_conv_partial_fast_q31.c **** 
  82:../Dave/Generated/CMSIS_DSP/Source/FilteringFunctions/arm_conv_partial_fast_q31.c ****   /* Check for range of output samples to be calculated */
  83:../Dave/Generated/CMSIS_DSP/Source/FilteringFunctions/arm_conv_partial_fast_q31.c ****   if ((firstIndex + numPoints) > ((srcALen + (srcBLen - 1U))))
  56              	 .loc 1 83 0
  57 0016 D7F8AC20 	 ldr r2,[r7,#172]
  58 001a D7F8B030 	 ldr r3,[r7,#176]
  59 001e D118     	 adds r1,r2,r3
  60 0020 3A6B     	 ldr r2,[r7,#48]
  61 0022 BB6B     	 ldr r3,[r7,#56]
  62 0024 1344     	 add r3,r3,r2
  63 0026 013B     	 subs r3,r3,#1
  64 0028 9942     	 cmp r1,r3
  65 002a 03D9     	 bls .L2
  84:../Dave/Generated/CMSIS_DSP/Source/FilteringFunctions/arm_conv_partial_fast_q31.c ****   {
  85:../Dave/Generated/CMSIS_DSP/Source/FilteringFunctions/arm_conv_partial_fast_q31.c ****     /* Set status as ARM_MATH_ARGUMENT_ERROR */
  86:../Dave/Generated/CMSIS_DSP/Source/FilteringFunctions/arm_conv_partial_fast_q31.c ****     status = ARM_MATH_ARGUMENT_ERROR;
  66              	 .loc 1 86 0
  67 002c FF23     	 movs r3,#255
  68 002e 87F85330 	 strb r3,[r7,#83]
  69 0032 E1E1     	 b .L3
  70              	.L2:
  87:../Dave/Generated/CMSIS_DSP/Source/FilteringFunctions/arm_conv_partial_fast_q31.c ****   }
  88:../Dave/Generated/CMSIS_DSP/Source/FilteringFunctions/arm_conv_partial_fast_q31.c ****   else
  89:../Dave/Generated/CMSIS_DSP/Source/FilteringFunctions/arm_conv_partial_fast_q31.c ****   {
  90:../Dave/Generated/CMSIS_DSP/Source/FilteringFunctions/arm_conv_partial_fast_q31.c ****     /* The algorithm implementation is based on the lengths of the inputs. */
  91:../Dave/Generated/CMSIS_DSP/Source/FilteringFunctions/arm_conv_partial_fast_q31.c ****     /* srcB is always made to slide across srcA. */
  92:../Dave/Generated/CMSIS_DSP/Source/FilteringFunctions/arm_conv_partial_fast_q31.c ****     /* So srcBLen is always considered as shorter or equal to srcALen */
  93:../Dave/Generated/CMSIS_DSP/Source/FilteringFunctions/arm_conv_partial_fast_q31.c ****     if (srcALen >= srcBLen)
  71              	 .loc 1 93 0
  72 0034 BA6B     	 ldr r2,[r7,#56]
  73 0036 3B6B     	 ldr r3,[r7,#48]
  74 0038 9A42     	 cmp r2,r3
  75 003a 06D3     	 bcc .L4
  94:../Dave/Generated/CMSIS_DSP/Source/FilteringFunctions/arm_conv_partial_fast_q31.c ****     {
  95:../Dave/Generated/CMSIS_DSP/Source/FilteringFunctions/arm_conv_partial_fast_q31.c ****       /* Initialization of inputA pointer */
  96:../Dave/Generated/CMSIS_DSP/Source/FilteringFunctions/arm_conv_partial_fast_q31.c ****       pIn1 = pSrcA;
  76              	 .loc 1 96 0
  77 003c FB6B     	 ldr r3,[r7,#60]
  78 003e C7F88430 	 str r3,[r7,#132]
  97:../Dave/Generated/CMSIS_DSP/Source/FilteringFunctions/arm_conv_partial_fast_q31.c **** 
  98:../Dave/Generated/CMSIS_DSP/Source/FilteringFunctions/arm_conv_partial_fast_q31.c ****       /* Initialization of inputB pointer */
  99:../Dave/Generated/CMSIS_DSP/Source/FilteringFunctions/arm_conv_partial_fast_q31.c ****       pIn2 = pSrcB;
  79              	 .loc 1 99 0
  80 0042 7B6B     	 ldr r3,[r7,#52]
  81 0044 C7F88030 	 str r3,[r7,#128]
  82 0048 0BE0     	 b .L5
  83              	.L4:
 100:../Dave/Generated/CMSIS_DSP/Source/FilteringFunctions/arm_conv_partial_fast_q31.c ****     }
 101:../Dave/Generated/CMSIS_DSP/Source/FilteringFunctions/arm_conv_partial_fast_q31.c ****     else
 102:../Dave/Generated/CMSIS_DSP/Source/FilteringFunctions/arm_conv_partial_fast_q31.c ****     {
 103:../Dave/Generated/CMSIS_DSP/Source/FilteringFunctions/arm_conv_partial_fast_q31.c ****       /* Initialization of inputA pointer */
 104:../Dave/Generated/CMSIS_DSP/Source/FilteringFunctions/arm_conv_partial_fast_q31.c ****       pIn1 = pSrcB;
  84              	 .loc 1 104 0
  85 004a 7B6B     	 ldr r3,[r7,#52]
  86 004c C7F88430 	 str r3,[r7,#132]
 105:../Dave/Generated/CMSIS_DSP/Source/FilteringFunctions/arm_conv_partial_fast_q31.c **** 
 106:../Dave/Generated/CMSIS_DSP/Source/FilteringFunctions/arm_conv_partial_fast_q31.c ****       /* Initialization of inputB pointer */
 107:../Dave/Generated/CMSIS_DSP/Source/FilteringFunctions/arm_conv_partial_fast_q31.c ****       pIn2 = pSrcA;
  87              	 .loc 1 107 0
  88 0050 FB6B     	 ldr r3,[r7,#60]
  89 0052 C7F88030 	 str r3,[r7,#128]
 108:../Dave/Generated/CMSIS_DSP/Source/FilteringFunctions/arm_conv_partial_fast_q31.c **** 
 109:../Dave/Generated/CMSIS_DSP/Source/FilteringFunctions/arm_conv_partial_fast_q31.c ****       /* srcBLen is always considered as shorter or equal to srcALen */
 110:../Dave/Generated/CMSIS_DSP/Source/FilteringFunctions/arm_conv_partial_fast_q31.c ****       j = srcBLen;
  90              	 .loc 1 110 0
  91 0056 3B6B     	 ldr r3,[r7,#48]
  92 0058 FB64     	 str r3,[r7,#76]
 111:../Dave/Generated/CMSIS_DSP/Source/FilteringFunctions/arm_conv_partial_fast_q31.c ****       srcBLen = srcALen;
  93              	 .loc 1 111 0
  94 005a BB6B     	 ldr r3,[r7,#56]
  95 005c 3B63     	 str r3,[r7,#48]
 112:../Dave/Generated/CMSIS_DSP/Source/FilteringFunctions/arm_conv_partial_fast_q31.c ****       srcALen = j;
  96              	 .loc 1 112 0
  97 005e FB6C     	 ldr r3,[r7,#76]
  98 0060 BB63     	 str r3,[r7,#56]
  99              	.L5:
 113:../Dave/Generated/CMSIS_DSP/Source/FilteringFunctions/arm_conv_partial_fast_q31.c ****     }
 114:../Dave/Generated/CMSIS_DSP/Source/FilteringFunctions/arm_conv_partial_fast_q31.c **** 
 115:../Dave/Generated/CMSIS_DSP/Source/FilteringFunctions/arm_conv_partial_fast_q31.c ****     /* Conditions to check which loopCounter holds
 116:../Dave/Generated/CMSIS_DSP/Source/FilteringFunctions/arm_conv_partial_fast_q31.c ****      * the first and last indices of the output samples to be calculated. */
 117:../Dave/Generated/CMSIS_DSP/Source/FilteringFunctions/arm_conv_partial_fast_q31.c ****     check = firstIndex + numPoints;
 100              	 .loc 1 117 0
 101 0062 D7F8AC20 	 ldr r2,[r7,#172]
 102 0066 D7F8B030 	 ldr r3,[r7,#176]
 103 006a 1344     	 add r3,r3,r2
 104 006c BB64     	 str r3,[r7,#72]
 118:../Dave/Generated/CMSIS_DSP/Source/FilteringFunctions/arm_conv_partial_fast_q31.c ****     blockSize3 = ((int32_t)check > (int32_t)srcALen) ? (int32_t)check - (int32_t)srcALen : 0;
 105              	 .loc 1 118 0
 106 006e BA6C     	 ldr r2,[r7,#72]
 107 0070 BB6B     	 ldr r3,[r7,#56]
 108 0072 9A42     	 cmp r2,r3
 109 0074 03DD     	 ble .L6
 110              	 .loc 1 118 0 is_stmt 0 discriminator 1
 111 0076 BA6C     	 ldr r2,[r7,#72]
 112 0078 BB6B     	 ldr r3,[r7,#56]
 113 007a D31A     	 subs r3,r2,r3
 114 007c 00E0     	 b .L7
 115              	.L6:
 116              	 .loc 1 118 0 discriminator 2
 117 007e 0023     	 movs r3,#0
 118              	.L7:
 119              	 .loc 1 118 0 discriminator 4
 120 0080 7B65     	 str r3,[r7,#84]
 119:../Dave/Generated/CMSIS_DSP/Source/FilteringFunctions/arm_conv_partial_fast_q31.c ****     blockSize3 = ((int32_t)firstIndex > (int32_t)srcALen - 1) ? blockSize3 - (int32_t)firstIndex + 
 121              	 .loc 1 119 0 is_stmt 1 discriminator 4
 122 0082 D7F8AC20 	 ldr r2,[r7,#172]
 123 0086 BB6B     	 ldr r3,[r7,#56]
 124 0088 013B     	 subs r3,r3,#1
 125 008a 9A42     	 cmp r2,r3
 126 008c 06DD     	 ble .L8
 127              	 .loc 1 119 0 is_stmt 0 discriminator 1
 128 008e 7A6D     	 ldr r2,[r7,#84]
 129 0090 D7F8AC30 	 ldr r3,[r7,#172]
 130 0094 D21A     	 subs r2,r2,r3
 131 0096 BB6B     	 ldr r3,[r7,#56]
 132 0098 1344     	 add r3,r3,r2
 133 009a 00E0     	 b .L9
 134              	.L8:
 135              	 .loc 1 119 0 discriminator 2
 136 009c 7B6D     	 ldr r3,[r7,#84]
 137              	.L9:
 138              	 .loc 1 119 0 discriminator 4
 139 009e 7B65     	 str r3,[r7,#84]
 120:../Dave/Generated/CMSIS_DSP/Source/FilteringFunctions/arm_conv_partial_fast_q31.c ****     blockSize1 = ((int32_t) srcBLen - 1) - (int32_t) firstIndex;
 140              	 .loc 1 120 0 is_stmt 1 discriminator 4
 141 00a0 3A6B     	 ldr r2,[r7,#48]
 142 00a2 D7F8AC30 	 ldr r3,[r7,#172]
 143 00a6 D31A     	 subs r3,r2,r3
 144 00a8 013B     	 subs r3,r3,#1
 145 00aa BB65     	 str r3,[r7,#88]
 121:../Dave/Generated/CMSIS_DSP/Source/FilteringFunctions/arm_conv_partial_fast_q31.c ****     blockSize1 = (blockSize1 > 0) ? ((check > (srcBLen - 1U)) ? blockSize1 :  numPoints) : 0;
 146              	 .loc 1 121 0 discriminator 4
 147 00ac BB6D     	 ldr r3,[r7,#88]
 148 00ae 002B     	 cmp r3,#0
 149 00b0 09D0     	 beq .L10
 150              	 .loc 1 121 0 is_stmt 0 discriminator 1
 151 00b2 3B6B     	 ldr r3,[r7,#48]
 152 00b4 5A1E     	 subs r2,r3,#1
 153 00b6 BB6C     	 ldr r3,[r7,#72]
 154 00b8 9A42     	 cmp r2,r3
 155 00ba 01D2     	 bcs .L11
 156              	 .loc 1 121 0 discriminator 3
 157 00bc BB6D     	 ldr r3,[r7,#88]
 158 00be 03E0     	 b .L13
 159              	.L11:
 160              	 .loc 1 121 0 discriminator 4
 161 00c0 D7F8B030 	 ldr r3,[r7,#176]
 162 00c4 00E0     	 b .L13
 163              	.L10:
 164              	 .loc 1 121 0 discriminator 2
 165 00c6 0023     	 movs r3,#0
 166              	.L13:
 167              	 .loc 1 121 0 discriminator 8
 168 00c8 BB65     	 str r3,[r7,#88]
 122:../Dave/Generated/CMSIS_DSP/Source/FilteringFunctions/arm_conv_partial_fast_q31.c ****     blockSize2 = (int32_t) check - ((blockSize3 + blockSize1) + (int32_t) firstIndex);
 169              	 .loc 1 122 0 is_stmt 1 discriminator 8
 170 00ca 7A6D     	 ldr r2,[r7,#84]
 171 00cc BB6D     	 ldr r3,[r7,#88]
 172 00ce 1A44     	 add r2,r2,r3
 173 00d0 D7F8AC30 	 ldr r3,[r7,#172]
 174 00d4 1A44     	 add r2,r2,r3
 175 00d6 BB6C     	 ldr r3,[r7,#72]
 176 00d8 9B1A     	 subs r3,r3,r2
 177 00da 7B64     	 str r3,[r7,#68]
 123:../Dave/Generated/CMSIS_DSP/Source/FilteringFunctions/arm_conv_partial_fast_q31.c ****     blockSize2 = (blockSize2 > 0) ? blockSize2 : 0;
 124:../Dave/Generated/CMSIS_DSP/Source/FilteringFunctions/arm_conv_partial_fast_q31.c **** 
 125:../Dave/Generated/CMSIS_DSP/Source/FilteringFunctions/arm_conv_partial_fast_q31.c ****     /* conv(x,y) at n = x[n] * y[0] + x[n-1] * y[1] + x[n-2] * y[2] + ...+ x[n-N+1] * y[N -1] */
 126:../Dave/Generated/CMSIS_DSP/Source/FilteringFunctions/arm_conv_partial_fast_q31.c ****     /* The function is internally
 127:../Dave/Generated/CMSIS_DSP/Source/FilteringFunctions/arm_conv_partial_fast_q31.c ****      * divided into three stages according to the number of multiplications that has to be
 128:../Dave/Generated/CMSIS_DSP/Source/FilteringFunctions/arm_conv_partial_fast_q31.c ****      * taken place between inputA samples and inputB samples. In the first stage of the
 129:../Dave/Generated/CMSIS_DSP/Source/FilteringFunctions/arm_conv_partial_fast_q31.c ****      * algorithm, the multiplications increase by one for every iteration.
 130:../Dave/Generated/CMSIS_DSP/Source/FilteringFunctions/arm_conv_partial_fast_q31.c ****      * In the second stage of the algorithm, srcBLen number of multiplications are done.
 131:../Dave/Generated/CMSIS_DSP/Source/FilteringFunctions/arm_conv_partial_fast_q31.c ****      * In the third stage of the algorithm, the multiplications decrease by one
 132:../Dave/Generated/CMSIS_DSP/Source/FilteringFunctions/arm_conv_partial_fast_q31.c ****      * for every iteration. */
 133:../Dave/Generated/CMSIS_DSP/Source/FilteringFunctions/arm_conv_partial_fast_q31.c **** 
 134:../Dave/Generated/CMSIS_DSP/Source/FilteringFunctions/arm_conv_partial_fast_q31.c ****     /* Set the output pointer to point to the firstIndex
 135:../Dave/Generated/CMSIS_DSP/Source/FilteringFunctions/arm_conv_partial_fast_q31.c ****      * of the output sample to be calculated. */
 136:../Dave/Generated/CMSIS_DSP/Source/FilteringFunctions/arm_conv_partial_fast_q31.c ****     pOut = pDst + firstIndex;
 178              	 .loc 1 136 0 discriminator 8
 179 00dc D7F8AC30 	 ldr r3,[r7,#172]
 180 00e0 9A00     	 lsls r2,r3,#2
 181 00e2 D7F8A830 	 ldr r3,[r7,#168]
 182 00e6 1344     	 add r3,r3,r2
 183 00e8 FB67     	 str r3,[r7,#124]
 137:../Dave/Generated/CMSIS_DSP/Source/FilteringFunctions/arm_conv_partial_fast_q31.c **** 
 138:../Dave/Generated/CMSIS_DSP/Source/FilteringFunctions/arm_conv_partial_fast_q31.c ****     /* --------------------------
 139:../Dave/Generated/CMSIS_DSP/Source/FilteringFunctions/arm_conv_partial_fast_q31.c ****      * Initializations of stage1
 140:../Dave/Generated/CMSIS_DSP/Source/FilteringFunctions/arm_conv_partial_fast_q31.c ****      * -------------------------*/
 141:../Dave/Generated/CMSIS_DSP/Source/FilteringFunctions/arm_conv_partial_fast_q31.c **** 
 142:../Dave/Generated/CMSIS_DSP/Source/FilteringFunctions/arm_conv_partial_fast_q31.c ****     /* sum = x[0] * y[0]
 143:../Dave/Generated/CMSIS_DSP/Source/FilteringFunctions/arm_conv_partial_fast_q31.c ****      * sum = x[0] * y[1] + x[1] * y[0]
 144:../Dave/Generated/CMSIS_DSP/Source/FilteringFunctions/arm_conv_partial_fast_q31.c ****      * ....
 145:../Dave/Generated/CMSIS_DSP/Source/FilteringFunctions/arm_conv_partial_fast_q31.c ****      * sum = x[0] * y[srcBlen - 1] + x[1] * y[srcBlen - 2] +...+ x[srcBLen - 1] * y[0]
 146:../Dave/Generated/CMSIS_DSP/Source/FilteringFunctions/arm_conv_partial_fast_q31.c ****      */
 147:../Dave/Generated/CMSIS_DSP/Source/FilteringFunctions/arm_conv_partial_fast_q31.c **** 
 148:../Dave/Generated/CMSIS_DSP/Source/FilteringFunctions/arm_conv_partial_fast_q31.c ****     /* In this stage the MAC operations are increased by 1 for every iteration.
 149:../Dave/Generated/CMSIS_DSP/Source/FilteringFunctions/arm_conv_partial_fast_q31.c ****        The count variable holds the number of MAC operations performed.
 150:../Dave/Generated/CMSIS_DSP/Source/FilteringFunctions/arm_conv_partial_fast_q31.c ****        Since the partial convolution starts from firstIndex
 151:../Dave/Generated/CMSIS_DSP/Source/FilteringFunctions/arm_conv_partial_fast_q31.c ****        Number of Macs to be performed is firstIndex + 1 */
 152:../Dave/Generated/CMSIS_DSP/Source/FilteringFunctions/arm_conv_partial_fast_q31.c ****     count = 1U + firstIndex;
 184              	 .loc 1 152 0 discriminator 8
 185 00ea D7F8AC30 	 ldr r3,[r7,#172]
 186 00ee 0133     	 adds r3,r3,#1
 187 00f0 3B66     	 str r3,[r7,#96]
 153:../Dave/Generated/CMSIS_DSP/Source/FilteringFunctions/arm_conv_partial_fast_q31.c **** 
 154:../Dave/Generated/CMSIS_DSP/Source/FilteringFunctions/arm_conv_partial_fast_q31.c ****     /* Working pointer of inputA */
 155:../Dave/Generated/CMSIS_DSP/Source/FilteringFunctions/arm_conv_partial_fast_q31.c ****     px = pIn1;
 188              	 .loc 1 155 0 discriminator 8
 189 00f2 D7F88430 	 ldr r3,[r7,#132]
 190 00f6 BB67     	 str r3,[r7,#120]
 156:../Dave/Generated/CMSIS_DSP/Source/FilteringFunctions/arm_conv_partial_fast_q31.c **** 
 157:../Dave/Generated/CMSIS_DSP/Source/FilteringFunctions/arm_conv_partial_fast_q31.c ****     /* Working pointer of inputB */
 158:../Dave/Generated/CMSIS_DSP/Source/FilteringFunctions/arm_conv_partial_fast_q31.c ****     pSrc2 = pIn2 + firstIndex;
 191              	 .loc 1 158 0 discriminator 8
 192 00f8 D7F8AC30 	 ldr r3,[r7,#172]
 193 00fc 9A00     	 lsls r2,r3,#2
 194 00fe D7F88030 	 ldr r3,[r7,#128]
 195 0102 1344     	 add r3,r3,r2
 196 0104 FB66     	 str r3,[r7,#108]
 159:../Dave/Generated/CMSIS_DSP/Source/FilteringFunctions/arm_conv_partial_fast_q31.c ****     py = pSrc2;
 197              	 .loc 1 159 0 discriminator 8
 198 0106 FB6E     	 ldr r3,[r7,#108]
 199 0108 7B67     	 str r3,[r7,#116]
 160:../Dave/Generated/CMSIS_DSP/Source/FilteringFunctions/arm_conv_partial_fast_q31.c **** 
 161:../Dave/Generated/CMSIS_DSP/Source/FilteringFunctions/arm_conv_partial_fast_q31.c ****     /* ------------------------
 162:../Dave/Generated/CMSIS_DSP/Source/FilteringFunctions/arm_conv_partial_fast_q31.c ****      * Stage1 process
 163:../Dave/Generated/CMSIS_DSP/Source/FilteringFunctions/arm_conv_partial_fast_q31.c ****      * ----------------------*/
 164:../Dave/Generated/CMSIS_DSP/Source/FilteringFunctions/arm_conv_partial_fast_q31.c **** 
 165:../Dave/Generated/CMSIS_DSP/Source/FilteringFunctions/arm_conv_partial_fast_q31.c ****     /* The first stage starts here */
 166:../Dave/Generated/CMSIS_DSP/Source/FilteringFunctions/arm_conv_partial_fast_q31.c ****     while (blockSize1 > 0U)
 200              	 .loc 1 166 0 discriminator 8
 201 010a 48E0     	 b .L14
 202              	.L17:
 167:../Dave/Generated/CMSIS_DSP/Source/FilteringFunctions/arm_conv_partial_fast_q31.c ****     {
 168:../Dave/Generated/CMSIS_DSP/Source/FilteringFunctions/arm_conv_partial_fast_q31.c ****       /* Accumulator is made zero for every iteration */
 169:../Dave/Generated/CMSIS_DSP/Source/FilteringFunctions/arm_conv_partial_fast_q31.c ****       sum = 0;
 203              	 .loc 1 169 0
 204 010c 0023     	 movs r3,#0
 205 010e BB66     	 str r3,[r7,#104]
 170:../Dave/Generated/CMSIS_DSP/Source/FilteringFunctions/arm_conv_partial_fast_q31.c **** 
 171:../Dave/Generated/CMSIS_DSP/Source/FilteringFunctions/arm_conv_partial_fast_q31.c **** #if defined (ARM_MATH_LOOPUNROLL)
 172:../Dave/Generated/CMSIS_DSP/Source/FilteringFunctions/arm_conv_partial_fast_q31.c **** 
 173:../Dave/Generated/CMSIS_DSP/Source/FilteringFunctions/arm_conv_partial_fast_q31.c ****       /* Loop unrolling: Compute 4 outputs at a time */
 174:../Dave/Generated/CMSIS_DSP/Source/FilteringFunctions/arm_conv_partial_fast_q31.c ****       k = count >> 2U;
 175:../Dave/Generated/CMSIS_DSP/Source/FilteringFunctions/arm_conv_partial_fast_q31.c **** 
 176:../Dave/Generated/CMSIS_DSP/Source/FilteringFunctions/arm_conv_partial_fast_q31.c ****       while (k > 0U)
 177:../Dave/Generated/CMSIS_DSP/Source/FilteringFunctions/arm_conv_partial_fast_q31.c ****       {
 178:../Dave/Generated/CMSIS_DSP/Source/FilteringFunctions/arm_conv_partial_fast_q31.c ****         /* x[0] * y[srcBLen - 1] */
 179:../Dave/Generated/CMSIS_DSP/Source/FilteringFunctions/arm_conv_partial_fast_q31.c ****         sum = (q31_t) ((((q63_t) sum << 32) +
 180:../Dave/Generated/CMSIS_DSP/Source/FilteringFunctions/arm_conv_partial_fast_q31.c ****                         ((q63_t) *px++ * (*py--))) >> 32);
 181:../Dave/Generated/CMSIS_DSP/Source/FilteringFunctions/arm_conv_partial_fast_q31.c **** 
 182:../Dave/Generated/CMSIS_DSP/Source/FilteringFunctions/arm_conv_partial_fast_q31.c ****         /* x[1] * y[srcBLen - 2] */
 183:../Dave/Generated/CMSIS_DSP/Source/FilteringFunctions/arm_conv_partial_fast_q31.c ****         sum = (q31_t) ((((q63_t) sum << 32) +
 184:../Dave/Generated/CMSIS_DSP/Source/FilteringFunctions/arm_conv_partial_fast_q31.c ****                         ((q63_t) *px++ * (*py--))) >> 32);
 185:../Dave/Generated/CMSIS_DSP/Source/FilteringFunctions/arm_conv_partial_fast_q31.c **** 
 186:../Dave/Generated/CMSIS_DSP/Source/FilteringFunctions/arm_conv_partial_fast_q31.c ****         /* x[2] * y[srcBLen - 3] */
 187:../Dave/Generated/CMSIS_DSP/Source/FilteringFunctions/arm_conv_partial_fast_q31.c ****         sum = (q31_t) ((((q63_t) sum << 32) +
 188:../Dave/Generated/CMSIS_DSP/Source/FilteringFunctions/arm_conv_partial_fast_q31.c ****                         ((q63_t) *px++ * (*py--))) >> 32);
 189:../Dave/Generated/CMSIS_DSP/Source/FilteringFunctions/arm_conv_partial_fast_q31.c **** 
 190:../Dave/Generated/CMSIS_DSP/Source/FilteringFunctions/arm_conv_partial_fast_q31.c ****         /* x[3] * y[srcBLen - 4] */
 191:../Dave/Generated/CMSIS_DSP/Source/FilteringFunctions/arm_conv_partial_fast_q31.c ****         sum = (q31_t) ((((q63_t) sum << 32) +
 192:../Dave/Generated/CMSIS_DSP/Source/FilteringFunctions/arm_conv_partial_fast_q31.c ****                         ((q63_t) *px++ * (*py--))) >> 32);
 193:../Dave/Generated/CMSIS_DSP/Source/FilteringFunctions/arm_conv_partial_fast_q31.c **** 
 194:../Dave/Generated/CMSIS_DSP/Source/FilteringFunctions/arm_conv_partial_fast_q31.c ****         /* Decrement loop counter */
 195:../Dave/Generated/CMSIS_DSP/Source/FilteringFunctions/arm_conv_partial_fast_q31.c ****         k--;
 196:../Dave/Generated/CMSIS_DSP/Source/FilteringFunctions/arm_conv_partial_fast_q31.c ****       }
 197:../Dave/Generated/CMSIS_DSP/Source/FilteringFunctions/arm_conv_partial_fast_q31.c **** 
 198:../Dave/Generated/CMSIS_DSP/Source/FilteringFunctions/arm_conv_partial_fast_q31.c ****       /* Loop unrolling: Compute remaining outputs */
 199:../Dave/Generated/CMSIS_DSP/Source/FilteringFunctions/arm_conv_partial_fast_q31.c ****       k = count % 0x4U;
 200:../Dave/Generated/CMSIS_DSP/Source/FilteringFunctions/arm_conv_partial_fast_q31.c **** 
 201:../Dave/Generated/CMSIS_DSP/Source/FilteringFunctions/arm_conv_partial_fast_q31.c **** #else
 202:../Dave/Generated/CMSIS_DSP/Source/FilteringFunctions/arm_conv_partial_fast_q31.c **** 
 203:../Dave/Generated/CMSIS_DSP/Source/FilteringFunctions/arm_conv_partial_fast_q31.c ****       /* Initialize k with number of samples */
 204:../Dave/Generated/CMSIS_DSP/Source/FilteringFunctions/arm_conv_partial_fast_q31.c ****       k = count;
 206              	 .loc 1 204 0
 207 0110 3B6E     	 ldr r3,[r7,#96]
 208 0112 7B66     	 str r3,[r7,#100]
 205:../Dave/Generated/CMSIS_DSP/Source/FilteringFunctions/arm_conv_partial_fast_q31.c **** 
 206:../Dave/Generated/CMSIS_DSP/Source/FilteringFunctions/arm_conv_partial_fast_q31.c **** #endif /* #if defined (ARM_MATH_LOOPUNROLL) */
 207:../Dave/Generated/CMSIS_DSP/Source/FilteringFunctions/arm_conv_partial_fast_q31.c **** 
 208:../Dave/Generated/CMSIS_DSP/Source/FilteringFunctions/arm_conv_partial_fast_q31.c ****       while (k > 0U)
 209              	 .loc 1 208 0
 210 0114 2CE0     	 b .L15
 211              	.L16:
 209:../Dave/Generated/CMSIS_DSP/Source/FilteringFunctions/arm_conv_partial_fast_q31.c ****       {
 210:../Dave/Generated/CMSIS_DSP/Source/FilteringFunctions/arm_conv_partial_fast_q31.c ****         /* Perform the multiply-accumulate */
 211:../Dave/Generated/CMSIS_DSP/Source/FilteringFunctions/arm_conv_partial_fast_q31.c ****         sum = (q31_t) ((((q63_t) sum << 32) +
 212              	 .loc 1 211 0
 213 0116 BB6E     	 ldr r3,[r7,#104]
 214 0118 1A46     	 mov r2,r3
 215 011a 4FEAE273 	 asr r3,r2,#31
 216 011e 1300     	 movs r3,r2
 217 0120 FB62     	 str r3,[r7,#44]
 218 0122 0023     	 movs r3,#0
 219 0124 BB62     	 str r3,[r7,#40]
 212:../Dave/Generated/CMSIS_DSP/Source/FilteringFunctions/arm_conv_partial_fast_q31.c ****                         ((q63_t) *px++ * (*py--))) >> 32);
 220              	 .loc 1 212 0
 221 0126 BA6F     	 ldr r2,[r7,#120]
 222 0128 131D     	 adds r3,r2,#4
 223 012a BB67     	 str r3,[r7,#120]
 224 012c 1368     	 ldr r3,[r2]
 225 012e 1C46     	 mov r4,r3
 226 0130 4FEAE475 	 asr r5,r4,#31
 227 0134 7A6F     	 ldr r2,[r7,#116]
 228 0136 131F     	 subs r3,r2,#4
 229 0138 7B67     	 str r3,[r7,#116]
 230 013a 1368     	 ldr r3,[r2]
 231 013c 1A46     	 mov r2,r3
 232 013e 4FEAE273 	 asr r3,r2,#31
 233 0142 02FB05F0 	 mul r0,r2,r5
 234 0146 04FB03F1 	 mul r1,r4,r3
 235 014a 0144     	 add r1,r1,r0
 236 014c A4FB0245 	 umull r4,r5,r4,r2
 237 0150 4B19     	 adds r3,r1,r5
 238 0152 1D46     	 mov r5,r3
 211:../Dave/Generated/CMSIS_DSP/Source/FilteringFunctions/arm_conv_partial_fast_q31.c ****                         ((q63_t) *px++ * (*py--))) >> 32);
 239              	 .loc 1 211 0
 240 0154 D7E90A23 	 ldrd r2,[r7,#40]
 241 0158 1219     	 adds r2,r2,r4
 242 015a 43EB0503 	 adc r3,r3,r5
 243              	 .loc 1 212 0
 244 015e 1900     	 movs r1,r3
 245 0160 3962     	 str r1,[r7,#32]
 246 0162 DB17     	 asrs r3,r3,#31
 247 0164 7B62     	 str r3,[r7,#36]
 211:../Dave/Generated/CMSIS_DSP/Source/FilteringFunctions/arm_conv_partial_fast_q31.c ****                         ((q63_t) *px++ * (*py--))) >> 32);
 248              	 .loc 1 211 0
 249 0166 3B6A     	 ldr r3,[r7,#32]
 250 0168 BB66     	 str r3,[r7,#104]
 213:../Dave/Generated/CMSIS_DSP/Source/FilteringFunctions/arm_conv_partial_fast_q31.c **** 
 214:../Dave/Generated/CMSIS_DSP/Source/FilteringFunctions/arm_conv_partial_fast_q31.c ****         /* Decrement loop counter */
 215:../Dave/Generated/CMSIS_DSP/Source/FilteringFunctions/arm_conv_partial_fast_q31.c ****         k--;
 251              	 .loc 1 215 0
 252 016a 7B6E     	 ldr r3,[r7,#100]
 253 016c 013B     	 subs r3,r3,#1
 254 016e 7B66     	 str r3,[r7,#100]
 255              	.L15:
 208:../Dave/Generated/CMSIS_DSP/Source/FilteringFunctions/arm_conv_partial_fast_q31.c ****       {
 256              	 .loc 1 208 0
 257 0170 7B6E     	 ldr r3,[r7,#100]
 258 0172 002B     	 cmp r3,#0
 259 0174 CFD1     	 bne .L16
 216:../Dave/Generated/CMSIS_DSP/Source/FilteringFunctions/arm_conv_partial_fast_q31.c ****       }
 217:../Dave/Generated/CMSIS_DSP/Source/FilteringFunctions/arm_conv_partial_fast_q31.c **** 
 218:../Dave/Generated/CMSIS_DSP/Source/FilteringFunctions/arm_conv_partial_fast_q31.c ****       /* Store the result in the accumulator in the destination buffer. */
 219:../Dave/Generated/CMSIS_DSP/Source/FilteringFunctions/arm_conv_partial_fast_q31.c ****       *pOut++ = sum << 1;
 260              	 .loc 1 219 0
 261 0176 FA6F     	 ldr r2,[r7,#124]
 262 0178 131D     	 adds r3,r2,#4
 263 017a FB67     	 str r3,[r7,#124]
 264 017c BB6E     	 ldr r3,[r7,#104]
 265 017e 5B00     	 lsls r3,r3,#1
 266 0180 1360     	 str r3,[r2]
 220:../Dave/Generated/CMSIS_DSP/Source/FilteringFunctions/arm_conv_partial_fast_q31.c **** 
 221:../Dave/Generated/CMSIS_DSP/Source/FilteringFunctions/arm_conv_partial_fast_q31.c ****       /* Update the inputA and inputB pointers for next MAC calculation */
 222:../Dave/Generated/CMSIS_DSP/Source/FilteringFunctions/arm_conv_partial_fast_q31.c ****       py = ++pSrc2;
 267              	 .loc 1 222 0
 268 0182 FB6E     	 ldr r3,[r7,#108]
 269 0184 0433     	 adds r3,r3,#4
 270 0186 FB66     	 str r3,[r7,#108]
 271 0188 FB6E     	 ldr r3,[r7,#108]
 272 018a 7B67     	 str r3,[r7,#116]
 223:../Dave/Generated/CMSIS_DSP/Source/FilteringFunctions/arm_conv_partial_fast_q31.c ****       px = pIn1;
 273              	 .loc 1 223 0
 274 018c D7F88430 	 ldr r3,[r7,#132]
 275 0190 BB67     	 str r3,[r7,#120]
 224:../Dave/Generated/CMSIS_DSP/Source/FilteringFunctions/arm_conv_partial_fast_q31.c **** 
 225:../Dave/Generated/CMSIS_DSP/Source/FilteringFunctions/arm_conv_partial_fast_q31.c ****       /* Increment MAC count */
 226:../Dave/Generated/CMSIS_DSP/Source/FilteringFunctions/arm_conv_partial_fast_q31.c ****       count++;
 276              	 .loc 1 226 0
 277 0192 3B6E     	 ldr r3,[r7,#96]
 278 0194 0133     	 adds r3,r3,#1
 279 0196 3B66     	 str r3,[r7,#96]
 227:../Dave/Generated/CMSIS_DSP/Source/FilteringFunctions/arm_conv_partial_fast_q31.c **** 
 228:../Dave/Generated/CMSIS_DSP/Source/FilteringFunctions/arm_conv_partial_fast_q31.c ****       /* Decrement loop counter */
 229:../Dave/Generated/CMSIS_DSP/Source/FilteringFunctions/arm_conv_partial_fast_q31.c ****       blockSize1--;
 280              	 .loc 1 229 0
 281 0198 BB6D     	 ldr r3,[r7,#88]
 282 019a 013B     	 subs r3,r3,#1
 283 019c BB65     	 str r3,[r7,#88]
 284              	.L14:
 166:../Dave/Generated/CMSIS_DSP/Source/FilteringFunctions/arm_conv_partial_fast_q31.c ****     {
 285              	 .loc 1 166 0
 286 019e BB6D     	 ldr r3,[r7,#88]
 287 01a0 002B     	 cmp r3,#0
 288 01a2 B3D1     	 bne .L17
 230:../Dave/Generated/CMSIS_DSP/Source/FilteringFunctions/arm_conv_partial_fast_q31.c ****     }
 231:../Dave/Generated/CMSIS_DSP/Source/FilteringFunctions/arm_conv_partial_fast_q31.c **** 
 232:../Dave/Generated/CMSIS_DSP/Source/FilteringFunctions/arm_conv_partial_fast_q31.c ****     /* --------------------------
 233:../Dave/Generated/CMSIS_DSP/Source/FilteringFunctions/arm_conv_partial_fast_q31.c ****      * Initializations of stage2
 234:../Dave/Generated/CMSIS_DSP/Source/FilteringFunctions/arm_conv_partial_fast_q31.c ****      * ------------------------*/
 235:../Dave/Generated/CMSIS_DSP/Source/FilteringFunctions/arm_conv_partial_fast_q31.c **** 
 236:../Dave/Generated/CMSIS_DSP/Source/FilteringFunctions/arm_conv_partial_fast_q31.c ****     /* sum = x[0] * y[srcBLen-1] + x[1] * y[srcBLen-2] +...+ x[srcBLen-1] * y[0]
 237:../Dave/Generated/CMSIS_DSP/Source/FilteringFunctions/arm_conv_partial_fast_q31.c ****      * sum = x[1] * y[srcBLen-1] + x[2] * y[srcBLen-2] +...+ x[srcBLen] * y[0]
 238:../Dave/Generated/CMSIS_DSP/Source/FilteringFunctions/arm_conv_partial_fast_q31.c ****      * ....
 239:../Dave/Generated/CMSIS_DSP/Source/FilteringFunctions/arm_conv_partial_fast_q31.c ****      * sum = x[srcALen-srcBLen-2] * y[srcBLen-1] + x[srcALen] * y[srcBLen-2] +...+ x[srcALen-1] * y
 240:../Dave/Generated/CMSIS_DSP/Source/FilteringFunctions/arm_conv_partial_fast_q31.c ****      */
 241:../Dave/Generated/CMSIS_DSP/Source/FilteringFunctions/arm_conv_partial_fast_q31.c **** 
 242:../Dave/Generated/CMSIS_DSP/Source/FilteringFunctions/arm_conv_partial_fast_q31.c ****     /* Working pointer of inputA */
 243:../Dave/Generated/CMSIS_DSP/Source/FilteringFunctions/arm_conv_partial_fast_q31.c ****     if ((int32_t)firstIndex - (int32_t)srcBLen + 1 > 0)
 289              	 .loc 1 243 0
 290 01a4 D7F8AC20 	 ldr r2,[r7,#172]
 291 01a8 3B6B     	 ldr r3,[r7,#48]
 292 01aa D31A     	 subs r3,r2,r3
 293 01ac 0133     	 adds r3,r3,#1
 294 01ae 002B     	 cmp r3,#0
 295 01b0 0ADD     	 ble .L18
 244:../Dave/Generated/CMSIS_DSP/Source/FilteringFunctions/arm_conv_partial_fast_q31.c ****     {
 245:../Dave/Generated/CMSIS_DSP/Source/FilteringFunctions/arm_conv_partial_fast_q31.c ****       pSrc1 = pIn1 + firstIndex - srcBLen + 1;
 296              	 .loc 1 245 0
 297 01b2 D7F8AC20 	 ldr r2,[r7,#172]
 298 01b6 3B6B     	 ldr r3,[r7,#48]
 299 01b8 D31A     	 subs r3,r2,r3
 300 01ba 0133     	 adds r3,r3,#1
 301 01bc 9B00     	 lsls r3,r3,#2
 302 01be D7F88420 	 ldr r2,[r7,#132]
 303 01c2 1344     	 add r3,r3,r2
 304 01c4 3B67     	 str r3,[r7,#112]
 305 01c6 02E0     	 b .L19
 306              	.L18:
 246:../Dave/Generated/CMSIS_DSP/Source/FilteringFunctions/arm_conv_partial_fast_q31.c ****     }
 247:../Dave/Generated/CMSIS_DSP/Source/FilteringFunctions/arm_conv_partial_fast_q31.c ****     else
 248:../Dave/Generated/CMSIS_DSP/Source/FilteringFunctions/arm_conv_partial_fast_q31.c ****     {
 249:../Dave/Generated/CMSIS_DSP/Source/FilteringFunctions/arm_conv_partial_fast_q31.c ****       pSrc1 = pIn1;
 307              	 .loc 1 249 0
 308 01c8 D7F88430 	 ldr r3,[r7,#132]
 309 01cc 3B67     	 str r3,[r7,#112]
 310              	.L19:
 250:../Dave/Generated/CMSIS_DSP/Source/FilteringFunctions/arm_conv_partial_fast_q31.c ****     }
 251:../Dave/Generated/CMSIS_DSP/Source/FilteringFunctions/arm_conv_partial_fast_q31.c ****     px = pSrc1;
 311              	 .loc 1 251 0
 312 01ce 3B6F     	 ldr r3,[r7,#112]
 313 01d0 BB67     	 str r3,[r7,#120]
 252:../Dave/Generated/CMSIS_DSP/Source/FilteringFunctions/arm_conv_partial_fast_q31.c **** 
 253:../Dave/Generated/CMSIS_DSP/Source/FilteringFunctions/arm_conv_partial_fast_q31.c ****     /* Working pointer of inputB */
 254:../Dave/Generated/CMSIS_DSP/Source/FilteringFunctions/arm_conv_partial_fast_q31.c ****     pSrc2 = pIn2 + (srcBLen - 1U);
 314              	 .loc 1 254 0
 315 01d2 3B6B     	 ldr r3,[r7,#48]
 316 01d4 03F18043 	 add r3,r3,#1073741824
 317 01d8 013B     	 subs r3,r3,#1
 318 01da 9B00     	 lsls r3,r3,#2
 319 01dc D7F88020 	 ldr r2,[r7,#128]
 320 01e0 1344     	 add r3,r3,r2
 321 01e2 FB66     	 str r3,[r7,#108]
 255:../Dave/Generated/CMSIS_DSP/Source/FilteringFunctions/arm_conv_partial_fast_q31.c ****     py = pSrc2;
 322              	 .loc 1 255 0
 323 01e4 FB6E     	 ldr r3,[r7,#108]
 324 01e6 7B67     	 str r3,[r7,#116]
 256:../Dave/Generated/CMSIS_DSP/Source/FilteringFunctions/arm_conv_partial_fast_q31.c **** 
 257:../Dave/Generated/CMSIS_DSP/Source/FilteringFunctions/arm_conv_partial_fast_q31.c ****     /* count is index by which the pointer pIn1 to be incremented */
 258:../Dave/Generated/CMSIS_DSP/Source/FilteringFunctions/arm_conv_partial_fast_q31.c ****     count = 0U;
 325              	 .loc 1 258 0
 326 01e8 0023     	 movs r3,#0
 327 01ea 3B66     	 str r3,[r7,#96]
 259:../Dave/Generated/CMSIS_DSP/Source/FilteringFunctions/arm_conv_partial_fast_q31.c **** 
 260:../Dave/Generated/CMSIS_DSP/Source/FilteringFunctions/arm_conv_partial_fast_q31.c ****     /* -------------------
 261:../Dave/Generated/CMSIS_DSP/Source/FilteringFunctions/arm_conv_partial_fast_q31.c ****      * Stage2 process
 262:../Dave/Generated/CMSIS_DSP/Source/FilteringFunctions/arm_conv_partial_fast_q31.c ****      * ------------------*/
 263:../Dave/Generated/CMSIS_DSP/Source/FilteringFunctions/arm_conv_partial_fast_q31.c **** 
 264:../Dave/Generated/CMSIS_DSP/Source/FilteringFunctions/arm_conv_partial_fast_q31.c ****     /* Stage2 depends on srcBLen as in this stage srcBLen number of MACS are performed.
 265:../Dave/Generated/CMSIS_DSP/Source/FilteringFunctions/arm_conv_partial_fast_q31.c ****      * So, to loop unroll over blockSize2,
 266:../Dave/Generated/CMSIS_DSP/Source/FilteringFunctions/arm_conv_partial_fast_q31.c ****      * srcBLen should be greater than or equal to 4 */
 267:../Dave/Generated/CMSIS_DSP/Source/FilteringFunctions/arm_conv_partial_fast_q31.c ****     if (srcBLen >= 4U)
 328              	 .loc 1 267 0
 329 01ec 3B6B     	 ldr r3,[r7,#48]
 330 01ee 032B     	 cmp r3,#3
 331 01f0 50D9     	 bls .L20
 268:../Dave/Generated/CMSIS_DSP/Source/FilteringFunctions/arm_conv_partial_fast_q31.c ****     {
 269:../Dave/Generated/CMSIS_DSP/Source/FilteringFunctions/arm_conv_partial_fast_q31.c **** #if defined (ARM_MATH_LOOPUNROLL)
 270:../Dave/Generated/CMSIS_DSP/Source/FilteringFunctions/arm_conv_partial_fast_q31.c **** 
 271:../Dave/Generated/CMSIS_DSP/Source/FilteringFunctions/arm_conv_partial_fast_q31.c ****     /* Loop unrolling: Compute 4 outputs at a time */
 272:../Dave/Generated/CMSIS_DSP/Source/FilteringFunctions/arm_conv_partial_fast_q31.c ****       blkCnt = ((uint32_t) blockSize2 >> 2U);
 273:../Dave/Generated/CMSIS_DSP/Source/FilteringFunctions/arm_conv_partial_fast_q31.c **** 
 274:../Dave/Generated/CMSIS_DSP/Source/FilteringFunctions/arm_conv_partial_fast_q31.c ****       while (blkCnt > 0U)
 275:../Dave/Generated/CMSIS_DSP/Source/FilteringFunctions/arm_conv_partial_fast_q31.c ****       {
 276:../Dave/Generated/CMSIS_DSP/Source/FilteringFunctions/arm_conv_partial_fast_q31.c ****         /* Set all accumulators to zero */
 277:../Dave/Generated/CMSIS_DSP/Source/FilteringFunctions/arm_conv_partial_fast_q31.c ****         acc0 = 0;
 278:../Dave/Generated/CMSIS_DSP/Source/FilteringFunctions/arm_conv_partial_fast_q31.c ****         acc1 = 0;
 279:../Dave/Generated/CMSIS_DSP/Source/FilteringFunctions/arm_conv_partial_fast_q31.c ****         acc2 = 0;
 280:../Dave/Generated/CMSIS_DSP/Source/FilteringFunctions/arm_conv_partial_fast_q31.c ****         acc3 = 0;
 281:../Dave/Generated/CMSIS_DSP/Source/FilteringFunctions/arm_conv_partial_fast_q31.c **** 
 282:../Dave/Generated/CMSIS_DSP/Source/FilteringFunctions/arm_conv_partial_fast_q31.c ****         /* read x[0], x[1], x[2] samples */
 283:../Dave/Generated/CMSIS_DSP/Source/FilteringFunctions/arm_conv_partial_fast_q31.c ****         x0 = *px++;
 284:../Dave/Generated/CMSIS_DSP/Source/FilteringFunctions/arm_conv_partial_fast_q31.c ****         x1 = *px++;
 285:../Dave/Generated/CMSIS_DSP/Source/FilteringFunctions/arm_conv_partial_fast_q31.c ****         x2 = *px++;
 286:../Dave/Generated/CMSIS_DSP/Source/FilteringFunctions/arm_conv_partial_fast_q31.c **** 
 287:../Dave/Generated/CMSIS_DSP/Source/FilteringFunctions/arm_conv_partial_fast_q31.c ****         /* Apply loop unrolling and compute 4 MACs simultaneously. */
 288:../Dave/Generated/CMSIS_DSP/Source/FilteringFunctions/arm_conv_partial_fast_q31.c ****         k = srcBLen >> 2U;
 289:../Dave/Generated/CMSIS_DSP/Source/FilteringFunctions/arm_conv_partial_fast_q31.c **** 
 290:../Dave/Generated/CMSIS_DSP/Source/FilteringFunctions/arm_conv_partial_fast_q31.c ****         /* First part of the processing with loop unrolling.  Compute 4 MACs at a time.
 291:../Dave/Generated/CMSIS_DSP/Source/FilteringFunctions/arm_conv_partial_fast_q31.c ****          ** a second loop below computes MACs for the remaining 1 to 3 samples. */
 292:../Dave/Generated/CMSIS_DSP/Source/FilteringFunctions/arm_conv_partial_fast_q31.c ****         do
 293:../Dave/Generated/CMSIS_DSP/Source/FilteringFunctions/arm_conv_partial_fast_q31.c ****         {
 294:../Dave/Generated/CMSIS_DSP/Source/FilteringFunctions/arm_conv_partial_fast_q31.c ****           /* Read y[srcBLen - 1] sample */
 295:../Dave/Generated/CMSIS_DSP/Source/FilteringFunctions/arm_conv_partial_fast_q31.c ****           c0 = *py--;
 296:../Dave/Generated/CMSIS_DSP/Source/FilteringFunctions/arm_conv_partial_fast_q31.c ****           /* Read x[3] sample */
 297:../Dave/Generated/CMSIS_DSP/Source/FilteringFunctions/arm_conv_partial_fast_q31.c ****           x3 = *px++;
 298:../Dave/Generated/CMSIS_DSP/Source/FilteringFunctions/arm_conv_partial_fast_q31.c **** 
 299:../Dave/Generated/CMSIS_DSP/Source/FilteringFunctions/arm_conv_partial_fast_q31.c ****           /* Perform the multiply-accumulate */
 300:../Dave/Generated/CMSIS_DSP/Source/FilteringFunctions/arm_conv_partial_fast_q31.c ****           /* acc0 +=  x[0] * y[srcBLen - 1] */
 301:../Dave/Generated/CMSIS_DSP/Source/FilteringFunctions/arm_conv_partial_fast_q31.c ****           acc0 = (q31_t) ((((q63_t) acc0 << 32) + ((q63_t) x0 * c0)) >> 32);
 302:../Dave/Generated/CMSIS_DSP/Source/FilteringFunctions/arm_conv_partial_fast_q31.c ****           /* acc1 +=  x[1] * y[srcBLen - 1] */
 303:../Dave/Generated/CMSIS_DSP/Source/FilteringFunctions/arm_conv_partial_fast_q31.c ****           acc1 = (q31_t) ((((q63_t) acc1 << 32) + ((q63_t) x1 * c0)) >> 32);
 304:../Dave/Generated/CMSIS_DSP/Source/FilteringFunctions/arm_conv_partial_fast_q31.c ****           /* acc2 +=  x[2] * y[srcBLen - 1] */
 305:../Dave/Generated/CMSIS_DSP/Source/FilteringFunctions/arm_conv_partial_fast_q31.c ****           acc2 = (q31_t) ((((q63_t) acc2 << 32) + ((q63_t) x2 * c0)) >> 32);
 306:../Dave/Generated/CMSIS_DSP/Source/FilteringFunctions/arm_conv_partial_fast_q31.c ****           /* acc3 +=  x[3] * y[srcBLen - 1] */
 307:../Dave/Generated/CMSIS_DSP/Source/FilteringFunctions/arm_conv_partial_fast_q31.c ****           acc3 = (q31_t) ((((q63_t) acc3 << 32) + ((q63_t) x3 * c0)) >> 32);
 308:../Dave/Generated/CMSIS_DSP/Source/FilteringFunctions/arm_conv_partial_fast_q31.c **** 
 309:../Dave/Generated/CMSIS_DSP/Source/FilteringFunctions/arm_conv_partial_fast_q31.c ****           /* Read y[srcBLen - 2] sample */
 310:../Dave/Generated/CMSIS_DSP/Source/FilteringFunctions/arm_conv_partial_fast_q31.c ****           c0 = *py--;
 311:../Dave/Generated/CMSIS_DSP/Source/FilteringFunctions/arm_conv_partial_fast_q31.c ****           /* Read x[4] sample */
 312:../Dave/Generated/CMSIS_DSP/Source/FilteringFunctions/arm_conv_partial_fast_q31.c ****           x0 = *px++;
 313:../Dave/Generated/CMSIS_DSP/Source/FilteringFunctions/arm_conv_partial_fast_q31.c **** 
 314:../Dave/Generated/CMSIS_DSP/Source/FilteringFunctions/arm_conv_partial_fast_q31.c ****           /* Perform the multiply-accumulate */
 315:../Dave/Generated/CMSIS_DSP/Source/FilteringFunctions/arm_conv_partial_fast_q31.c ****           /* acc0 +=  x[1] * y[srcBLen - 2] */
 316:../Dave/Generated/CMSIS_DSP/Source/FilteringFunctions/arm_conv_partial_fast_q31.c ****           acc0 = (q31_t) ((((q63_t) acc0 << 32) + ((q63_t) x1 * c0)) >> 32);
 317:../Dave/Generated/CMSIS_DSP/Source/FilteringFunctions/arm_conv_partial_fast_q31.c ****           /* acc1 +=  x[2] * y[srcBLen - 2] */
 318:../Dave/Generated/CMSIS_DSP/Source/FilteringFunctions/arm_conv_partial_fast_q31.c ****           acc1 = (q31_t) ((((q63_t) acc1 << 32) + ((q63_t) x2 * c0)) >> 32);
 319:../Dave/Generated/CMSIS_DSP/Source/FilteringFunctions/arm_conv_partial_fast_q31.c ****           /* acc2 +=  x[3] * y[srcBLen - 2] */
 320:../Dave/Generated/CMSIS_DSP/Source/FilteringFunctions/arm_conv_partial_fast_q31.c ****           acc2 = (q31_t) ((((q63_t) acc2 << 32) + ((q63_t) x3 * c0)) >> 32);
 321:../Dave/Generated/CMSIS_DSP/Source/FilteringFunctions/arm_conv_partial_fast_q31.c ****           /* acc3 +=  x[4] * y[srcBLen - 2] */
 322:../Dave/Generated/CMSIS_DSP/Source/FilteringFunctions/arm_conv_partial_fast_q31.c ****           acc3 = (q31_t) ((((q63_t) acc3 << 32) + ((q63_t) x0 * c0)) >> 32);
 323:../Dave/Generated/CMSIS_DSP/Source/FilteringFunctions/arm_conv_partial_fast_q31.c **** 
 324:../Dave/Generated/CMSIS_DSP/Source/FilteringFunctions/arm_conv_partial_fast_q31.c ****           /* Read y[srcBLen - 3] sample */
 325:../Dave/Generated/CMSIS_DSP/Source/FilteringFunctions/arm_conv_partial_fast_q31.c ****           c0 = *py--;
 326:../Dave/Generated/CMSIS_DSP/Source/FilteringFunctions/arm_conv_partial_fast_q31.c ****           /* Read x[5] sample */
 327:../Dave/Generated/CMSIS_DSP/Source/FilteringFunctions/arm_conv_partial_fast_q31.c ****           x1 = *px++;
 328:../Dave/Generated/CMSIS_DSP/Source/FilteringFunctions/arm_conv_partial_fast_q31.c **** 
 329:../Dave/Generated/CMSIS_DSP/Source/FilteringFunctions/arm_conv_partial_fast_q31.c ****           /* Perform the multiply-accumulates */
 330:../Dave/Generated/CMSIS_DSP/Source/FilteringFunctions/arm_conv_partial_fast_q31.c ****           /* acc0 +=  x[2] * y[srcBLen - 3] */
 331:../Dave/Generated/CMSIS_DSP/Source/FilteringFunctions/arm_conv_partial_fast_q31.c ****           acc0 = (q31_t) ((((q63_t) acc0 << 32) + ((q63_t) x2 * c0)) >> 32);
 332:../Dave/Generated/CMSIS_DSP/Source/FilteringFunctions/arm_conv_partial_fast_q31.c ****           /* acc1 +=  x[3] * y[srcBLen - 2] */
 333:../Dave/Generated/CMSIS_DSP/Source/FilteringFunctions/arm_conv_partial_fast_q31.c ****           acc1 = (q31_t) ((((q63_t) acc1 << 32) + ((q63_t) x3 * c0)) >> 32);
 334:../Dave/Generated/CMSIS_DSP/Source/FilteringFunctions/arm_conv_partial_fast_q31.c ****           /* acc2 +=  x[4] * y[srcBLen - 2] */
 335:../Dave/Generated/CMSIS_DSP/Source/FilteringFunctions/arm_conv_partial_fast_q31.c ****           acc2 = (q31_t) ((((q63_t) acc2 << 32) + ((q63_t) x0 * c0)) >> 32);
 336:../Dave/Generated/CMSIS_DSP/Source/FilteringFunctions/arm_conv_partial_fast_q31.c ****           /* acc3 +=  x[5] * y[srcBLen - 2] */
 337:../Dave/Generated/CMSIS_DSP/Source/FilteringFunctions/arm_conv_partial_fast_q31.c ****           acc3 = (q31_t) ((((q63_t) acc3 << 32) + ((q63_t) x1 * c0)) >> 32);
 338:../Dave/Generated/CMSIS_DSP/Source/FilteringFunctions/arm_conv_partial_fast_q31.c **** 
 339:../Dave/Generated/CMSIS_DSP/Source/FilteringFunctions/arm_conv_partial_fast_q31.c ****           /* Read y[srcBLen - 4] sample */
 340:../Dave/Generated/CMSIS_DSP/Source/FilteringFunctions/arm_conv_partial_fast_q31.c ****           c0 = *py--;
 341:../Dave/Generated/CMSIS_DSP/Source/FilteringFunctions/arm_conv_partial_fast_q31.c ****           /* Read x[6] sample */
 342:../Dave/Generated/CMSIS_DSP/Source/FilteringFunctions/arm_conv_partial_fast_q31.c ****           x2 = *px++;
 343:../Dave/Generated/CMSIS_DSP/Source/FilteringFunctions/arm_conv_partial_fast_q31.c **** 
 344:../Dave/Generated/CMSIS_DSP/Source/FilteringFunctions/arm_conv_partial_fast_q31.c ****           /* Perform the multiply-accumulates */
 345:../Dave/Generated/CMSIS_DSP/Source/FilteringFunctions/arm_conv_partial_fast_q31.c ****           /* acc0 +=  x[3] * y[srcBLen - 4] */
 346:../Dave/Generated/CMSIS_DSP/Source/FilteringFunctions/arm_conv_partial_fast_q31.c ****           acc0 = (q31_t) ((((q63_t) acc0 << 32) + ((q63_t) x3 * c0)) >> 32);
 347:../Dave/Generated/CMSIS_DSP/Source/FilteringFunctions/arm_conv_partial_fast_q31.c ****           /* acc1 +=  x[4] * y[srcBLen - 4] */
 348:../Dave/Generated/CMSIS_DSP/Source/FilteringFunctions/arm_conv_partial_fast_q31.c ****           acc1 = (q31_t) ((((q63_t) acc1 << 32) + ((q63_t) x0 * c0)) >> 32);
 349:../Dave/Generated/CMSIS_DSP/Source/FilteringFunctions/arm_conv_partial_fast_q31.c ****           /* acc2 +=  x[5] * y[srcBLen - 4] */
 350:../Dave/Generated/CMSIS_DSP/Source/FilteringFunctions/arm_conv_partial_fast_q31.c ****           acc2 = (q31_t) ((((q63_t) acc2 << 32) + ((q63_t) x1 * c0)) >> 32);
 351:../Dave/Generated/CMSIS_DSP/Source/FilteringFunctions/arm_conv_partial_fast_q31.c ****           /* acc3 +=  x[6] * y[srcBLen - 4] */
 352:../Dave/Generated/CMSIS_DSP/Source/FilteringFunctions/arm_conv_partial_fast_q31.c ****           acc3 = (q31_t) ((((q63_t) acc3 << 32) + ((q63_t) x2 * c0)) >> 32);
 353:../Dave/Generated/CMSIS_DSP/Source/FilteringFunctions/arm_conv_partial_fast_q31.c **** 
 354:../Dave/Generated/CMSIS_DSP/Source/FilteringFunctions/arm_conv_partial_fast_q31.c ****         } while (--k);
 355:../Dave/Generated/CMSIS_DSP/Source/FilteringFunctions/arm_conv_partial_fast_q31.c **** 
 356:../Dave/Generated/CMSIS_DSP/Source/FilteringFunctions/arm_conv_partial_fast_q31.c ****         /* If the srcBLen is not a multiple of 4, compute any remaining MACs here.
 357:../Dave/Generated/CMSIS_DSP/Source/FilteringFunctions/arm_conv_partial_fast_q31.c ****          ** No loop unrolling is used. */
 358:../Dave/Generated/CMSIS_DSP/Source/FilteringFunctions/arm_conv_partial_fast_q31.c ****         k = srcBLen % 0x4U;
 359:../Dave/Generated/CMSIS_DSP/Source/FilteringFunctions/arm_conv_partial_fast_q31.c **** 
 360:../Dave/Generated/CMSIS_DSP/Source/FilteringFunctions/arm_conv_partial_fast_q31.c ****         while (k > 0U)
 361:../Dave/Generated/CMSIS_DSP/Source/FilteringFunctions/arm_conv_partial_fast_q31.c ****         {
 362:../Dave/Generated/CMSIS_DSP/Source/FilteringFunctions/arm_conv_partial_fast_q31.c ****           /* Read y[srcBLen - 5] sample */
 363:../Dave/Generated/CMSIS_DSP/Source/FilteringFunctions/arm_conv_partial_fast_q31.c ****           c0 = *py--;
 364:../Dave/Generated/CMSIS_DSP/Source/FilteringFunctions/arm_conv_partial_fast_q31.c ****           /* Read x[7] sample */
 365:../Dave/Generated/CMSIS_DSP/Source/FilteringFunctions/arm_conv_partial_fast_q31.c ****           x3 = *px++;
 366:../Dave/Generated/CMSIS_DSP/Source/FilteringFunctions/arm_conv_partial_fast_q31.c **** 
 367:../Dave/Generated/CMSIS_DSP/Source/FilteringFunctions/arm_conv_partial_fast_q31.c ****           /* Perform the multiply-accumulates */
 368:../Dave/Generated/CMSIS_DSP/Source/FilteringFunctions/arm_conv_partial_fast_q31.c ****           /* acc0 +=  x[4] * y[srcBLen - 5] */
 369:../Dave/Generated/CMSIS_DSP/Source/FilteringFunctions/arm_conv_partial_fast_q31.c ****           acc0 = (q31_t) ((((q63_t) acc0 << 32) + ((q63_t) x0 * c0)) >> 32);
 370:../Dave/Generated/CMSIS_DSP/Source/FilteringFunctions/arm_conv_partial_fast_q31.c ****           /* acc1 +=  x[5] * y[srcBLen - 5] */
 371:../Dave/Generated/CMSIS_DSP/Source/FilteringFunctions/arm_conv_partial_fast_q31.c ****           acc1 = (q31_t) ((((q63_t) acc1 << 32) + ((q63_t) x1 * c0)) >> 32);
 372:../Dave/Generated/CMSIS_DSP/Source/FilteringFunctions/arm_conv_partial_fast_q31.c ****           /* acc2 +=  x[6] * y[srcBLen - 5] */
 373:../Dave/Generated/CMSIS_DSP/Source/FilteringFunctions/arm_conv_partial_fast_q31.c ****           acc2 = (q31_t) ((((q63_t) acc2 << 32) + ((q63_t) x2 * c0)) >> 32);
 374:../Dave/Generated/CMSIS_DSP/Source/FilteringFunctions/arm_conv_partial_fast_q31.c ****           /* acc3 +=  x[7] * y[srcBLen - 5] */
 375:../Dave/Generated/CMSIS_DSP/Source/FilteringFunctions/arm_conv_partial_fast_q31.c ****           acc3 = (q31_t) ((((q63_t) acc3 << 32) + ((q63_t) x3 * c0)) >> 32);
 376:../Dave/Generated/CMSIS_DSP/Source/FilteringFunctions/arm_conv_partial_fast_q31.c **** 
 377:../Dave/Generated/CMSIS_DSP/Source/FilteringFunctions/arm_conv_partial_fast_q31.c ****           /* Reuse the present samples for the next MAC */
 378:../Dave/Generated/CMSIS_DSP/Source/FilteringFunctions/arm_conv_partial_fast_q31.c ****           x0 = x1;
 379:../Dave/Generated/CMSIS_DSP/Source/FilteringFunctions/arm_conv_partial_fast_q31.c ****           x1 = x2;
 380:../Dave/Generated/CMSIS_DSP/Source/FilteringFunctions/arm_conv_partial_fast_q31.c ****           x2 = x3;
 381:../Dave/Generated/CMSIS_DSP/Source/FilteringFunctions/arm_conv_partial_fast_q31.c **** 
 382:../Dave/Generated/CMSIS_DSP/Source/FilteringFunctions/arm_conv_partial_fast_q31.c ****           /* Decrement the loop counter */
 383:../Dave/Generated/CMSIS_DSP/Source/FilteringFunctions/arm_conv_partial_fast_q31.c ****           k--;
 384:../Dave/Generated/CMSIS_DSP/Source/FilteringFunctions/arm_conv_partial_fast_q31.c ****         }
 385:../Dave/Generated/CMSIS_DSP/Source/FilteringFunctions/arm_conv_partial_fast_q31.c **** 
 386:../Dave/Generated/CMSIS_DSP/Source/FilteringFunctions/arm_conv_partial_fast_q31.c ****         /* Store the result in the accumulator in the destination buffer. */
 387:../Dave/Generated/CMSIS_DSP/Source/FilteringFunctions/arm_conv_partial_fast_q31.c ****         *pOut++ = (q31_t) (acc0 << 1);
 388:../Dave/Generated/CMSIS_DSP/Source/FilteringFunctions/arm_conv_partial_fast_q31.c ****         *pOut++ = (q31_t) (acc1 << 1);
 389:../Dave/Generated/CMSIS_DSP/Source/FilteringFunctions/arm_conv_partial_fast_q31.c ****         *pOut++ = (q31_t) (acc2 << 1);
 390:../Dave/Generated/CMSIS_DSP/Source/FilteringFunctions/arm_conv_partial_fast_q31.c ****         *pOut++ = (q31_t) (acc3 << 1);
 391:../Dave/Generated/CMSIS_DSP/Source/FilteringFunctions/arm_conv_partial_fast_q31.c **** 
 392:../Dave/Generated/CMSIS_DSP/Source/FilteringFunctions/arm_conv_partial_fast_q31.c ****         /* Increment the pointer pIn1 index, count by 4 */
 393:../Dave/Generated/CMSIS_DSP/Source/FilteringFunctions/arm_conv_partial_fast_q31.c ****         count += 4U;
 394:../Dave/Generated/CMSIS_DSP/Source/FilteringFunctions/arm_conv_partial_fast_q31.c **** 
 395:../Dave/Generated/CMSIS_DSP/Source/FilteringFunctions/arm_conv_partial_fast_q31.c ****         /* Update the inputA and inputB pointers for next MAC calculation */
 396:../Dave/Generated/CMSIS_DSP/Source/FilteringFunctions/arm_conv_partial_fast_q31.c ****         px = pSrc1 + count;
 397:../Dave/Generated/CMSIS_DSP/Source/FilteringFunctions/arm_conv_partial_fast_q31.c ****         py = pSrc2;
 398:../Dave/Generated/CMSIS_DSP/Source/FilteringFunctions/arm_conv_partial_fast_q31.c **** 
 399:../Dave/Generated/CMSIS_DSP/Source/FilteringFunctions/arm_conv_partial_fast_q31.c ****         /* Decrement loop counter */
 400:../Dave/Generated/CMSIS_DSP/Source/FilteringFunctions/arm_conv_partial_fast_q31.c ****         blkCnt--;
 401:../Dave/Generated/CMSIS_DSP/Source/FilteringFunctions/arm_conv_partial_fast_q31.c ****       }
 402:../Dave/Generated/CMSIS_DSP/Source/FilteringFunctions/arm_conv_partial_fast_q31.c **** 
 403:../Dave/Generated/CMSIS_DSP/Source/FilteringFunctions/arm_conv_partial_fast_q31.c ****       /* Loop unrolling: Compute remaining outputs */
 404:../Dave/Generated/CMSIS_DSP/Source/FilteringFunctions/arm_conv_partial_fast_q31.c ****       blkCnt = (uint32_t) blockSize2 % 0x4U;
 405:../Dave/Generated/CMSIS_DSP/Source/FilteringFunctions/arm_conv_partial_fast_q31.c **** 
 406:../Dave/Generated/CMSIS_DSP/Source/FilteringFunctions/arm_conv_partial_fast_q31.c **** #else
 407:../Dave/Generated/CMSIS_DSP/Source/FilteringFunctions/arm_conv_partial_fast_q31.c **** 
 408:../Dave/Generated/CMSIS_DSP/Source/FilteringFunctions/arm_conv_partial_fast_q31.c ****       /* Initialize blkCnt with number of samples */
 409:../Dave/Generated/CMSIS_DSP/Source/FilteringFunctions/arm_conv_partial_fast_q31.c ****       blkCnt = blockSize2;
 332              	 .loc 1 409 0
 333 01f2 7B6C     	 ldr r3,[r7,#68]
 334 01f4 FB65     	 str r3,[r7,#92]
 410:../Dave/Generated/CMSIS_DSP/Source/FilteringFunctions/arm_conv_partial_fast_q31.c **** 
 411:../Dave/Generated/CMSIS_DSP/Source/FilteringFunctions/arm_conv_partial_fast_q31.c **** #endif /* #if defined (ARM_MATH_LOOPUNROLL) */
 412:../Dave/Generated/CMSIS_DSP/Source/FilteringFunctions/arm_conv_partial_fast_q31.c **** 
 413:../Dave/Generated/CMSIS_DSP/Source/FilteringFunctions/arm_conv_partial_fast_q31.c ****       while (blkCnt > 0U)
 335              	 .loc 1 413 0
 336 01f6 49E0     	 b .L21
 337              	.L24:
 414:../Dave/Generated/CMSIS_DSP/Source/FilteringFunctions/arm_conv_partial_fast_q31.c ****       {
 415:../Dave/Generated/CMSIS_DSP/Source/FilteringFunctions/arm_conv_partial_fast_q31.c ****         /* Accumulator is made zero for every iteration */
 416:../Dave/Generated/CMSIS_DSP/Source/FilteringFunctions/arm_conv_partial_fast_q31.c ****         sum = 0;
 338              	 .loc 1 416 0
 339 01f8 0023     	 movs r3,#0
 340 01fa BB66     	 str r3,[r7,#104]
 417:../Dave/Generated/CMSIS_DSP/Source/FilteringFunctions/arm_conv_partial_fast_q31.c **** 
 418:../Dave/Generated/CMSIS_DSP/Source/FilteringFunctions/arm_conv_partial_fast_q31.c **** #if defined (ARM_MATH_LOOPUNROLL)
 419:../Dave/Generated/CMSIS_DSP/Source/FilteringFunctions/arm_conv_partial_fast_q31.c **** 
 420:../Dave/Generated/CMSIS_DSP/Source/FilteringFunctions/arm_conv_partial_fast_q31.c ****         /* Loop unrolling: Compute 4 outputs at a time */
 421:../Dave/Generated/CMSIS_DSP/Source/FilteringFunctions/arm_conv_partial_fast_q31.c ****         k = srcBLen >> 2U;
 422:../Dave/Generated/CMSIS_DSP/Source/FilteringFunctions/arm_conv_partial_fast_q31.c **** 
 423:../Dave/Generated/CMSIS_DSP/Source/FilteringFunctions/arm_conv_partial_fast_q31.c ****         while (k > 0U)
 424:../Dave/Generated/CMSIS_DSP/Source/FilteringFunctions/arm_conv_partial_fast_q31.c ****         {
 425:../Dave/Generated/CMSIS_DSP/Source/FilteringFunctions/arm_conv_partial_fast_q31.c ****           /* Perform the multiply-accumulates */
 426:../Dave/Generated/CMSIS_DSP/Source/FilteringFunctions/arm_conv_partial_fast_q31.c ****           sum = (q31_t) ((((q63_t) sum << 32) +
 427:../Dave/Generated/CMSIS_DSP/Source/FilteringFunctions/arm_conv_partial_fast_q31.c ****                           ((q63_t) * px++ * (*py--))) >> 32);
 428:../Dave/Generated/CMSIS_DSP/Source/FilteringFunctions/arm_conv_partial_fast_q31.c ****           sum = (q31_t) ((((q63_t) sum << 32) +
 429:../Dave/Generated/CMSIS_DSP/Source/FilteringFunctions/arm_conv_partial_fast_q31.c ****                           ((q63_t) * px++ * (*py--))) >> 32);
 430:../Dave/Generated/CMSIS_DSP/Source/FilteringFunctions/arm_conv_partial_fast_q31.c ****           sum = (q31_t) ((((q63_t) sum << 32) +
 431:../Dave/Generated/CMSIS_DSP/Source/FilteringFunctions/arm_conv_partial_fast_q31.c ****                           ((q63_t) * px++ * (*py--))) >> 32);
 432:../Dave/Generated/CMSIS_DSP/Source/FilteringFunctions/arm_conv_partial_fast_q31.c ****           sum = (q31_t) ((((q63_t) sum << 32) +
 433:../Dave/Generated/CMSIS_DSP/Source/FilteringFunctions/arm_conv_partial_fast_q31.c ****                           ((q63_t) * px++ * (*py--))) >> 32);
 434:../Dave/Generated/CMSIS_DSP/Source/FilteringFunctions/arm_conv_partial_fast_q31.c **** 
 435:../Dave/Generated/CMSIS_DSP/Source/FilteringFunctions/arm_conv_partial_fast_q31.c ****           /* Decrement loop counter */
 436:../Dave/Generated/CMSIS_DSP/Source/FilteringFunctions/arm_conv_partial_fast_q31.c ****           k--;
 437:../Dave/Generated/CMSIS_DSP/Source/FilteringFunctions/arm_conv_partial_fast_q31.c ****         }
 438:../Dave/Generated/CMSIS_DSP/Source/FilteringFunctions/arm_conv_partial_fast_q31.c **** 
 439:../Dave/Generated/CMSIS_DSP/Source/FilteringFunctions/arm_conv_partial_fast_q31.c ****         /* Loop unrolling: Compute remaining outputs */
 440:../Dave/Generated/CMSIS_DSP/Source/FilteringFunctions/arm_conv_partial_fast_q31.c ****         k = srcBLen % 0x4U;
 441:../Dave/Generated/CMSIS_DSP/Source/FilteringFunctions/arm_conv_partial_fast_q31.c **** 
 442:../Dave/Generated/CMSIS_DSP/Source/FilteringFunctions/arm_conv_partial_fast_q31.c **** #else
 443:../Dave/Generated/CMSIS_DSP/Source/FilteringFunctions/arm_conv_partial_fast_q31.c **** 
 444:../Dave/Generated/CMSIS_DSP/Source/FilteringFunctions/arm_conv_partial_fast_q31.c ****         /* Initialize blkCnt with number of samples */
 445:../Dave/Generated/CMSIS_DSP/Source/FilteringFunctions/arm_conv_partial_fast_q31.c ****         k = srcBLen;
 341              	 .loc 1 445 0
 342 01fc 3B6B     	 ldr r3,[r7,#48]
 343 01fe 7B66     	 str r3,[r7,#100]
 446:../Dave/Generated/CMSIS_DSP/Source/FilteringFunctions/arm_conv_partial_fast_q31.c **** 
 447:../Dave/Generated/CMSIS_DSP/Source/FilteringFunctions/arm_conv_partial_fast_q31.c **** #endif /* #if defined (ARM_MATH_LOOPUNROLL) */
 448:../Dave/Generated/CMSIS_DSP/Source/FilteringFunctions/arm_conv_partial_fast_q31.c **** 
 449:../Dave/Generated/CMSIS_DSP/Source/FilteringFunctions/arm_conv_partial_fast_q31.c ****         while (k > 0U)
 344              	 .loc 1 449 0
 345 0200 2EE0     	 b .L22
 346              	.L23:
 450:../Dave/Generated/CMSIS_DSP/Source/FilteringFunctions/arm_conv_partial_fast_q31.c ****         {
 451:../Dave/Generated/CMSIS_DSP/Source/FilteringFunctions/arm_conv_partial_fast_q31.c ****           /* Perform the multiply-accumulate */
 452:../Dave/Generated/CMSIS_DSP/Source/FilteringFunctions/arm_conv_partial_fast_q31.c ****           sum = (q31_t) ((((q63_t) sum << 32) +
 347              	 .loc 1 452 0
 348 0202 BB6E     	 ldr r3,[r7,#104]
 349 0204 1A46     	 mov r2,r3
 350 0206 4FEAE273 	 asr r3,r2,#31
 351 020a 1300     	 movs r3,r2
 352 020c FB61     	 str r3,[r7,#28]
 353 020e 0023     	 movs r3,#0
 354 0210 BB61     	 str r3,[r7,#24]
 453:../Dave/Generated/CMSIS_DSP/Source/FilteringFunctions/arm_conv_partial_fast_q31.c ****                           ((q63_t) *px++ * (*py--))) >> 32);
 355              	 .loc 1 453 0
 356 0212 BB6F     	 ldr r3,[r7,#120]
 357 0214 1A1D     	 adds r2,r3,#4
 358 0216 BA67     	 str r2,[r7,#120]
 359 0218 1B68     	 ldr r3,[r3]
 360 021a 1846     	 mov r0,r3
 361 021c 4FEAE071 	 asr r1,r0,#31
 362 0220 7B6F     	 ldr r3,[r7,#116]
 363 0222 1A1F     	 subs r2,r3,#4
 364 0224 7A67     	 str r2,[r7,#116]
 365 0226 1B68     	 ldr r3,[r3]
 366 0228 1A46     	 mov r2,r3
 367 022a 4FEAE273 	 asr r3,r2,#31
 368 022e 02FB01F5 	 mul r5,r2,r1
 369 0232 00FB03F4 	 mul r4,r0,r3
 370 0236 2C44     	 add r4,r4,r5
 371 0238 A0FB0223 	 umull r2,r3,r0,r2
 372 023c E118     	 adds r1,r4,r3
 373 023e 0B46     	 mov r3,r1
 452:../Dave/Generated/CMSIS_DSP/Source/FilteringFunctions/arm_conv_partial_fast_q31.c ****                           ((q63_t) *px++ * (*py--))) >> 32);
 374              	 .loc 1 452 0
 375 0240 D7E90601 	 ldrd r0,[r7,#24]
 376 0244 8018     	 adds r0,r0,r2
 377 0246 41EB0301 	 adc r1,r1,r3
 378 024a 0246     	 mov r2,r0
 379 024c 0B46     	 mov r3,r1
 380              	 .loc 1 453 0
 381 024e 1900     	 movs r1,r3
 382 0250 3961     	 str r1,[r7,#16]
 383 0252 DB17     	 asrs r3,r3,#31
 384 0254 7B61     	 str r3,[r7,#20]
 452:../Dave/Generated/CMSIS_DSP/Source/FilteringFunctions/arm_conv_partial_fast_q31.c ****                           ((q63_t) *px++ * (*py--))) >> 32);
 385              	 .loc 1 452 0
 386 0256 3B69     	 ldr r3,[r7,#16]
 387 0258 BB66     	 str r3,[r7,#104]
 454:../Dave/Generated/CMSIS_DSP/Source/FilteringFunctions/arm_conv_partial_fast_q31.c **** 
 455:../Dave/Generated/CMSIS_DSP/Source/FilteringFunctions/arm_conv_partial_fast_q31.c ****           /* Decrement loop counter */
 456:../Dave/Generated/CMSIS_DSP/Source/FilteringFunctions/arm_conv_partial_fast_q31.c ****           k--;
 388              	 .loc 1 456 0
 389 025a 7B6E     	 ldr r3,[r7,#100]
 390 025c 013B     	 subs r3,r3,#1
 391 025e 7B66     	 str r3,[r7,#100]
 392              	.L22:
 449:../Dave/Generated/CMSIS_DSP/Source/FilteringFunctions/arm_conv_partial_fast_q31.c ****         {
 393              	 .loc 1 449 0
 394 0260 7B6E     	 ldr r3,[r7,#100]
 395 0262 002B     	 cmp r3,#0
 396 0264 CDD1     	 bne .L23
 457:../Dave/Generated/CMSIS_DSP/Source/FilteringFunctions/arm_conv_partial_fast_q31.c ****         }
 458:../Dave/Generated/CMSIS_DSP/Source/FilteringFunctions/arm_conv_partial_fast_q31.c **** 
 459:../Dave/Generated/CMSIS_DSP/Source/FilteringFunctions/arm_conv_partial_fast_q31.c ****         /* Store the result in the accumulator in the destination buffer. */
 460:../Dave/Generated/CMSIS_DSP/Source/FilteringFunctions/arm_conv_partial_fast_q31.c ****         *pOut++ = sum << 1;
 397              	 .loc 1 460 0
 398 0266 FB6F     	 ldr r3,[r7,#124]
 399 0268 1A1D     	 adds r2,r3,#4
 400 026a FA67     	 str r2,[r7,#124]
 401 026c BA6E     	 ldr r2,[r7,#104]
 402 026e 5200     	 lsls r2,r2,#1
 403 0270 1A60     	 str r2,[r3]
 461:../Dave/Generated/CMSIS_DSP/Source/FilteringFunctions/arm_conv_partial_fast_q31.c **** 
 462:../Dave/Generated/CMSIS_DSP/Source/FilteringFunctions/arm_conv_partial_fast_q31.c ****         /* Increment MAC count */
 463:../Dave/Generated/CMSIS_DSP/Source/FilteringFunctions/arm_conv_partial_fast_q31.c ****         count++;
 404              	 .loc 1 463 0
 405 0272 3B6E     	 ldr r3,[r7,#96]
 406 0274 0133     	 adds r3,r3,#1
 407 0276 3B66     	 str r3,[r7,#96]
 464:../Dave/Generated/CMSIS_DSP/Source/FilteringFunctions/arm_conv_partial_fast_q31.c **** 
 465:../Dave/Generated/CMSIS_DSP/Source/FilteringFunctions/arm_conv_partial_fast_q31.c ****         /* Update the inputA and inputB pointers for next MAC calculation */
 466:../Dave/Generated/CMSIS_DSP/Source/FilteringFunctions/arm_conv_partial_fast_q31.c ****         px = pSrc1 + count;
 408              	 .loc 1 466 0
 409 0278 3B6E     	 ldr r3,[r7,#96]
 410 027a 9B00     	 lsls r3,r3,#2
 411 027c 3A6F     	 ldr r2,[r7,#112]
 412 027e 1344     	 add r3,r3,r2
 413 0280 BB67     	 str r3,[r7,#120]
 467:../Dave/Generated/CMSIS_DSP/Source/FilteringFunctions/arm_conv_partial_fast_q31.c ****         py = pSrc2;
 414              	 .loc 1 467 0
 415 0282 FB6E     	 ldr r3,[r7,#108]
 416 0284 7B67     	 str r3,[r7,#116]
 468:../Dave/Generated/CMSIS_DSP/Source/FilteringFunctions/arm_conv_partial_fast_q31.c **** 
 469:../Dave/Generated/CMSIS_DSP/Source/FilteringFunctions/arm_conv_partial_fast_q31.c ****         /* Decrement loop counter */
 470:../Dave/Generated/CMSIS_DSP/Source/FilteringFunctions/arm_conv_partial_fast_q31.c ****         blkCnt--;
 417              	 .loc 1 470 0
 418 0286 FB6D     	 ldr r3,[r7,#92]
 419 0288 013B     	 subs r3,r3,#1
 420 028a FB65     	 str r3,[r7,#92]
 421              	.L21:
 413:../Dave/Generated/CMSIS_DSP/Source/FilteringFunctions/arm_conv_partial_fast_q31.c ****       {
 422              	 .loc 1 413 0
 423 028c FB6D     	 ldr r3,[r7,#92]
 424 028e 002B     	 cmp r3,#0
 425 0290 B2D1     	 bne .L24
 426 0292 4BE0     	 b .L25
 427              	.L20:
 471:../Dave/Generated/CMSIS_DSP/Source/FilteringFunctions/arm_conv_partial_fast_q31.c ****       }
 472:../Dave/Generated/CMSIS_DSP/Source/FilteringFunctions/arm_conv_partial_fast_q31.c ****     }
 473:../Dave/Generated/CMSIS_DSP/Source/FilteringFunctions/arm_conv_partial_fast_q31.c ****     else
 474:../Dave/Generated/CMSIS_DSP/Source/FilteringFunctions/arm_conv_partial_fast_q31.c ****     {
 475:../Dave/Generated/CMSIS_DSP/Source/FilteringFunctions/arm_conv_partial_fast_q31.c ****       /* If the srcBLen is not a multiple of 4,
 476:../Dave/Generated/CMSIS_DSP/Source/FilteringFunctions/arm_conv_partial_fast_q31.c ****        * the blockSize2 loop cannot be unrolled by 4 */
 477:../Dave/Generated/CMSIS_DSP/Source/FilteringFunctions/arm_conv_partial_fast_q31.c ****       blkCnt = (uint32_t) blockSize2;
 428              	 .loc 1 477 0
 429 0294 7B6C     	 ldr r3,[r7,#68]
 430 0296 FB65     	 str r3,[r7,#92]
 478:../Dave/Generated/CMSIS_DSP/Source/FilteringFunctions/arm_conv_partial_fast_q31.c **** 
 479:../Dave/Generated/CMSIS_DSP/Source/FilteringFunctions/arm_conv_partial_fast_q31.c ****       while (blkCnt > 0U)
 431              	 .loc 1 479 0
 432 0298 45E0     	 b .L26
 433              	.L29:
 480:../Dave/Generated/CMSIS_DSP/Source/FilteringFunctions/arm_conv_partial_fast_q31.c ****       {
 481:../Dave/Generated/CMSIS_DSP/Source/FilteringFunctions/arm_conv_partial_fast_q31.c ****         /* Accumulator is made zero for every iteration */
 482:../Dave/Generated/CMSIS_DSP/Source/FilteringFunctions/arm_conv_partial_fast_q31.c ****         sum = 0;
 434              	 .loc 1 482 0
 435 029a 0023     	 movs r3,#0
 436 029c BB66     	 str r3,[r7,#104]
 483:../Dave/Generated/CMSIS_DSP/Source/FilteringFunctions/arm_conv_partial_fast_q31.c **** 
 484:../Dave/Generated/CMSIS_DSP/Source/FilteringFunctions/arm_conv_partial_fast_q31.c ****         /* srcBLen number of MACS should be performed */
 485:../Dave/Generated/CMSIS_DSP/Source/FilteringFunctions/arm_conv_partial_fast_q31.c ****         k = srcBLen;
 437              	 .loc 1 485 0
 438 029e 3B6B     	 ldr r3,[r7,#48]
 439 02a0 7B66     	 str r3,[r7,#100]
 486:../Dave/Generated/CMSIS_DSP/Source/FilteringFunctions/arm_conv_partial_fast_q31.c **** 
 487:../Dave/Generated/CMSIS_DSP/Source/FilteringFunctions/arm_conv_partial_fast_q31.c ****         while (k > 0U)
 440              	 .loc 1 487 0
 441 02a2 2AE0     	 b .L27
 442              	.L28:
 488:../Dave/Generated/CMSIS_DSP/Source/FilteringFunctions/arm_conv_partial_fast_q31.c ****         {
 489:../Dave/Generated/CMSIS_DSP/Source/FilteringFunctions/arm_conv_partial_fast_q31.c ****           /* Perform the multiply-accumulate */
 490:../Dave/Generated/CMSIS_DSP/Source/FilteringFunctions/arm_conv_partial_fast_q31.c ****           sum = (q31_t) ((((q63_t) sum << 32) +
 443              	 .loc 1 490 0
 444 02a4 BB6E     	 ldr r3,[r7,#104]
 445 02a6 1A46     	 mov r2,r3
 446 02a8 4FEAE273 	 asr r3,r2,#31
 447 02ac 9346     	 mov fp,r2
 448 02ae 4FF0000A 	 mov r10,#0
 491:../Dave/Generated/CMSIS_DSP/Source/FilteringFunctions/arm_conv_partial_fast_q31.c ****                           ((q63_t) *px++ * (*py--))) >> 32);
 449              	 .loc 1 491 0
 450 02b2 BB6F     	 ldr r3,[r7,#120]
 451 02b4 1A1D     	 adds r2,r3,#4
 452 02b6 BA67     	 str r2,[r7,#120]
 453 02b8 1B68     	 ldr r3,[r3]
 454 02ba 1846     	 mov r0,r3
 455 02bc 4FEAE071 	 asr r1,r0,#31
 456 02c0 7B6F     	 ldr r3,[r7,#116]
 457 02c2 1A1F     	 subs r2,r3,#4
 458 02c4 7A67     	 str r2,[r7,#116]
 459 02c6 1B68     	 ldr r3,[r3]
 460 02c8 1A46     	 mov r2,r3
 461 02ca 4FEAE273 	 asr r3,r2,#31
 462 02ce 02FB01F5 	 mul r5,r2,r1
 463 02d2 00FB03F4 	 mul r4,r0,r3
 464 02d6 2C44     	 add r4,r4,r5
 465 02d8 A0FB0223 	 umull r2,r3,r0,r2
 466 02dc E118     	 adds r1,r4,r3
 467 02de 0B46     	 mov r3,r1
 490:../Dave/Generated/CMSIS_DSP/Source/FilteringFunctions/arm_conv_partial_fast_q31.c ****                           ((q63_t) *px++ * (*py--))) >> 32);
 468              	 .loc 1 490 0
 469 02e0 12EB0A02 	 adds r2,r2,r10
 470 02e4 43EB0B03 	 adc r3,r3,fp
 471              	 .loc 1 491 0
 472 02e8 1900     	 movs r1,r3
 473 02ea B960     	 str r1,[r7,#8]
 474 02ec DB17     	 asrs r3,r3,#31
 475 02ee FB60     	 str r3,[r7,#12]
 490:../Dave/Generated/CMSIS_DSP/Source/FilteringFunctions/arm_conv_partial_fast_q31.c ****                           ((q63_t) *px++ * (*py--))) >> 32);
 476              	 .loc 1 490 0
 477 02f0 BB68     	 ldr r3,[r7,#8]
 478 02f2 BB66     	 str r3,[r7,#104]
 492:../Dave/Generated/CMSIS_DSP/Source/FilteringFunctions/arm_conv_partial_fast_q31.c **** 
 493:../Dave/Generated/CMSIS_DSP/Source/FilteringFunctions/arm_conv_partial_fast_q31.c ****           /* Decrement loop counter */
 494:../Dave/Generated/CMSIS_DSP/Source/FilteringFunctions/arm_conv_partial_fast_q31.c ****           k--;
 479              	 .loc 1 494 0
 480 02f4 7B6E     	 ldr r3,[r7,#100]
 481 02f6 013B     	 subs r3,r3,#1
 482 02f8 7B66     	 str r3,[r7,#100]
 483              	.L27:
 487:../Dave/Generated/CMSIS_DSP/Source/FilteringFunctions/arm_conv_partial_fast_q31.c ****         {
 484              	 .loc 1 487 0
 485 02fa 7B6E     	 ldr r3,[r7,#100]
 486 02fc 002B     	 cmp r3,#0
 487 02fe D1D1     	 bne .L28
 495:../Dave/Generated/CMSIS_DSP/Source/FilteringFunctions/arm_conv_partial_fast_q31.c ****         }
 496:../Dave/Generated/CMSIS_DSP/Source/FilteringFunctions/arm_conv_partial_fast_q31.c **** 
 497:../Dave/Generated/CMSIS_DSP/Source/FilteringFunctions/arm_conv_partial_fast_q31.c ****         /* Store the result in the accumulator in the destination buffer. */
 498:../Dave/Generated/CMSIS_DSP/Source/FilteringFunctions/arm_conv_partial_fast_q31.c ****         *pOut++ = sum << 1;
 488              	 .loc 1 498 0
 489 0300 FB6F     	 ldr r3,[r7,#124]
 490 0302 1A1D     	 adds r2,r3,#4
 491 0304 FA67     	 str r2,[r7,#124]
 492 0306 BA6E     	 ldr r2,[r7,#104]
 493 0308 5200     	 lsls r2,r2,#1
 494 030a 1A60     	 str r2,[r3]
 499:../Dave/Generated/CMSIS_DSP/Source/FilteringFunctions/arm_conv_partial_fast_q31.c **** 
 500:../Dave/Generated/CMSIS_DSP/Source/FilteringFunctions/arm_conv_partial_fast_q31.c ****         /* Increment the MAC count */
 501:../Dave/Generated/CMSIS_DSP/Source/FilteringFunctions/arm_conv_partial_fast_q31.c ****         count++;
 495              	 .loc 1 501 0
 496 030c 3B6E     	 ldr r3,[r7,#96]
 497 030e 0133     	 adds r3,r3,#1
 498 0310 3B66     	 str r3,[r7,#96]
 502:../Dave/Generated/CMSIS_DSP/Source/FilteringFunctions/arm_conv_partial_fast_q31.c **** 
 503:../Dave/Generated/CMSIS_DSP/Source/FilteringFunctions/arm_conv_partial_fast_q31.c ****         /* Update the inputA and inputB pointers for next MAC calculation */
 504:../Dave/Generated/CMSIS_DSP/Source/FilteringFunctions/arm_conv_partial_fast_q31.c ****         px = pSrc1 + count;
 499              	 .loc 1 504 0
 500 0312 3B6E     	 ldr r3,[r7,#96]
 501 0314 9B00     	 lsls r3,r3,#2
 502 0316 3A6F     	 ldr r2,[r7,#112]
 503 0318 1344     	 add r3,r3,r2
 504 031a BB67     	 str r3,[r7,#120]
 505:../Dave/Generated/CMSIS_DSP/Source/FilteringFunctions/arm_conv_partial_fast_q31.c ****         py = pSrc2;
 505              	 .loc 1 505 0
 506 031c FB6E     	 ldr r3,[r7,#108]
 507 031e 7B67     	 str r3,[r7,#116]
 506:../Dave/Generated/CMSIS_DSP/Source/FilteringFunctions/arm_conv_partial_fast_q31.c **** 
 507:../Dave/Generated/CMSIS_DSP/Source/FilteringFunctions/arm_conv_partial_fast_q31.c ****         /* Decrement the loop counter */
 508:../Dave/Generated/CMSIS_DSP/Source/FilteringFunctions/arm_conv_partial_fast_q31.c ****         blkCnt--;
 508              	 .loc 1 508 0
 509 0320 FB6D     	 ldr r3,[r7,#92]
 510 0322 013B     	 subs r3,r3,#1
 511 0324 FB65     	 str r3,[r7,#92]
 512              	.L26:
 479:../Dave/Generated/CMSIS_DSP/Source/FilteringFunctions/arm_conv_partial_fast_q31.c ****       {
 513              	 .loc 1 479 0
 514 0326 FB6D     	 ldr r3,[r7,#92]
 515 0328 002B     	 cmp r3,#0
 516 032a B6D1     	 bne .L29
 517              	.L25:
 509:../Dave/Generated/CMSIS_DSP/Source/FilteringFunctions/arm_conv_partial_fast_q31.c ****       }
 510:../Dave/Generated/CMSIS_DSP/Source/FilteringFunctions/arm_conv_partial_fast_q31.c ****     }
 511:../Dave/Generated/CMSIS_DSP/Source/FilteringFunctions/arm_conv_partial_fast_q31.c **** 
 512:../Dave/Generated/CMSIS_DSP/Source/FilteringFunctions/arm_conv_partial_fast_q31.c **** 
 513:../Dave/Generated/CMSIS_DSP/Source/FilteringFunctions/arm_conv_partial_fast_q31.c ****     /* --------------------------
 514:../Dave/Generated/CMSIS_DSP/Source/FilteringFunctions/arm_conv_partial_fast_q31.c ****      * Initializations of stage3
 515:../Dave/Generated/CMSIS_DSP/Source/FilteringFunctions/arm_conv_partial_fast_q31.c ****      * -------------------------*/
 516:../Dave/Generated/CMSIS_DSP/Source/FilteringFunctions/arm_conv_partial_fast_q31.c **** 
 517:../Dave/Generated/CMSIS_DSP/Source/FilteringFunctions/arm_conv_partial_fast_q31.c ****     /* sum += x[srcALen-srcBLen+1] * y[srcBLen-1] + x[srcALen-srcBLen+2] * y[srcBLen-2] +...+ x[src
 518:../Dave/Generated/CMSIS_DSP/Source/FilteringFunctions/arm_conv_partial_fast_q31.c ****      * sum += x[srcALen-srcBLen+2] * y[srcBLen-1] + x[srcALen-srcBLen+3] * y[srcBLen-2] +...+ x[src
 519:../Dave/Generated/CMSIS_DSP/Source/FilteringFunctions/arm_conv_partial_fast_q31.c ****      * ....
 520:../Dave/Generated/CMSIS_DSP/Source/FilteringFunctions/arm_conv_partial_fast_q31.c ****      * sum +=  x[srcALen-2] * y[srcBLen-1] + x[srcALen-1] * y[srcBLen-2]
 521:../Dave/Generated/CMSIS_DSP/Source/FilteringFunctions/arm_conv_partial_fast_q31.c ****      * sum +=  x[srcALen-1] * y[srcBLen-1]
 522:../Dave/Generated/CMSIS_DSP/Source/FilteringFunctions/arm_conv_partial_fast_q31.c ****      */
 523:../Dave/Generated/CMSIS_DSP/Source/FilteringFunctions/arm_conv_partial_fast_q31.c **** 
 524:../Dave/Generated/CMSIS_DSP/Source/FilteringFunctions/arm_conv_partial_fast_q31.c ****     /* In this stage the MAC operations are decreased by 1 for every iteration.
 525:../Dave/Generated/CMSIS_DSP/Source/FilteringFunctions/arm_conv_partial_fast_q31.c ****        The count variable holds the number of MAC operations performed */
 526:../Dave/Generated/CMSIS_DSP/Source/FilteringFunctions/arm_conv_partial_fast_q31.c ****     count = srcBLen - 1U;
 518              	 .loc 1 526 0
 519 032c 3B6B     	 ldr r3,[r7,#48]
 520 032e 013B     	 subs r3,r3,#1
 521 0330 3B66     	 str r3,[r7,#96]
 527:../Dave/Generated/CMSIS_DSP/Source/FilteringFunctions/arm_conv_partial_fast_q31.c **** 
 528:../Dave/Generated/CMSIS_DSP/Source/FilteringFunctions/arm_conv_partial_fast_q31.c ****     /* Working pointer of inputA */
 529:../Dave/Generated/CMSIS_DSP/Source/FilteringFunctions/arm_conv_partial_fast_q31.c ****     pSrc1 = (pIn1 + srcALen) - (srcBLen - 1U);
 522              	 .loc 1 529 0
 523 0332 BA6B     	 ldr r2,[r7,#56]
 524 0334 3B6B     	 ldr r3,[r7,#48]
 525 0336 D31A     	 subs r3,r2,r3
 526 0338 0133     	 adds r3,r3,#1
 527 033a 9B00     	 lsls r3,r3,#2
 528 033c D7F88420 	 ldr r2,[r7,#132]
 529 0340 1344     	 add r3,r3,r2
 530 0342 3B67     	 str r3,[r7,#112]
 530:../Dave/Generated/CMSIS_DSP/Source/FilteringFunctions/arm_conv_partial_fast_q31.c ****     px = pSrc1;
 531              	 .loc 1 530 0
 532 0344 3B6F     	 ldr r3,[r7,#112]
 533 0346 BB67     	 str r3,[r7,#120]
 531:../Dave/Generated/CMSIS_DSP/Source/FilteringFunctions/arm_conv_partial_fast_q31.c **** 
 532:../Dave/Generated/CMSIS_DSP/Source/FilteringFunctions/arm_conv_partial_fast_q31.c ****     /* Working pointer of inputB */
 533:../Dave/Generated/CMSIS_DSP/Source/FilteringFunctions/arm_conv_partial_fast_q31.c ****     pSrc2 = pIn2 + (srcBLen - 1U);
 534              	 .loc 1 533 0
 535 0348 3B6B     	 ldr r3,[r7,#48]
 536 034a 03F18043 	 add r3,r3,#1073741824
 537 034e 013B     	 subs r3,r3,#1
 538 0350 9B00     	 lsls r3,r3,#2
 539 0352 D7F88020 	 ldr r2,[r7,#128]
 540 0356 1344     	 add r3,r3,r2
 541 0358 FB66     	 str r3,[r7,#108]
 534:../Dave/Generated/CMSIS_DSP/Source/FilteringFunctions/arm_conv_partial_fast_q31.c ****     py = pSrc2;
 542              	 .loc 1 534 0
 543 035a FB6E     	 ldr r3,[r7,#108]
 544 035c 7B67     	 str r3,[r7,#116]
 535:../Dave/Generated/CMSIS_DSP/Source/FilteringFunctions/arm_conv_partial_fast_q31.c **** 
 536:../Dave/Generated/CMSIS_DSP/Source/FilteringFunctions/arm_conv_partial_fast_q31.c ****     /* -------------------
 537:../Dave/Generated/CMSIS_DSP/Source/FilteringFunctions/arm_conv_partial_fast_q31.c ****      * Stage3 process
 538:../Dave/Generated/CMSIS_DSP/Source/FilteringFunctions/arm_conv_partial_fast_q31.c ****      * ------------------*/
 539:../Dave/Generated/CMSIS_DSP/Source/FilteringFunctions/arm_conv_partial_fast_q31.c **** 
 540:../Dave/Generated/CMSIS_DSP/Source/FilteringFunctions/arm_conv_partial_fast_q31.c ****     while (blockSize3 > 0U)
 545              	 .loc 1 540 0
 546 035e 45E0     	 b .L30
 547              	.L33:
 541:../Dave/Generated/CMSIS_DSP/Source/FilteringFunctions/arm_conv_partial_fast_q31.c ****     {
 542:../Dave/Generated/CMSIS_DSP/Source/FilteringFunctions/arm_conv_partial_fast_q31.c ****       /* Accumulator is made zero for every iteration */
 543:../Dave/Generated/CMSIS_DSP/Source/FilteringFunctions/arm_conv_partial_fast_q31.c ****       sum = 0;
 548              	 .loc 1 543 0
 549 0360 0023     	 movs r3,#0
 550 0362 BB66     	 str r3,[r7,#104]
 544:../Dave/Generated/CMSIS_DSP/Source/FilteringFunctions/arm_conv_partial_fast_q31.c **** 
 545:../Dave/Generated/CMSIS_DSP/Source/FilteringFunctions/arm_conv_partial_fast_q31.c **** #if defined (ARM_MATH_LOOPUNROLL)
 546:../Dave/Generated/CMSIS_DSP/Source/FilteringFunctions/arm_conv_partial_fast_q31.c **** 
 547:../Dave/Generated/CMSIS_DSP/Source/FilteringFunctions/arm_conv_partial_fast_q31.c ****       /* Loop unrolling: Compute 4 outputs at a time */
 548:../Dave/Generated/CMSIS_DSP/Source/FilteringFunctions/arm_conv_partial_fast_q31.c ****       k = count >> 2U;
 549:../Dave/Generated/CMSIS_DSP/Source/FilteringFunctions/arm_conv_partial_fast_q31.c **** 
 550:../Dave/Generated/CMSIS_DSP/Source/FilteringFunctions/arm_conv_partial_fast_q31.c ****       while (k > 0U)
 551:../Dave/Generated/CMSIS_DSP/Source/FilteringFunctions/arm_conv_partial_fast_q31.c ****       {
 552:../Dave/Generated/CMSIS_DSP/Source/FilteringFunctions/arm_conv_partial_fast_q31.c ****         /* sum += x[srcALen - srcBLen + 1] * y[srcBLen - 1] */
 553:../Dave/Generated/CMSIS_DSP/Source/FilteringFunctions/arm_conv_partial_fast_q31.c ****         sum = (q31_t) ((((q63_t) sum << 32) +
 554:../Dave/Generated/CMSIS_DSP/Source/FilteringFunctions/arm_conv_partial_fast_q31.c ****                         ((q63_t) *px++ * (*py--))) >> 32);
 555:../Dave/Generated/CMSIS_DSP/Source/FilteringFunctions/arm_conv_partial_fast_q31.c **** 
 556:../Dave/Generated/CMSIS_DSP/Source/FilteringFunctions/arm_conv_partial_fast_q31.c ****         /* sum += x[srcALen - srcBLen + 2] * y[srcBLen - 2] */
 557:../Dave/Generated/CMSIS_DSP/Source/FilteringFunctions/arm_conv_partial_fast_q31.c ****         sum = (q31_t) ((((q63_t) sum << 32) +
 558:../Dave/Generated/CMSIS_DSP/Source/FilteringFunctions/arm_conv_partial_fast_q31.c ****                         ((q63_t) *px++ * (*py--))) >> 32);
 559:../Dave/Generated/CMSIS_DSP/Source/FilteringFunctions/arm_conv_partial_fast_q31.c **** 
 560:../Dave/Generated/CMSIS_DSP/Source/FilteringFunctions/arm_conv_partial_fast_q31.c ****         /* sum += x[srcALen - srcBLen + 3] * y[srcBLen - 3] */
 561:../Dave/Generated/CMSIS_DSP/Source/FilteringFunctions/arm_conv_partial_fast_q31.c ****         sum = (q31_t) ((((q63_t) sum << 32) +
 562:../Dave/Generated/CMSIS_DSP/Source/FilteringFunctions/arm_conv_partial_fast_q31.c ****                         ((q63_t) *px++ * (*py--))) >> 32);
 563:../Dave/Generated/CMSIS_DSP/Source/FilteringFunctions/arm_conv_partial_fast_q31.c **** 
 564:../Dave/Generated/CMSIS_DSP/Source/FilteringFunctions/arm_conv_partial_fast_q31.c ****         /* sum += x[srcALen - srcBLen + 4] * y[srcBLen - 4] */
 565:../Dave/Generated/CMSIS_DSP/Source/FilteringFunctions/arm_conv_partial_fast_q31.c ****         sum = (q31_t) ((((q63_t) sum << 32) +
 566:../Dave/Generated/CMSIS_DSP/Source/FilteringFunctions/arm_conv_partial_fast_q31.c ****                         ((q63_t) *px++ * (*py--))) >> 32);
 567:../Dave/Generated/CMSIS_DSP/Source/FilteringFunctions/arm_conv_partial_fast_q31.c **** 
 568:../Dave/Generated/CMSIS_DSP/Source/FilteringFunctions/arm_conv_partial_fast_q31.c ****         /* Decrement loop counter */
 569:../Dave/Generated/CMSIS_DSP/Source/FilteringFunctions/arm_conv_partial_fast_q31.c ****         k--;
 570:../Dave/Generated/CMSIS_DSP/Source/FilteringFunctions/arm_conv_partial_fast_q31.c ****       }
 571:../Dave/Generated/CMSIS_DSP/Source/FilteringFunctions/arm_conv_partial_fast_q31.c **** 
 572:../Dave/Generated/CMSIS_DSP/Source/FilteringFunctions/arm_conv_partial_fast_q31.c ****       /* Loop unrolling: Compute remaining outputs */
 573:../Dave/Generated/CMSIS_DSP/Source/FilteringFunctions/arm_conv_partial_fast_q31.c ****       k = count % 0x4U;
 574:../Dave/Generated/CMSIS_DSP/Source/FilteringFunctions/arm_conv_partial_fast_q31.c **** 
 575:../Dave/Generated/CMSIS_DSP/Source/FilteringFunctions/arm_conv_partial_fast_q31.c **** #else
 576:../Dave/Generated/CMSIS_DSP/Source/FilteringFunctions/arm_conv_partial_fast_q31.c **** 
 577:../Dave/Generated/CMSIS_DSP/Source/FilteringFunctions/arm_conv_partial_fast_q31.c ****       /* Initialize blkCnt with number of samples */
 578:../Dave/Generated/CMSIS_DSP/Source/FilteringFunctions/arm_conv_partial_fast_q31.c ****       k = count;
 551              	 .loc 1 578 0
 552 0364 3B6E     	 ldr r3,[r7,#96]
 553 0366 7B66     	 str r3,[r7,#100]
 579:../Dave/Generated/CMSIS_DSP/Source/FilteringFunctions/arm_conv_partial_fast_q31.c **** 
 580:../Dave/Generated/CMSIS_DSP/Source/FilteringFunctions/arm_conv_partial_fast_q31.c **** #endif /* #if defined (ARM_MATH_LOOPUNROLL) */
 581:../Dave/Generated/CMSIS_DSP/Source/FilteringFunctions/arm_conv_partial_fast_q31.c **** 
 582:../Dave/Generated/CMSIS_DSP/Source/FilteringFunctions/arm_conv_partial_fast_q31.c ****       while (k > 0U)
 554              	 .loc 1 582 0
 555 0368 2AE0     	 b .L31
 556              	.L32:
 583:../Dave/Generated/CMSIS_DSP/Source/FilteringFunctions/arm_conv_partial_fast_q31.c ****       {
 584:../Dave/Generated/CMSIS_DSP/Source/FilteringFunctions/arm_conv_partial_fast_q31.c ****         /* Perform the multiply-accumulates */
 585:../Dave/Generated/CMSIS_DSP/Source/FilteringFunctions/arm_conv_partial_fast_q31.c ****         /* sum +=  x[srcALen-1] * y[srcBLen-1] */
 586:../Dave/Generated/CMSIS_DSP/Source/FilteringFunctions/arm_conv_partial_fast_q31.c ****         sum = (q31_t) ((((q63_t) sum << 32) +
 557              	 .loc 1 586 0
 558 036a BB6E     	 ldr r3,[r7,#104]
 559 036c 1A46     	 mov r2,r3
 560 036e 4FEAE273 	 asr r3,r2,#31
 561 0372 9146     	 mov r9,r2
 562 0374 4FF00008 	 mov r8,#0
 587:../Dave/Generated/CMSIS_DSP/Source/FilteringFunctions/arm_conv_partial_fast_q31.c ****                         ((q63_t) *px++ * (*py--))) >> 32);
 563              	 .loc 1 587 0
 564 0378 BB6F     	 ldr r3,[r7,#120]
 565 037a 1A1D     	 adds r2,r3,#4
 566 037c BA67     	 str r2,[r7,#120]
 567 037e 1B68     	 ldr r3,[r3]
 568 0380 1846     	 mov r0,r3
 569 0382 4FEAE071 	 asr r1,r0,#31
 570 0386 7B6F     	 ldr r3,[r7,#116]
 571 0388 1A1F     	 subs r2,r3,#4
 572 038a 7A67     	 str r2,[r7,#116]
 573 038c 1B68     	 ldr r3,[r3]
 574 038e 1A46     	 mov r2,r3
 575 0390 4FEAE273 	 asr r3,r2,#31
 576 0394 02FB01F5 	 mul r5,r2,r1
 577 0398 00FB03F4 	 mul r4,r0,r3
 578 039c 2C44     	 add r4,r4,r5
 579 039e A0FB0223 	 umull r2,r3,r0,r2
 580 03a2 E118     	 adds r1,r4,r3
 581 03a4 0B46     	 mov r3,r1
 586:../Dave/Generated/CMSIS_DSP/Source/FilteringFunctions/arm_conv_partial_fast_q31.c ****                         ((q63_t) *px++ * (*py--))) >> 32);
 582              	 .loc 1 586 0
 583 03a6 12EB0802 	 adds r2,r2,r8
 584 03aa 43EB0903 	 adc r3,r3,r9
 585              	 .loc 1 587 0
 586 03ae 1900     	 movs r1,r3
 587 03b0 3960     	 str r1,[r7]
 588 03b2 DB17     	 asrs r3,r3,#31
 589 03b4 7B60     	 str r3,[r7,#4]
 586:../Dave/Generated/CMSIS_DSP/Source/FilteringFunctions/arm_conv_partial_fast_q31.c ****                         ((q63_t) *px++ * (*py--))) >> 32);
 590              	 .loc 1 586 0
 591 03b6 3B68     	 ldr r3,[r7]
 592 03b8 BB66     	 str r3,[r7,#104]
 588:../Dave/Generated/CMSIS_DSP/Source/FilteringFunctions/arm_conv_partial_fast_q31.c **** 
 589:../Dave/Generated/CMSIS_DSP/Source/FilteringFunctions/arm_conv_partial_fast_q31.c ****         /* Decrement loop counter */
 590:../Dave/Generated/CMSIS_DSP/Source/FilteringFunctions/arm_conv_partial_fast_q31.c ****         k--;
 593              	 .loc 1 590 0
 594 03ba 7B6E     	 ldr r3,[r7,#100]
 595 03bc 013B     	 subs r3,r3,#1
 596 03be 7B66     	 str r3,[r7,#100]
 597              	.L31:
 582:../Dave/Generated/CMSIS_DSP/Source/FilteringFunctions/arm_conv_partial_fast_q31.c ****       {
 598              	 .loc 1 582 0
 599 03c0 7B6E     	 ldr r3,[r7,#100]
 600 03c2 002B     	 cmp r3,#0
 601 03c4 D1D1     	 bne .L32
 591:../Dave/Generated/CMSIS_DSP/Source/FilteringFunctions/arm_conv_partial_fast_q31.c ****       }
 592:../Dave/Generated/CMSIS_DSP/Source/FilteringFunctions/arm_conv_partial_fast_q31.c **** 
 593:../Dave/Generated/CMSIS_DSP/Source/FilteringFunctions/arm_conv_partial_fast_q31.c ****       /* Store the result in the accumulator in the destination buffer. */
 594:../Dave/Generated/CMSIS_DSP/Source/FilteringFunctions/arm_conv_partial_fast_q31.c ****       *pOut++ = sum << 1;
 602              	 .loc 1 594 0
 603 03c6 FB6F     	 ldr r3,[r7,#124]
 604 03c8 1A1D     	 adds r2,r3,#4
 605 03ca FA67     	 str r2,[r7,#124]
 606 03cc BA6E     	 ldr r2,[r7,#104]
 607 03ce 5200     	 lsls r2,r2,#1
 608 03d0 1A60     	 str r2,[r3]
 595:../Dave/Generated/CMSIS_DSP/Source/FilteringFunctions/arm_conv_partial_fast_q31.c **** 
 596:../Dave/Generated/CMSIS_DSP/Source/FilteringFunctions/arm_conv_partial_fast_q31.c ****       /* Update the inputA and inputB pointers for next MAC calculation */
 597:../Dave/Generated/CMSIS_DSP/Source/FilteringFunctions/arm_conv_partial_fast_q31.c ****       px = ++pSrc1;
 609              	 .loc 1 597 0
 610 03d2 3B6F     	 ldr r3,[r7,#112]
 611 03d4 0433     	 adds r3,r3,#4
 612 03d6 3B67     	 str r3,[r7,#112]
 613 03d8 3B6F     	 ldr r3,[r7,#112]
 614 03da BB67     	 str r3,[r7,#120]
 598:../Dave/Generated/CMSIS_DSP/Source/FilteringFunctions/arm_conv_partial_fast_q31.c ****       py = pSrc2;
 615              	 .loc 1 598 0
 616 03dc FB6E     	 ldr r3,[r7,#108]
 617 03de 7B67     	 str r3,[r7,#116]
 599:../Dave/Generated/CMSIS_DSP/Source/FilteringFunctions/arm_conv_partial_fast_q31.c **** 
 600:../Dave/Generated/CMSIS_DSP/Source/FilteringFunctions/arm_conv_partial_fast_q31.c ****       /* Decrement MAC count */
 601:../Dave/Generated/CMSIS_DSP/Source/FilteringFunctions/arm_conv_partial_fast_q31.c ****       count--;
 618              	 .loc 1 601 0
 619 03e0 3B6E     	 ldr r3,[r7,#96]
 620 03e2 013B     	 subs r3,r3,#1
 621 03e4 3B66     	 str r3,[r7,#96]
 602:../Dave/Generated/CMSIS_DSP/Source/FilteringFunctions/arm_conv_partial_fast_q31.c **** 
 603:../Dave/Generated/CMSIS_DSP/Source/FilteringFunctions/arm_conv_partial_fast_q31.c ****       /* Decrement the loop counter */
 604:../Dave/Generated/CMSIS_DSP/Source/FilteringFunctions/arm_conv_partial_fast_q31.c ****       blockSize3--;
 622              	 .loc 1 604 0
 623 03e6 7B6D     	 ldr r3,[r7,#84]
 624 03e8 013B     	 subs r3,r3,#1
 625 03ea 7B65     	 str r3,[r7,#84]
 626              	.L30:
 540:../Dave/Generated/CMSIS_DSP/Source/FilteringFunctions/arm_conv_partial_fast_q31.c ****     {
 627              	 .loc 1 540 0
 628 03ec 7B6D     	 ldr r3,[r7,#84]
 629 03ee 002B     	 cmp r3,#0
 630 03f0 B6D1     	 bne .L33
 605:../Dave/Generated/CMSIS_DSP/Source/FilteringFunctions/arm_conv_partial_fast_q31.c ****     }
 606:../Dave/Generated/CMSIS_DSP/Source/FilteringFunctions/arm_conv_partial_fast_q31.c **** 
 607:../Dave/Generated/CMSIS_DSP/Source/FilteringFunctions/arm_conv_partial_fast_q31.c ****     /* Set status as ARM_MATH_SUCCESS */
 608:../Dave/Generated/CMSIS_DSP/Source/FilteringFunctions/arm_conv_partial_fast_q31.c ****     status = ARM_MATH_SUCCESS;
 631              	 .loc 1 608 0
 632 03f2 0023     	 movs r3,#0
 633 03f4 87F85330 	 strb r3,[r7,#83]
 634              	.L3:
 609:../Dave/Generated/CMSIS_DSP/Source/FilteringFunctions/arm_conv_partial_fast_q31.c ****   }
 610:../Dave/Generated/CMSIS_DSP/Source/FilteringFunctions/arm_conv_partial_fast_q31.c **** 
 611:../Dave/Generated/CMSIS_DSP/Source/FilteringFunctions/arm_conv_partial_fast_q31.c ****   /* Return to application */
 612:../Dave/Generated/CMSIS_DSP/Source/FilteringFunctions/arm_conv_partial_fast_q31.c ****   return (status);
 635              	 .loc 1 612 0
 636 03f8 97F85330 	 ldrb r3,[r7,#83]
 637 03fc 5BB2     	 sxtb r3,r3
 613:../Dave/Generated/CMSIS_DSP/Source/FilteringFunctions/arm_conv_partial_fast_q31.c **** 
 614:../Dave/Generated/CMSIS_DSP/Source/FilteringFunctions/arm_conv_partial_fast_q31.c **** }
 638              	 .loc 1 614 0
 639 03fe 1846     	 mov r0,r3
 640 0400 8C37     	 adds r7,r7,#140
 641              	.LCFI3:
 642              	 .cfi_def_cfa_offset 28
 643 0402 BD46     	 mov sp,r7
 644              	.LCFI4:
 645              	 .cfi_def_cfa_register 13
 646              	 
 647 0404 BDE8B00F 	 pop {r4,r5,r7,r8,r9,r10,fp}
 648              	.LCFI5:
 649              	 .cfi_restore 11
 650              	 .cfi_restore 10
 651              	 .cfi_restore 9
 652              	 .cfi_restore 8
 653              	 .cfi_restore 7
 654              	 .cfi_restore 5
 655              	 .cfi_restore 4
 656              	 .cfi_def_cfa_offset 0
 657 0408 7047     	 bx lr
 658              	 .cfi_endproc
 659              	.LFE149:
 661 040a 00BF     	 .text
 662              	.Letext0:
 663              	 .file 2 "c:\\infineon\\tools\\dave ide\\4.5.0.202105191637\\eclipse\\arm-gcc-49\\arm-none-eabi\\include\\machine\\_default_types.h"
 664              	 .file 3 "c:\\infineon\\tools\\dave ide\\4.5.0.202105191637\\eclipse\\arm-gcc-49\\arm-none-eabi\\include\\stdint.h"
 665              	 .file 4 "C:/Users/Rui Mendes/Desktop/DAVE/_Naive/_ForTesting/Dave/Generated/CMSIS_DSP/Include/arm_math.h"
 666              	 .file 5 "C:/Users/Rui Mendes/Desktop/DAVE/_Naive/_ForTesting/Libraries/CMSIS/Include/cmsis_gcc.h"