   1              	 .syntax unified
   2              	 .cpu cortex-m4
   3              	 .eabi_attribute 27,3
   4              	 .fpu fpv4-sp-d16
   5              	 .eabi_attribute 20,1
   6              	 .eabi_attribute 21,1
   7              	 .eabi_attribute 23,3
   8              	 .eabi_attribute 24,1
   9              	 .eabi_attribute 25,1
  10              	 .eabi_attribute 26,1
  11              	 .eabi_attribute 30,6
  12              	 .eabi_attribute 34,1
  13              	 .eabi_attribute 18,4
  14              	 .thumb
  15              	 .file "arm_correlate_opt_q15.c"
  16              	 .text
  17              	.Ltext0:
  18              	 .cfi_sections .debug_frame
  19              	 .section .text.arm_correlate_opt_q15,"ax",%progbits
  20              	 .align 2
  21              	 .global arm_correlate_opt_q15
  22              	 .thumb
  23              	 .thumb_func
  25              	arm_correlate_opt_q15:
  26              	.LFB149:
  27              	 .file 1 "../Dave/Generated/CMSIS_DSP/Source/FilteringFunctions/arm_correlate_opt_q15.c"
   1:../Dave/Generated/CMSIS_DSP/Source/FilteringFunctions/arm_correlate_opt_q15.c **** /* ----------------------------------------------------------------------
   2:../Dave/Generated/CMSIS_DSP/Source/FilteringFunctions/arm_correlate_opt_q15.c ****  * Project:      CMSIS DSP Library
   3:../Dave/Generated/CMSIS_DSP/Source/FilteringFunctions/arm_correlate_opt_q15.c ****  * Title:        arm_correlate_opt_q15.c
   4:../Dave/Generated/CMSIS_DSP/Source/FilteringFunctions/arm_correlate_opt_q15.c ****  * Description:  Correlation of Q15 sequences
   5:../Dave/Generated/CMSIS_DSP/Source/FilteringFunctions/arm_correlate_opt_q15.c ****  *
   6:../Dave/Generated/CMSIS_DSP/Source/FilteringFunctions/arm_correlate_opt_q15.c ****  * $Date:        18. March 2019
   7:../Dave/Generated/CMSIS_DSP/Source/FilteringFunctions/arm_correlate_opt_q15.c ****  * $Revision:    V1.6.0
   8:../Dave/Generated/CMSIS_DSP/Source/FilteringFunctions/arm_correlate_opt_q15.c ****  *
   9:../Dave/Generated/CMSIS_DSP/Source/FilteringFunctions/arm_correlate_opt_q15.c ****  * Target Processor: Cortex-M cores
  10:../Dave/Generated/CMSIS_DSP/Source/FilteringFunctions/arm_correlate_opt_q15.c ****  * -------------------------------------------------------------------- */
  11:../Dave/Generated/CMSIS_DSP/Source/FilteringFunctions/arm_correlate_opt_q15.c **** /*
  12:../Dave/Generated/CMSIS_DSP/Source/FilteringFunctions/arm_correlate_opt_q15.c ****  * Copyright (C) 2010-2019 ARM Limited or its affiliates. All rights reserved.
  13:../Dave/Generated/CMSIS_DSP/Source/FilteringFunctions/arm_correlate_opt_q15.c ****  *
  14:../Dave/Generated/CMSIS_DSP/Source/FilteringFunctions/arm_correlate_opt_q15.c ****  * SPDX-License-Identifier: Apache-2.0
  15:../Dave/Generated/CMSIS_DSP/Source/FilteringFunctions/arm_correlate_opt_q15.c ****  *
  16:../Dave/Generated/CMSIS_DSP/Source/FilteringFunctions/arm_correlate_opt_q15.c ****  * Licensed under the Apache License, Version 2.0 (the License); you may
  17:../Dave/Generated/CMSIS_DSP/Source/FilteringFunctions/arm_correlate_opt_q15.c ****  * not use this file except in compliance with the License.
  18:../Dave/Generated/CMSIS_DSP/Source/FilteringFunctions/arm_correlate_opt_q15.c ****  * You may obtain a copy of the License at
  19:../Dave/Generated/CMSIS_DSP/Source/FilteringFunctions/arm_correlate_opt_q15.c ****  *
  20:../Dave/Generated/CMSIS_DSP/Source/FilteringFunctions/arm_correlate_opt_q15.c ****  * www.apache.org/licenses/LICENSE-2.0
  21:../Dave/Generated/CMSIS_DSP/Source/FilteringFunctions/arm_correlate_opt_q15.c ****  *
  22:../Dave/Generated/CMSIS_DSP/Source/FilteringFunctions/arm_correlate_opt_q15.c ****  * Unless required by applicable law or agreed to in writing, software
  23:../Dave/Generated/CMSIS_DSP/Source/FilteringFunctions/arm_correlate_opt_q15.c ****  * distributed under the License is distributed on an AS IS BASIS, WITHOUT
  24:../Dave/Generated/CMSIS_DSP/Source/FilteringFunctions/arm_correlate_opt_q15.c ****  * WARRANTIES OR CONDITIONS OF ANY KIND, either express or implied.
  25:../Dave/Generated/CMSIS_DSP/Source/FilteringFunctions/arm_correlate_opt_q15.c ****  * See the License for the specific language governing permissions and
  26:../Dave/Generated/CMSIS_DSP/Source/FilteringFunctions/arm_correlate_opt_q15.c ****  * limitations under the License.
  27:../Dave/Generated/CMSIS_DSP/Source/FilteringFunctions/arm_correlate_opt_q15.c ****  */
  28:../Dave/Generated/CMSIS_DSP/Source/FilteringFunctions/arm_correlate_opt_q15.c **** 
  29:../Dave/Generated/CMSIS_DSP/Source/FilteringFunctions/arm_correlate_opt_q15.c **** #include "CMSIS_DSP/cmsis_dsp.h"
  30:../Dave/Generated/CMSIS_DSP/Source/FilteringFunctions/arm_correlate_opt_q15.c **** 
  31:../Dave/Generated/CMSIS_DSP/Source/FilteringFunctions/arm_correlate_opt_q15.c **** /**
  32:../Dave/Generated/CMSIS_DSP/Source/FilteringFunctions/arm_correlate_opt_q15.c ****   @ingroup groupFilters
  33:../Dave/Generated/CMSIS_DSP/Source/FilteringFunctions/arm_correlate_opt_q15.c ****  */
  34:../Dave/Generated/CMSIS_DSP/Source/FilteringFunctions/arm_correlate_opt_q15.c **** 
  35:../Dave/Generated/CMSIS_DSP/Source/FilteringFunctions/arm_correlate_opt_q15.c **** /**
  36:../Dave/Generated/CMSIS_DSP/Source/FilteringFunctions/arm_correlate_opt_q15.c ****   @addtogroup Corr
  37:../Dave/Generated/CMSIS_DSP/Source/FilteringFunctions/arm_correlate_opt_q15.c ****   @{
  38:../Dave/Generated/CMSIS_DSP/Source/FilteringFunctions/arm_correlate_opt_q15.c ****  */
  39:../Dave/Generated/CMSIS_DSP/Source/FilteringFunctions/arm_correlate_opt_q15.c **** 
  40:../Dave/Generated/CMSIS_DSP/Source/FilteringFunctions/arm_correlate_opt_q15.c **** /**
  41:../Dave/Generated/CMSIS_DSP/Source/FilteringFunctions/arm_correlate_opt_q15.c ****   @brief         Correlation of Q15 sequences.
  42:../Dave/Generated/CMSIS_DSP/Source/FilteringFunctions/arm_correlate_opt_q15.c ****   @param[in]     pSrcA      points to the first input sequence
  43:../Dave/Generated/CMSIS_DSP/Source/FilteringFunctions/arm_correlate_opt_q15.c ****   @param[in]     srcALen    length of the first input sequence
  44:../Dave/Generated/CMSIS_DSP/Source/FilteringFunctions/arm_correlate_opt_q15.c ****   @param[in]     pSrcB      points to the second input sequence
  45:../Dave/Generated/CMSIS_DSP/Source/FilteringFunctions/arm_correlate_opt_q15.c ****   @param[in]     srcBLen    length of the second input sequence
  46:../Dave/Generated/CMSIS_DSP/Source/FilteringFunctions/arm_correlate_opt_q15.c ****   @param[out]    pDst       points to the location where the output result is written.  Length 2 * 
  47:../Dave/Generated/CMSIS_DSP/Source/FilteringFunctions/arm_correlate_opt_q15.c ****   @param[in]     pScratch   points to scratch buffer of size max(srcALen, srcBLen) + 2*min(srcALen,
  48:../Dave/Generated/CMSIS_DSP/Source/FilteringFunctions/arm_correlate_opt_q15.c ****   @return        none
  49:../Dave/Generated/CMSIS_DSP/Source/FilteringFunctions/arm_correlate_opt_q15.c **** 
  50:../Dave/Generated/CMSIS_DSP/Source/FilteringFunctions/arm_correlate_opt_q15.c ****   @par           Scaling and Overflow Behavior
  51:../Dave/Generated/CMSIS_DSP/Source/FilteringFunctions/arm_correlate_opt_q15.c ****                    The function is implemented using a 64-bit internal accumulator.
  52:../Dave/Generated/CMSIS_DSP/Source/FilteringFunctions/arm_correlate_opt_q15.c ****                    Both inputs are in 1.15 format and multiplications yield a 2.30 result.
  53:../Dave/Generated/CMSIS_DSP/Source/FilteringFunctions/arm_correlate_opt_q15.c ****                    The 2.30 intermediate results are accumulated in a 64-bit accumulator in 34.30 f
  54:../Dave/Generated/CMSIS_DSP/Source/FilteringFunctions/arm_correlate_opt_q15.c ****                    This approach provides 33 guard bits and there is no risk of overflow.
  55:../Dave/Generated/CMSIS_DSP/Source/FilteringFunctions/arm_correlate_opt_q15.c ****                    The 34.30 result is then truncated to 34.15 format by discarding the low 15 bits
  56:../Dave/Generated/CMSIS_DSP/Source/FilteringFunctions/arm_correlate_opt_q15.c **** 
  57:../Dave/Generated/CMSIS_DSP/Source/FilteringFunctions/arm_correlate_opt_q15.c ****  @remark
  58:../Dave/Generated/CMSIS_DSP/Source/FilteringFunctions/arm_correlate_opt_q15.c ****                    Refer to \ref arm_correlate_fast_q15() for a faster but less precise version of 
  59:../Dave/Generated/CMSIS_DSP/Source/FilteringFunctions/arm_correlate_opt_q15.c ****  */
  60:../Dave/Generated/CMSIS_DSP/Source/FilteringFunctions/arm_correlate_opt_q15.c **** 
  61:../Dave/Generated/CMSIS_DSP/Source/FilteringFunctions/arm_correlate_opt_q15.c **** void arm_correlate_opt_q15(
  62:../Dave/Generated/CMSIS_DSP/Source/FilteringFunctions/arm_correlate_opt_q15.c ****   const q15_t * pSrcA,
  63:../Dave/Generated/CMSIS_DSP/Source/FilteringFunctions/arm_correlate_opt_q15.c ****         uint32_t srcALen,
  64:../Dave/Generated/CMSIS_DSP/Source/FilteringFunctions/arm_correlate_opt_q15.c ****   const q15_t * pSrcB,
  65:../Dave/Generated/CMSIS_DSP/Source/FilteringFunctions/arm_correlate_opt_q15.c ****         uint32_t srcBLen,
  66:../Dave/Generated/CMSIS_DSP/Source/FilteringFunctions/arm_correlate_opt_q15.c ****         q15_t * pDst,
  67:../Dave/Generated/CMSIS_DSP/Source/FilteringFunctions/arm_correlate_opt_q15.c ****         q15_t * pScratch)
  68:../Dave/Generated/CMSIS_DSP/Source/FilteringFunctions/arm_correlate_opt_q15.c **** {
  28              	 .loc 1 68 0
  29              	 .cfi_startproc
  30              	 
  31              	 
  32 0000 B0B5     	 push {r4,r5,r7,lr}
  33              	.LCFI0:
  34              	 .cfi_def_cfa_offset 16
  35              	 .cfi_offset 4,-16
  36              	 .cfi_offset 5,-12
  37              	 .cfi_offset 7,-8
  38              	 .cfi_offset 14,-4
  39 0002 92B0     	 sub sp,sp,#72
  40              	.LCFI1:
  41              	 .cfi_def_cfa_offset 88
  42 0004 00AF     	 add r7,sp,#0
  43              	.LCFI2:
  44              	 .cfi_def_cfa_register 7
  45 0006 F860     	 str r0,[r7,#12]
  46 0008 B960     	 str r1,[r7,#8]
  47 000a 7A60     	 str r2,[r7,#4]
  48 000c 3B60     	 str r3,[r7]
  69:../Dave/Generated/CMSIS_DSP/Source/FilteringFunctions/arm_correlate_opt_q15.c ****         q63_t acc0;                                    /* Accumulators */
  70:../Dave/Generated/CMSIS_DSP/Source/FilteringFunctions/arm_correlate_opt_q15.c ****         q15_t *pOut = pDst;                            /* Output pointer */
  49              	 .loc 1 70 0
  50 000e BB6D     	 ldr r3,[r7,#88]
  51 0010 FB63     	 str r3,[r7,#60]
  71:../Dave/Generated/CMSIS_DSP/Source/FilteringFunctions/arm_correlate_opt_q15.c ****         q15_t *pScr1;                                  /* Temporary pointer for scratch1 */
  72:../Dave/Generated/CMSIS_DSP/Source/FilteringFunctions/arm_correlate_opt_q15.c ****   const q15_t *pIn1;                                   /* InputA pointer */
  73:../Dave/Generated/CMSIS_DSP/Source/FilteringFunctions/arm_correlate_opt_q15.c ****   const q15_t *pIn2;                                   /* InputB pointer */
  74:../Dave/Generated/CMSIS_DSP/Source/FilteringFunctions/arm_correlate_opt_q15.c ****   const q15_t *py;                                     /* Intermediate inputB pointer */
  75:../Dave/Generated/CMSIS_DSP/Source/FilteringFunctions/arm_correlate_opt_q15.c ****         uint32_t j, blkCnt, outBlockSize;              /* Loop counter */
  76:../Dave/Generated/CMSIS_DSP/Source/FilteringFunctions/arm_correlate_opt_q15.c ****         int32_t inc = 1;                               /* Output pointer increment */
  52              	 .loc 1 76 0
  53 0012 0123     	 movs r3,#1
  54 0014 BB62     	 str r3,[r7,#40]
  77:../Dave/Generated/CMSIS_DSP/Source/FilteringFunctions/arm_correlate_opt_q15.c ****         uint32_t tapCnt;
  78:../Dave/Generated/CMSIS_DSP/Source/FilteringFunctions/arm_correlate_opt_q15.c **** 
  79:../Dave/Generated/CMSIS_DSP/Source/FilteringFunctions/arm_correlate_opt_q15.c **** #if defined (ARM_MATH_LOOPUNROLL)
  80:../Dave/Generated/CMSIS_DSP/Source/FilteringFunctions/arm_correlate_opt_q15.c ****         q63_t acc1, acc2, acc3;                        /* Accumulators */
  81:../Dave/Generated/CMSIS_DSP/Source/FilteringFunctions/arm_correlate_opt_q15.c ****         q31_t x1, x2, x3;                              /* Temporary variables for holding input1 an
  82:../Dave/Generated/CMSIS_DSP/Source/FilteringFunctions/arm_correlate_opt_q15.c ****         q31_t y1, y2;                                  /* State variables */
  83:../Dave/Generated/CMSIS_DSP/Source/FilteringFunctions/arm_correlate_opt_q15.c **** #endif
  84:../Dave/Generated/CMSIS_DSP/Source/FilteringFunctions/arm_correlate_opt_q15.c **** 
  85:../Dave/Generated/CMSIS_DSP/Source/FilteringFunctions/arm_correlate_opt_q15.c ****   /* The algorithm implementation is based on the lengths of the inputs. */
  86:../Dave/Generated/CMSIS_DSP/Source/FilteringFunctions/arm_correlate_opt_q15.c ****   /* srcB is always made to slide across srcA. */
  87:../Dave/Generated/CMSIS_DSP/Source/FilteringFunctions/arm_correlate_opt_q15.c ****   /* So srcBLen is always considered as shorter or equal to srcALen */
  88:../Dave/Generated/CMSIS_DSP/Source/FilteringFunctions/arm_correlate_opt_q15.c ****   /* But CORR(x, y) is reverse of CORR(y, x) */
  89:../Dave/Generated/CMSIS_DSP/Source/FilteringFunctions/arm_correlate_opt_q15.c ****   /* So, when srcBLen > srcALen, output pointer is made to point to the end of the output buffer */
  90:../Dave/Generated/CMSIS_DSP/Source/FilteringFunctions/arm_correlate_opt_q15.c ****   /* and the destination pointer modifier, inc is set to -1 */
  91:../Dave/Generated/CMSIS_DSP/Source/FilteringFunctions/arm_correlate_opt_q15.c ****   /* If srcALen > srcBLen, zero pad has to be done to srcB to make the two inputs of same length */
  92:../Dave/Generated/CMSIS_DSP/Source/FilteringFunctions/arm_correlate_opt_q15.c ****   /* But to improve the performance,
  93:../Dave/Generated/CMSIS_DSP/Source/FilteringFunctions/arm_correlate_opt_q15.c ****    * we include zeroes in the output instead of zero padding either of the the inputs*/
  94:../Dave/Generated/CMSIS_DSP/Source/FilteringFunctions/arm_correlate_opt_q15.c ****   /* If srcALen > srcBLen,
  95:../Dave/Generated/CMSIS_DSP/Source/FilteringFunctions/arm_correlate_opt_q15.c ****    * (srcALen - srcBLen) zeroes has to included in the starting of the output buffer */
  96:../Dave/Generated/CMSIS_DSP/Source/FilteringFunctions/arm_correlate_opt_q15.c ****   /* If srcALen < srcBLen,
  97:../Dave/Generated/CMSIS_DSP/Source/FilteringFunctions/arm_correlate_opt_q15.c ****    * (srcALen - srcBLen) zeroes has to included in the ending of the output buffer */
  98:../Dave/Generated/CMSIS_DSP/Source/FilteringFunctions/arm_correlate_opt_q15.c ****   if (srcALen >= srcBLen)
  55              	 .loc 1 98 0
  56 0016 BA68     	 ldr r2,[r7,#8]
  57 0018 3B68     	 ldr r3,[r7]
  58 001a 9A42     	 cmp r2,r3
  59 001c 14D3     	 bcc .L2
  99:../Dave/Generated/CMSIS_DSP/Source/FilteringFunctions/arm_correlate_opt_q15.c ****   {
 100:../Dave/Generated/CMSIS_DSP/Source/FilteringFunctions/arm_correlate_opt_q15.c ****     /* Initialization of inputA pointer */
 101:../Dave/Generated/CMSIS_DSP/Source/FilteringFunctions/arm_correlate_opt_q15.c ****     pIn1 = pSrcA;
  60              	 .loc 1 101 0
  61 001e FB68     	 ldr r3,[r7,#12]
  62 0020 7B63     	 str r3,[r7,#52]
 102:../Dave/Generated/CMSIS_DSP/Source/FilteringFunctions/arm_correlate_opt_q15.c **** 
 103:../Dave/Generated/CMSIS_DSP/Source/FilteringFunctions/arm_correlate_opt_q15.c ****     /* Initialization of inputB pointer */
 104:../Dave/Generated/CMSIS_DSP/Source/FilteringFunctions/arm_correlate_opt_q15.c ****     pIn2 = pSrcB;
  63              	 .loc 1 104 0
  64 0022 7B68     	 ldr r3,[r7,#4]
  65 0024 3B63     	 str r3,[r7,#48]
 105:../Dave/Generated/CMSIS_DSP/Source/FilteringFunctions/arm_correlate_opt_q15.c **** 
 106:../Dave/Generated/CMSIS_DSP/Source/FilteringFunctions/arm_correlate_opt_q15.c ****     /* Number of output samples is calculated */
 107:../Dave/Generated/CMSIS_DSP/Source/FilteringFunctions/arm_correlate_opt_q15.c ****     outBlockSize = (srcALen * 2U) - 1U;
  66              	 .loc 1 107 0
  67 0026 BB68     	 ldr r3,[r7,#8]
  68 0028 5B00     	 lsls r3,r3,#1
  69 002a 013B     	 subs r3,r3,#1
  70 002c 3B62     	 str r3,[r7,#32]
 108:../Dave/Generated/CMSIS_DSP/Source/FilteringFunctions/arm_correlate_opt_q15.c **** 
 109:../Dave/Generated/CMSIS_DSP/Source/FilteringFunctions/arm_correlate_opt_q15.c ****     /* When srcALen > srcBLen, zero padding is done to srcB
 110:../Dave/Generated/CMSIS_DSP/Source/FilteringFunctions/arm_correlate_opt_q15.c ****      * to make their lengths equal.
 111:../Dave/Generated/CMSIS_DSP/Source/FilteringFunctions/arm_correlate_opt_q15.c ****      * Instead, (outBlockSize - (srcALen + srcBLen - 1))
 112:../Dave/Generated/CMSIS_DSP/Source/FilteringFunctions/arm_correlate_opt_q15.c ****      * number of output samples are made zero */
 113:../Dave/Generated/CMSIS_DSP/Source/FilteringFunctions/arm_correlate_opt_q15.c ****     j = outBlockSize - (srcALen + (srcBLen - 1U));
  71              	 .loc 1 113 0
  72 002e 3A68     	 ldr r2,[r7]
  73 0030 BB68     	 ldr r3,[r7,#8]
  74 0032 1344     	 add r3,r3,r2
  75 0034 3A6A     	 ldr r2,[r7,#32]
  76 0036 D31A     	 subs r3,r2,r3
  77 0038 0133     	 adds r3,r3,#1
  78 003a FB61     	 str r3,[r7,#28]
 114:../Dave/Generated/CMSIS_DSP/Source/FilteringFunctions/arm_correlate_opt_q15.c **** 
 115:../Dave/Generated/CMSIS_DSP/Source/FilteringFunctions/arm_correlate_opt_q15.c ****     /* Updating the pointer position to non zero value */
 116:../Dave/Generated/CMSIS_DSP/Source/FilteringFunctions/arm_correlate_opt_q15.c ****     pOut += j;
  79              	 .loc 1 116 0
  80 003c FB69     	 ldr r3,[r7,#28]
  81 003e 5B00     	 lsls r3,r3,#1
  82 0040 FA6B     	 ldr r2,[r7,#60]
  83 0042 1344     	 add r3,r3,r2
  84 0044 FB63     	 str r3,[r7,#60]
  85 0046 16E0     	 b .L3
  86              	.L2:
 117:../Dave/Generated/CMSIS_DSP/Source/FilteringFunctions/arm_correlate_opt_q15.c ****   }
 118:../Dave/Generated/CMSIS_DSP/Source/FilteringFunctions/arm_correlate_opt_q15.c ****   else
 119:../Dave/Generated/CMSIS_DSP/Source/FilteringFunctions/arm_correlate_opt_q15.c ****   {
 120:../Dave/Generated/CMSIS_DSP/Source/FilteringFunctions/arm_correlate_opt_q15.c ****     /* Initialization of inputA pointer */
 121:../Dave/Generated/CMSIS_DSP/Source/FilteringFunctions/arm_correlate_opt_q15.c ****     pIn1 = pSrcB;
  87              	 .loc 1 121 0
  88 0048 7B68     	 ldr r3,[r7,#4]
  89 004a 7B63     	 str r3,[r7,#52]
 122:../Dave/Generated/CMSIS_DSP/Source/FilteringFunctions/arm_correlate_opt_q15.c **** 
 123:../Dave/Generated/CMSIS_DSP/Source/FilteringFunctions/arm_correlate_opt_q15.c ****     /* Initialization of inputB pointer */
 124:../Dave/Generated/CMSIS_DSP/Source/FilteringFunctions/arm_correlate_opt_q15.c ****     pIn2 = pSrcA;
  90              	 .loc 1 124 0
  91 004c FB68     	 ldr r3,[r7,#12]
  92 004e 3B63     	 str r3,[r7,#48]
 125:../Dave/Generated/CMSIS_DSP/Source/FilteringFunctions/arm_correlate_opt_q15.c **** 
 126:../Dave/Generated/CMSIS_DSP/Source/FilteringFunctions/arm_correlate_opt_q15.c ****     /* srcBLen is always considered as shorter or equal to srcALen */
 127:../Dave/Generated/CMSIS_DSP/Source/FilteringFunctions/arm_correlate_opt_q15.c ****     j = srcBLen;
  93              	 .loc 1 127 0
  94 0050 3B68     	 ldr r3,[r7]
  95 0052 FB61     	 str r3,[r7,#28]
 128:../Dave/Generated/CMSIS_DSP/Source/FilteringFunctions/arm_correlate_opt_q15.c ****     srcBLen = srcALen;
  96              	 .loc 1 128 0
  97 0054 BB68     	 ldr r3,[r7,#8]
  98 0056 3B60     	 str r3,[r7]
 129:../Dave/Generated/CMSIS_DSP/Source/FilteringFunctions/arm_correlate_opt_q15.c ****     srcALen = j;
  99              	 .loc 1 129 0
 100 0058 FB69     	 ldr r3,[r7,#28]
 101 005a BB60     	 str r3,[r7,#8]
 130:../Dave/Generated/CMSIS_DSP/Source/FilteringFunctions/arm_correlate_opt_q15.c **** 
 131:../Dave/Generated/CMSIS_DSP/Source/FilteringFunctions/arm_correlate_opt_q15.c ****     /* CORR(x, y) = Reverse order(CORR(y, x)) */
 132:../Dave/Generated/CMSIS_DSP/Source/FilteringFunctions/arm_correlate_opt_q15.c ****     /* Hence set the destination pointer to point to the last output sample */
 133:../Dave/Generated/CMSIS_DSP/Source/FilteringFunctions/arm_correlate_opt_q15.c ****     pOut = pDst + ((srcALen + srcBLen) - 2U);
 102              	 .loc 1 133 0
 103 005c BA68     	 ldr r2,[r7,#8]
 104 005e 3B68     	 ldr r3,[r7]
 105 0060 1344     	 add r3,r3,r2
 106 0062 03F10043 	 add r3,r3,#-2147483648
 107 0066 023B     	 subs r3,r3,#2
 108 0068 5B00     	 lsls r3,r3,#1
 109 006a BA6D     	 ldr r2,[r7,#88]
 110 006c 1344     	 add r3,r3,r2
 111 006e FB63     	 str r3,[r7,#60]
 134:../Dave/Generated/CMSIS_DSP/Source/FilteringFunctions/arm_correlate_opt_q15.c **** 
 135:../Dave/Generated/CMSIS_DSP/Source/FilteringFunctions/arm_correlate_opt_q15.c ****     /* Destination address modifier is set to -1 */
 136:../Dave/Generated/CMSIS_DSP/Source/FilteringFunctions/arm_correlate_opt_q15.c ****     inc = -1;
 112              	 .loc 1 136 0
 113 0070 4FF0FF33 	 mov r3,#-1
 114 0074 BB62     	 str r3,[r7,#40]
 115              	.L3:
 137:../Dave/Generated/CMSIS_DSP/Source/FilteringFunctions/arm_correlate_opt_q15.c ****   }
 138:../Dave/Generated/CMSIS_DSP/Source/FilteringFunctions/arm_correlate_opt_q15.c **** 
 139:../Dave/Generated/CMSIS_DSP/Source/FilteringFunctions/arm_correlate_opt_q15.c ****   pScr1 = pScratch;
 116              	 .loc 1 139 0
 117 0076 FB6D     	 ldr r3,[r7,#92]
 118 0078 BB63     	 str r3,[r7,#56]
 140:../Dave/Generated/CMSIS_DSP/Source/FilteringFunctions/arm_correlate_opt_q15.c **** 
 141:../Dave/Generated/CMSIS_DSP/Source/FilteringFunctions/arm_correlate_opt_q15.c ****   /* Fill (srcBLen - 1U) zeros in scratch buffer */
 142:../Dave/Generated/CMSIS_DSP/Source/FilteringFunctions/arm_correlate_opt_q15.c ****   arm_fill_q15(0, pScr1, (srcBLen - 1U));
 119              	 .loc 1 142 0
 120 007a 3B68     	 ldr r3,[r7]
 121 007c 013B     	 subs r3,r3,#1
 122 007e 0020     	 movs r0,#0
 123 0080 B96B     	 ldr r1,[r7,#56]
 124 0082 1A46     	 mov r2,r3
 125 0084 FFF7FEFF 	 bl arm_fill_q15
 143:../Dave/Generated/CMSIS_DSP/Source/FilteringFunctions/arm_correlate_opt_q15.c **** 
 144:../Dave/Generated/CMSIS_DSP/Source/FilteringFunctions/arm_correlate_opt_q15.c ****   /* Update temporary scratch pointer */
 145:../Dave/Generated/CMSIS_DSP/Source/FilteringFunctions/arm_correlate_opt_q15.c ****   pScr1 += (srcBLen - 1U);
 126              	 .loc 1 145 0
 127 0088 3B68     	 ldr r3,[r7]
 128 008a 03F10043 	 add r3,r3,#-2147483648
 129 008e 013B     	 subs r3,r3,#1
 130 0090 5B00     	 lsls r3,r3,#1
 131 0092 BA6B     	 ldr r2,[r7,#56]
 132 0094 1344     	 add r3,r3,r2
 133 0096 BB63     	 str r3,[r7,#56]
 146:../Dave/Generated/CMSIS_DSP/Source/FilteringFunctions/arm_correlate_opt_q15.c **** 
 147:../Dave/Generated/CMSIS_DSP/Source/FilteringFunctions/arm_correlate_opt_q15.c ****   /* Copy (srcALen) samples in scratch buffer */
 148:../Dave/Generated/CMSIS_DSP/Source/FilteringFunctions/arm_correlate_opt_q15.c ****   arm_copy_q15(pIn1, pScr1, srcALen);
 134              	 .loc 1 148 0
 135 0098 786B     	 ldr r0,[r7,#52]
 136 009a B96B     	 ldr r1,[r7,#56]
 137 009c BA68     	 ldr r2,[r7,#8]
 138 009e FFF7FEFF 	 bl arm_copy_q15
 149:../Dave/Generated/CMSIS_DSP/Source/FilteringFunctions/arm_correlate_opt_q15.c **** 
 150:../Dave/Generated/CMSIS_DSP/Source/FilteringFunctions/arm_correlate_opt_q15.c ****   /* Update pointers */
 151:../Dave/Generated/CMSIS_DSP/Source/FilteringFunctions/arm_correlate_opt_q15.c ****   pScr1 += srcALen;
 139              	 .loc 1 151 0
 140 00a2 BB68     	 ldr r3,[r7,#8]
 141 00a4 5B00     	 lsls r3,r3,#1
 142 00a6 BA6B     	 ldr r2,[r7,#56]
 143 00a8 1344     	 add r3,r3,r2
 144 00aa BB63     	 str r3,[r7,#56]
 152:../Dave/Generated/CMSIS_DSP/Source/FilteringFunctions/arm_correlate_opt_q15.c **** 
 153:../Dave/Generated/CMSIS_DSP/Source/FilteringFunctions/arm_correlate_opt_q15.c **** 
 154:../Dave/Generated/CMSIS_DSP/Source/FilteringFunctions/arm_correlate_opt_q15.c ****   /* Fill (srcBLen - 1U) zeros at end of scratch buffer */
 155:../Dave/Generated/CMSIS_DSP/Source/FilteringFunctions/arm_correlate_opt_q15.c ****   arm_fill_q15(0, pScr1, (srcBLen - 1U));
 145              	 .loc 1 155 0
 146 00ac 3B68     	 ldr r3,[r7]
 147 00ae 013B     	 subs r3,r3,#1
 148 00b0 0020     	 movs r0,#0
 149 00b2 B96B     	 ldr r1,[r7,#56]
 150 00b4 1A46     	 mov r2,r3
 151 00b6 FFF7FEFF 	 bl arm_fill_q15
 156:../Dave/Generated/CMSIS_DSP/Source/FilteringFunctions/arm_correlate_opt_q15.c **** 
 157:../Dave/Generated/CMSIS_DSP/Source/FilteringFunctions/arm_correlate_opt_q15.c ****   /* Update pointer */
 158:../Dave/Generated/CMSIS_DSP/Source/FilteringFunctions/arm_correlate_opt_q15.c ****   pScr1 += (srcBLen - 1U);
 152              	 .loc 1 158 0
 153 00ba 3B68     	 ldr r3,[r7]
 154 00bc 03F10043 	 add r3,r3,#-2147483648
 155 00c0 013B     	 subs r3,r3,#1
 156 00c2 5B00     	 lsls r3,r3,#1
 157 00c4 BA6B     	 ldr r2,[r7,#56]
 158 00c6 1344     	 add r3,r3,r2
 159 00c8 BB63     	 str r3,[r7,#56]
 159:../Dave/Generated/CMSIS_DSP/Source/FilteringFunctions/arm_correlate_opt_q15.c **** 
 160:../Dave/Generated/CMSIS_DSP/Source/FilteringFunctions/arm_correlate_opt_q15.c ****   /* Temporary pointer for scratch2 */
 161:../Dave/Generated/CMSIS_DSP/Source/FilteringFunctions/arm_correlate_opt_q15.c ****   py = pIn2;
 160              	 .loc 1 161 0
 161 00ca 3B6B     	 ldr r3,[r7,#48]
 162 00cc BB61     	 str r3,[r7,#24]
 162:../Dave/Generated/CMSIS_DSP/Source/FilteringFunctions/arm_correlate_opt_q15.c **** 
 163:../Dave/Generated/CMSIS_DSP/Source/FilteringFunctions/arm_correlate_opt_q15.c **** 
 164:../Dave/Generated/CMSIS_DSP/Source/FilteringFunctions/arm_correlate_opt_q15.c ****   /* Actual correlation process starts here */
 165:../Dave/Generated/CMSIS_DSP/Source/FilteringFunctions/arm_correlate_opt_q15.c **** #if defined (ARM_MATH_LOOPUNROLL)
 166:../Dave/Generated/CMSIS_DSP/Source/FilteringFunctions/arm_correlate_opt_q15.c **** 
 167:../Dave/Generated/CMSIS_DSP/Source/FilteringFunctions/arm_correlate_opt_q15.c ****   /* Loop unrolling: Compute 4 outputs at a time */
 168:../Dave/Generated/CMSIS_DSP/Source/FilteringFunctions/arm_correlate_opt_q15.c ****   blkCnt = (srcALen + srcBLen - 1U) >> 2;
 169:../Dave/Generated/CMSIS_DSP/Source/FilteringFunctions/arm_correlate_opt_q15.c **** 
 170:../Dave/Generated/CMSIS_DSP/Source/FilteringFunctions/arm_correlate_opt_q15.c ****   while (blkCnt > 0)
 171:../Dave/Generated/CMSIS_DSP/Source/FilteringFunctions/arm_correlate_opt_q15.c ****   {
 172:../Dave/Generated/CMSIS_DSP/Source/FilteringFunctions/arm_correlate_opt_q15.c ****     /* Initialze temporary scratch pointer as scratch1 */
 173:../Dave/Generated/CMSIS_DSP/Source/FilteringFunctions/arm_correlate_opt_q15.c ****     pScr1 = pScratch;
 174:../Dave/Generated/CMSIS_DSP/Source/FilteringFunctions/arm_correlate_opt_q15.c **** 
 175:../Dave/Generated/CMSIS_DSP/Source/FilteringFunctions/arm_correlate_opt_q15.c ****     /* Clear Accumlators */
 176:../Dave/Generated/CMSIS_DSP/Source/FilteringFunctions/arm_correlate_opt_q15.c ****     acc0 = 0;
 177:../Dave/Generated/CMSIS_DSP/Source/FilteringFunctions/arm_correlate_opt_q15.c ****     acc1 = 0;
 178:../Dave/Generated/CMSIS_DSP/Source/FilteringFunctions/arm_correlate_opt_q15.c ****     acc2 = 0;
 179:../Dave/Generated/CMSIS_DSP/Source/FilteringFunctions/arm_correlate_opt_q15.c ****     acc3 = 0;
 180:../Dave/Generated/CMSIS_DSP/Source/FilteringFunctions/arm_correlate_opt_q15.c **** 
 181:../Dave/Generated/CMSIS_DSP/Source/FilteringFunctions/arm_correlate_opt_q15.c ****     /* Read two samples from scratch1 buffer */
 182:../Dave/Generated/CMSIS_DSP/Source/FilteringFunctions/arm_correlate_opt_q15.c ****     x1 = read_q15x2_ia (&pScr1);
 183:../Dave/Generated/CMSIS_DSP/Source/FilteringFunctions/arm_correlate_opt_q15.c **** 
 184:../Dave/Generated/CMSIS_DSP/Source/FilteringFunctions/arm_correlate_opt_q15.c ****     /* Read next two samples from scratch1 buffer */
 185:../Dave/Generated/CMSIS_DSP/Source/FilteringFunctions/arm_correlate_opt_q15.c ****     x2 = read_q15x2_ia (&pScr1);
 186:../Dave/Generated/CMSIS_DSP/Source/FilteringFunctions/arm_correlate_opt_q15.c **** 
 187:../Dave/Generated/CMSIS_DSP/Source/FilteringFunctions/arm_correlate_opt_q15.c ****     tapCnt = (srcBLen) >> 2U;
 188:../Dave/Generated/CMSIS_DSP/Source/FilteringFunctions/arm_correlate_opt_q15.c **** 
 189:../Dave/Generated/CMSIS_DSP/Source/FilteringFunctions/arm_correlate_opt_q15.c ****     while (tapCnt > 0U)
 190:../Dave/Generated/CMSIS_DSP/Source/FilteringFunctions/arm_correlate_opt_q15.c ****     {
 191:../Dave/Generated/CMSIS_DSP/Source/FilteringFunctions/arm_correlate_opt_q15.c ****       /* Read four samples from smaller buffer */
 192:../Dave/Generated/CMSIS_DSP/Source/FilteringFunctions/arm_correlate_opt_q15.c ****       y1 = read_q15x2_ia ((q15_t **) &pIn2);
 193:../Dave/Generated/CMSIS_DSP/Source/FilteringFunctions/arm_correlate_opt_q15.c ****       y2 = read_q15x2_ia ((q15_t **) &pIn2);
 194:../Dave/Generated/CMSIS_DSP/Source/FilteringFunctions/arm_correlate_opt_q15.c **** 
 195:../Dave/Generated/CMSIS_DSP/Source/FilteringFunctions/arm_correlate_opt_q15.c ****       /* multiply and accumlate */
 196:../Dave/Generated/CMSIS_DSP/Source/FilteringFunctions/arm_correlate_opt_q15.c ****       acc0 = __SMLALD(x1, y1, acc0);
 197:../Dave/Generated/CMSIS_DSP/Source/FilteringFunctions/arm_correlate_opt_q15.c ****       acc2 = __SMLALD(x2, y1, acc2);
 198:../Dave/Generated/CMSIS_DSP/Source/FilteringFunctions/arm_correlate_opt_q15.c **** 
 199:../Dave/Generated/CMSIS_DSP/Source/FilteringFunctions/arm_correlate_opt_q15.c ****       /* pack input data */
 200:../Dave/Generated/CMSIS_DSP/Source/FilteringFunctions/arm_correlate_opt_q15.c **** #ifndef ARM_MATH_BIG_ENDIAN
 201:../Dave/Generated/CMSIS_DSP/Source/FilteringFunctions/arm_correlate_opt_q15.c ****       x3 = __PKHBT(x2, x1, 0);
 202:../Dave/Generated/CMSIS_DSP/Source/FilteringFunctions/arm_correlate_opt_q15.c **** #else
 203:../Dave/Generated/CMSIS_DSP/Source/FilteringFunctions/arm_correlate_opt_q15.c ****       x3 = __PKHBT(x1, x2, 0);
 204:../Dave/Generated/CMSIS_DSP/Source/FilteringFunctions/arm_correlate_opt_q15.c **** #endif
 205:../Dave/Generated/CMSIS_DSP/Source/FilteringFunctions/arm_correlate_opt_q15.c **** 
 206:../Dave/Generated/CMSIS_DSP/Source/FilteringFunctions/arm_correlate_opt_q15.c ****       /* multiply and accumlate */
 207:../Dave/Generated/CMSIS_DSP/Source/FilteringFunctions/arm_correlate_opt_q15.c ****       acc1 = __SMLALDX(x3, y1, acc1);
 208:../Dave/Generated/CMSIS_DSP/Source/FilteringFunctions/arm_correlate_opt_q15.c **** 
 209:../Dave/Generated/CMSIS_DSP/Source/FilteringFunctions/arm_correlate_opt_q15.c ****       /* Read next two samples from scratch1 buffer */
 210:../Dave/Generated/CMSIS_DSP/Source/FilteringFunctions/arm_correlate_opt_q15.c ****       x1 = read_q15x2_ia (&pScr1);
 211:../Dave/Generated/CMSIS_DSP/Source/FilteringFunctions/arm_correlate_opt_q15.c **** 
 212:../Dave/Generated/CMSIS_DSP/Source/FilteringFunctions/arm_correlate_opt_q15.c ****       /* multiply and accumlate */
 213:../Dave/Generated/CMSIS_DSP/Source/FilteringFunctions/arm_correlate_opt_q15.c ****       acc0 = __SMLALD(x2, y2, acc0);
 214:../Dave/Generated/CMSIS_DSP/Source/FilteringFunctions/arm_correlate_opt_q15.c ****       acc2 = __SMLALD(x1, y2, acc2);
 215:../Dave/Generated/CMSIS_DSP/Source/FilteringFunctions/arm_correlate_opt_q15.c **** 
 216:../Dave/Generated/CMSIS_DSP/Source/FilteringFunctions/arm_correlate_opt_q15.c ****       /* pack input data */
 217:../Dave/Generated/CMSIS_DSP/Source/FilteringFunctions/arm_correlate_opt_q15.c **** #ifndef ARM_MATH_BIG_ENDIAN
 218:../Dave/Generated/CMSIS_DSP/Source/FilteringFunctions/arm_correlate_opt_q15.c ****       x3 = __PKHBT(x1, x2, 0);
 219:../Dave/Generated/CMSIS_DSP/Source/FilteringFunctions/arm_correlate_opt_q15.c **** #else
 220:../Dave/Generated/CMSIS_DSP/Source/FilteringFunctions/arm_correlate_opt_q15.c ****       x3 = __PKHBT(x2, x1, 0);
 221:../Dave/Generated/CMSIS_DSP/Source/FilteringFunctions/arm_correlate_opt_q15.c **** #endif
 222:../Dave/Generated/CMSIS_DSP/Source/FilteringFunctions/arm_correlate_opt_q15.c **** 
 223:../Dave/Generated/CMSIS_DSP/Source/FilteringFunctions/arm_correlate_opt_q15.c ****       acc3 = __SMLALDX(x3, y1, acc3);
 224:../Dave/Generated/CMSIS_DSP/Source/FilteringFunctions/arm_correlate_opt_q15.c ****       acc1 = __SMLALDX(x3, y2, acc1);
 225:../Dave/Generated/CMSIS_DSP/Source/FilteringFunctions/arm_correlate_opt_q15.c **** 
 226:../Dave/Generated/CMSIS_DSP/Source/FilteringFunctions/arm_correlate_opt_q15.c ****       x2 = read_q15x2_ia (&pScr1);
 227:../Dave/Generated/CMSIS_DSP/Source/FilteringFunctions/arm_correlate_opt_q15.c **** 
 228:../Dave/Generated/CMSIS_DSP/Source/FilteringFunctions/arm_correlate_opt_q15.c **** #ifndef ARM_MATH_BIG_ENDIAN
 229:../Dave/Generated/CMSIS_DSP/Source/FilteringFunctions/arm_correlate_opt_q15.c ****       x3 = __PKHBT(x2, x1, 0);
 230:../Dave/Generated/CMSIS_DSP/Source/FilteringFunctions/arm_correlate_opt_q15.c **** #else
 231:../Dave/Generated/CMSIS_DSP/Source/FilteringFunctions/arm_correlate_opt_q15.c ****       x3 = __PKHBT(x1, x2, 0);
 232:../Dave/Generated/CMSIS_DSP/Source/FilteringFunctions/arm_correlate_opt_q15.c **** #endif
 233:../Dave/Generated/CMSIS_DSP/Source/FilteringFunctions/arm_correlate_opt_q15.c **** 
 234:../Dave/Generated/CMSIS_DSP/Source/FilteringFunctions/arm_correlate_opt_q15.c ****       acc3 = __SMLALDX(x3, y2, acc3);
 235:../Dave/Generated/CMSIS_DSP/Source/FilteringFunctions/arm_correlate_opt_q15.c **** 
 236:../Dave/Generated/CMSIS_DSP/Source/FilteringFunctions/arm_correlate_opt_q15.c ****       /* Decrement loop counter */
 237:../Dave/Generated/CMSIS_DSP/Source/FilteringFunctions/arm_correlate_opt_q15.c ****       tapCnt--;
 238:../Dave/Generated/CMSIS_DSP/Source/FilteringFunctions/arm_correlate_opt_q15.c ****     }
 239:../Dave/Generated/CMSIS_DSP/Source/FilteringFunctions/arm_correlate_opt_q15.c **** 
 240:../Dave/Generated/CMSIS_DSP/Source/FilteringFunctions/arm_correlate_opt_q15.c ****     /* Update scratch pointer for remaining samples of smaller length sequence */
 241:../Dave/Generated/CMSIS_DSP/Source/FilteringFunctions/arm_correlate_opt_q15.c ****     pScr1 -= 4U;
 242:../Dave/Generated/CMSIS_DSP/Source/FilteringFunctions/arm_correlate_opt_q15.c **** 
 243:../Dave/Generated/CMSIS_DSP/Source/FilteringFunctions/arm_correlate_opt_q15.c ****     /* apply same above for remaining samples of smaller length sequence */
 244:../Dave/Generated/CMSIS_DSP/Source/FilteringFunctions/arm_correlate_opt_q15.c ****     tapCnt = (srcBLen) & 3U;
 245:../Dave/Generated/CMSIS_DSP/Source/FilteringFunctions/arm_correlate_opt_q15.c **** 
 246:../Dave/Generated/CMSIS_DSP/Source/FilteringFunctions/arm_correlate_opt_q15.c ****     while (tapCnt > 0U)
 247:../Dave/Generated/CMSIS_DSP/Source/FilteringFunctions/arm_correlate_opt_q15.c ****     {
 248:../Dave/Generated/CMSIS_DSP/Source/FilteringFunctions/arm_correlate_opt_q15.c ****       /* accumlate the results */
 249:../Dave/Generated/CMSIS_DSP/Source/FilteringFunctions/arm_correlate_opt_q15.c ****       acc0 += (*pScr1++ * *pIn2);
 250:../Dave/Generated/CMSIS_DSP/Source/FilteringFunctions/arm_correlate_opt_q15.c ****       acc1 += (*pScr1++ * *pIn2);
 251:../Dave/Generated/CMSIS_DSP/Source/FilteringFunctions/arm_correlate_opt_q15.c ****       acc2 += (*pScr1++ * *pIn2);
 252:../Dave/Generated/CMSIS_DSP/Source/FilteringFunctions/arm_correlate_opt_q15.c ****       acc3 += (*pScr1++ * *pIn2++);
 253:../Dave/Generated/CMSIS_DSP/Source/FilteringFunctions/arm_correlate_opt_q15.c **** 
 254:../Dave/Generated/CMSIS_DSP/Source/FilteringFunctions/arm_correlate_opt_q15.c ****       pScr1 -= 3U;
 255:../Dave/Generated/CMSIS_DSP/Source/FilteringFunctions/arm_correlate_opt_q15.c **** 
 256:../Dave/Generated/CMSIS_DSP/Source/FilteringFunctions/arm_correlate_opt_q15.c ****       /* Decrement loop counter */
 257:../Dave/Generated/CMSIS_DSP/Source/FilteringFunctions/arm_correlate_opt_q15.c ****       tapCnt--;
 258:../Dave/Generated/CMSIS_DSP/Source/FilteringFunctions/arm_correlate_opt_q15.c ****     }
 259:../Dave/Generated/CMSIS_DSP/Source/FilteringFunctions/arm_correlate_opt_q15.c **** 
 260:../Dave/Generated/CMSIS_DSP/Source/FilteringFunctions/arm_correlate_opt_q15.c ****     blkCnt--;
 261:../Dave/Generated/CMSIS_DSP/Source/FilteringFunctions/arm_correlate_opt_q15.c **** 
 262:../Dave/Generated/CMSIS_DSP/Source/FilteringFunctions/arm_correlate_opt_q15.c **** 
 263:../Dave/Generated/CMSIS_DSP/Source/FilteringFunctions/arm_correlate_opt_q15.c ****     /* Store the results in the accumulators in the destination buffer. */
 264:../Dave/Generated/CMSIS_DSP/Source/FilteringFunctions/arm_correlate_opt_q15.c ****     *pOut = (__SSAT(acc0 >> 15U, 16));
 265:../Dave/Generated/CMSIS_DSP/Source/FilteringFunctions/arm_correlate_opt_q15.c ****     pOut += inc;
 266:../Dave/Generated/CMSIS_DSP/Source/FilteringFunctions/arm_correlate_opt_q15.c ****     *pOut = (__SSAT(acc1 >> 15U, 16));
 267:../Dave/Generated/CMSIS_DSP/Source/FilteringFunctions/arm_correlate_opt_q15.c ****     pOut += inc;
 268:../Dave/Generated/CMSIS_DSP/Source/FilteringFunctions/arm_correlate_opt_q15.c ****     *pOut = (__SSAT(acc2 >> 15U, 16));
 269:../Dave/Generated/CMSIS_DSP/Source/FilteringFunctions/arm_correlate_opt_q15.c ****     pOut += inc;
 270:../Dave/Generated/CMSIS_DSP/Source/FilteringFunctions/arm_correlate_opt_q15.c ****     *pOut = (__SSAT(acc3 >> 15U, 16));
 271:../Dave/Generated/CMSIS_DSP/Source/FilteringFunctions/arm_correlate_opt_q15.c ****     pOut += inc;
 272:../Dave/Generated/CMSIS_DSP/Source/FilteringFunctions/arm_correlate_opt_q15.c **** 
 273:../Dave/Generated/CMSIS_DSP/Source/FilteringFunctions/arm_correlate_opt_q15.c ****     /* Initialization of inputB pointer */
 274:../Dave/Generated/CMSIS_DSP/Source/FilteringFunctions/arm_correlate_opt_q15.c ****     pIn2 = py;
 275:../Dave/Generated/CMSIS_DSP/Source/FilteringFunctions/arm_correlate_opt_q15.c **** 
 276:../Dave/Generated/CMSIS_DSP/Source/FilteringFunctions/arm_correlate_opt_q15.c ****     pScratch += 4U;
 277:../Dave/Generated/CMSIS_DSP/Source/FilteringFunctions/arm_correlate_opt_q15.c ****   }
 278:../Dave/Generated/CMSIS_DSP/Source/FilteringFunctions/arm_correlate_opt_q15.c **** 
 279:../Dave/Generated/CMSIS_DSP/Source/FilteringFunctions/arm_correlate_opt_q15.c **** 
 280:../Dave/Generated/CMSIS_DSP/Source/FilteringFunctions/arm_correlate_opt_q15.c ****   /* Loop unrolling: Compute remaining outputs */
 281:../Dave/Generated/CMSIS_DSP/Source/FilteringFunctions/arm_correlate_opt_q15.c ****   blkCnt = (srcALen + srcBLen - 1U) & 0x3;
 282:../Dave/Generated/CMSIS_DSP/Source/FilteringFunctions/arm_correlate_opt_q15.c **** 
 283:../Dave/Generated/CMSIS_DSP/Source/FilteringFunctions/arm_correlate_opt_q15.c **** #else
 284:../Dave/Generated/CMSIS_DSP/Source/FilteringFunctions/arm_correlate_opt_q15.c **** 
 285:../Dave/Generated/CMSIS_DSP/Source/FilteringFunctions/arm_correlate_opt_q15.c ****   /* Initialize blkCnt with number of samples */
 286:../Dave/Generated/CMSIS_DSP/Source/FilteringFunctions/arm_correlate_opt_q15.c ****   blkCnt = (srcALen + srcBLen - 1U);
 163              	 .loc 1 286 0
 164 00ce BA68     	 ldr r2,[r7,#8]
 165 00d0 3B68     	 ldr r3,[r7]
 166 00d2 1344     	 add r3,r3,r2
 167 00d4 013B     	 subs r3,r3,#1
 168 00d6 FB62     	 str r3,[r7,#44]
 287:../Dave/Generated/CMSIS_DSP/Source/FilteringFunctions/arm_correlate_opt_q15.c **** 
 288:../Dave/Generated/CMSIS_DSP/Source/FilteringFunctions/arm_correlate_opt_q15.c **** #endif /* #if defined (ARM_MATH_LOOPUNROLL) */
 289:../Dave/Generated/CMSIS_DSP/Source/FilteringFunctions/arm_correlate_opt_q15.c **** 
 290:../Dave/Generated/CMSIS_DSP/Source/FilteringFunctions/arm_correlate_opt_q15.c ****   /* Calculate correlation for remaining samples of Bigger length sequence */
 291:../Dave/Generated/CMSIS_DSP/Source/FilteringFunctions/arm_correlate_opt_q15.c ****   while (blkCnt > 0)
 169              	 .loc 1 291 0
 170 00d8 7BE0     	 b .L4
 171              	.L9:
 292:../Dave/Generated/CMSIS_DSP/Source/FilteringFunctions/arm_correlate_opt_q15.c ****   {
 293:../Dave/Generated/CMSIS_DSP/Source/FilteringFunctions/arm_correlate_opt_q15.c ****     /* Initialze temporary scratch pointer as scratch1 */
 294:../Dave/Generated/CMSIS_DSP/Source/FilteringFunctions/arm_correlate_opt_q15.c ****     pScr1 = pScratch;
 172              	 .loc 1 294 0
 173 00da FB6D     	 ldr r3,[r7,#92]
 174 00dc BB63     	 str r3,[r7,#56]
 295:../Dave/Generated/CMSIS_DSP/Source/FilteringFunctions/arm_correlate_opt_q15.c **** 
 296:../Dave/Generated/CMSIS_DSP/Source/FilteringFunctions/arm_correlate_opt_q15.c ****     /* Clear Accumlators */
 297:../Dave/Generated/CMSIS_DSP/Source/FilteringFunctions/arm_correlate_opt_q15.c ****     acc0 = 0;
 175              	 .loc 1 297 0
 176 00de 4FF00002 	 mov r2,#0
 177 00e2 4FF00003 	 mov r3,#0
 178 00e6 C7E91023 	 strd r2,[r7,#64]
 298:../Dave/Generated/CMSIS_DSP/Source/FilteringFunctions/arm_correlate_opt_q15.c **** 
 299:../Dave/Generated/CMSIS_DSP/Source/FilteringFunctions/arm_correlate_opt_q15.c ****     tapCnt = (srcBLen) >> 1U;
 179              	 .loc 1 299 0
 180 00ea 3B68     	 ldr r3,[r7]
 181 00ec 5B08     	 lsrs r3,r3,#1
 182 00ee 7B62     	 str r3,[r7,#36]
 300:../Dave/Generated/CMSIS_DSP/Source/FilteringFunctions/arm_correlate_opt_q15.c **** 
 301:../Dave/Generated/CMSIS_DSP/Source/FilteringFunctions/arm_correlate_opt_q15.c ****     while (tapCnt > 0U)
 183              	 .loc 1 301 0
 184 00f0 2EE0     	 b .L5
 185              	.L6:
 302:../Dave/Generated/CMSIS_DSP/Source/FilteringFunctions/arm_correlate_opt_q15.c ****     {
 303:../Dave/Generated/CMSIS_DSP/Source/FilteringFunctions/arm_correlate_opt_q15.c **** 
 304:../Dave/Generated/CMSIS_DSP/Source/FilteringFunctions/arm_correlate_opt_q15.c ****       /* Read next two samples from scratch1 buffer */
 305:../Dave/Generated/CMSIS_DSP/Source/FilteringFunctions/arm_correlate_opt_q15.c ****       acc0 += (*pScr1++ * *pIn2++);
 186              	 .loc 1 305 0
 187 00f2 BB6B     	 ldr r3,[r7,#56]
 188 00f4 9A1C     	 adds r2,r3,#2
 189 00f6 BA63     	 str r2,[r7,#56]
 190 00f8 1B88     	 ldrh r3,[r3]
 191 00fa 1AB2     	 sxth r2,r3
 192 00fc 3B6B     	 ldr r3,[r7,#48]
 193 00fe 991C     	 adds r1,r3,#2
 194 0100 3963     	 str r1,[r7,#48]
 195 0102 1B88     	 ldrh r3,[r3]
 196 0104 1BB2     	 sxth r3,r3
 197 0106 03FB02F3 	 mul r3,r3,r2
 198 010a 1A46     	 mov r2,r3
 199 010c 4FEAE273 	 asr r3,r2,#31
 200 0110 D7E91001 	 ldrd r0,[r7,#64]
 201 0114 1218     	 adds r2,r2,r0
 202 0116 43EB0103 	 adc r3,r3,r1
 203 011a C7E91023 	 strd r2,[r7,#64]
 306:../Dave/Generated/CMSIS_DSP/Source/FilteringFunctions/arm_correlate_opt_q15.c ****       acc0 += (*pScr1++ * *pIn2++);
 204              	 .loc 1 306 0
 205 011e BB6B     	 ldr r3,[r7,#56]
 206 0120 9A1C     	 adds r2,r3,#2
 207 0122 BA63     	 str r2,[r7,#56]
 208 0124 1B88     	 ldrh r3,[r3]
 209 0126 1AB2     	 sxth r2,r3
 210 0128 3B6B     	 ldr r3,[r7,#48]
 211 012a 991C     	 adds r1,r3,#2
 212 012c 3963     	 str r1,[r7,#48]
 213 012e 1B88     	 ldrh r3,[r3]
 214 0130 1BB2     	 sxth r3,r3
 215 0132 03FB02F3 	 mul r3,r3,r2
 216 0136 1A46     	 mov r2,r3
 217 0138 4FEAE273 	 asr r3,r2,#31
 218 013c D7E91001 	 ldrd r0,[r7,#64]
 219 0140 1218     	 adds r2,r2,r0
 220 0142 43EB0103 	 adc r3,r3,r1
 221 0146 C7E91023 	 strd r2,[r7,#64]
 307:../Dave/Generated/CMSIS_DSP/Source/FilteringFunctions/arm_correlate_opt_q15.c **** 
 308:../Dave/Generated/CMSIS_DSP/Source/FilteringFunctions/arm_correlate_opt_q15.c ****       /* Decrement loop counter */
 309:../Dave/Generated/CMSIS_DSP/Source/FilteringFunctions/arm_correlate_opt_q15.c ****       tapCnt--;
 222              	 .loc 1 309 0
 223 014a 7B6A     	 ldr r3,[r7,#36]
 224 014c 013B     	 subs r3,r3,#1
 225 014e 7B62     	 str r3,[r7,#36]
 226              	.L5:
 301:../Dave/Generated/CMSIS_DSP/Source/FilteringFunctions/arm_correlate_opt_q15.c ****     {
 227              	 .loc 1 301 0
 228 0150 7B6A     	 ldr r3,[r7,#36]
 229 0152 002B     	 cmp r3,#0
 230 0154 CDD1     	 bne .L6
 310:../Dave/Generated/CMSIS_DSP/Source/FilteringFunctions/arm_correlate_opt_q15.c ****     }
 311:../Dave/Generated/CMSIS_DSP/Source/FilteringFunctions/arm_correlate_opt_q15.c **** 
 312:../Dave/Generated/CMSIS_DSP/Source/FilteringFunctions/arm_correlate_opt_q15.c ****     tapCnt = (srcBLen) & 1U;
 231              	 .loc 1 312 0
 232 0156 3B68     	 ldr r3,[r7]
 233 0158 03F00103 	 and r3,r3,#1
 234 015c 7B62     	 str r3,[r7,#36]
 313:../Dave/Generated/CMSIS_DSP/Source/FilteringFunctions/arm_correlate_opt_q15.c **** 
 314:../Dave/Generated/CMSIS_DSP/Source/FilteringFunctions/arm_correlate_opt_q15.c ****     /* apply same above for remaining samples of smaller length sequence */
 315:../Dave/Generated/CMSIS_DSP/Source/FilteringFunctions/arm_correlate_opt_q15.c ****     while (tapCnt > 0U)
 235              	 .loc 1 315 0
 236 015e 18E0     	 b .L7
 237              	.L8:
 316:../Dave/Generated/CMSIS_DSP/Source/FilteringFunctions/arm_correlate_opt_q15.c ****     {
 317:../Dave/Generated/CMSIS_DSP/Source/FilteringFunctions/arm_correlate_opt_q15.c ****       /* accumlate the results */
 318:../Dave/Generated/CMSIS_DSP/Source/FilteringFunctions/arm_correlate_opt_q15.c ****       acc0 += (*pScr1++ * *pIn2++);
 238              	 .loc 1 318 0
 239 0160 BB6B     	 ldr r3,[r7,#56]
 240 0162 9A1C     	 adds r2,r3,#2
 241 0164 BA63     	 str r2,[r7,#56]
 242 0166 1B88     	 ldrh r3,[r3]
 243 0168 1AB2     	 sxth r2,r3
 244 016a 3B6B     	 ldr r3,[r7,#48]
 245 016c 991C     	 adds r1,r3,#2
 246 016e 3963     	 str r1,[r7,#48]
 247 0170 1B88     	 ldrh r3,[r3]
 248 0172 1BB2     	 sxth r3,r3
 249 0174 03FB02F3 	 mul r3,r3,r2
 250 0178 1A46     	 mov r2,r3
 251 017a 4FEAE273 	 asr r3,r2,#31
 252 017e D7E91001 	 ldrd r0,[r7,#64]
 253 0182 1218     	 adds r2,r2,r0
 254 0184 43EB0103 	 adc r3,r3,r1
 255 0188 C7E91023 	 strd r2,[r7,#64]
 319:../Dave/Generated/CMSIS_DSP/Source/FilteringFunctions/arm_correlate_opt_q15.c **** 
 320:../Dave/Generated/CMSIS_DSP/Source/FilteringFunctions/arm_correlate_opt_q15.c ****       /* Decrement loop counter */
 321:../Dave/Generated/CMSIS_DSP/Source/FilteringFunctions/arm_correlate_opt_q15.c ****       tapCnt--;
 256              	 .loc 1 321 0
 257 018c 7B6A     	 ldr r3,[r7,#36]
 258 018e 013B     	 subs r3,r3,#1
 259 0190 7B62     	 str r3,[r7,#36]
 260              	.L7:
 315:../Dave/Generated/CMSIS_DSP/Source/FilteringFunctions/arm_correlate_opt_q15.c ****     {
 261              	 .loc 1 315 0
 262 0192 7B6A     	 ldr r3,[r7,#36]
 263 0194 002B     	 cmp r3,#0
 264 0196 E3D1     	 bne .L8
 322:../Dave/Generated/CMSIS_DSP/Source/FilteringFunctions/arm_correlate_opt_q15.c ****     }
 323:../Dave/Generated/CMSIS_DSP/Source/FilteringFunctions/arm_correlate_opt_q15.c **** 
 324:../Dave/Generated/CMSIS_DSP/Source/FilteringFunctions/arm_correlate_opt_q15.c ****     blkCnt--;
 265              	 .loc 1 324 0
 266 0198 FB6A     	 ldr r3,[r7,#44]
 267 019a 013B     	 subs r3,r3,#1
 268 019c FB62     	 str r3,[r7,#44]
 269              	.LBB2:
 325:../Dave/Generated/CMSIS_DSP/Source/FilteringFunctions/arm_correlate_opt_q15.c **** 
 326:../Dave/Generated/CMSIS_DSP/Source/FilteringFunctions/arm_correlate_opt_q15.c ****     /* The result is in 2.30 format.  Convert to 1.15 with saturation.
 327:../Dave/Generated/CMSIS_DSP/Source/FilteringFunctions/arm_correlate_opt_q15.c ****        Then store the output in the destination buffer. */
 328:../Dave/Generated/CMSIS_DSP/Source/FilteringFunctions/arm_correlate_opt_q15.c ****     *pOut = (q15_t) (__SSAT((acc0 >> 15), 16));
 270              	 .loc 1 328 0
 271 019e D7E91023 	 ldrd r2,[r7,#64]
 272 01a2 D40B     	 lsrs r4,r2,#15
 273 01a4 44EA4344 	 orr r4,r4,r3,lsl#17
 274 01a8 DD13     	 asrs r5,r3,#15
 275 01aa 2346     	 mov r3,r4
 276 01ac 7B61     	 str r3,[r7,#20]
 277 01ae 7B69     	 ldr r3,[r7,#20]
 278              	
 279 01b0 03F30F03 	 ssat r3,#16,r3
 280              	
 281              	 .thumb
 282 01b4 3B61     	 str r3,[r7,#16]
 283 01b6 3B69     	 ldr r3,[r7,#16]
 284              	.LBE2:
 285 01b8 9AB2     	 uxth r2,r3
 286 01ba FB6B     	 ldr r3,[r7,#60]
 287 01bc 1A80     	 strh r2,[r3]
 329:../Dave/Generated/CMSIS_DSP/Source/FilteringFunctions/arm_correlate_opt_q15.c ****     pOut += inc;
 288              	 .loc 1 329 0
 289 01be BB6A     	 ldr r3,[r7,#40]
 290 01c0 5B00     	 lsls r3,r3,#1
 291 01c2 FA6B     	 ldr r2,[r7,#60]
 292 01c4 1344     	 add r3,r3,r2
 293 01c6 FB63     	 str r3,[r7,#60]
 330:../Dave/Generated/CMSIS_DSP/Source/FilteringFunctions/arm_correlate_opt_q15.c **** 
 331:../Dave/Generated/CMSIS_DSP/Source/FilteringFunctions/arm_correlate_opt_q15.c ****     /* Initialization of inputB pointer */
 332:../Dave/Generated/CMSIS_DSP/Source/FilteringFunctions/arm_correlate_opt_q15.c ****     pIn2 = py;
 294              	 .loc 1 332 0
 295 01c8 BB69     	 ldr r3,[r7,#24]
 296 01ca 3B63     	 str r3,[r7,#48]
 333:../Dave/Generated/CMSIS_DSP/Source/FilteringFunctions/arm_correlate_opt_q15.c **** 
 334:../Dave/Generated/CMSIS_DSP/Source/FilteringFunctions/arm_correlate_opt_q15.c ****     pScratch += 1U;
 297              	 .loc 1 334 0
 298 01cc FB6D     	 ldr r3,[r7,#92]
 299 01ce 0233     	 adds r3,r3,#2
 300 01d0 FB65     	 str r3,[r7,#92]
 301              	.L4:
 291:../Dave/Generated/CMSIS_DSP/Source/FilteringFunctions/arm_correlate_opt_q15.c ****   {
 302              	 .loc 1 291 0
 303 01d2 FB6A     	 ldr r3,[r7,#44]
 304 01d4 002B     	 cmp r3,#0
 305 01d6 80D1     	 bne .L9
 335:../Dave/Generated/CMSIS_DSP/Source/FilteringFunctions/arm_correlate_opt_q15.c ****   }
 336:../Dave/Generated/CMSIS_DSP/Source/FilteringFunctions/arm_correlate_opt_q15.c **** 
 337:../Dave/Generated/CMSIS_DSP/Source/FilteringFunctions/arm_correlate_opt_q15.c **** }
 306              	 .loc 1 337 0
 307 01d8 4837     	 adds r7,r7,#72
 308              	.LCFI3:
 309              	 .cfi_def_cfa_offset 16
 310 01da BD46     	 mov sp,r7
 311              	.LCFI4:
 312              	 .cfi_def_cfa_register 13
 313              	 
 314 01dc B0BD     	 pop {r4,r5,r7,pc}
 315              	 .cfi_endproc
 316              	.LFE149:
 318 01de 00BF     	 .text
 319              	.Letext0:
 320              	 .file 2 "c:\\infineon\\tools\\dave ide\\4.5.0.202105191637\\eclipse\\arm-gcc-49\\arm-none-eabi\\include\\machine\\_default_types.h"
 321              	 .file 3 "c:\\infineon\\tools\\dave ide\\4.5.0.202105191637\\eclipse\\arm-gcc-49\\arm-none-eabi\\include\\stdint.h"
 322              	 .file 4 "C:/Users/Rui Mendes/Desktop/DAVE/_Naive/_ForTesting/Dave/Generated/CMSIS_DSP/Include/arm_math.h"
 323              	 .file 5 "C:/Users/Rui Mendes/Desktop/DAVE/_Naive/_ForTesting/Libraries/CMSIS/Include/cmsis_gcc.h"