   1              	 .syntax unified
   2              	 .cpu cortex-m4
   3              	 .eabi_attribute 27,3
   4              	 .fpu fpv4-sp-d16
   5              	 .eabi_attribute 20,1
   6              	 .eabi_attribute 21,1
   7              	 .eabi_attribute 23,3
   8              	 .eabi_attribute 24,1
   9              	 .eabi_attribute 25,1
  10              	 .eabi_attribute 26,1
  11              	 .eabi_attribute 30,6
  12              	 .eabi_attribute 34,1
  13              	 .eabi_attribute 18,4
  14              	 .thumb
  15              	 .file "arm_fir_q7.c"
  16              	 .text
  17              	.Ltext0:
  18              	 .cfi_sections .debug_frame
  19              	 .section .text.arm_fir_q7,"ax",%progbits
  20              	 .align 2
  21              	 .global arm_fir_q7
  22              	 .thumb
  23              	 .thumb_func
  25              	arm_fir_q7:
  26              	.LFB149:
  27              	 .file 1 "../Dave/Generated/CMSIS_DSP/Source/FilteringFunctions/arm_fir_q7.c"
   1:../Dave/Generated/CMSIS_DSP/Source/FilteringFunctions/arm_fir_q7.c **** /* ----------------------------------------------------------------------
   2:../Dave/Generated/CMSIS_DSP/Source/FilteringFunctions/arm_fir_q7.c ****  * Project:      CMSIS DSP Library
   3:../Dave/Generated/CMSIS_DSP/Source/FilteringFunctions/arm_fir_q7.c ****  * Title:        arm_fir_q7.c
   4:../Dave/Generated/CMSIS_DSP/Source/FilteringFunctions/arm_fir_q7.c ****  * Description:  Q7 FIR filter processing function
   5:../Dave/Generated/CMSIS_DSP/Source/FilteringFunctions/arm_fir_q7.c ****  *
   6:../Dave/Generated/CMSIS_DSP/Source/FilteringFunctions/arm_fir_q7.c ****  * $Date:        18. March 2019
   7:../Dave/Generated/CMSIS_DSP/Source/FilteringFunctions/arm_fir_q7.c ****  * $Revision:    V1.6.0
   8:../Dave/Generated/CMSIS_DSP/Source/FilteringFunctions/arm_fir_q7.c ****  *
   9:../Dave/Generated/CMSIS_DSP/Source/FilteringFunctions/arm_fir_q7.c ****  * Target Processor: Cortex-M cores
  10:../Dave/Generated/CMSIS_DSP/Source/FilteringFunctions/arm_fir_q7.c ****  * -------------------------------------------------------------------- */
  11:../Dave/Generated/CMSIS_DSP/Source/FilteringFunctions/arm_fir_q7.c **** /*
  12:../Dave/Generated/CMSIS_DSP/Source/FilteringFunctions/arm_fir_q7.c ****  * Copyright (C) 2010-2019 ARM Limited or its affiliates. All rights reserved.
  13:../Dave/Generated/CMSIS_DSP/Source/FilteringFunctions/arm_fir_q7.c ****  *
  14:../Dave/Generated/CMSIS_DSP/Source/FilteringFunctions/arm_fir_q7.c ****  * SPDX-License-Identifier: Apache-2.0
  15:../Dave/Generated/CMSIS_DSP/Source/FilteringFunctions/arm_fir_q7.c ****  *
  16:../Dave/Generated/CMSIS_DSP/Source/FilteringFunctions/arm_fir_q7.c ****  * Licensed under the Apache License, Version 2.0 (the License); you may
  17:../Dave/Generated/CMSIS_DSP/Source/FilteringFunctions/arm_fir_q7.c ****  * not use this file except in compliance with the License.
  18:../Dave/Generated/CMSIS_DSP/Source/FilteringFunctions/arm_fir_q7.c ****  * You may obtain a copy of the License at
  19:../Dave/Generated/CMSIS_DSP/Source/FilteringFunctions/arm_fir_q7.c ****  *
  20:../Dave/Generated/CMSIS_DSP/Source/FilteringFunctions/arm_fir_q7.c ****  * www.apache.org/licenses/LICENSE-2.0
  21:../Dave/Generated/CMSIS_DSP/Source/FilteringFunctions/arm_fir_q7.c ****  *
  22:../Dave/Generated/CMSIS_DSP/Source/FilteringFunctions/arm_fir_q7.c ****  * Unless required by applicable law or agreed to in writing, software
  23:../Dave/Generated/CMSIS_DSP/Source/FilteringFunctions/arm_fir_q7.c ****  * distributed under the License is distributed on an AS IS BASIS, WITHOUT
  24:../Dave/Generated/CMSIS_DSP/Source/FilteringFunctions/arm_fir_q7.c ****  * WARRANTIES OR CONDITIONS OF ANY KIND, either express or implied.
  25:../Dave/Generated/CMSIS_DSP/Source/FilteringFunctions/arm_fir_q7.c ****  * See the License for the specific language governing permissions and
  26:../Dave/Generated/CMSIS_DSP/Source/FilteringFunctions/arm_fir_q7.c ****  * limitations under the License.
  27:../Dave/Generated/CMSIS_DSP/Source/FilteringFunctions/arm_fir_q7.c ****  */
  28:../Dave/Generated/CMSIS_DSP/Source/FilteringFunctions/arm_fir_q7.c **** 
  29:../Dave/Generated/CMSIS_DSP/Source/FilteringFunctions/arm_fir_q7.c **** #include "CMSIS_DSP/cmsis_dsp.h"
  30:../Dave/Generated/CMSIS_DSP/Source/FilteringFunctions/arm_fir_q7.c **** 
  31:../Dave/Generated/CMSIS_DSP/Source/FilteringFunctions/arm_fir_q7.c **** /**
  32:../Dave/Generated/CMSIS_DSP/Source/FilteringFunctions/arm_fir_q7.c ****   @ingroup groupFilters
  33:../Dave/Generated/CMSIS_DSP/Source/FilteringFunctions/arm_fir_q7.c ****  */
  34:../Dave/Generated/CMSIS_DSP/Source/FilteringFunctions/arm_fir_q7.c **** 
  35:../Dave/Generated/CMSIS_DSP/Source/FilteringFunctions/arm_fir_q7.c **** /**
  36:../Dave/Generated/CMSIS_DSP/Source/FilteringFunctions/arm_fir_q7.c ****   @addtogroup FIR
  37:../Dave/Generated/CMSIS_DSP/Source/FilteringFunctions/arm_fir_q7.c ****   @{
  38:../Dave/Generated/CMSIS_DSP/Source/FilteringFunctions/arm_fir_q7.c ****  */
  39:../Dave/Generated/CMSIS_DSP/Source/FilteringFunctions/arm_fir_q7.c **** 
  40:../Dave/Generated/CMSIS_DSP/Source/FilteringFunctions/arm_fir_q7.c **** /**
  41:../Dave/Generated/CMSIS_DSP/Source/FilteringFunctions/arm_fir_q7.c ****   @brief         Processing function for Q7 FIR filter.
  42:../Dave/Generated/CMSIS_DSP/Source/FilteringFunctions/arm_fir_q7.c ****   @param[in]     S          points to an instance of the Q7 FIR filter structure
  43:../Dave/Generated/CMSIS_DSP/Source/FilteringFunctions/arm_fir_q7.c ****   @param[in]     pSrc       points to the block of input data
  44:../Dave/Generated/CMSIS_DSP/Source/FilteringFunctions/arm_fir_q7.c ****   @param[out]    pDst       points to the block of output data
  45:../Dave/Generated/CMSIS_DSP/Source/FilteringFunctions/arm_fir_q7.c ****   @param[in]     blockSize  number of samples to process
  46:../Dave/Generated/CMSIS_DSP/Source/FilteringFunctions/arm_fir_q7.c ****   @return        none
  47:../Dave/Generated/CMSIS_DSP/Source/FilteringFunctions/arm_fir_q7.c **** 
  48:../Dave/Generated/CMSIS_DSP/Source/FilteringFunctions/arm_fir_q7.c ****   @par           Scaling and Overflow Behavior
  49:../Dave/Generated/CMSIS_DSP/Source/FilteringFunctions/arm_fir_q7.c ****                    The function is implemented using a 32-bit internal accumulator.
  50:../Dave/Generated/CMSIS_DSP/Source/FilteringFunctions/arm_fir_q7.c ****                    Both coefficients and state variables are represented in 1.7 format and multipli
  51:../Dave/Generated/CMSIS_DSP/Source/FilteringFunctions/arm_fir_q7.c ****                    The 2.14 intermediate results are accumulated in a 32-bit accumulator in 18.14 f
  52:../Dave/Generated/CMSIS_DSP/Source/FilteringFunctions/arm_fir_q7.c ****                    There is no risk of internal overflow with this approach and the full precision 
  53:../Dave/Generated/CMSIS_DSP/Source/FilteringFunctions/arm_fir_q7.c ****                    The accumulator is converted to 18.7 format by discarding the low 7 bits.
  54:../Dave/Generated/CMSIS_DSP/Source/FilteringFunctions/arm_fir_q7.c ****                    Finally, the result is truncated to 1.7 format.
  55:../Dave/Generated/CMSIS_DSP/Source/FilteringFunctions/arm_fir_q7.c ****  */
  56:../Dave/Generated/CMSIS_DSP/Source/FilteringFunctions/arm_fir_q7.c **** 
  57:../Dave/Generated/CMSIS_DSP/Source/FilteringFunctions/arm_fir_q7.c **** #if defined(ARM_MATH_MVEI)
  58:../Dave/Generated/CMSIS_DSP/Source/FilteringFunctions/arm_fir_q7.c **** 
  59:../Dave/Generated/CMSIS_DSP/Source/FilteringFunctions/arm_fir_q7.c **** void arm_fir_q7_1_16_mve(const arm_fir_instance_q7 * S, const q7_t * pSrc, q7_t * pDst, uint32_t bl
  60:../Dave/Generated/CMSIS_DSP/Source/FilteringFunctions/arm_fir_q7.c **** {
  61:../Dave/Generated/CMSIS_DSP/Source/FilteringFunctions/arm_fir_q7.c ****     q7_t     *pState = S->pState;   /* State pointer */
  62:../Dave/Generated/CMSIS_DSP/Source/FilteringFunctions/arm_fir_q7.c ****     const q7_t     *pCoeffs = S->pCoeffs; /* Coefficient pointer */
  63:../Dave/Generated/CMSIS_DSP/Source/FilteringFunctions/arm_fir_q7.c ****     q7_t     *pStateCur;        /* Points to the current sample of the state */
  64:../Dave/Generated/CMSIS_DSP/Source/FilteringFunctions/arm_fir_q7.c ****     const q7_t     *pSamples;         /* Temporary pointer to the sample buffer */
  65:../Dave/Generated/CMSIS_DSP/Source/FilteringFunctions/arm_fir_q7.c ****     q7_t     *pOutput;          /* Temporary pointer to the output buffer */
  66:../Dave/Generated/CMSIS_DSP/Source/FilteringFunctions/arm_fir_q7.c ****     const q7_t     *pTempSrc;         /* Temporary pointer to the source data */
  67:../Dave/Generated/CMSIS_DSP/Source/FilteringFunctions/arm_fir_q7.c ****     q7_t     *pTempDest;        /* Temporary pointer to the destination buffer */
  68:../Dave/Generated/CMSIS_DSP/Source/FilteringFunctions/arm_fir_q7.c ****     uint32_t  numTaps = S->numTaps; /* Number of filter coefficients in the filter */
  69:../Dave/Generated/CMSIS_DSP/Source/FilteringFunctions/arm_fir_q7.c ****     uint32_t  blkCnt;
  70:../Dave/Generated/CMSIS_DSP/Source/FilteringFunctions/arm_fir_q7.c ****     q7x16_t  vecIn0;
  71:../Dave/Generated/CMSIS_DSP/Source/FilteringFunctions/arm_fir_q7.c ****     q31_t     acc0, acc1, acc2, acc3;
  72:../Dave/Generated/CMSIS_DSP/Source/FilteringFunctions/arm_fir_q7.c ****     q7x16_t  vecCoeffs;
  73:../Dave/Generated/CMSIS_DSP/Source/FilteringFunctions/arm_fir_q7.c **** 
  74:../Dave/Generated/CMSIS_DSP/Source/FilteringFunctions/arm_fir_q7.c ****     /*
  75:../Dave/Generated/CMSIS_DSP/Source/FilteringFunctions/arm_fir_q7.c ****      * pState points to state array which contains previous frame (numTaps - 1) samples
  76:../Dave/Generated/CMSIS_DSP/Source/FilteringFunctions/arm_fir_q7.c ****      * pStateCur points to the location where the new input data should be written
  77:../Dave/Generated/CMSIS_DSP/Source/FilteringFunctions/arm_fir_q7.c ****      */
  78:../Dave/Generated/CMSIS_DSP/Source/FilteringFunctions/arm_fir_q7.c ****     pStateCur   = &(pState[(numTaps - 1u)]);
  79:../Dave/Generated/CMSIS_DSP/Source/FilteringFunctions/arm_fir_q7.c ****     pSamples    = pState;
  80:../Dave/Generated/CMSIS_DSP/Source/FilteringFunctions/arm_fir_q7.c ****     pTempSrc    = pSrc;
  81:../Dave/Generated/CMSIS_DSP/Source/FilteringFunctions/arm_fir_q7.c ****     pOutput     = pDst;
  82:../Dave/Generated/CMSIS_DSP/Source/FilteringFunctions/arm_fir_q7.c ****     blkCnt      = blockSize >> 2;
  83:../Dave/Generated/CMSIS_DSP/Source/FilteringFunctions/arm_fir_q7.c **** 
  84:../Dave/Generated/CMSIS_DSP/Source/FilteringFunctions/arm_fir_q7.c ****     /*
  85:../Dave/Generated/CMSIS_DSP/Source/FilteringFunctions/arm_fir_q7.c ****      * load 16 coefs
  86:../Dave/Generated/CMSIS_DSP/Source/FilteringFunctions/arm_fir_q7.c ****      */
  87:../Dave/Generated/CMSIS_DSP/Source/FilteringFunctions/arm_fir_q7.c ****     vecCoeffs = *(q7x16_t *) pCoeffs;
  88:../Dave/Generated/CMSIS_DSP/Source/FilteringFunctions/arm_fir_q7.c **** 
  89:../Dave/Generated/CMSIS_DSP/Source/FilteringFunctions/arm_fir_q7.c ****     while (blkCnt > 0U)
  90:../Dave/Generated/CMSIS_DSP/Source/FilteringFunctions/arm_fir_q7.c ****     {
  91:../Dave/Generated/CMSIS_DSP/Source/FilteringFunctions/arm_fir_q7.c ****         /*
  92:../Dave/Generated/CMSIS_DSP/Source/FilteringFunctions/arm_fir_q7.c ****          * Save 16 input samples in the history buffer
  93:../Dave/Generated/CMSIS_DSP/Source/FilteringFunctions/arm_fir_q7.c ****          */
  94:../Dave/Generated/CMSIS_DSP/Source/FilteringFunctions/arm_fir_q7.c ****         vst1q(pStateCur, vld1q(pTempSrc));
  95:../Dave/Generated/CMSIS_DSP/Source/FilteringFunctions/arm_fir_q7.c ****         pStateCur += 16;
  96:../Dave/Generated/CMSIS_DSP/Source/FilteringFunctions/arm_fir_q7.c ****         pTempSrc += 16;
  97:../Dave/Generated/CMSIS_DSP/Source/FilteringFunctions/arm_fir_q7.c **** 
  98:../Dave/Generated/CMSIS_DSP/Source/FilteringFunctions/arm_fir_q7.c ****         vecIn0 = vld1q(pSamples);
  99:../Dave/Generated/CMSIS_DSP/Source/FilteringFunctions/arm_fir_q7.c ****         acc0 = vmladavq(vecIn0, vecCoeffs);
 100:../Dave/Generated/CMSIS_DSP/Source/FilteringFunctions/arm_fir_q7.c **** 
 101:../Dave/Generated/CMSIS_DSP/Source/FilteringFunctions/arm_fir_q7.c ****         vecIn0 = vld1q(&pSamples[1]);;
 102:../Dave/Generated/CMSIS_DSP/Source/FilteringFunctions/arm_fir_q7.c ****         acc1 = vmladavq(vecIn0, vecCoeffs);
 103:../Dave/Generated/CMSIS_DSP/Source/FilteringFunctions/arm_fir_q7.c **** 
 104:../Dave/Generated/CMSIS_DSP/Source/FilteringFunctions/arm_fir_q7.c ****         vecIn0 = vld1q(&pSamples[2]);;
 105:../Dave/Generated/CMSIS_DSP/Source/FilteringFunctions/arm_fir_q7.c ****         acc2 = vmladavq(vecIn0, vecCoeffs);
 106:../Dave/Generated/CMSIS_DSP/Source/FilteringFunctions/arm_fir_q7.c **** 
 107:../Dave/Generated/CMSIS_DSP/Source/FilteringFunctions/arm_fir_q7.c ****         vecIn0 = vld1q(&pSamples[3]);
 108:../Dave/Generated/CMSIS_DSP/Source/FilteringFunctions/arm_fir_q7.c ****         acc3 = vmladavq(vecIn0, vecCoeffs);
 109:../Dave/Generated/CMSIS_DSP/Source/FilteringFunctions/arm_fir_q7.c **** 
 110:../Dave/Generated/CMSIS_DSP/Source/FilteringFunctions/arm_fir_q7.c ****         /*
 111:../Dave/Generated/CMSIS_DSP/Source/FilteringFunctions/arm_fir_q7.c ****          * Store the 1.7 format filter output in destination buffer
 112:../Dave/Generated/CMSIS_DSP/Source/FilteringFunctions/arm_fir_q7.c ****          */
 113:../Dave/Generated/CMSIS_DSP/Source/FilteringFunctions/arm_fir_q7.c ****         *pOutput++ = (q7_t) __SSAT((acc0 >> 7U), 8);
 114:../Dave/Generated/CMSIS_DSP/Source/FilteringFunctions/arm_fir_q7.c ****         *pOutput++ = (q7_t) __SSAT((acc1 >> 7U), 8);
 115:../Dave/Generated/CMSIS_DSP/Source/FilteringFunctions/arm_fir_q7.c ****         *pOutput++ = (q7_t) __SSAT((acc2 >> 7U), 8);
 116:../Dave/Generated/CMSIS_DSP/Source/FilteringFunctions/arm_fir_q7.c ****         *pOutput++ = (q7_t) __SSAT((acc3 >> 7U), 8);
 117:../Dave/Generated/CMSIS_DSP/Source/FilteringFunctions/arm_fir_q7.c **** 
 118:../Dave/Generated/CMSIS_DSP/Source/FilteringFunctions/arm_fir_q7.c ****         pSamples += 4;
 119:../Dave/Generated/CMSIS_DSP/Source/FilteringFunctions/arm_fir_q7.c ****         /*
 120:../Dave/Generated/CMSIS_DSP/Source/FilteringFunctions/arm_fir_q7.c ****          * Decrement the sample block loop counter
 121:../Dave/Generated/CMSIS_DSP/Source/FilteringFunctions/arm_fir_q7.c ****          */
 122:../Dave/Generated/CMSIS_DSP/Source/FilteringFunctions/arm_fir_q7.c ****         blkCnt--;
 123:../Dave/Generated/CMSIS_DSP/Source/FilteringFunctions/arm_fir_q7.c ****     }
 124:../Dave/Generated/CMSIS_DSP/Source/FilteringFunctions/arm_fir_q7.c **** 
 125:../Dave/Generated/CMSIS_DSP/Source/FilteringFunctions/arm_fir_q7.c ****     uint32_t  residual = blockSize & 3;
 126:../Dave/Generated/CMSIS_DSP/Source/FilteringFunctions/arm_fir_q7.c ****     switch (residual)
 127:../Dave/Generated/CMSIS_DSP/Source/FilteringFunctions/arm_fir_q7.c ****     {
 128:../Dave/Generated/CMSIS_DSP/Source/FilteringFunctions/arm_fir_q7.c ****     case 3:
 129:../Dave/Generated/CMSIS_DSP/Source/FilteringFunctions/arm_fir_q7.c ****         {
 130:../Dave/Generated/CMSIS_DSP/Source/FilteringFunctions/arm_fir_q7.c ****             vst1q(pStateCur, vld1q(pTempSrc));
 131:../Dave/Generated/CMSIS_DSP/Source/FilteringFunctions/arm_fir_q7.c ****             pStateCur += 16;
 132:../Dave/Generated/CMSIS_DSP/Source/FilteringFunctions/arm_fir_q7.c ****             pTempSrc += 16;
 133:../Dave/Generated/CMSIS_DSP/Source/FilteringFunctions/arm_fir_q7.c **** 
 134:../Dave/Generated/CMSIS_DSP/Source/FilteringFunctions/arm_fir_q7.c ****             vecIn0 = vld1q(pSamples);
 135:../Dave/Generated/CMSIS_DSP/Source/FilteringFunctions/arm_fir_q7.c ****             acc0 = vmladavq(vecIn0, vecCoeffs);
 136:../Dave/Generated/CMSIS_DSP/Source/FilteringFunctions/arm_fir_q7.c **** 
 137:../Dave/Generated/CMSIS_DSP/Source/FilteringFunctions/arm_fir_q7.c ****             vecIn0 = vld1q(&pSamples[1]);
 138:../Dave/Generated/CMSIS_DSP/Source/FilteringFunctions/arm_fir_q7.c ****             acc1 = vmladavq(vecIn0, vecCoeffs);
 139:../Dave/Generated/CMSIS_DSP/Source/FilteringFunctions/arm_fir_q7.c **** 
 140:../Dave/Generated/CMSIS_DSP/Source/FilteringFunctions/arm_fir_q7.c ****             vecIn0 = vld1q(&pSamples[2]);
 141:../Dave/Generated/CMSIS_DSP/Source/FilteringFunctions/arm_fir_q7.c ****             acc2 = vmladavq(vecIn0, vecCoeffs);
 142:../Dave/Generated/CMSIS_DSP/Source/FilteringFunctions/arm_fir_q7.c **** 
 143:../Dave/Generated/CMSIS_DSP/Source/FilteringFunctions/arm_fir_q7.c ****             *pOutput++ = (q7_t) __SSAT((acc0 >> 7U), 8);
 144:../Dave/Generated/CMSIS_DSP/Source/FilteringFunctions/arm_fir_q7.c ****             *pOutput++ = (q7_t) __SSAT((acc1 >> 7U), 8);
 145:../Dave/Generated/CMSIS_DSP/Source/FilteringFunctions/arm_fir_q7.c ****             *pOutput++ = (q7_t) __SSAT((acc2 >> 7U), 8);
 146:../Dave/Generated/CMSIS_DSP/Source/FilteringFunctions/arm_fir_q7.c ****         }
 147:../Dave/Generated/CMSIS_DSP/Source/FilteringFunctions/arm_fir_q7.c ****         break;
 148:../Dave/Generated/CMSIS_DSP/Source/FilteringFunctions/arm_fir_q7.c **** 
 149:../Dave/Generated/CMSIS_DSP/Source/FilteringFunctions/arm_fir_q7.c ****     case 2:
 150:../Dave/Generated/CMSIS_DSP/Source/FilteringFunctions/arm_fir_q7.c ****         {
 151:../Dave/Generated/CMSIS_DSP/Source/FilteringFunctions/arm_fir_q7.c ****             vst1q(pStateCur, vld1q(pTempSrc));
 152:../Dave/Generated/CMSIS_DSP/Source/FilteringFunctions/arm_fir_q7.c ****             pStateCur += 16;
 153:../Dave/Generated/CMSIS_DSP/Source/FilteringFunctions/arm_fir_q7.c ****             pTempSrc += 16;
 154:../Dave/Generated/CMSIS_DSP/Source/FilteringFunctions/arm_fir_q7.c **** 
 155:../Dave/Generated/CMSIS_DSP/Source/FilteringFunctions/arm_fir_q7.c ****             vecIn0 = vld1q(pSamples);
 156:../Dave/Generated/CMSIS_DSP/Source/FilteringFunctions/arm_fir_q7.c ****             acc0 = vmladavq(vecIn0, vecCoeffs);
 157:../Dave/Generated/CMSIS_DSP/Source/FilteringFunctions/arm_fir_q7.c **** 
 158:../Dave/Generated/CMSIS_DSP/Source/FilteringFunctions/arm_fir_q7.c ****             vecIn0 = vld1q(&pSamples[1]);
 159:../Dave/Generated/CMSIS_DSP/Source/FilteringFunctions/arm_fir_q7.c ****             acc1 = vmladavq(vecIn0, vecCoeffs);
 160:../Dave/Generated/CMSIS_DSP/Source/FilteringFunctions/arm_fir_q7.c **** 
 161:../Dave/Generated/CMSIS_DSP/Source/FilteringFunctions/arm_fir_q7.c ****             *pOutput++ = (q7_t) __SSAT((acc0 >> 7U), 8);
 162:../Dave/Generated/CMSIS_DSP/Source/FilteringFunctions/arm_fir_q7.c ****             *pOutput++ = (q7_t) __SSAT((acc1 >> 7U), 8);
 163:../Dave/Generated/CMSIS_DSP/Source/FilteringFunctions/arm_fir_q7.c ****         }
 164:../Dave/Generated/CMSIS_DSP/Source/FilteringFunctions/arm_fir_q7.c ****         break;
 165:../Dave/Generated/CMSIS_DSP/Source/FilteringFunctions/arm_fir_q7.c **** 
 166:../Dave/Generated/CMSIS_DSP/Source/FilteringFunctions/arm_fir_q7.c ****     case 1:
 167:../Dave/Generated/CMSIS_DSP/Source/FilteringFunctions/arm_fir_q7.c ****         {
 168:../Dave/Generated/CMSIS_DSP/Source/FilteringFunctions/arm_fir_q7.c ****             vst1q(pStateCur, vld1q(pTempSrc));
 169:../Dave/Generated/CMSIS_DSP/Source/FilteringFunctions/arm_fir_q7.c ****             pStateCur += 16;
 170:../Dave/Generated/CMSIS_DSP/Source/FilteringFunctions/arm_fir_q7.c ****             pTempSrc += 16;
 171:../Dave/Generated/CMSIS_DSP/Source/FilteringFunctions/arm_fir_q7.c **** 
 172:../Dave/Generated/CMSIS_DSP/Source/FilteringFunctions/arm_fir_q7.c ****             vecIn0 = vld1q(pSamples);
 173:../Dave/Generated/CMSIS_DSP/Source/FilteringFunctions/arm_fir_q7.c ****             acc0 = vmladavq(vecIn0, vecCoeffs);
 174:../Dave/Generated/CMSIS_DSP/Source/FilteringFunctions/arm_fir_q7.c **** 
 175:../Dave/Generated/CMSIS_DSP/Source/FilteringFunctions/arm_fir_q7.c ****             *pOutput++ = (q7_t) __SSAT((acc0 >> 7U), 8);
 176:../Dave/Generated/CMSIS_DSP/Source/FilteringFunctions/arm_fir_q7.c ****         }
 177:../Dave/Generated/CMSIS_DSP/Source/FilteringFunctions/arm_fir_q7.c ****         break;
 178:../Dave/Generated/CMSIS_DSP/Source/FilteringFunctions/arm_fir_q7.c ****     }
 179:../Dave/Generated/CMSIS_DSP/Source/FilteringFunctions/arm_fir_q7.c **** 
 180:../Dave/Generated/CMSIS_DSP/Source/FilteringFunctions/arm_fir_q7.c ****     /*
 181:../Dave/Generated/CMSIS_DSP/Source/FilteringFunctions/arm_fir_q7.c ****      * Copy the samples back into the history buffer start
 182:../Dave/Generated/CMSIS_DSP/Source/FilteringFunctions/arm_fir_q7.c ****      */
 183:../Dave/Generated/CMSIS_DSP/Source/FilteringFunctions/arm_fir_q7.c ****     pTempSrc = &pState[blockSize];
 184:../Dave/Generated/CMSIS_DSP/Source/FilteringFunctions/arm_fir_q7.c ****     pTempDest = pState;
 185:../Dave/Generated/CMSIS_DSP/Source/FilteringFunctions/arm_fir_q7.c **** 
 186:../Dave/Generated/CMSIS_DSP/Source/FilteringFunctions/arm_fir_q7.c ****     blkCnt = numTaps >> 4;
 187:../Dave/Generated/CMSIS_DSP/Source/FilteringFunctions/arm_fir_q7.c ****     while (blkCnt > 0U)
 188:../Dave/Generated/CMSIS_DSP/Source/FilteringFunctions/arm_fir_q7.c ****     {
 189:../Dave/Generated/CMSIS_DSP/Source/FilteringFunctions/arm_fir_q7.c ****         vst1q(pTempDest, vld1q(pTempSrc));
 190:../Dave/Generated/CMSIS_DSP/Source/FilteringFunctions/arm_fir_q7.c ****         pTempSrc += 16;
 191:../Dave/Generated/CMSIS_DSP/Source/FilteringFunctions/arm_fir_q7.c ****         pTempDest += 16;
 192:../Dave/Generated/CMSIS_DSP/Source/FilteringFunctions/arm_fir_q7.c ****         blkCnt--;
 193:../Dave/Generated/CMSIS_DSP/Source/FilteringFunctions/arm_fir_q7.c ****     }
 194:../Dave/Generated/CMSIS_DSP/Source/FilteringFunctions/arm_fir_q7.c ****     blkCnt = numTaps & 0xF;
 195:../Dave/Generated/CMSIS_DSP/Source/FilteringFunctions/arm_fir_q7.c ****     if (blkCnt > 0U)
 196:../Dave/Generated/CMSIS_DSP/Source/FilteringFunctions/arm_fir_q7.c ****     {
 197:../Dave/Generated/CMSIS_DSP/Source/FilteringFunctions/arm_fir_q7.c ****         mve_pred16_t p0 = vctp8q(blkCnt);
 198:../Dave/Generated/CMSIS_DSP/Source/FilteringFunctions/arm_fir_q7.c ****         vstrbq_p_s8(pTempDest, vld1q(pTempSrc), p0);
 199:../Dave/Generated/CMSIS_DSP/Source/FilteringFunctions/arm_fir_q7.c ****     }
 200:../Dave/Generated/CMSIS_DSP/Source/FilteringFunctions/arm_fir_q7.c **** }
 201:../Dave/Generated/CMSIS_DSP/Source/FilteringFunctions/arm_fir_q7.c **** 
 202:../Dave/Generated/CMSIS_DSP/Source/FilteringFunctions/arm_fir_q7.c **** void arm_fir_q7(
 203:../Dave/Generated/CMSIS_DSP/Source/FilteringFunctions/arm_fir_q7.c ****   const arm_fir_instance_q7 * S,
 204:../Dave/Generated/CMSIS_DSP/Source/FilteringFunctions/arm_fir_q7.c ****   const q7_t * pSrc,
 205:../Dave/Generated/CMSIS_DSP/Source/FilteringFunctions/arm_fir_q7.c ****         q7_t * pDst,
 206:../Dave/Generated/CMSIS_DSP/Source/FilteringFunctions/arm_fir_q7.c ****         uint32_t blockSize)
 207:../Dave/Generated/CMSIS_DSP/Source/FilteringFunctions/arm_fir_q7.c **** {
 208:../Dave/Generated/CMSIS_DSP/Source/FilteringFunctions/arm_fir_q7.c ****     q7_t     *pState = S->pState;   /* State pointer */
 209:../Dave/Generated/CMSIS_DSP/Source/FilteringFunctions/arm_fir_q7.c ****     const q7_t     *pCoeffs = S->pCoeffs; /* Coefficient pointer */
 210:../Dave/Generated/CMSIS_DSP/Source/FilteringFunctions/arm_fir_q7.c ****     q7_t     *pStateCur;        /* Points to the current sample of the state */
 211:../Dave/Generated/CMSIS_DSP/Source/FilteringFunctions/arm_fir_q7.c ****     const q7_t     *pSamples;         /* Temporary pointer to the sample buffer */
 212:../Dave/Generated/CMSIS_DSP/Source/FilteringFunctions/arm_fir_q7.c ****     q7_t     *pOutput;          /* Temporary pointer to the output buffer */
 213:../Dave/Generated/CMSIS_DSP/Source/FilteringFunctions/arm_fir_q7.c ****     const q7_t     *pTempSrc;         /* Temporary pointer to the source data */
 214:../Dave/Generated/CMSIS_DSP/Source/FilteringFunctions/arm_fir_q7.c ****     q7_t     *pTempDest;        /* Temporary pointer to the destination buffer */
 215:../Dave/Generated/CMSIS_DSP/Source/FilteringFunctions/arm_fir_q7.c ****     uint32_t  numTaps = S->numTaps; /* Number of filter coefficients in the filter */
 216:../Dave/Generated/CMSIS_DSP/Source/FilteringFunctions/arm_fir_q7.c ****     uint32_t  blkCnt;
 217:../Dave/Generated/CMSIS_DSP/Source/FilteringFunctions/arm_fir_q7.c ****     q7x16_t  vecIn0;
 218:../Dave/Generated/CMSIS_DSP/Source/FilteringFunctions/arm_fir_q7.c ****     uint32_t  tapsBlkCnt = (numTaps + 15) / 16;
 219:../Dave/Generated/CMSIS_DSP/Source/FilteringFunctions/arm_fir_q7.c ****     q31_t     acc0, acc1, acc2, acc3;
 220:../Dave/Generated/CMSIS_DSP/Source/FilteringFunctions/arm_fir_q7.c ****     q7x16_t  vecCoeffs;
 221:../Dave/Generated/CMSIS_DSP/Source/FilteringFunctions/arm_fir_q7.c **** 
 222:../Dave/Generated/CMSIS_DSP/Source/FilteringFunctions/arm_fir_q7.c ****     if (blockSize >= 20)
 223:../Dave/Generated/CMSIS_DSP/Source/FilteringFunctions/arm_fir_q7.c ****     {
 224:../Dave/Generated/CMSIS_DSP/Source/FilteringFunctions/arm_fir_q7.c ****         if (numTaps <= 16)
 225:../Dave/Generated/CMSIS_DSP/Source/FilteringFunctions/arm_fir_q7.c ****         {
 226:../Dave/Generated/CMSIS_DSP/Source/FilteringFunctions/arm_fir_q7.c ****             /*
 227:../Dave/Generated/CMSIS_DSP/Source/FilteringFunctions/arm_fir_q7.c ****              * [1 to 16 taps] specialized routine
 228:../Dave/Generated/CMSIS_DSP/Source/FilteringFunctions/arm_fir_q7.c ****              */
 229:../Dave/Generated/CMSIS_DSP/Source/FilteringFunctions/arm_fir_q7.c ****             arm_fir_q7_1_16_mve(S, pSrc, pDst, blockSize);
 230:../Dave/Generated/CMSIS_DSP/Source/FilteringFunctions/arm_fir_q7.c ****             return;
 231:../Dave/Generated/CMSIS_DSP/Source/FilteringFunctions/arm_fir_q7.c ****         }
 232:../Dave/Generated/CMSIS_DSP/Source/FilteringFunctions/arm_fir_q7.c ****     }
 233:../Dave/Generated/CMSIS_DSP/Source/FilteringFunctions/arm_fir_q7.c **** 
 234:../Dave/Generated/CMSIS_DSP/Source/FilteringFunctions/arm_fir_q7.c ****     if (blockSize >= 20)
 235:../Dave/Generated/CMSIS_DSP/Source/FilteringFunctions/arm_fir_q7.c ****     {
 236:../Dave/Generated/CMSIS_DSP/Source/FilteringFunctions/arm_fir_q7.c ****       /*
 237:../Dave/Generated/CMSIS_DSP/Source/FilteringFunctions/arm_fir_q7.c ****        * pState points to state array which contains previous frame (numTaps - 1) samples
 238:../Dave/Generated/CMSIS_DSP/Source/FilteringFunctions/arm_fir_q7.c ****        * pStateCur points to the location where the new input data should be written
 239:../Dave/Generated/CMSIS_DSP/Source/FilteringFunctions/arm_fir_q7.c ****        */
 240:../Dave/Generated/CMSIS_DSP/Source/FilteringFunctions/arm_fir_q7.c ****       pStateCur   = &(pState[(numTaps - 1u)]);
 241:../Dave/Generated/CMSIS_DSP/Source/FilteringFunctions/arm_fir_q7.c ****       pSamples    = pState;
 242:../Dave/Generated/CMSIS_DSP/Source/FilteringFunctions/arm_fir_q7.c ****       pTempSrc    = pSrc;
 243:../Dave/Generated/CMSIS_DSP/Source/FilteringFunctions/arm_fir_q7.c ****       pOutput     = pDst;
 244:../Dave/Generated/CMSIS_DSP/Source/FilteringFunctions/arm_fir_q7.c ****       blkCnt      = blockSize >> 2;
 245:../Dave/Generated/CMSIS_DSP/Source/FilteringFunctions/arm_fir_q7.c ****   
 246:../Dave/Generated/CMSIS_DSP/Source/FilteringFunctions/arm_fir_q7.c ****       /*
 247:../Dave/Generated/CMSIS_DSP/Source/FilteringFunctions/arm_fir_q7.c ****        * outer samples loop
 248:../Dave/Generated/CMSIS_DSP/Source/FilteringFunctions/arm_fir_q7.c ****        */
 249:../Dave/Generated/CMSIS_DSP/Source/FilteringFunctions/arm_fir_q7.c ****       while (blkCnt > 0U)
 250:../Dave/Generated/CMSIS_DSP/Source/FilteringFunctions/arm_fir_q7.c ****       {
 251:../Dave/Generated/CMSIS_DSP/Source/FilteringFunctions/arm_fir_q7.c ****           const q7_t     *pCoeffsTmp = pCoeffs;
 252:../Dave/Generated/CMSIS_DSP/Source/FilteringFunctions/arm_fir_q7.c ****           const q7_t     *pSamplesTmp = pSamples;
 253:../Dave/Generated/CMSIS_DSP/Source/FilteringFunctions/arm_fir_q7.c ****   
 254:../Dave/Generated/CMSIS_DSP/Source/FilteringFunctions/arm_fir_q7.c ****           acc0 = 0;
 255:../Dave/Generated/CMSIS_DSP/Source/FilteringFunctions/arm_fir_q7.c ****           acc1 = 0;
 256:../Dave/Generated/CMSIS_DSP/Source/FilteringFunctions/arm_fir_q7.c ****           acc2 = 0;
 257:../Dave/Generated/CMSIS_DSP/Source/FilteringFunctions/arm_fir_q7.c ****           acc3 = 0;
 258:../Dave/Generated/CMSIS_DSP/Source/FilteringFunctions/arm_fir_q7.c ****           /*
 259:../Dave/Generated/CMSIS_DSP/Source/FilteringFunctions/arm_fir_q7.c ****            * Save 16 input samples in the history buffer
 260:../Dave/Generated/CMSIS_DSP/Source/FilteringFunctions/arm_fir_q7.c ****            */
 261:../Dave/Generated/CMSIS_DSP/Source/FilteringFunctions/arm_fir_q7.c ****           vst1q(pStateCur, vld1q(pTempSrc));
 262:../Dave/Generated/CMSIS_DSP/Source/FilteringFunctions/arm_fir_q7.c ****           pStateCur += 16;
 263:../Dave/Generated/CMSIS_DSP/Source/FilteringFunctions/arm_fir_q7.c ****           pTempSrc += 16;
 264:../Dave/Generated/CMSIS_DSP/Source/FilteringFunctions/arm_fir_q7.c ****   
 265:../Dave/Generated/CMSIS_DSP/Source/FilteringFunctions/arm_fir_q7.c ****           /*
 266:../Dave/Generated/CMSIS_DSP/Source/FilteringFunctions/arm_fir_q7.c ****            * inner coefficients loop
 267:../Dave/Generated/CMSIS_DSP/Source/FilteringFunctions/arm_fir_q7.c ****            */
 268:../Dave/Generated/CMSIS_DSP/Source/FilteringFunctions/arm_fir_q7.c ****           uint32_t       i = tapsBlkCnt;
 269:../Dave/Generated/CMSIS_DSP/Source/FilteringFunctions/arm_fir_q7.c ****           while (i > 0U)
 270:../Dave/Generated/CMSIS_DSP/Source/FilteringFunctions/arm_fir_q7.c ****           {
 271:../Dave/Generated/CMSIS_DSP/Source/FilteringFunctions/arm_fir_q7.c ****               /*
 272:../Dave/Generated/CMSIS_DSP/Source/FilteringFunctions/arm_fir_q7.c ****                * load 16 coefs
 273:../Dave/Generated/CMSIS_DSP/Source/FilteringFunctions/arm_fir_q7.c ****                */
 274:../Dave/Generated/CMSIS_DSP/Source/FilteringFunctions/arm_fir_q7.c ****               vecCoeffs = *(q7x16_t *) pCoeffsTmp;
 275:../Dave/Generated/CMSIS_DSP/Source/FilteringFunctions/arm_fir_q7.c ****   
 276:../Dave/Generated/CMSIS_DSP/Source/FilteringFunctions/arm_fir_q7.c ****               vecIn0 = vld1q(pSamplesTmp);
 277:../Dave/Generated/CMSIS_DSP/Source/FilteringFunctions/arm_fir_q7.c ****               acc0 = vmladavaq(acc0, vecIn0, vecCoeffs);
 278:../Dave/Generated/CMSIS_DSP/Source/FilteringFunctions/arm_fir_q7.c ****   
 279:../Dave/Generated/CMSIS_DSP/Source/FilteringFunctions/arm_fir_q7.c ****               vecIn0 = vld1q(&pSamplesTmp[1]);
 280:../Dave/Generated/CMSIS_DSP/Source/FilteringFunctions/arm_fir_q7.c ****               acc1 = vmladavaq(acc1, vecIn0, vecCoeffs);
 281:../Dave/Generated/CMSIS_DSP/Source/FilteringFunctions/arm_fir_q7.c ****   
 282:../Dave/Generated/CMSIS_DSP/Source/FilteringFunctions/arm_fir_q7.c ****               vecIn0 = vld1q(&pSamplesTmp[2]);
 283:../Dave/Generated/CMSIS_DSP/Source/FilteringFunctions/arm_fir_q7.c ****               acc2 = vmladavaq(acc2, vecIn0, vecCoeffs);
 284:../Dave/Generated/CMSIS_DSP/Source/FilteringFunctions/arm_fir_q7.c ****   
 285:../Dave/Generated/CMSIS_DSP/Source/FilteringFunctions/arm_fir_q7.c ****               vecIn0 = vld1q(&pSamplesTmp[3]);
 286:../Dave/Generated/CMSIS_DSP/Source/FilteringFunctions/arm_fir_q7.c ****               acc3 = vmladavaq(acc3, vecIn0, vecCoeffs);
 287:../Dave/Generated/CMSIS_DSP/Source/FilteringFunctions/arm_fir_q7.c ****   
 288:../Dave/Generated/CMSIS_DSP/Source/FilteringFunctions/arm_fir_q7.c ****               pSamplesTmp += 16;
 289:../Dave/Generated/CMSIS_DSP/Source/FilteringFunctions/arm_fir_q7.c ****               pCoeffsTmp += 16;
 290:../Dave/Generated/CMSIS_DSP/Source/FilteringFunctions/arm_fir_q7.c ****               /*
 291:../Dave/Generated/CMSIS_DSP/Source/FilteringFunctions/arm_fir_q7.c ****                * Decrement the taps block loop counter
 292:../Dave/Generated/CMSIS_DSP/Source/FilteringFunctions/arm_fir_q7.c ****                */
 293:../Dave/Generated/CMSIS_DSP/Source/FilteringFunctions/arm_fir_q7.c ****               i--;
 294:../Dave/Generated/CMSIS_DSP/Source/FilteringFunctions/arm_fir_q7.c ****           }
 295:../Dave/Generated/CMSIS_DSP/Source/FilteringFunctions/arm_fir_q7.c ****           /*
 296:../Dave/Generated/CMSIS_DSP/Source/FilteringFunctions/arm_fir_q7.c ****            * Store the 1.7 format filter output in destination buffer
 297:../Dave/Generated/CMSIS_DSP/Source/FilteringFunctions/arm_fir_q7.c ****            */
 298:../Dave/Generated/CMSIS_DSP/Source/FilteringFunctions/arm_fir_q7.c ****           *pOutput++ = (q7_t) __SSAT((acc0 >> 7U), 8);
 299:../Dave/Generated/CMSIS_DSP/Source/FilteringFunctions/arm_fir_q7.c ****           *pOutput++ = (q7_t) __SSAT((acc1 >> 7U), 8);
 300:../Dave/Generated/CMSIS_DSP/Source/FilteringFunctions/arm_fir_q7.c ****           *pOutput++ = (q7_t) __SSAT((acc2 >> 7U), 8);
 301:../Dave/Generated/CMSIS_DSP/Source/FilteringFunctions/arm_fir_q7.c ****           *pOutput++ = (q7_t) __SSAT((acc3 >> 7U), 8);
 302:../Dave/Generated/CMSIS_DSP/Source/FilteringFunctions/arm_fir_q7.c ****   
 303:../Dave/Generated/CMSIS_DSP/Source/FilteringFunctions/arm_fir_q7.c ****           pSamples += 4;
 304:../Dave/Generated/CMSIS_DSP/Source/FilteringFunctions/arm_fir_q7.c ****           /*
 305:../Dave/Generated/CMSIS_DSP/Source/FilteringFunctions/arm_fir_q7.c ****            * Decrement the sample block loop counter
 306:../Dave/Generated/CMSIS_DSP/Source/FilteringFunctions/arm_fir_q7.c ****            */
 307:../Dave/Generated/CMSIS_DSP/Source/FilteringFunctions/arm_fir_q7.c ****           blkCnt--;
 308:../Dave/Generated/CMSIS_DSP/Source/FilteringFunctions/arm_fir_q7.c ****       }
 309:../Dave/Generated/CMSIS_DSP/Source/FilteringFunctions/arm_fir_q7.c ****   
 310:../Dave/Generated/CMSIS_DSP/Source/FilteringFunctions/arm_fir_q7.c ****       uint32_t  residual = blockSize & 3;
 311:../Dave/Generated/CMSIS_DSP/Source/FilteringFunctions/arm_fir_q7.c ****       switch (residual)
 312:../Dave/Generated/CMSIS_DSP/Source/FilteringFunctions/arm_fir_q7.c ****       {
 313:../Dave/Generated/CMSIS_DSP/Source/FilteringFunctions/arm_fir_q7.c ****       case 3:
 314:../Dave/Generated/CMSIS_DSP/Source/FilteringFunctions/arm_fir_q7.c ****           {
 315:../Dave/Generated/CMSIS_DSP/Source/FilteringFunctions/arm_fir_q7.c ****               const q7_t     *pCoeffsTmp = pCoeffs;
 316:../Dave/Generated/CMSIS_DSP/Source/FilteringFunctions/arm_fir_q7.c ****               const q7_t     *pSamplesTmp = pSamples;
 317:../Dave/Generated/CMSIS_DSP/Source/FilteringFunctions/arm_fir_q7.c ****   
 318:../Dave/Generated/CMSIS_DSP/Source/FilteringFunctions/arm_fir_q7.c ****               acc0 = 0;
 319:../Dave/Generated/CMSIS_DSP/Source/FilteringFunctions/arm_fir_q7.c ****               acc1 = 0;
 320:../Dave/Generated/CMSIS_DSP/Source/FilteringFunctions/arm_fir_q7.c ****               acc2 = 0;
 321:../Dave/Generated/CMSIS_DSP/Source/FilteringFunctions/arm_fir_q7.c ****               /*
 322:../Dave/Generated/CMSIS_DSP/Source/FilteringFunctions/arm_fir_q7.c ****                * Save 16 input samples in the history buffer
 323:../Dave/Generated/CMSIS_DSP/Source/FilteringFunctions/arm_fir_q7.c ****                */
 324:../Dave/Generated/CMSIS_DSP/Source/FilteringFunctions/arm_fir_q7.c ****               vst1q(pStateCur, vld1q(pTempSrc));
 325:../Dave/Generated/CMSIS_DSP/Source/FilteringFunctions/arm_fir_q7.c ****               pStateCur += 16;
 326:../Dave/Generated/CMSIS_DSP/Source/FilteringFunctions/arm_fir_q7.c ****               pTempSrc += 16;
 327:../Dave/Generated/CMSIS_DSP/Source/FilteringFunctions/arm_fir_q7.c ****   
 328:../Dave/Generated/CMSIS_DSP/Source/FilteringFunctions/arm_fir_q7.c ****               uint32_t       i = tapsBlkCnt;
 329:../Dave/Generated/CMSIS_DSP/Source/FilteringFunctions/arm_fir_q7.c ****               while (i > 0U)
 330:../Dave/Generated/CMSIS_DSP/Source/FilteringFunctions/arm_fir_q7.c ****               {
 331:../Dave/Generated/CMSIS_DSP/Source/FilteringFunctions/arm_fir_q7.c ****                   vecCoeffs = *(q7x16_t *) pCoeffsTmp;
 332:../Dave/Generated/CMSIS_DSP/Source/FilteringFunctions/arm_fir_q7.c ****   
 333:../Dave/Generated/CMSIS_DSP/Source/FilteringFunctions/arm_fir_q7.c ****                   vecIn0 = vld1q(pSamplesTmp);
 334:../Dave/Generated/CMSIS_DSP/Source/FilteringFunctions/arm_fir_q7.c ****                   acc0 = vmladavaq(acc0, vecIn0, vecCoeffs);
 335:../Dave/Generated/CMSIS_DSP/Source/FilteringFunctions/arm_fir_q7.c ****   
 336:../Dave/Generated/CMSIS_DSP/Source/FilteringFunctions/arm_fir_q7.c ****                   vecIn0 = vld1q(&pSamplesTmp[1]);
 337:../Dave/Generated/CMSIS_DSP/Source/FilteringFunctions/arm_fir_q7.c ****                   acc1 = vmladavaq(acc1, vecIn0, vecCoeffs);
 338:../Dave/Generated/CMSIS_DSP/Source/FilteringFunctions/arm_fir_q7.c ****   
 339:../Dave/Generated/CMSIS_DSP/Source/FilteringFunctions/arm_fir_q7.c ****                   vecIn0 = vld1q(&pSamplesTmp[2]);
 340:../Dave/Generated/CMSIS_DSP/Source/FilteringFunctions/arm_fir_q7.c ****                   acc2 = vmladavaq(acc2, vecIn0, vecCoeffs);
 341:../Dave/Generated/CMSIS_DSP/Source/FilteringFunctions/arm_fir_q7.c ****   
 342:../Dave/Generated/CMSIS_DSP/Source/FilteringFunctions/arm_fir_q7.c ****                   pSamplesTmp += 16;
 343:../Dave/Generated/CMSIS_DSP/Source/FilteringFunctions/arm_fir_q7.c ****                   pCoeffsTmp += 16;
 344:../Dave/Generated/CMSIS_DSP/Source/FilteringFunctions/arm_fir_q7.c ****                   i--;
 345:../Dave/Generated/CMSIS_DSP/Source/FilteringFunctions/arm_fir_q7.c ****               }
 346:../Dave/Generated/CMSIS_DSP/Source/FilteringFunctions/arm_fir_q7.c ****   
 347:../Dave/Generated/CMSIS_DSP/Source/FilteringFunctions/arm_fir_q7.c ****               *pOutput++ = (q7_t) __SSAT((acc0 >> 7U), 8);
 348:../Dave/Generated/CMSIS_DSP/Source/FilteringFunctions/arm_fir_q7.c ****               *pOutput++ = (q7_t) __SSAT((acc1 >> 7U), 8);
 349:../Dave/Generated/CMSIS_DSP/Source/FilteringFunctions/arm_fir_q7.c ****               *pOutput++ = (q7_t) __SSAT((acc2 >> 7U), 8);
 350:../Dave/Generated/CMSIS_DSP/Source/FilteringFunctions/arm_fir_q7.c ****           }
 351:../Dave/Generated/CMSIS_DSP/Source/FilteringFunctions/arm_fir_q7.c ****           break;
 352:../Dave/Generated/CMSIS_DSP/Source/FilteringFunctions/arm_fir_q7.c ****   
 353:../Dave/Generated/CMSIS_DSP/Source/FilteringFunctions/arm_fir_q7.c ****       case 2:
 354:../Dave/Generated/CMSIS_DSP/Source/FilteringFunctions/arm_fir_q7.c ****           {
 355:../Dave/Generated/CMSIS_DSP/Source/FilteringFunctions/arm_fir_q7.c ****               const q7_t     *pCoeffsTmp = pCoeffs;
 356:../Dave/Generated/CMSIS_DSP/Source/FilteringFunctions/arm_fir_q7.c ****               const q7_t     *pSamplesTmp = pSamples;
 357:../Dave/Generated/CMSIS_DSP/Source/FilteringFunctions/arm_fir_q7.c ****   
 358:../Dave/Generated/CMSIS_DSP/Source/FilteringFunctions/arm_fir_q7.c ****               acc0 = 0;
 359:../Dave/Generated/CMSIS_DSP/Source/FilteringFunctions/arm_fir_q7.c ****               acc1 = 0;
 360:../Dave/Generated/CMSIS_DSP/Source/FilteringFunctions/arm_fir_q7.c ****               /*
 361:../Dave/Generated/CMSIS_DSP/Source/FilteringFunctions/arm_fir_q7.c ****                * Save 16 input samples in the history buffer
 362:../Dave/Generated/CMSIS_DSP/Source/FilteringFunctions/arm_fir_q7.c ****                */
 363:../Dave/Generated/CMSIS_DSP/Source/FilteringFunctions/arm_fir_q7.c ****               vst1q(pStateCur, vld1q(pTempSrc));
 364:../Dave/Generated/CMSIS_DSP/Source/FilteringFunctions/arm_fir_q7.c ****               pStateCur += 16;
 365:../Dave/Generated/CMSIS_DSP/Source/FilteringFunctions/arm_fir_q7.c ****               pTempSrc += 16;
 366:../Dave/Generated/CMSIS_DSP/Source/FilteringFunctions/arm_fir_q7.c ****   
 367:../Dave/Generated/CMSIS_DSP/Source/FilteringFunctions/arm_fir_q7.c ****               uint32_t       i = tapsBlkCnt;
 368:../Dave/Generated/CMSIS_DSP/Source/FilteringFunctions/arm_fir_q7.c ****               while (i > 0U)
 369:../Dave/Generated/CMSIS_DSP/Source/FilteringFunctions/arm_fir_q7.c ****               {
 370:../Dave/Generated/CMSIS_DSP/Source/FilteringFunctions/arm_fir_q7.c ****                   vecCoeffs = *(q7x16_t *) pCoeffsTmp;
 371:../Dave/Generated/CMSIS_DSP/Source/FilteringFunctions/arm_fir_q7.c ****   
 372:../Dave/Generated/CMSIS_DSP/Source/FilteringFunctions/arm_fir_q7.c ****                   vecIn0 = vld1q(pSamplesTmp);
 373:../Dave/Generated/CMSIS_DSP/Source/FilteringFunctions/arm_fir_q7.c ****                   acc0 = vmladavaq(acc0, vecIn0, vecCoeffs);
 374:../Dave/Generated/CMSIS_DSP/Source/FilteringFunctions/arm_fir_q7.c ****   
 375:../Dave/Generated/CMSIS_DSP/Source/FilteringFunctions/arm_fir_q7.c ****                   vecIn0 = vld1q(&pSamplesTmp[1]);
 376:../Dave/Generated/CMSIS_DSP/Source/FilteringFunctions/arm_fir_q7.c ****                   acc1 = vmladavaq(acc1, vecIn0, vecCoeffs);
 377:../Dave/Generated/CMSIS_DSP/Source/FilteringFunctions/arm_fir_q7.c ****   
 378:../Dave/Generated/CMSIS_DSP/Source/FilteringFunctions/arm_fir_q7.c ****                   pSamplesTmp += 16;
 379:../Dave/Generated/CMSIS_DSP/Source/FilteringFunctions/arm_fir_q7.c ****                   pCoeffsTmp += 16;
 380:../Dave/Generated/CMSIS_DSP/Source/FilteringFunctions/arm_fir_q7.c ****                   i--;
 381:../Dave/Generated/CMSIS_DSP/Source/FilteringFunctions/arm_fir_q7.c ****               }
 382:../Dave/Generated/CMSIS_DSP/Source/FilteringFunctions/arm_fir_q7.c ****   
 383:../Dave/Generated/CMSIS_DSP/Source/FilteringFunctions/arm_fir_q7.c ****               *pOutput++ = (q7_t) __SSAT((acc0 >> 7U), 8);
 384:../Dave/Generated/CMSIS_DSP/Source/FilteringFunctions/arm_fir_q7.c ****               *pOutput++ = (q7_t) __SSAT((acc1 >> 7U), 8);
 385:../Dave/Generated/CMSIS_DSP/Source/FilteringFunctions/arm_fir_q7.c ****           }
 386:../Dave/Generated/CMSIS_DSP/Source/FilteringFunctions/arm_fir_q7.c ****           break;
 387:../Dave/Generated/CMSIS_DSP/Source/FilteringFunctions/arm_fir_q7.c ****   
 388:../Dave/Generated/CMSIS_DSP/Source/FilteringFunctions/arm_fir_q7.c ****       case 1:
 389:../Dave/Generated/CMSIS_DSP/Source/FilteringFunctions/arm_fir_q7.c ****           {
 390:../Dave/Generated/CMSIS_DSP/Source/FilteringFunctions/arm_fir_q7.c ****               const q7_t     *pCoeffsTmp = pCoeffs;
 391:../Dave/Generated/CMSIS_DSP/Source/FilteringFunctions/arm_fir_q7.c ****               const q7_t     *pSamplesTmp = pSamples;
 392:../Dave/Generated/CMSIS_DSP/Source/FilteringFunctions/arm_fir_q7.c ****   
 393:../Dave/Generated/CMSIS_DSP/Source/FilteringFunctions/arm_fir_q7.c ****               acc0 = 0;
 394:../Dave/Generated/CMSIS_DSP/Source/FilteringFunctions/arm_fir_q7.c ****               /*
 395:../Dave/Generated/CMSIS_DSP/Source/FilteringFunctions/arm_fir_q7.c ****                * Save 16 input samples in the history buffer
 396:../Dave/Generated/CMSIS_DSP/Source/FilteringFunctions/arm_fir_q7.c ****                */
 397:../Dave/Generated/CMSIS_DSP/Source/FilteringFunctions/arm_fir_q7.c ****               vst1q(pStateCur, vld1q(pTempSrc));
 398:../Dave/Generated/CMSIS_DSP/Source/FilteringFunctions/arm_fir_q7.c ****               pStateCur += 16;
 399:../Dave/Generated/CMSIS_DSP/Source/FilteringFunctions/arm_fir_q7.c ****               pTempSrc += 16;
 400:../Dave/Generated/CMSIS_DSP/Source/FilteringFunctions/arm_fir_q7.c ****   
 401:../Dave/Generated/CMSIS_DSP/Source/FilteringFunctions/arm_fir_q7.c ****               uint32_t       i = tapsBlkCnt;
 402:../Dave/Generated/CMSIS_DSP/Source/FilteringFunctions/arm_fir_q7.c ****               while (i > 0U)
 403:../Dave/Generated/CMSIS_DSP/Source/FilteringFunctions/arm_fir_q7.c ****               {
 404:../Dave/Generated/CMSIS_DSP/Source/FilteringFunctions/arm_fir_q7.c ****                   vecCoeffs = *(q7x16_t *) pCoeffsTmp;
 405:../Dave/Generated/CMSIS_DSP/Source/FilteringFunctions/arm_fir_q7.c ****   
 406:../Dave/Generated/CMSIS_DSP/Source/FilteringFunctions/arm_fir_q7.c ****                   vecIn0 = vld1q(pSamplesTmp);
 407:../Dave/Generated/CMSIS_DSP/Source/FilteringFunctions/arm_fir_q7.c ****                   acc0 = vmladavaq(acc0, vecIn0, vecCoeffs);
 408:../Dave/Generated/CMSIS_DSP/Source/FilteringFunctions/arm_fir_q7.c ****   
 409:../Dave/Generated/CMSIS_DSP/Source/FilteringFunctions/arm_fir_q7.c ****                   pSamplesTmp += 16;
 410:../Dave/Generated/CMSIS_DSP/Source/FilteringFunctions/arm_fir_q7.c ****                   pCoeffsTmp += 16;
 411:../Dave/Generated/CMSIS_DSP/Source/FilteringFunctions/arm_fir_q7.c ****                   i--;
 412:../Dave/Generated/CMSIS_DSP/Source/FilteringFunctions/arm_fir_q7.c ****               }
 413:../Dave/Generated/CMSIS_DSP/Source/FilteringFunctions/arm_fir_q7.c ****               *pOutput++ = (q7_t) __SSAT((acc0 >> 7U), 8);
 414:../Dave/Generated/CMSIS_DSP/Source/FilteringFunctions/arm_fir_q7.c ****           }
 415:../Dave/Generated/CMSIS_DSP/Source/FilteringFunctions/arm_fir_q7.c ****           break;
 416:../Dave/Generated/CMSIS_DSP/Source/FilteringFunctions/arm_fir_q7.c ****       }
 417:../Dave/Generated/CMSIS_DSP/Source/FilteringFunctions/arm_fir_q7.c ****     }
 418:../Dave/Generated/CMSIS_DSP/Source/FilteringFunctions/arm_fir_q7.c ****     else
 419:../Dave/Generated/CMSIS_DSP/Source/FilteringFunctions/arm_fir_q7.c ****     {
 420:../Dave/Generated/CMSIS_DSP/Source/FilteringFunctions/arm_fir_q7.c ****         q7_t *pStateCurnt;                            /* Points to the current sample of the state 
 421:../Dave/Generated/CMSIS_DSP/Source/FilteringFunctions/arm_fir_q7.c ****             q7_t *px;                                     /* Temporary pointer for state buffer */
 422:../Dave/Generated/CMSIS_DSP/Source/FilteringFunctions/arm_fir_q7.c ****       const q7_t *pb;                                     /* Temporary pointer for coefficient buff
 423:../Dave/Generated/CMSIS_DSP/Source/FilteringFunctions/arm_fir_q7.c ****             q31_t acc0;                                    /* Accumulator */
 424:../Dave/Generated/CMSIS_DSP/Source/FilteringFunctions/arm_fir_q7.c ****             uint32_t  i,blkCnt;                    /* Loop counters */
 425:../Dave/Generated/CMSIS_DSP/Source/FilteringFunctions/arm_fir_q7.c ****       pStateCurnt = &(S->pState[(numTaps - 1U)]);
 426:../Dave/Generated/CMSIS_DSP/Source/FilteringFunctions/arm_fir_q7.c ****       blkCnt = blockSize;
 427:../Dave/Generated/CMSIS_DSP/Source/FilteringFunctions/arm_fir_q7.c **** 
 428:../Dave/Generated/CMSIS_DSP/Source/FilteringFunctions/arm_fir_q7.c ****          while (blkCnt > 0U)
 429:../Dave/Generated/CMSIS_DSP/Source/FilteringFunctions/arm_fir_q7.c ****            {
 430:../Dave/Generated/CMSIS_DSP/Source/FilteringFunctions/arm_fir_q7.c ****              /* Copy one sample at a time into state buffer */
 431:../Dave/Generated/CMSIS_DSP/Source/FilteringFunctions/arm_fir_q7.c ****              *pStateCurnt++ = *pSrc++;
 432:../Dave/Generated/CMSIS_DSP/Source/FilteringFunctions/arm_fir_q7.c ****          
 433:../Dave/Generated/CMSIS_DSP/Source/FilteringFunctions/arm_fir_q7.c ****              /* Set the accumulator to zero */
 434:../Dave/Generated/CMSIS_DSP/Source/FilteringFunctions/arm_fir_q7.c ****              acc0 = 0;
 435:../Dave/Generated/CMSIS_DSP/Source/FilteringFunctions/arm_fir_q7.c ****          
 436:../Dave/Generated/CMSIS_DSP/Source/FilteringFunctions/arm_fir_q7.c ****              /* Initialize state pointer */
 437:../Dave/Generated/CMSIS_DSP/Source/FilteringFunctions/arm_fir_q7.c ****              px = pState;
 438:../Dave/Generated/CMSIS_DSP/Source/FilteringFunctions/arm_fir_q7.c ****          
 439:../Dave/Generated/CMSIS_DSP/Source/FilteringFunctions/arm_fir_q7.c ****              /* Initialize Coefficient pointer */
 440:../Dave/Generated/CMSIS_DSP/Source/FilteringFunctions/arm_fir_q7.c ****              pb = pCoeffs;
 441:../Dave/Generated/CMSIS_DSP/Source/FilteringFunctions/arm_fir_q7.c ****          
 442:../Dave/Generated/CMSIS_DSP/Source/FilteringFunctions/arm_fir_q7.c ****              i = numTaps;
 443:../Dave/Generated/CMSIS_DSP/Source/FilteringFunctions/arm_fir_q7.c ****          
 444:../Dave/Generated/CMSIS_DSP/Source/FilteringFunctions/arm_fir_q7.c ****              /* Perform the multiply-accumulates */
 445:../Dave/Generated/CMSIS_DSP/Source/FilteringFunctions/arm_fir_q7.c ****              while (i > 0U)
 446:../Dave/Generated/CMSIS_DSP/Source/FilteringFunctions/arm_fir_q7.c ****              {
 447:../Dave/Generated/CMSIS_DSP/Source/FilteringFunctions/arm_fir_q7.c ****                acc0 += (q15_t) * (px++) * (*(pb++));
 448:../Dave/Generated/CMSIS_DSP/Source/FilteringFunctions/arm_fir_q7.c ****                i--;
 449:../Dave/Generated/CMSIS_DSP/Source/FilteringFunctions/arm_fir_q7.c ****              } 
 450:../Dave/Generated/CMSIS_DSP/Source/FilteringFunctions/arm_fir_q7.c ****          
 451:../Dave/Generated/CMSIS_DSP/Source/FilteringFunctions/arm_fir_q7.c ****              /* The result is in 2.14 format. Convert to 1.7
 452:../Dave/Generated/CMSIS_DSP/Source/FilteringFunctions/arm_fir_q7.c ****                 Then store the output in the destination buffer. */
 453:../Dave/Generated/CMSIS_DSP/Source/FilteringFunctions/arm_fir_q7.c ****              *pDst++ = __SSAT((acc0 >> 7U), 8);
 454:../Dave/Generated/CMSIS_DSP/Source/FilteringFunctions/arm_fir_q7.c ****          
 455:../Dave/Generated/CMSIS_DSP/Source/FilteringFunctions/arm_fir_q7.c ****              /* Advance state pointer by 1 for the next sample */
 456:../Dave/Generated/CMSIS_DSP/Source/FilteringFunctions/arm_fir_q7.c ****              pState = pState + 1U;
 457:../Dave/Generated/CMSIS_DSP/Source/FilteringFunctions/arm_fir_q7.c ****          
 458:../Dave/Generated/CMSIS_DSP/Source/FilteringFunctions/arm_fir_q7.c ****              /* Decrement loop counter */
 459:../Dave/Generated/CMSIS_DSP/Source/FilteringFunctions/arm_fir_q7.c ****              blkCnt--;
 460:../Dave/Generated/CMSIS_DSP/Source/FilteringFunctions/arm_fir_q7.c ****            }
 461:../Dave/Generated/CMSIS_DSP/Source/FilteringFunctions/arm_fir_q7.c ****     }
 462:../Dave/Generated/CMSIS_DSP/Source/FilteringFunctions/arm_fir_q7.c ****     /*
 463:../Dave/Generated/CMSIS_DSP/Source/FilteringFunctions/arm_fir_q7.c ****      * Copy the samples back into the history buffer start
 464:../Dave/Generated/CMSIS_DSP/Source/FilteringFunctions/arm_fir_q7.c ****      */
 465:../Dave/Generated/CMSIS_DSP/Source/FilteringFunctions/arm_fir_q7.c ****     pTempSrc = &S->pState[blockSize];
 466:../Dave/Generated/CMSIS_DSP/Source/FilteringFunctions/arm_fir_q7.c ****     pTempDest = S->pState;
 467:../Dave/Generated/CMSIS_DSP/Source/FilteringFunctions/arm_fir_q7.c **** 
 468:../Dave/Generated/CMSIS_DSP/Source/FilteringFunctions/arm_fir_q7.c ****     blkCnt = numTaps >> 4;
 469:../Dave/Generated/CMSIS_DSP/Source/FilteringFunctions/arm_fir_q7.c ****     while (blkCnt > 0U)
 470:../Dave/Generated/CMSIS_DSP/Source/FilteringFunctions/arm_fir_q7.c ****     {
 471:../Dave/Generated/CMSIS_DSP/Source/FilteringFunctions/arm_fir_q7.c ****         vst1q(pTempDest, vld1q(pTempSrc));
 472:../Dave/Generated/CMSIS_DSP/Source/FilteringFunctions/arm_fir_q7.c ****         pTempSrc += 16;
 473:../Dave/Generated/CMSIS_DSP/Source/FilteringFunctions/arm_fir_q7.c ****         pTempDest += 16;
 474:../Dave/Generated/CMSIS_DSP/Source/FilteringFunctions/arm_fir_q7.c ****         blkCnt--;
 475:../Dave/Generated/CMSIS_DSP/Source/FilteringFunctions/arm_fir_q7.c ****     }
 476:../Dave/Generated/CMSIS_DSP/Source/FilteringFunctions/arm_fir_q7.c ****     blkCnt = numTaps & 0xF;
 477:../Dave/Generated/CMSIS_DSP/Source/FilteringFunctions/arm_fir_q7.c ****     if (blkCnt > 0U)
 478:../Dave/Generated/CMSIS_DSP/Source/FilteringFunctions/arm_fir_q7.c ****     {
 479:../Dave/Generated/CMSIS_DSP/Source/FilteringFunctions/arm_fir_q7.c ****         mve_pred16_t p0 = vctp8q(blkCnt);
 480:../Dave/Generated/CMSIS_DSP/Source/FilteringFunctions/arm_fir_q7.c ****         vstrbq_p_s8(pTempDest, vld1q(pTempSrc), p0);
 481:../Dave/Generated/CMSIS_DSP/Source/FilteringFunctions/arm_fir_q7.c ****     }
 482:../Dave/Generated/CMSIS_DSP/Source/FilteringFunctions/arm_fir_q7.c **** }
 483:../Dave/Generated/CMSIS_DSP/Source/FilteringFunctions/arm_fir_q7.c **** #else
 484:../Dave/Generated/CMSIS_DSP/Source/FilteringFunctions/arm_fir_q7.c **** void arm_fir_q7(
 485:../Dave/Generated/CMSIS_DSP/Source/FilteringFunctions/arm_fir_q7.c ****   const arm_fir_instance_q7 * S,
 486:../Dave/Generated/CMSIS_DSP/Source/FilteringFunctions/arm_fir_q7.c ****   const q7_t * pSrc,
 487:../Dave/Generated/CMSIS_DSP/Source/FilteringFunctions/arm_fir_q7.c ****         q7_t * pDst,
 488:../Dave/Generated/CMSIS_DSP/Source/FilteringFunctions/arm_fir_q7.c ****         uint32_t blockSize)
 489:../Dave/Generated/CMSIS_DSP/Source/FilteringFunctions/arm_fir_q7.c **** {
  28              	 .loc 1 489 0
  29              	 .cfi_startproc
  30              	 
  31              	 
  32              	 
  33 0000 80B4     	 push {r7}
  34              	.LCFI0:
  35              	 .cfi_def_cfa_offset 4
  36              	 .cfi_offset 7,-4
  37 0002 91B0     	 sub sp,sp,#68
  38              	.LCFI1:
  39              	 .cfi_def_cfa_offset 72
  40 0004 00AF     	 add r7,sp,#0
  41              	.LCFI2:
  42              	 .cfi_def_cfa_register 7
  43 0006 F860     	 str r0,[r7,#12]
  44 0008 B960     	 str r1,[r7,#8]
  45 000a 7A60     	 str r2,[r7,#4]
  46 000c 3B60     	 str r3,[r7]
 490:../Dave/Generated/CMSIS_DSP/Source/FilteringFunctions/arm_fir_q7.c ****         q7_t *pState = S->pState;                      /* State pointer */
  47              	 .loc 1 490 0
  48 000e FB68     	 ldr r3,[r7,#12]
  49 0010 5B68     	 ldr r3,[r3,#4]
  50 0012 FB63     	 str r3,[r7,#60]
 491:../Dave/Generated/CMSIS_DSP/Source/FilteringFunctions/arm_fir_q7.c ****   const q7_t *pCoeffs = S->pCoeffs;                    /* Coefficient pointer */
  51              	 .loc 1 491 0
  52 0014 FB68     	 ldr r3,[r7,#12]
  53 0016 9B68     	 ldr r3,[r3,#8]
  54 0018 FB61     	 str r3,[r7,#28]
 492:../Dave/Generated/CMSIS_DSP/Source/FilteringFunctions/arm_fir_q7.c ****         q7_t *pStateCurnt;                             /* Points to the current sample of the state
 493:../Dave/Generated/CMSIS_DSP/Source/FilteringFunctions/arm_fir_q7.c ****         q7_t *px;                                      /* Temporary pointer for state buffer */
 494:../Dave/Generated/CMSIS_DSP/Source/FilteringFunctions/arm_fir_q7.c ****   const q7_t *pb;                                      /* Temporary pointer for coefficient buffer 
 495:../Dave/Generated/CMSIS_DSP/Source/FilteringFunctions/arm_fir_q7.c ****         q31_t acc0;                                    /* Accumulators */
 496:../Dave/Generated/CMSIS_DSP/Source/FilteringFunctions/arm_fir_q7.c ****         uint32_t numTaps = S->numTaps;                 /* Number of filter coefficients in the filt
  55              	 .loc 1 496 0
  56 001a FB68     	 ldr r3,[r7,#12]
  57 001c 1B88     	 ldrh r3,[r3]
  58 001e BB61     	 str r3,[r7,#24]
 497:../Dave/Generated/CMSIS_DSP/Source/FilteringFunctions/arm_fir_q7.c ****         uint32_t i, tapCnt, blkCnt;                    /* Loop counters */
 498:../Dave/Generated/CMSIS_DSP/Source/FilteringFunctions/arm_fir_q7.c **** 
 499:../Dave/Generated/CMSIS_DSP/Source/FilteringFunctions/arm_fir_q7.c **** #if defined (ARM_MATH_LOOPUNROLL)
 500:../Dave/Generated/CMSIS_DSP/Source/FilteringFunctions/arm_fir_q7.c ****         q31_t acc1, acc2, acc3;                        /* Accumulators */
 501:../Dave/Generated/CMSIS_DSP/Source/FilteringFunctions/arm_fir_q7.c ****         q7_t x0, x1, x2, x3, c0;                       /* Temporary variables to hold state */
 502:../Dave/Generated/CMSIS_DSP/Source/FilteringFunctions/arm_fir_q7.c **** #endif
 503:../Dave/Generated/CMSIS_DSP/Source/FilteringFunctions/arm_fir_q7.c **** 
 504:../Dave/Generated/CMSIS_DSP/Source/FilteringFunctions/arm_fir_q7.c ****   /* S->pState points to state array which contains previous frame (numTaps - 1) samples */
 505:../Dave/Generated/CMSIS_DSP/Source/FilteringFunctions/arm_fir_q7.c ****   /* pStateCurnt points to the location where the new input data should be written */
 506:../Dave/Generated/CMSIS_DSP/Source/FilteringFunctions/arm_fir_q7.c ****   pStateCurnt = &(S->pState[(numTaps - 1U)]);
  59              	 .loc 1 506 0
  60 0020 FB68     	 ldr r3,[r7,#12]
  61 0022 5A68     	 ldr r2,[r3,#4]
  62 0024 BB69     	 ldr r3,[r7,#24]
  63 0026 013B     	 subs r3,r3,#1
  64 0028 1344     	 add r3,r3,r2
  65 002a BB63     	 str r3,[r7,#56]
 507:../Dave/Generated/CMSIS_DSP/Source/FilteringFunctions/arm_fir_q7.c **** 
 508:../Dave/Generated/CMSIS_DSP/Source/FilteringFunctions/arm_fir_q7.c **** #if defined (ARM_MATH_LOOPUNROLL)
 509:../Dave/Generated/CMSIS_DSP/Source/FilteringFunctions/arm_fir_q7.c **** 
 510:../Dave/Generated/CMSIS_DSP/Source/FilteringFunctions/arm_fir_q7.c ****   /* Loop unrolling: Compute 4 output values simultaneously.
 511:../Dave/Generated/CMSIS_DSP/Source/FilteringFunctions/arm_fir_q7.c ****    * The variables acc0 ... acc3 hold output values that are being computed:
 512:../Dave/Generated/CMSIS_DSP/Source/FilteringFunctions/arm_fir_q7.c ****    *
 513:../Dave/Generated/CMSIS_DSP/Source/FilteringFunctions/arm_fir_q7.c ****    *    acc0 =  b[numTaps-1] * x[n-numTaps-1] + b[numTaps-2] * x[n-numTaps-2] + b[numTaps-3] * x[n-
 514:../Dave/Generated/CMSIS_DSP/Source/FilteringFunctions/arm_fir_q7.c ****    *    acc1 =  b[numTaps-1] * x[n-numTaps]   + b[numTaps-2] * x[n-numTaps-1] + b[numTaps-3] * x[n-
 515:../Dave/Generated/CMSIS_DSP/Source/FilteringFunctions/arm_fir_q7.c ****    *    acc2 =  b[numTaps-1] * x[n-numTaps+1] + b[numTaps-2] * x[n-numTaps]   + b[numTaps-3] * x[n-
 516:../Dave/Generated/CMSIS_DSP/Source/FilteringFunctions/arm_fir_q7.c ****    *    acc3 =  b[numTaps-1] * x[n-numTaps+2] + b[numTaps-2] * x[n-numTaps+1] + b[numTaps-3] * x[n-
 517:../Dave/Generated/CMSIS_DSP/Source/FilteringFunctions/arm_fir_q7.c ****    */
 518:../Dave/Generated/CMSIS_DSP/Source/FilteringFunctions/arm_fir_q7.c ****   blkCnt = blockSize >> 2U;
 519:../Dave/Generated/CMSIS_DSP/Source/FilteringFunctions/arm_fir_q7.c **** 
 520:../Dave/Generated/CMSIS_DSP/Source/FilteringFunctions/arm_fir_q7.c ****   while (blkCnt > 0U)
 521:../Dave/Generated/CMSIS_DSP/Source/FilteringFunctions/arm_fir_q7.c ****   {
 522:../Dave/Generated/CMSIS_DSP/Source/FilteringFunctions/arm_fir_q7.c ****     /* Copy 4 new input samples into the state buffer. */
 523:../Dave/Generated/CMSIS_DSP/Source/FilteringFunctions/arm_fir_q7.c ****     *pStateCurnt++ = *pSrc++;
 524:../Dave/Generated/CMSIS_DSP/Source/FilteringFunctions/arm_fir_q7.c ****     *pStateCurnt++ = *pSrc++;
 525:../Dave/Generated/CMSIS_DSP/Source/FilteringFunctions/arm_fir_q7.c ****     *pStateCurnt++ = *pSrc++;
 526:../Dave/Generated/CMSIS_DSP/Source/FilteringFunctions/arm_fir_q7.c ****     *pStateCurnt++ = *pSrc++;
 527:../Dave/Generated/CMSIS_DSP/Source/FilteringFunctions/arm_fir_q7.c **** 
 528:../Dave/Generated/CMSIS_DSP/Source/FilteringFunctions/arm_fir_q7.c ****     /* Set all accumulators to zero */
 529:../Dave/Generated/CMSIS_DSP/Source/FilteringFunctions/arm_fir_q7.c ****     acc0 = 0;
 530:../Dave/Generated/CMSIS_DSP/Source/FilteringFunctions/arm_fir_q7.c ****     acc1 = 0;
 531:../Dave/Generated/CMSIS_DSP/Source/FilteringFunctions/arm_fir_q7.c ****     acc2 = 0;
 532:../Dave/Generated/CMSIS_DSP/Source/FilteringFunctions/arm_fir_q7.c ****     acc3 = 0;
 533:../Dave/Generated/CMSIS_DSP/Source/FilteringFunctions/arm_fir_q7.c **** 
 534:../Dave/Generated/CMSIS_DSP/Source/FilteringFunctions/arm_fir_q7.c ****     /* Initialize state pointer */
 535:../Dave/Generated/CMSIS_DSP/Source/FilteringFunctions/arm_fir_q7.c ****     px = pState;
 536:../Dave/Generated/CMSIS_DSP/Source/FilteringFunctions/arm_fir_q7.c **** 
 537:../Dave/Generated/CMSIS_DSP/Source/FilteringFunctions/arm_fir_q7.c ****     /* Initialize coefficient pointer */
 538:../Dave/Generated/CMSIS_DSP/Source/FilteringFunctions/arm_fir_q7.c ****     pb = pCoeffs;
 539:../Dave/Generated/CMSIS_DSP/Source/FilteringFunctions/arm_fir_q7.c **** 
 540:../Dave/Generated/CMSIS_DSP/Source/FilteringFunctions/arm_fir_q7.c ****     /* Read the first 3 samples from the state buffer:
 541:../Dave/Generated/CMSIS_DSP/Source/FilteringFunctions/arm_fir_q7.c ****      *  x[n-numTaps], x[n-numTaps-1], x[n-numTaps-2] */
 542:../Dave/Generated/CMSIS_DSP/Source/FilteringFunctions/arm_fir_q7.c ****     x0 = *px++;
 543:../Dave/Generated/CMSIS_DSP/Source/FilteringFunctions/arm_fir_q7.c ****     x1 = *px++;
 544:../Dave/Generated/CMSIS_DSP/Source/FilteringFunctions/arm_fir_q7.c ****     x2 = *px++;
 545:../Dave/Generated/CMSIS_DSP/Source/FilteringFunctions/arm_fir_q7.c **** 
 546:../Dave/Generated/CMSIS_DSP/Source/FilteringFunctions/arm_fir_q7.c ****     /* Loop unrolling. Process 4 taps at a time. */
 547:../Dave/Generated/CMSIS_DSP/Source/FilteringFunctions/arm_fir_q7.c ****     tapCnt = numTaps >> 2U;
 548:../Dave/Generated/CMSIS_DSP/Source/FilteringFunctions/arm_fir_q7.c **** 
 549:../Dave/Generated/CMSIS_DSP/Source/FilteringFunctions/arm_fir_q7.c ****     /* Loop over the number of taps.  Unroll by a factor of 4.
 550:../Dave/Generated/CMSIS_DSP/Source/FilteringFunctions/arm_fir_q7.c ****        Repeat until we've computed numTaps-4 coefficients. */
 551:../Dave/Generated/CMSIS_DSP/Source/FilteringFunctions/arm_fir_q7.c ****     while (tapCnt > 0U)
 552:../Dave/Generated/CMSIS_DSP/Source/FilteringFunctions/arm_fir_q7.c ****     {
 553:../Dave/Generated/CMSIS_DSP/Source/FilteringFunctions/arm_fir_q7.c ****       /* Read the b[numTaps] coefficient */
 554:../Dave/Generated/CMSIS_DSP/Source/FilteringFunctions/arm_fir_q7.c ****       c0 = *pb;
 555:../Dave/Generated/CMSIS_DSP/Source/FilteringFunctions/arm_fir_q7.c **** 
 556:../Dave/Generated/CMSIS_DSP/Source/FilteringFunctions/arm_fir_q7.c ****       /* Read x[n-numTaps-3] sample */
 557:../Dave/Generated/CMSIS_DSP/Source/FilteringFunctions/arm_fir_q7.c ****       x3 = *px;
 558:../Dave/Generated/CMSIS_DSP/Source/FilteringFunctions/arm_fir_q7.c **** 
 559:../Dave/Generated/CMSIS_DSP/Source/FilteringFunctions/arm_fir_q7.c ****       /* acc0 +=  b[numTaps] * x[n-numTaps] */
 560:../Dave/Generated/CMSIS_DSP/Source/FilteringFunctions/arm_fir_q7.c ****       acc0 += ((q15_t) x0 * c0);
 561:../Dave/Generated/CMSIS_DSP/Source/FilteringFunctions/arm_fir_q7.c **** 
 562:../Dave/Generated/CMSIS_DSP/Source/FilteringFunctions/arm_fir_q7.c ****       /* acc1 +=  b[numTaps] * x[n-numTaps-1] */
 563:../Dave/Generated/CMSIS_DSP/Source/FilteringFunctions/arm_fir_q7.c ****       acc1 += ((q15_t) x1 * c0);
 564:../Dave/Generated/CMSIS_DSP/Source/FilteringFunctions/arm_fir_q7.c **** 
 565:../Dave/Generated/CMSIS_DSP/Source/FilteringFunctions/arm_fir_q7.c ****       /* acc2 +=  b[numTaps] * x[n-numTaps-2] */
 566:../Dave/Generated/CMSIS_DSP/Source/FilteringFunctions/arm_fir_q7.c ****       acc2 += ((q15_t) x2 * c0);
 567:../Dave/Generated/CMSIS_DSP/Source/FilteringFunctions/arm_fir_q7.c **** 
 568:../Dave/Generated/CMSIS_DSP/Source/FilteringFunctions/arm_fir_q7.c ****       /* acc3 +=  b[numTaps] * x[n-numTaps-3] */
 569:../Dave/Generated/CMSIS_DSP/Source/FilteringFunctions/arm_fir_q7.c ****       acc3 += ((q15_t) x3 * c0);
 570:../Dave/Generated/CMSIS_DSP/Source/FilteringFunctions/arm_fir_q7.c **** 
 571:../Dave/Generated/CMSIS_DSP/Source/FilteringFunctions/arm_fir_q7.c ****       /* Read the b[numTaps-1] coefficient */
 572:../Dave/Generated/CMSIS_DSP/Source/FilteringFunctions/arm_fir_q7.c ****       c0 = *(pb + 1U);
 573:../Dave/Generated/CMSIS_DSP/Source/FilteringFunctions/arm_fir_q7.c **** 
 574:../Dave/Generated/CMSIS_DSP/Source/FilteringFunctions/arm_fir_q7.c ****       /* Read x[n-numTaps-4] sample */
 575:../Dave/Generated/CMSIS_DSP/Source/FilteringFunctions/arm_fir_q7.c ****       x0 = *(px + 1U);
 576:../Dave/Generated/CMSIS_DSP/Source/FilteringFunctions/arm_fir_q7.c **** 
 577:../Dave/Generated/CMSIS_DSP/Source/FilteringFunctions/arm_fir_q7.c ****       /* Perform the multiply-accumulates */
 578:../Dave/Generated/CMSIS_DSP/Source/FilteringFunctions/arm_fir_q7.c ****       acc0 += ((q15_t) x1 * c0);
 579:../Dave/Generated/CMSIS_DSP/Source/FilteringFunctions/arm_fir_q7.c ****       acc1 += ((q15_t) x2 * c0);
 580:../Dave/Generated/CMSIS_DSP/Source/FilteringFunctions/arm_fir_q7.c ****       acc2 += ((q15_t) x3 * c0);
 581:../Dave/Generated/CMSIS_DSP/Source/FilteringFunctions/arm_fir_q7.c ****       acc3 += ((q15_t) x0 * c0);
 582:../Dave/Generated/CMSIS_DSP/Source/FilteringFunctions/arm_fir_q7.c **** 
 583:../Dave/Generated/CMSIS_DSP/Source/FilteringFunctions/arm_fir_q7.c ****       /* Read the b[numTaps-2] coefficient */
 584:../Dave/Generated/CMSIS_DSP/Source/FilteringFunctions/arm_fir_q7.c ****       c0 = *(pb + 2U);
 585:../Dave/Generated/CMSIS_DSP/Source/FilteringFunctions/arm_fir_q7.c **** 
 586:../Dave/Generated/CMSIS_DSP/Source/FilteringFunctions/arm_fir_q7.c ****       /* Read x[n-numTaps-5] sample */
 587:../Dave/Generated/CMSIS_DSP/Source/FilteringFunctions/arm_fir_q7.c ****       x1 = *(px + 2U);
 588:../Dave/Generated/CMSIS_DSP/Source/FilteringFunctions/arm_fir_q7.c **** 
 589:../Dave/Generated/CMSIS_DSP/Source/FilteringFunctions/arm_fir_q7.c ****       /* Perform the multiply-accumulates */
 590:../Dave/Generated/CMSIS_DSP/Source/FilteringFunctions/arm_fir_q7.c ****       acc0 += ((q15_t) x2 * c0);
 591:../Dave/Generated/CMSIS_DSP/Source/FilteringFunctions/arm_fir_q7.c ****       acc1 += ((q15_t) x3 * c0);
 592:../Dave/Generated/CMSIS_DSP/Source/FilteringFunctions/arm_fir_q7.c ****       acc2 += ((q15_t) x0 * c0);
 593:../Dave/Generated/CMSIS_DSP/Source/FilteringFunctions/arm_fir_q7.c ****       acc3 += ((q15_t) x1 * c0);
 594:../Dave/Generated/CMSIS_DSP/Source/FilteringFunctions/arm_fir_q7.c **** 
 595:../Dave/Generated/CMSIS_DSP/Source/FilteringFunctions/arm_fir_q7.c ****       /* Read the b[numTaps-3] coefficients */
 596:../Dave/Generated/CMSIS_DSP/Source/FilteringFunctions/arm_fir_q7.c ****       c0 = *(pb + 3U);
 597:../Dave/Generated/CMSIS_DSP/Source/FilteringFunctions/arm_fir_q7.c **** 
 598:../Dave/Generated/CMSIS_DSP/Source/FilteringFunctions/arm_fir_q7.c ****       /* Read x[n-numTaps-6] sample */
 599:../Dave/Generated/CMSIS_DSP/Source/FilteringFunctions/arm_fir_q7.c ****       x2 = *(px + 3U);
 600:../Dave/Generated/CMSIS_DSP/Source/FilteringFunctions/arm_fir_q7.c **** 
 601:../Dave/Generated/CMSIS_DSP/Source/FilteringFunctions/arm_fir_q7.c ****       /* Perform the multiply-accumulates */
 602:../Dave/Generated/CMSIS_DSP/Source/FilteringFunctions/arm_fir_q7.c ****       acc0 += ((q15_t) x3 * c0);
 603:../Dave/Generated/CMSIS_DSP/Source/FilteringFunctions/arm_fir_q7.c ****       acc1 += ((q15_t) x0 * c0);
 604:../Dave/Generated/CMSIS_DSP/Source/FilteringFunctions/arm_fir_q7.c ****       acc2 += ((q15_t) x1 * c0);
 605:../Dave/Generated/CMSIS_DSP/Source/FilteringFunctions/arm_fir_q7.c ****       acc3 += ((q15_t) x2 * c0);
 606:../Dave/Generated/CMSIS_DSP/Source/FilteringFunctions/arm_fir_q7.c **** 
 607:../Dave/Generated/CMSIS_DSP/Source/FilteringFunctions/arm_fir_q7.c ****       /* update coefficient pointer */
 608:../Dave/Generated/CMSIS_DSP/Source/FilteringFunctions/arm_fir_q7.c ****       pb += 4U;
 609:../Dave/Generated/CMSIS_DSP/Source/FilteringFunctions/arm_fir_q7.c ****       px += 4U;
 610:../Dave/Generated/CMSIS_DSP/Source/FilteringFunctions/arm_fir_q7.c **** 
 611:../Dave/Generated/CMSIS_DSP/Source/FilteringFunctions/arm_fir_q7.c ****       /* Decrement loop counter */
 612:../Dave/Generated/CMSIS_DSP/Source/FilteringFunctions/arm_fir_q7.c ****       tapCnt--;
 613:../Dave/Generated/CMSIS_DSP/Source/FilteringFunctions/arm_fir_q7.c ****     }
 614:../Dave/Generated/CMSIS_DSP/Source/FilteringFunctions/arm_fir_q7.c **** 
 615:../Dave/Generated/CMSIS_DSP/Source/FilteringFunctions/arm_fir_q7.c ****     /* If the filter length is not a multiple of 4, compute the remaining filter taps */
 616:../Dave/Generated/CMSIS_DSP/Source/FilteringFunctions/arm_fir_q7.c ****     tapCnt = numTaps % 0x4U;
 617:../Dave/Generated/CMSIS_DSP/Source/FilteringFunctions/arm_fir_q7.c **** 
 618:../Dave/Generated/CMSIS_DSP/Source/FilteringFunctions/arm_fir_q7.c ****     while (tapCnt > 0U)
 619:../Dave/Generated/CMSIS_DSP/Source/FilteringFunctions/arm_fir_q7.c ****     {
 620:../Dave/Generated/CMSIS_DSP/Source/FilteringFunctions/arm_fir_q7.c ****       /* Read coefficients */
 621:../Dave/Generated/CMSIS_DSP/Source/FilteringFunctions/arm_fir_q7.c ****       c0 = *(pb++);
 622:../Dave/Generated/CMSIS_DSP/Source/FilteringFunctions/arm_fir_q7.c **** 
 623:../Dave/Generated/CMSIS_DSP/Source/FilteringFunctions/arm_fir_q7.c ****       /* Fetch 1 state variable */
 624:../Dave/Generated/CMSIS_DSP/Source/FilteringFunctions/arm_fir_q7.c ****       x3 = *(px++);
 625:../Dave/Generated/CMSIS_DSP/Source/FilteringFunctions/arm_fir_q7.c **** 
 626:../Dave/Generated/CMSIS_DSP/Source/FilteringFunctions/arm_fir_q7.c ****       /* Perform the multiply-accumulates */
 627:../Dave/Generated/CMSIS_DSP/Source/FilteringFunctions/arm_fir_q7.c ****       acc0 += ((q15_t) x0 * c0);
 628:../Dave/Generated/CMSIS_DSP/Source/FilteringFunctions/arm_fir_q7.c ****       acc1 += ((q15_t) x1 * c0);
 629:../Dave/Generated/CMSIS_DSP/Source/FilteringFunctions/arm_fir_q7.c ****       acc2 += ((q15_t) x2 * c0);
 630:../Dave/Generated/CMSIS_DSP/Source/FilteringFunctions/arm_fir_q7.c ****       acc3 += ((q15_t) x3 * c0);
 631:../Dave/Generated/CMSIS_DSP/Source/FilteringFunctions/arm_fir_q7.c **** 
 632:../Dave/Generated/CMSIS_DSP/Source/FilteringFunctions/arm_fir_q7.c ****       /* Reuse the present sample states for next sample */
 633:../Dave/Generated/CMSIS_DSP/Source/FilteringFunctions/arm_fir_q7.c ****       x0 = x1;
 634:../Dave/Generated/CMSIS_DSP/Source/FilteringFunctions/arm_fir_q7.c ****       x1 = x2;
 635:../Dave/Generated/CMSIS_DSP/Source/FilteringFunctions/arm_fir_q7.c ****       x2 = x3;
 636:../Dave/Generated/CMSIS_DSP/Source/FilteringFunctions/arm_fir_q7.c **** 
 637:../Dave/Generated/CMSIS_DSP/Source/FilteringFunctions/arm_fir_q7.c ****       /* Decrement loop counter */
 638:../Dave/Generated/CMSIS_DSP/Source/FilteringFunctions/arm_fir_q7.c ****       tapCnt--;
 639:../Dave/Generated/CMSIS_DSP/Source/FilteringFunctions/arm_fir_q7.c ****     }
 640:../Dave/Generated/CMSIS_DSP/Source/FilteringFunctions/arm_fir_q7.c **** 
 641:../Dave/Generated/CMSIS_DSP/Source/FilteringFunctions/arm_fir_q7.c ****     /* The results in the 4 accumulators are in 2.62 format. Convert to 1.31
 642:../Dave/Generated/CMSIS_DSP/Source/FilteringFunctions/arm_fir_q7.c ****        Then store the 4 outputs in the destination buffer. */
 643:../Dave/Generated/CMSIS_DSP/Source/FilteringFunctions/arm_fir_q7.c ****     acc0 = __SSAT((acc0 >> 7U), 8);
 644:../Dave/Generated/CMSIS_DSP/Source/FilteringFunctions/arm_fir_q7.c ****     *pDst++ = acc0;
 645:../Dave/Generated/CMSIS_DSP/Source/FilteringFunctions/arm_fir_q7.c ****     acc1 = __SSAT((acc1 >> 7U), 8);
 646:../Dave/Generated/CMSIS_DSP/Source/FilteringFunctions/arm_fir_q7.c ****     *pDst++ = acc1;
 647:../Dave/Generated/CMSIS_DSP/Source/FilteringFunctions/arm_fir_q7.c ****     acc2 = __SSAT((acc2 >> 7U), 8);
 648:../Dave/Generated/CMSIS_DSP/Source/FilteringFunctions/arm_fir_q7.c ****     *pDst++ = acc2;
 649:../Dave/Generated/CMSIS_DSP/Source/FilteringFunctions/arm_fir_q7.c ****     acc3 = __SSAT((acc3 >> 7U), 8);
 650:../Dave/Generated/CMSIS_DSP/Source/FilteringFunctions/arm_fir_q7.c ****     *pDst++ = acc3;
 651:../Dave/Generated/CMSIS_DSP/Source/FilteringFunctions/arm_fir_q7.c **** 
 652:../Dave/Generated/CMSIS_DSP/Source/FilteringFunctions/arm_fir_q7.c ****     /* Advance the state pointer by 4 to process the next group of 4 samples */
 653:../Dave/Generated/CMSIS_DSP/Source/FilteringFunctions/arm_fir_q7.c ****     pState = pState + 4U;
 654:../Dave/Generated/CMSIS_DSP/Source/FilteringFunctions/arm_fir_q7.c **** 
 655:../Dave/Generated/CMSIS_DSP/Source/FilteringFunctions/arm_fir_q7.c ****     /* Decrement loop counter */
 656:../Dave/Generated/CMSIS_DSP/Source/FilteringFunctions/arm_fir_q7.c ****     blkCnt--;
 657:../Dave/Generated/CMSIS_DSP/Source/FilteringFunctions/arm_fir_q7.c ****   }
 658:../Dave/Generated/CMSIS_DSP/Source/FilteringFunctions/arm_fir_q7.c **** 
 659:../Dave/Generated/CMSIS_DSP/Source/FilteringFunctions/arm_fir_q7.c ****   /* Loop unrolling: Compute remaining output samples */
 660:../Dave/Generated/CMSIS_DSP/Source/FilteringFunctions/arm_fir_q7.c ****   blkCnt = blockSize % 0x4U;
 661:../Dave/Generated/CMSIS_DSP/Source/FilteringFunctions/arm_fir_q7.c **** 
 662:../Dave/Generated/CMSIS_DSP/Source/FilteringFunctions/arm_fir_q7.c **** #else
 663:../Dave/Generated/CMSIS_DSP/Source/FilteringFunctions/arm_fir_q7.c **** 
 664:../Dave/Generated/CMSIS_DSP/Source/FilteringFunctions/arm_fir_q7.c ****   /* Initialize blkCnt with number of taps */
 665:../Dave/Generated/CMSIS_DSP/Source/FilteringFunctions/arm_fir_q7.c ****   blkCnt = blockSize;
  66              	 .loc 1 665 0
  67 002c 3B68     	 ldr r3,[r7]
  68 002e 3B62     	 str r3,[r7,#32]
 666:../Dave/Generated/CMSIS_DSP/Source/FilteringFunctions/arm_fir_q7.c **** 
 667:../Dave/Generated/CMSIS_DSP/Source/FilteringFunctions/arm_fir_q7.c **** #endif /* #if defined (ARM_MATH_LOOPUNROLL) */
 668:../Dave/Generated/CMSIS_DSP/Source/FilteringFunctions/arm_fir_q7.c **** 
 669:../Dave/Generated/CMSIS_DSP/Source/FilteringFunctions/arm_fir_q7.c ****   while (blkCnt > 0U)
  69              	 .loc 1 669 0
  70 0030 38E0     	 b .L2
  71              	.L5:
 670:../Dave/Generated/CMSIS_DSP/Source/FilteringFunctions/arm_fir_q7.c ****   {
 671:../Dave/Generated/CMSIS_DSP/Source/FilteringFunctions/arm_fir_q7.c ****     /* Copy one sample at a time into state buffer */
 672:../Dave/Generated/CMSIS_DSP/Source/FilteringFunctions/arm_fir_q7.c ****     *pStateCurnt++ = *pSrc++;
  72              	 .loc 1 672 0
  73 0032 BB6B     	 ldr r3,[r7,#56]
  74 0034 5A1C     	 adds r2,r3,#1
  75 0036 BA63     	 str r2,[r7,#56]
  76 0038 BA68     	 ldr r2,[r7,#8]
  77 003a 511C     	 adds r1,r2,#1
  78 003c B960     	 str r1,[r7,#8]
  79 003e 1278     	 ldrb r2,[r2]
  80 0040 1A70     	 strb r2,[r3]
 673:../Dave/Generated/CMSIS_DSP/Source/FilteringFunctions/arm_fir_q7.c **** 
 674:../Dave/Generated/CMSIS_DSP/Source/FilteringFunctions/arm_fir_q7.c ****     /* Set the accumulator to zero */
 675:../Dave/Generated/CMSIS_DSP/Source/FilteringFunctions/arm_fir_q7.c ****     acc0 = 0;
  81              	 .loc 1 675 0
  82 0042 0023     	 movs r3,#0
  83 0044 FB62     	 str r3,[r7,#44]
 676:../Dave/Generated/CMSIS_DSP/Source/FilteringFunctions/arm_fir_q7.c **** 
 677:../Dave/Generated/CMSIS_DSP/Source/FilteringFunctions/arm_fir_q7.c ****     /* Initialize state pointer */
 678:../Dave/Generated/CMSIS_DSP/Source/FilteringFunctions/arm_fir_q7.c ****     px = pState;
  84              	 .loc 1 678 0
  85 0046 FB6B     	 ldr r3,[r7,#60]
  86 0048 7B63     	 str r3,[r7,#52]
 679:../Dave/Generated/CMSIS_DSP/Source/FilteringFunctions/arm_fir_q7.c **** 
 680:../Dave/Generated/CMSIS_DSP/Source/FilteringFunctions/arm_fir_q7.c ****     /* Initialize Coefficient pointer */
 681:../Dave/Generated/CMSIS_DSP/Source/FilteringFunctions/arm_fir_q7.c ****     pb = pCoeffs;
  87              	 .loc 1 681 0
  88 004a FB69     	 ldr r3,[r7,#28]
  89 004c 3B63     	 str r3,[r7,#48]
 682:../Dave/Generated/CMSIS_DSP/Source/FilteringFunctions/arm_fir_q7.c **** 
 683:../Dave/Generated/CMSIS_DSP/Source/FilteringFunctions/arm_fir_q7.c ****     i = numTaps;
  90              	 .loc 1 683 0
  91 004e BB69     	 ldr r3,[r7,#24]
  92 0050 BB62     	 str r3,[r7,#40]
 684:../Dave/Generated/CMSIS_DSP/Source/FilteringFunctions/arm_fir_q7.c **** 
 685:../Dave/Generated/CMSIS_DSP/Source/FilteringFunctions/arm_fir_q7.c ****     /* Perform the multiply-accumulates */
 686:../Dave/Generated/CMSIS_DSP/Source/FilteringFunctions/arm_fir_q7.c ****     while (i > 0U)
  93              	 .loc 1 686 0
  94 0052 11E0     	 b .L3
  95              	.L4:
 687:../Dave/Generated/CMSIS_DSP/Source/FilteringFunctions/arm_fir_q7.c ****     {
 688:../Dave/Generated/CMSIS_DSP/Source/FilteringFunctions/arm_fir_q7.c ****       acc0 += (q15_t) * (px++) * (*(pb++));
  96              	 .loc 1 688 0
  97 0054 7B6B     	 ldr r3,[r7,#52]
  98 0056 5A1C     	 adds r2,r3,#1
  99 0058 7A63     	 str r2,[r7,#52]
 100 005a 1B78     	 ldrb r3,[r3]
 101 005c 5AB2     	 sxtb r2,r3
 102 005e 3B6B     	 ldr r3,[r7,#48]
 103 0060 591C     	 adds r1,r3,#1
 104 0062 3963     	 str r1,[r7,#48]
 105 0064 1B78     	 ldrb r3,[r3]
 106 0066 5BB2     	 sxtb r3,r3
 107 0068 03FB02F3 	 mul r3,r3,r2
 108 006c FA6A     	 ldr r2,[r7,#44]
 109 006e 1344     	 add r3,r3,r2
 110 0070 FB62     	 str r3,[r7,#44]
 689:../Dave/Generated/CMSIS_DSP/Source/FilteringFunctions/arm_fir_q7.c ****       i--;
 111              	 .loc 1 689 0
 112 0072 BB6A     	 ldr r3,[r7,#40]
 113 0074 013B     	 subs r3,r3,#1
 114 0076 BB62     	 str r3,[r7,#40]
 115              	.L3:
 686:../Dave/Generated/CMSIS_DSP/Source/FilteringFunctions/arm_fir_q7.c ****     {
 116              	 .loc 1 686 0
 117 0078 BB6A     	 ldr r3,[r7,#40]
 118 007a 002B     	 cmp r3,#0
 119 007c EAD1     	 bne .L4
 690:../Dave/Generated/CMSIS_DSP/Source/FilteringFunctions/arm_fir_q7.c ****     } 
 691:../Dave/Generated/CMSIS_DSP/Source/FilteringFunctions/arm_fir_q7.c **** 
 692:../Dave/Generated/CMSIS_DSP/Source/FilteringFunctions/arm_fir_q7.c ****     /* The result is in 2.14 format. Convert to 1.7
 693:../Dave/Generated/CMSIS_DSP/Source/FilteringFunctions/arm_fir_q7.c ****        Then store the output in the destination buffer. */
 694:../Dave/Generated/CMSIS_DSP/Source/FilteringFunctions/arm_fir_q7.c ****     *pDst++ = __SSAT((acc0 >> 7U), 8);
 120              	 .loc 1 694 0
 121 007e 7B68     	 ldr r3,[r7,#4]
 122 0080 5A1C     	 adds r2,r3,#1
 123 0082 7A60     	 str r2,[r7,#4]
 124              	.LBB2:
 125 0084 FA6A     	 ldr r2,[r7,#44]
 126 0086 D211     	 asrs r2,r2,#7
 127 0088 7A61     	 str r2,[r7,#20]
 128 008a 7A69     	 ldr r2,[r7,#20]
 129              	
 130 008c 02F30702 	 ssat r2,#8,r2
 131              	
 132              	 .thumb
 133 0090 3A61     	 str r2,[r7,#16]
 134 0092 3A69     	 ldr r2,[r7,#16]
 135              	.LBE2:
 136 0094 D2B2     	 uxtb r2,r2
 137 0096 1A70     	 strb r2,[r3]
 695:../Dave/Generated/CMSIS_DSP/Source/FilteringFunctions/arm_fir_q7.c **** 
 696:../Dave/Generated/CMSIS_DSP/Source/FilteringFunctions/arm_fir_q7.c ****     /* Advance state pointer by 1 for the next sample */
 697:../Dave/Generated/CMSIS_DSP/Source/FilteringFunctions/arm_fir_q7.c ****     pState = pState + 1U;
 138              	 .loc 1 697 0
 139 0098 FB6B     	 ldr r3,[r7,#60]
 140 009a 0133     	 adds r3,r3,#1
 141 009c FB63     	 str r3,[r7,#60]
 698:../Dave/Generated/CMSIS_DSP/Source/FilteringFunctions/arm_fir_q7.c **** 
 699:../Dave/Generated/CMSIS_DSP/Source/FilteringFunctions/arm_fir_q7.c ****     /* Decrement loop counter */
 700:../Dave/Generated/CMSIS_DSP/Source/FilteringFunctions/arm_fir_q7.c ****     blkCnt--;
 142              	 .loc 1 700 0
 143 009e 3B6A     	 ldr r3,[r7,#32]
 144 00a0 013B     	 subs r3,r3,#1
 145 00a2 3B62     	 str r3,[r7,#32]
 146              	.L2:
 669:../Dave/Generated/CMSIS_DSP/Source/FilteringFunctions/arm_fir_q7.c ****   {
 147              	 .loc 1 669 0
 148 00a4 3B6A     	 ldr r3,[r7,#32]
 149 00a6 002B     	 cmp r3,#0
 150 00a8 C3D1     	 bne .L5
 701:../Dave/Generated/CMSIS_DSP/Source/FilteringFunctions/arm_fir_q7.c ****   }
 702:../Dave/Generated/CMSIS_DSP/Source/FilteringFunctions/arm_fir_q7.c **** 
 703:../Dave/Generated/CMSIS_DSP/Source/FilteringFunctions/arm_fir_q7.c ****   /* Processing is complete.
 704:../Dave/Generated/CMSIS_DSP/Source/FilteringFunctions/arm_fir_q7.c ****      Now copy the last numTaps - 1 samples to the start of the state buffer.
 705:../Dave/Generated/CMSIS_DSP/Source/FilteringFunctions/arm_fir_q7.c ****      This prepares the state buffer for the next function call. */
 706:../Dave/Generated/CMSIS_DSP/Source/FilteringFunctions/arm_fir_q7.c **** 
 707:../Dave/Generated/CMSIS_DSP/Source/FilteringFunctions/arm_fir_q7.c ****   /* Points to the start of the state buffer */
 708:../Dave/Generated/CMSIS_DSP/Source/FilteringFunctions/arm_fir_q7.c ****   pStateCurnt = S->pState;
 151              	 .loc 1 708 0
 152 00aa FB68     	 ldr r3,[r7,#12]
 153 00ac 5B68     	 ldr r3,[r3,#4]
 154 00ae BB63     	 str r3,[r7,#56]
 709:../Dave/Generated/CMSIS_DSP/Source/FilteringFunctions/arm_fir_q7.c **** 
 710:../Dave/Generated/CMSIS_DSP/Source/FilteringFunctions/arm_fir_q7.c **** #if defined (ARM_MATH_LOOPUNROLL)
 711:../Dave/Generated/CMSIS_DSP/Source/FilteringFunctions/arm_fir_q7.c **** 
 712:../Dave/Generated/CMSIS_DSP/Source/FilteringFunctions/arm_fir_q7.c ****   /* Loop unrolling: Compute 4 taps at a time */
 713:../Dave/Generated/CMSIS_DSP/Source/FilteringFunctions/arm_fir_q7.c ****   tapCnt = (numTaps - 1U) >> 2U;
 714:../Dave/Generated/CMSIS_DSP/Source/FilteringFunctions/arm_fir_q7.c **** 
 715:../Dave/Generated/CMSIS_DSP/Source/FilteringFunctions/arm_fir_q7.c ****   /* Copy data */
 716:../Dave/Generated/CMSIS_DSP/Source/FilteringFunctions/arm_fir_q7.c ****   while (tapCnt > 0U)
 717:../Dave/Generated/CMSIS_DSP/Source/FilteringFunctions/arm_fir_q7.c ****   {
 718:../Dave/Generated/CMSIS_DSP/Source/FilteringFunctions/arm_fir_q7.c ****     *pStateCurnt++ = *pState++;
 719:../Dave/Generated/CMSIS_DSP/Source/FilteringFunctions/arm_fir_q7.c ****     *pStateCurnt++ = *pState++;
 720:../Dave/Generated/CMSIS_DSP/Source/FilteringFunctions/arm_fir_q7.c ****     *pStateCurnt++ = *pState++;
 721:../Dave/Generated/CMSIS_DSP/Source/FilteringFunctions/arm_fir_q7.c ****     *pStateCurnt++ = *pState++;
 722:../Dave/Generated/CMSIS_DSP/Source/FilteringFunctions/arm_fir_q7.c **** 
 723:../Dave/Generated/CMSIS_DSP/Source/FilteringFunctions/arm_fir_q7.c ****     /* Decrement loop counter */
 724:../Dave/Generated/CMSIS_DSP/Source/FilteringFunctions/arm_fir_q7.c ****     tapCnt--;
 725:../Dave/Generated/CMSIS_DSP/Source/FilteringFunctions/arm_fir_q7.c ****   }
 726:../Dave/Generated/CMSIS_DSP/Source/FilteringFunctions/arm_fir_q7.c **** 
 727:../Dave/Generated/CMSIS_DSP/Source/FilteringFunctions/arm_fir_q7.c ****   /* Calculate remaining number of copies */
 728:../Dave/Generated/CMSIS_DSP/Source/FilteringFunctions/arm_fir_q7.c ****   tapCnt = (numTaps - 1U) % 0x4U;
 729:../Dave/Generated/CMSIS_DSP/Source/FilteringFunctions/arm_fir_q7.c **** 
 730:../Dave/Generated/CMSIS_DSP/Source/FilteringFunctions/arm_fir_q7.c **** #else
 731:../Dave/Generated/CMSIS_DSP/Source/FilteringFunctions/arm_fir_q7.c **** 
 732:../Dave/Generated/CMSIS_DSP/Source/FilteringFunctions/arm_fir_q7.c ****   /* Initialize tapCnt with number of taps */
 733:../Dave/Generated/CMSIS_DSP/Source/FilteringFunctions/arm_fir_q7.c ****   tapCnt = (numTaps - 1U);
 155              	 .loc 1 733 0
 156 00b0 BB69     	 ldr r3,[r7,#24]
 157 00b2 013B     	 subs r3,r3,#1
 158 00b4 7B62     	 str r3,[r7,#36]
 734:../Dave/Generated/CMSIS_DSP/Source/FilteringFunctions/arm_fir_q7.c **** 
 735:../Dave/Generated/CMSIS_DSP/Source/FilteringFunctions/arm_fir_q7.c **** #endif /* #if defined (ARM_MATH_LOOPUNROLL) */
 736:../Dave/Generated/CMSIS_DSP/Source/FilteringFunctions/arm_fir_q7.c **** 
 737:../Dave/Generated/CMSIS_DSP/Source/FilteringFunctions/arm_fir_q7.c ****   /* Copy remaining data */
 738:../Dave/Generated/CMSIS_DSP/Source/FilteringFunctions/arm_fir_q7.c ****   while (tapCnt > 0U)
 159              	 .loc 1 738 0
 160 00b6 0AE0     	 b .L6
 161              	.L7:
 739:../Dave/Generated/CMSIS_DSP/Source/FilteringFunctions/arm_fir_q7.c ****   {
 740:../Dave/Generated/CMSIS_DSP/Source/FilteringFunctions/arm_fir_q7.c ****     *pStateCurnt++ = *pState++;
 162              	 .loc 1 740 0
 163 00b8 BB6B     	 ldr r3,[r7,#56]
 164 00ba 5A1C     	 adds r2,r3,#1
 165 00bc BA63     	 str r2,[r7,#56]
 166 00be FA6B     	 ldr r2,[r7,#60]
 167 00c0 511C     	 adds r1,r2,#1
 168 00c2 F963     	 str r1,[r7,#60]
 169 00c4 1278     	 ldrb r2,[r2]
 170 00c6 1A70     	 strb r2,[r3]
 741:../Dave/Generated/CMSIS_DSP/Source/FilteringFunctions/arm_fir_q7.c **** 
 742:../Dave/Generated/CMSIS_DSP/Source/FilteringFunctions/arm_fir_q7.c ****     /* Decrement the loop counter */
 743:../Dave/Generated/CMSIS_DSP/Source/FilteringFunctions/arm_fir_q7.c ****     tapCnt--;
 171              	 .loc 1 743 0
 172 00c8 7B6A     	 ldr r3,[r7,#36]
 173 00ca 013B     	 subs r3,r3,#1
 174 00cc 7B62     	 str r3,[r7,#36]
 175              	.L6:
 738:../Dave/Generated/CMSIS_DSP/Source/FilteringFunctions/arm_fir_q7.c ****   {
 176              	 .loc 1 738 0
 177 00ce 7B6A     	 ldr r3,[r7,#36]
 178 00d0 002B     	 cmp r3,#0
 179 00d2 F1D1     	 bne .L7
 744:../Dave/Generated/CMSIS_DSP/Source/FilteringFunctions/arm_fir_q7.c ****   }
 745:../Dave/Generated/CMSIS_DSP/Source/FilteringFunctions/arm_fir_q7.c **** 
 746:../Dave/Generated/CMSIS_DSP/Source/FilteringFunctions/arm_fir_q7.c **** }
 180              	 .loc 1 746 0
 181 00d4 4437     	 adds r7,r7,#68
 182              	.LCFI3:
 183              	 .cfi_def_cfa_offset 4
 184 00d6 BD46     	 mov sp,r7
 185              	.LCFI4:
 186              	 .cfi_def_cfa_register 13
 187              	 
 188 00d8 5DF8047B 	 ldr r7,[sp],#4
 189              	.LCFI5:
 190              	 .cfi_restore 7
 191              	 .cfi_def_cfa_offset 0
 192 00dc 7047     	 bx lr
 193              	 .cfi_endproc
 194              	.LFE149:
 196 00de 00BF     	 .text
 197              	.Letext0:
 198              	 .file 2 "c:\\infineon\\tools\\dave ide\\4.5.0.202105191637\\eclipse\\arm-gcc-49\\arm-none-eabi\\include\\machine\\_default_types.h"
 199              	 .file 3 "c:\\infineon\\tools\\dave ide\\4.5.0.202105191637\\eclipse\\arm-gcc-49\\arm-none-eabi\\include\\stdint.h"
 200              	 .file 4 "C:/Users/Rui Mendes/Desktop/DAVE/_Naive/_ForTesting/Dave/Generated/CMSIS_DSP/Include/arm_math.h"
 201              	 .file 5 "C:/Users/Rui Mendes/Desktop/DAVE/_Naive/_ForTesting/Libraries/CMSIS/Include/cmsis_gcc.h"