   1              	 .syntax unified
   2              	 .cpu cortex-m4
   3              	 .eabi_attribute 27,3
   4              	 .fpu fpv4-sp-d16
   5              	 .eabi_attribute 20,1
   6              	 .eabi_attribute 21,1
   7              	 .eabi_attribute 23,3
   8              	 .eabi_attribute 24,1
   9              	 .eabi_attribute 25,1
  10              	 .eabi_attribute 26,1
  11              	 .eabi_attribute 30,6
  12              	 .eabi_attribute 34,1
  13              	 .eabi_attribute 18,4
  14              	 .thumb
  15              	 .file "arm_correlate_q7.c"
  16              	 .text
  17              	.Ltext0:
  18              	 .cfi_sections .debug_frame
  19              	 .section .text.arm_correlate_q7,"ax",%progbits
  20              	 .align 2
  21              	 .global arm_correlate_q7
  22              	 .thumb
  23              	 .thumb_func
  25              	arm_correlate_q7:
  26              	.LFB149:
  27              	 .file 1 "../Dave/Generated/CMSIS_DSP/Source/FilteringFunctions/arm_correlate_q7.c"
   1:../Dave/Generated/CMSIS_DSP/Source/FilteringFunctions/arm_correlate_q7.c **** /* ----------------------------------------------------------------------
   2:../Dave/Generated/CMSIS_DSP/Source/FilteringFunctions/arm_correlate_q7.c ****  * Project:      CMSIS DSP Library
   3:../Dave/Generated/CMSIS_DSP/Source/FilteringFunctions/arm_correlate_q7.c ****  * Title:        arm_correlate_q7.c
   4:../Dave/Generated/CMSIS_DSP/Source/FilteringFunctions/arm_correlate_q7.c ****  * Description:  Correlation of Q7 sequences
   5:../Dave/Generated/CMSIS_DSP/Source/FilteringFunctions/arm_correlate_q7.c ****  *
   6:../Dave/Generated/CMSIS_DSP/Source/FilteringFunctions/arm_correlate_q7.c ****  * $Date:        18. March 2019
   7:../Dave/Generated/CMSIS_DSP/Source/FilteringFunctions/arm_correlate_q7.c ****  * $Revision:    V1.6.0
   8:../Dave/Generated/CMSIS_DSP/Source/FilteringFunctions/arm_correlate_q7.c ****  *
   9:../Dave/Generated/CMSIS_DSP/Source/FilteringFunctions/arm_correlate_q7.c ****  * Target Processor: Cortex-M cores
  10:../Dave/Generated/CMSIS_DSP/Source/FilteringFunctions/arm_correlate_q7.c ****  * -------------------------------------------------------------------- */
  11:../Dave/Generated/CMSIS_DSP/Source/FilteringFunctions/arm_correlate_q7.c **** /*
  12:../Dave/Generated/CMSIS_DSP/Source/FilteringFunctions/arm_correlate_q7.c ****  * Copyright (C) 2010-2019 ARM Limited or its affiliates. All rights reserved.
  13:../Dave/Generated/CMSIS_DSP/Source/FilteringFunctions/arm_correlate_q7.c ****  *
  14:../Dave/Generated/CMSIS_DSP/Source/FilteringFunctions/arm_correlate_q7.c ****  * SPDX-License-Identifier: Apache-2.0
  15:../Dave/Generated/CMSIS_DSP/Source/FilteringFunctions/arm_correlate_q7.c ****  *
  16:../Dave/Generated/CMSIS_DSP/Source/FilteringFunctions/arm_correlate_q7.c ****  * Licensed under the Apache License, Version 2.0 (the License); you may
  17:../Dave/Generated/CMSIS_DSP/Source/FilteringFunctions/arm_correlate_q7.c ****  * not use this file except in compliance with the License.
  18:../Dave/Generated/CMSIS_DSP/Source/FilteringFunctions/arm_correlate_q7.c ****  * You may obtain a copy of the License at
  19:../Dave/Generated/CMSIS_DSP/Source/FilteringFunctions/arm_correlate_q7.c ****  *
  20:../Dave/Generated/CMSIS_DSP/Source/FilteringFunctions/arm_correlate_q7.c ****  * www.apache.org/licenses/LICENSE-2.0
  21:../Dave/Generated/CMSIS_DSP/Source/FilteringFunctions/arm_correlate_q7.c ****  *
  22:../Dave/Generated/CMSIS_DSP/Source/FilteringFunctions/arm_correlate_q7.c ****  * Unless required by applicable law or agreed to in writing, software
  23:../Dave/Generated/CMSIS_DSP/Source/FilteringFunctions/arm_correlate_q7.c ****  * distributed under the License is distributed on an AS IS BASIS, WITHOUT
  24:../Dave/Generated/CMSIS_DSP/Source/FilteringFunctions/arm_correlate_q7.c ****  * WARRANTIES OR CONDITIONS OF ANY KIND, either express or implied.
  25:../Dave/Generated/CMSIS_DSP/Source/FilteringFunctions/arm_correlate_q7.c ****  * See the License for the specific language governing permissions and
  26:../Dave/Generated/CMSIS_DSP/Source/FilteringFunctions/arm_correlate_q7.c ****  * limitations under the License.
  27:../Dave/Generated/CMSIS_DSP/Source/FilteringFunctions/arm_correlate_q7.c ****  */
  28:../Dave/Generated/CMSIS_DSP/Source/FilteringFunctions/arm_correlate_q7.c **** 
  29:../Dave/Generated/CMSIS_DSP/Source/FilteringFunctions/arm_correlate_q7.c **** #include "CMSIS_DSP/cmsis_dsp.h"
  30:../Dave/Generated/CMSIS_DSP/Source/FilteringFunctions/arm_correlate_q7.c **** 
  31:../Dave/Generated/CMSIS_DSP/Source/FilteringFunctions/arm_correlate_q7.c **** /**
  32:../Dave/Generated/CMSIS_DSP/Source/FilteringFunctions/arm_correlate_q7.c ****   @ingroup groupFilters
  33:../Dave/Generated/CMSIS_DSP/Source/FilteringFunctions/arm_correlate_q7.c ****  */
  34:../Dave/Generated/CMSIS_DSP/Source/FilteringFunctions/arm_correlate_q7.c **** 
  35:../Dave/Generated/CMSIS_DSP/Source/FilteringFunctions/arm_correlate_q7.c **** /**
  36:../Dave/Generated/CMSIS_DSP/Source/FilteringFunctions/arm_correlate_q7.c ****   @addtogroup Corr
  37:../Dave/Generated/CMSIS_DSP/Source/FilteringFunctions/arm_correlate_q7.c ****   @{
  38:../Dave/Generated/CMSIS_DSP/Source/FilteringFunctions/arm_correlate_q7.c ****  */
  39:../Dave/Generated/CMSIS_DSP/Source/FilteringFunctions/arm_correlate_q7.c **** 
  40:../Dave/Generated/CMSIS_DSP/Source/FilteringFunctions/arm_correlate_q7.c **** /**
  41:../Dave/Generated/CMSIS_DSP/Source/FilteringFunctions/arm_correlate_q7.c ****   @brief         Correlation of Q7 sequences.
  42:../Dave/Generated/CMSIS_DSP/Source/FilteringFunctions/arm_correlate_q7.c ****   @param[in]     pSrcA      points to the first input sequence
  43:../Dave/Generated/CMSIS_DSP/Source/FilteringFunctions/arm_correlate_q7.c ****   @param[in]     srcALen    length of the first input sequence
  44:../Dave/Generated/CMSIS_DSP/Source/FilteringFunctions/arm_correlate_q7.c ****   @param[in]     pSrcB      points to the second input sequence
  45:../Dave/Generated/CMSIS_DSP/Source/FilteringFunctions/arm_correlate_q7.c ****   @param[in]     srcBLen    length of the second input sequence
  46:../Dave/Generated/CMSIS_DSP/Source/FilteringFunctions/arm_correlate_q7.c ****   @param[out]    pDst       points to the location where the output result is written.  Length 2 * 
  47:../Dave/Generated/CMSIS_DSP/Source/FilteringFunctions/arm_correlate_q7.c ****   @return        none
  48:../Dave/Generated/CMSIS_DSP/Source/FilteringFunctions/arm_correlate_q7.c **** 
  49:../Dave/Generated/CMSIS_DSP/Source/FilteringFunctions/arm_correlate_q7.c ****   @par           Scaling and Overflow Behavior
  50:../Dave/Generated/CMSIS_DSP/Source/FilteringFunctions/arm_correlate_q7.c ****                    The function is implemented using a 32-bit internal accumulator.
  51:../Dave/Generated/CMSIS_DSP/Source/FilteringFunctions/arm_correlate_q7.c ****                    Both the inputs are represented in 1.7 format and multiplications yield a 2.14 r
  52:../Dave/Generated/CMSIS_DSP/Source/FilteringFunctions/arm_correlate_q7.c ****                    The 2.14 intermediate results are accumulated in a 32-bit accumulator in 18.14 f
  53:../Dave/Generated/CMSIS_DSP/Source/FilteringFunctions/arm_correlate_q7.c ****                    This approach provides 17 guard bits and there is no risk of overflow as long as
  54:../Dave/Generated/CMSIS_DSP/Source/FilteringFunctions/arm_correlate_q7.c ****                    The 18.14 result is then truncated to 18.7 format by discarding the low 7 bits a
  55:../Dave/Generated/CMSIS_DSP/Source/FilteringFunctions/arm_correlate_q7.c **** 
  56:../Dave/Generated/CMSIS_DSP/Source/FilteringFunctions/arm_correlate_q7.c ****  @remark
  57:../Dave/Generated/CMSIS_DSP/Source/FilteringFunctions/arm_correlate_q7.c ****                    Refer to \ref arm_correlate_opt_q7() for a faster implementation of this functio
  58:../Dave/Generated/CMSIS_DSP/Source/FilteringFunctions/arm_correlate_q7.c ****  */
  59:../Dave/Generated/CMSIS_DSP/Source/FilteringFunctions/arm_correlate_q7.c **** #if defined(ARM_MATH_MVEI)
  60:../Dave/Generated/CMSIS_DSP/Source/FilteringFunctions/arm_correlate_q7.c **** #include "CMSIS_DSP/Include/arm_helium_utils.h"
  61:../Dave/Generated/CMSIS_DSP/Source/FilteringFunctions/arm_correlate_q7.c **** 
  62:../Dave/Generated/CMSIS_DSP/Source/FilteringFunctions/arm_correlate_q7.c **** #include "CMSIS_DSP/PrivateInclude/arm_vec_filtering.h"
  63:../Dave/Generated/CMSIS_DSP/Source/FilteringFunctions/arm_correlate_q7.c **** void arm_correlate_q7(
  64:../Dave/Generated/CMSIS_DSP/Source/FilteringFunctions/arm_correlate_q7.c ****   const q7_t * pSrcA,
  65:../Dave/Generated/CMSIS_DSP/Source/FilteringFunctions/arm_correlate_q7.c ****         uint32_t srcALen,
  66:../Dave/Generated/CMSIS_DSP/Source/FilteringFunctions/arm_correlate_q7.c ****   const q7_t * pSrcB,
  67:../Dave/Generated/CMSIS_DSP/Source/FilteringFunctions/arm_correlate_q7.c ****         uint32_t srcBLen,
  68:../Dave/Generated/CMSIS_DSP/Source/FilteringFunctions/arm_correlate_q7.c ****         q7_t * pDst)
  69:../Dave/Generated/CMSIS_DSP/Source/FilteringFunctions/arm_correlate_q7.c **** {
  70:../Dave/Generated/CMSIS_DSP/Source/FilteringFunctions/arm_correlate_q7.c ****     const q7_t     *pIn1 = pSrcA;                     /* inputA pointer               */
  71:../Dave/Generated/CMSIS_DSP/Source/FilteringFunctions/arm_correlate_q7.c ****     const q7_t     *pIn2 = pSrcB + (srcBLen - 1U);    /* inputB pointer               */
  72:../Dave/Generated/CMSIS_DSP/Source/FilteringFunctions/arm_correlate_q7.c ****     const q7_t     *pX, *pY;
  73:../Dave/Generated/CMSIS_DSP/Source/FilteringFunctions/arm_correlate_q7.c ****     const q7_t     *pA, *pB;
  74:../Dave/Generated/CMSIS_DSP/Source/FilteringFunctions/arm_correlate_q7.c ****     int32_t   i = 0U, j = 0;                    /* loop counters */
  75:../Dave/Generated/CMSIS_DSP/Source/FilteringFunctions/arm_correlate_q7.c ****     int32_t   inv = 1U;                         /* Reverse order flag */
  76:../Dave/Generated/CMSIS_DSP/Source/FilteringFunctions/arm_correlate_q7.c ****     uint32_t  tot = 0U;                         /* Length */
  77:../Dave/Generated/CMSIS_DSP/Source/FilteringFunctions/arm_correlate_q7.c ****     int32_t   block1, block2, block3;
  78:../Dave/Generated/CMSIS_DSP/Source/FilteringFunctions/arm_correlate_q7.c ****     int32_t   incr;
  79:../Dave/Generated/CMSIS_DSP/Source/FilteringFunctions/arm_correlate_q7.c **** 
  80:../Dave/Generated/CMSIS_DSP/Source/FilteringFunctions/arm_correlate_q7.c ****     tot = ((srcALen + srcBLen) - 2U);
  81:../Dave/Generated/CMSIS_DSP/Source/FilteringFunctions/arm_correlate_q7.c ****     if (srcALen > srcBLen)
  82:../Dave/Generated/CMSIS_DSP/Source/FilteringFunctions/arm_correlate_q7.c ****     {
  83:../Dave/Generated/CMSIS_DSP/Source/FilteringFunctions/arm_correlate_q7.c ****         /*
  84:../Dave/Generated/CMSIS_DSP/Source/FilteringFunctions/arm_correlate_q7.c ****          * Calculating the number of zeros to be padded to the output
  85:../Dave/Generated/CMSIS_DSP/Source/FilteringFunctions/arm_correlate_q7.c ****          */
  86:../Dave/Generated/CMSIS_DSP/Source/FilteringFunctions/arm_correlate_q7.c ****         j = srcALen - srcBLen;
  87:../Dave/Generated/CMSIS_DSP/Source/FilteringFunctions/arm_correlate_q7.c ****         /*
  88:../Dave/Generated/CMSIS_DSP/Source/FilteringFunctions/arm_correlate_q7.c ****          * Initialize the pointer after zero padding
  89:../Dave/Generated/CMSIS_DSP/Source/FilteringFunctions/arm_correlate_q7.c ****          */
  90:../Dave/Generated/CMSIS_DSP/Source/FilteringFunctions/arm_correlate_q7.c ****         pDst += j;
  91:../Dave/Generated/CMSIS_DSP/Source/FilteringFunctions/arm_correlate_q7.c ****     }
  92:../Dave/Generated/CMSIS_DSP/Source/FilteringFunctions/arm_correlate_q7.c ****     else if (srcALen < srcBLen)
  93:../Dave/Generated/CMSIS_DSP/Source/FilteringFunctions/arm_correlate_q7.c ****     {
  94:../Dave/Generated/CMSIS_DSP/Source/FilteringFunctions/arm_correlate_q7.c ****         /*
  95:../Dave/Generated/CMSIS_DSP/Source/FilteringFunctions/arm_correlate_q7.c ****          * Initialization to inputB pointer
  96:../Dave/Generated/CMSIS_DSP/Source/FilteringFunctions/arm_correlate_q7.c ****          */
  97:../Dave/Generated/CMSIS_DSP/Source/FilteringFunctions/arm_correlate_q7.c ****         pIn1 = pSrcB;
  98:../Dave/Generated/CMSIS_DSP/Source/FilteringFunctions/arm_correlate_q7.c ****         /*
  99:../Dave/Generated/CMSIS_DSP/Source/FilteringFunctions/arm_correlate_q7.c ****          * Initialization to the end of inputA pointer
 100:../Dave/Generated/CMSIS_DSP/Source/FilteringFunctions/arm_correlate_q7.c ****          */
 101:../Dave/Generated/CMSIS_DSP/Source/FilteringFunctions/arm_correlate_q7.c ****         pIn2 = pSrcA + (srcALen - 1U);
 102:../Dave/Generated/CMSIS_DSP/Source/FilteringFunctions/arm_correlate_q7.c ****         /*
 103:../Dave/Generated/CMSIS_DSP/Source/FilteringFunctions/arm_correlate_q7.c ****          * Initialisation of the pointer after zero padding
 104:../Dave/Generated/CMSIS_DSP/Source/FilteringFunctions/arm_correlate_q7.c ****          */
 105:../Dave/Generated/CMSIS_DSP/Source/FilteringFunctions/arm_correlate_q7.c ****         pDst = pDst + tot;
 106:../Dave/Generated/CMSIS_DSP/Source/FilteringFunctions/arm_correlate_q7.c ****         /*
 107:../Dave/Generated/CMSIS_DSP/Source/FilteringFunctions/arm_correlate_q7.c ****          * Swapping the lengths
 108:../Dave/Generated/CMSIS_DSP/Source/FilteringFunctions/arm_correlate_q7.c ****          */
 109:../Dave/Generated/CMSIS_DSP/Source/FilteringFunctions/arm_correlate_q7.c ****         j = srcALen;
 110:../Dave/Generated/CMSIS_DSP/Source/FilteringFunctions/arm_correlate_q7.c ****         srcALen = srcBLen;
 111:../Dave/Generated/CMSIS_DSP/Source/FilteringFunctions/arm_correlate_q7.c ****         srcBLen = j;
 112:../Dave/Generated/CMSIS_DSP/Source/FilteringFunctions/arm_correlate_q7.c ****         /*
 113:../Dave/Generated/CMSIS_DSP/Source/FilteringFunctions/arm_correlate_q7.c ****          * Setting the reverse flag
 114:../Dave/Generated/CMSIS_DSP/Source/FilteringFunctions/arm_correlate_q7.c ****          */
 115:../Dave/Generated/CMSIS_DSP/Source/FilteringFunctions/arm_correlate_q7.c ****         inv = -1;
 116:../Dave/Generated/CMSIS_DSP/Source/FilteringFunctions/arm_correlate_q7.c ****     }
 117:../Dave/Generated/CMSIS_DSP/Source/FilteringFunctions/arm_correlate_q7.c **** 
 118:../Dave/Generated/CMSIS_DSP/Source/FilteringFunctions/arm_correlate_q7.c ****     block1 = srcBLen - 1;
 119:../Dave/Generated/CMSIS_DSP/Source/FilteringFunctions/arm_correlate_q7.c ****     block2 = srcALen - srcBLen + 1;
 120:../Dave/Generated/CMSIS_DSP/Source/FilteringFunctions/arm_correlate_q7.c ****     block3 = srcBLen - 1;
 121:../Dave/Generated/CMSIS_DSP/Source/FilteringFunctions/arm_correlate_q7.c **** 
 122:../Dave/Generated/CMSIS_DSP/Source/FilteringFunctions/arm_correlate_q7.c ****     pA = pIn1;
 123:../Dave/Generated/CMSIS_DSP/Source/FilteringFunctions/arm_correlate_q7.c ****     pB = pIn2;
 124:../Dave/Generated/CMSIS_DSP/Source/FilteringFunctions/arm_correlate_q7.c ****     incr = inv;
 125:../Dave/Generated/CMSIS_DSP/Source/FilteringFunctions/arm_correlate_q7.c **** 
 126:../Dave/Generated/CMSIS_DSP/Source/FilteringFunctions/arm_correlate_q7.c ****     for (i = 0U; i <= block1 - 2; i += 2)
 127:../Dave/Generated/CMSIS_DSP/Source/FilteringFunctions/arm_correlate_q7.c ****     {
 128:../Dave/Generated/CMSIS_DSP/Source/FilteringFunctions/arm_correlate_q7.c ****         uint32_t  count = i + 1;
 129:../Dave/Generated/CMSIS_DSP/Source/FilteringFunctions/arm_correlate_q7.c ****         int32_t   acc0 = 0;
 130:../Dave/Generated/CMSIS_DSP/Source/FilteringFunctions/arm_correlate_q7.c ****         int32_t   acc1 = 0;
 131:../Dave/Generated/CMSIS_DSP/Source/FilteringFunctions/arm_correlate_q7.c **** 
 132:../Dave/Generated/CMSIS_DSP/Source/FilteringFunctions/arm_correlate_q7.c ****         /*
 133:../Dave/Generated/CMSIS_DSP/Source/FilteringFunctions/arm_correlate_q7.c ****          * compute 2 accumulators per loop
 134:../Dave/Generated/CMSIS_DSP/Source/FilteringFunctions/arm_correlate_q7.c ****          * size is incrementing for second accumulator
 135:../Dave/Generated/CMSIS_DSP/Source/FilteringFunctions/arm_correlate_q7.c ****          * Y pointer is decrementing for second accumulator
 136:../Dave/Generated/CMSIS_DSP/Source/FilteringFunctions/arm_correlate_q7.c ****          */
 137:../Dave/Generated/CMSIS_DSP/Source/FilteringFunctions/arm_correlate_q7.c ****         pX = pA;
 138:../Dave/Generated/CMSIS_DSP/Source/FilteringFunctions/arm_correlate_q7.c ****         pY = pB;
 139:../Dave/Generated/CMSIS_DSP/Source/FilteringFunctions/arm_correlate_q7.c ****         MVE_INTR_CORR_DUAL_DEC_Y_INC_SIZE_Q7(acc0, acc1, pX, pY, count);
 140:../Dave/Generated/CMSIS_DSP/Source/FilteringFunctions/arm_correlate_q7.c **** 
 141:../Dave/Generated/CMSIS_DSP/Source/FilteringFunctions/arm_correlate_q7.c ****         *pDst = (q7_t) acc0;
 142:../Dave/Generated/CMSIS_DSP/Source/FilteringFunctions/arm_correlate_q7.c ****         pDst += incr;
 143:../Dave/Generated/CMSIS_DSP/Source/FilteringFunctions/arm_correlate_q7.c ****         *pDst = (q7_t) acc1;
 144:../Dave/Generated/CMSIS_DSP/Source/FilteringFunctions/arm_correlate_q7.c ****         pDst += incr;
 145:../Dave/Generated/CMSIS_DSP/Source/FilteringFunctions/arm_correlate_q7.c ****         pB -= 2;
 146:../Dave/Generated/CMSIS_DSP/Source/FilteringFunctions/arm_correlate_q7.c ****     }
 147:../Dave/Generated/CMSIS_DSP/Source/FilteringFunctions/arm_correlate_q7.c ****     for (; i < block1; i++)
 148:../Dave/Generated/CMSIS_DSP/Source/FilteringFunctions/arm_correlate_q7.c ****     {
 149:../Dave/Generated/CMSIS_DSP/Source/FilteringFunctions/arm_correlate_q7.c ****         uint32_t  count = i + 1;
 150:../Dave/Generated/CMSIS_DSP/Source/FilteringFunctions/arm_correlate_q7.c ****         int32_t   acc = 0;
 151:../Dave/Generated/CMSIS_DSP/Source/FilteringFunctions/arm_correlate_q7.c **** 
 152:../Dave/Generated/CMSIS_DSP/Source/FilteringFunctions/arm_correlate_q7.c ****         pX = pA;
 153:../Dave/Generated/CMSIS_DSP/Source/FilteringFunctions/arm_correlate_q7.c ****         pY = pB;
 154:../Dave/Generated/CMSIS_DSP/Source/FilteringFunctions/arm_correlate_q7.c ****         MVE_INTR_CORR_SINGLE_Q7(acc, pX, pY, count);
 155:../Dave/Generated/CMSIS_DSP/Source/FilteringFunctions/arm_correlate_q7.c **** 
 156:../Dave/Generated/CMSIS_DSP/Source/FilteringFunctions/arm_correlate_q7.c ****         *pDst = (q7_t) acc;
 157:../Dave/Generated/CMSIS_DSP/Source/FilteringFunctions/arm_correlate_q7.c ****         pDst += incr;
 158:../Dave/Generated/CMSIS_DSP/Source/FilteringFunctions/arm_correlate_q7.c ****         pB--;
 159:../Dave/Generated/CMSIS_DSP/Source/FilteringFunctions/arm_correlate_q7.c ****     }
 160:../Dave/Generated/CMSIS_DSP/Source/FilteringFunctions/arm_correlate_q7.c **** 
 161:../Dave/Generated/CMSIS_DSP/Source/FilteringFunctions/arm_correlate_q7.c ****     for (i = 0U; i <= block2 - 4; i += 4)
 162:../Dave/Generated/CMSIS_DSP/Source/FilteringFunctions/arm_correlate_q7.c ****     {
 163:../Dave/Generated/CMSIS_DSP/Source/FilteringFunctions/arm_correlate_q7.c ****         int32_t   acc0 = 0;
 164:../Dave/Generated/CMSIS_DSP/Source/FilteringFunctions/arm_correlate_q7.c ****         int32_t   acc1 = 0;
 165:../Dave/Generated/CMSIS_DSP/Source/FilteringFunctions/arm_correlate_q7.c ****         int32_t   acc2 = 0;
 166:../Dave/Generated/CMSIS_DSP/Source/FilteringFunctions/arm_correlate_q7.c ****         int32_t   acc3 = 0;
 167:../Dave/Generated/CMSIS_DSP/Source/FilteringFunctions/arm_correlate_q7.c **** 
 168:../Dave/Generated/CMSIS_DSP/Source/FilteringFunctions/arm_correlate_q7.c ****         pX = pA;
 169:../Dave/Generated/CMSIS_DSP/Source/FilteringFunctions/arm_correlate_q7.c ****         pY = pB;
 170:../Dave/Generated/CMSIS_DSP/Source/FilteringFunctions/arm_correlate_q7.c ****         /*
 171:../Dave/Generated/CMSIS_DSP/Source/FilteringFunctions/arm_correlate_q7.c ****          * compute 4 accumulators per loop
 172:../Dave/Generated/CMSIS_DSP/Source/FilteringFunctions/arm_correlate_q7.c ****          * size is fixed for all accumulators
 173:../Dave/Generated/CMSIS_DSP/Source/FilteringFunctions/arm_correlate_q7.c ****          * X pointer is incrementing for successive accumulators
 174:../Dave/Generated/CMSIS_DSP/Source/FilteringFunctions/arm_correlate_q7.c ****          */
 175:../Dave/Generated/CMSIS_DSP/Source/FilteringFunctions/arm_correlate_q7.c ****         MVE_INTR_CORR_QUAD_INC_X_FIXED_SIZE_Q7(acc0, acc1, acc2, acc3, pX, pY, srcBLen);
 176:../Dave/Generated/CMSIS_DSP/Source/FilteringFunctions/arm_correlate_q7.c **** 
 177:../Dave/Generated/CMSIS_DSP/Source/FilteringFunctions/arm_correlate_q7.c ****         *pDst = (q7_t) acc0;
 178:../Dave/Generated/CMSIS_DSP/Source/FilteringFunctions/arm_correlate_q7.c ****         pDst += incr;
 179:../Dave/Generated/CMSIS_DSP/Source/FilteringFunctions/arm_correlate_q7.c ****         *pDst = (q7_t) acc1;
 180:../Dave/Generated/CMSIS_DSP/Source/FilteringFunctions/arm_correlate_q7.c ****         pDst += incr;
 181:../Dave/Generated/CMSIS_DSP/Source/FilteringFunctions/arm_correlate_q7.c ****         *pDst = (q7_t) acc2;
 182:../Dave/Generated/CMSIS_DSP/Source/FilteringFunctions/arm_correlate_q7.c ****         pDst += incr;
 183:../Dave/Generated/CMSIS_DSP/Source/FilteringFunctions/arm_correlate_q7.c ****         *pDst = (q7_t) acc3;
 184:../Dave/Generated/CMSIS_DSP/Source/FilteringFunctions/arm_correlate_q7.c ****         pDst += incr;
 185:../Dave/Generated/CMSIS_DSP/Source/FilteringFunctions/arm_correlate_q7.c **** 
 186:../Dave/Generated/CMSIS_DSP/Source/FilteringFunctions/arm_correlate_q7.c ****         pA += 4;
 187:../Dave/Generated/CMSIS_DSP/Source/FilteringFunctions/arm_correlate_q7.c ****     }
 188:../Dave/Generated/CMSIS_DSP/Source/FilteringFunctions/arm_correlate_q7.c **** 
 189:../Dave/Generated/CMSIS_DSP/Source/FilteringFunctions/arm_correlate_q7.c ****     for (; i <= block2 - 2; i += 2)
 190:../Dave/Generated/CMSIS_DSP/Source/FilteringFunctions/arm_correlate_q7.c ****     {
 191:../Dave/Generated/CMSIS_DSP/Source/FilteringFunctions/arm_correlate_q7.c ****         int32_t   acc0 = 0LL;
 192:../Dave/Generated/CMSIS_DSP/Source/FilteringFunctions/arm_correlate_q7.c ****         int32_t   acc1 = 0LL;
 193:../Dave/Generated/CMSIS_DSP/Source/FilteringFunctions/arm_correlate_q7.c **** 
 194:../Dave/Generated/CMSIS_DSP/Source/FilteringFunctions/arm_correlate_q7.c ****         pX = pA;
 195:../Dave/Generated/CMSIS_DSP/Source/FilteringFunctions/arm_correlate_q7.c ****         pY = pB;
 196:../Dave/Generated/CMSIS_DSP/Source/FilteringFunctions/arm_correlate_q7.c ****         /*
 197:../Dave/Generated/CMSIS_DSP/Source/FilteringFunctions/arm_correlate_q7.c ****          * compute 2 accumulators per loop
 198:../Dave/Generated/CMSIS_DSP/Source/FilteringFunctions/arm_correlate_q7.c ****          * size is fixed for all accumulators
 199:../Dave/Generated/CMSIS_DSP/Source/FilteringFunctions/arm_correlate_q7.c ****          * X pointer is incrementing for second accumulator
 200:../Dave/Generated/CMSIS_DSP/Source/FilteringFunctions/arm_correlate_q7.c ****          */
 201:../Dave/Generated/CMSIS_DSP/Source/FilteringFunctions/arm_correlate_q7.c ****         MVE_INTR_CORR_DUAL_INC_X_FIXED_SIZE_Q7(acc0, acc1, pX, pY, srcBLen);
 202:../Dave/Generated/CMSIS_DSP/Source/FilteringFunctions/arm_correlate_q7.c **** 
 203:../Dave/Generated/CMSIS_DSP/Source/FilteringFunctions/arm_correlate_q7.c ****         *pDst = (q7_t) acc0;
 204:../Dave/Generated/CMSIS_DSP/Source/FilteringFunctions/arm_correlate_q7.c ****         pDst += incr;
 205:../Dave/Generated/CMSIS_DSP/Source/FilteringFunctions/arm_correlate_q7.c ****         *pDst = (q7_t) acc1;
 206:../Dave/Generated/CMSIS_DSP/Source/FilteringFunctions/arm_correlate_q7.c ****         pDst += incr;
 207:../Dave/Generated/CMSIS_DSP/Source/FilteringFunctions/arm_correlate_q7.c ****         pA += 2;
 208:../Dave/Generated/CMSIS_DSP/Source/FilteringFunctions/arm_correlate_q7.c ****     }
 209:../Dave/Generated/CMSIS_DSP/Source/FilteringFunctions/arm_correlate_q7.c **** 
 210:../Dave/Generated/CMSIS_DSP/Source/FilteringFunctions/arm_correlate_q7.c ****     if (block2 & 1)
 211:../Dave/Generated/CMSIS_DSP/Source/FilteringFunctions/arm_correlate_q7.c ****     {
 212:../Dave/Generated/CMSIS_DSP/Source/FilteringFunctions/arm_correlate_q7.c ****         int32_t   acc = 0LL;
 213:../Dave/Generated/CMSIS_DSP/Source/FilteringFunctions/arm_correlate_q7.c **** 
 214:../Dave/Generated/CMSIS_DSP/Source/FilteringFunctions/arm_correlate_q7.c ****         pX = pA;
 215:../Dave/Generated/CMSIS_DSP/Source/FilteringFunctions/arm_correlate_q7.c ****         pY = pB;
 216:../Dave/Generated/CMSIS_DSP/Source/FilteringFunctions/arm_correlate_q7.c ****         MVE_INTR_CORR_SINGLE_Q7(acc, pX, pY, srcBLen);
 217:../Dave/Generated/CMSIS_DSP/Source/FilteringFunctions/arm_correlate_q7.c **** 
 218:../Dave/Generated/CMSIS_DSP/Source/FilteringFunctions/arm_correlate_q7.c ****         *pDst = (q7_t) acc;
 219:../Dave/Generated/CMSIS_DSP/Source/FilteringFunctions/arm_correlate_q7.c ****         pDst += incr;
 220:../Dave/Generated/CMSIS_DSP/Source/FilteringFunctions/arm_correlate_q7.c ****         pA++;
 221:../Dave/Generated/CMSIS_DSP/Source/FilteringFunctions/arm_correlate_q7.c ****     }
 222:../Dave/Generated/CMSIS_DSP/Source/FilteringFunctions/arm_correlate_q7.c **** 
 223:../Dave/Generated/CMSIS_DSP/Source/FilteringFunctions/arm_correlate_q7.c ****     for (i = block3 - 1; i >= 0; i -= 2)
 224:../Dave/Generated/CMSIS_DSP/Source/FilteringFunctions/arm_correlate_q7.c ****     {
 225:../Dave/Generated/CMSIS_DSP/Source/FilteringFunctions/arm_correlate_q7.c ****         uint32_t  count = (i + 1);
 226:../Dave/Generated/CMSIS_DSP/Source/FilteringFunctions/arm_correlate_q7.c ****         int32_t   acc0 = 0LL;
 227:../Dave/Generated/CMSIS_DSP/Source/FilteringFunctions/arm_correlate_q7.c ****         int32_t   acc1 = 0LL;
 228:../Dave/Generated/CMSIS_DSP/Source/FilteringFunctions/arm_correlate_q7.c **** 
 229:../Dave/Generated/CMSIS_DSP/Source/FilteringFunctions/arm_correlate_q7.c ****         pX = pA;
 230:../Dave/Generated/CMSIS_DSP/Source/FilteringFunctions/arm_correlate_q7.c ****         pY = pB;
 231:../Dave/Generated/CMSIS_DSP/Source/FilteringFunctions/arm_correlate_q7.c ****         /*
 232:../Dave/Generated/CMSIS_DSP/Source/FilteringFunctions/arm_correlate_q7.c ****          * compute 2 accumulators per loop
 233:../Dave/Generated/CMSIS_DSP/Source/FilteringFunctions/arm_correlate_q7.c ****          * size is decrementing for second accumulator
 234:../Dave/Generated/CMSIS_DSP/Source/FilteringFunctions/arm_correlate_q7.c ****          * X pointer is incrementing for second accumulator
 235:../Dave/Generated/CMSIS_DSP/Source/FilteringFunctions/arm_correlate_q7.c ****          */
 236:../Dave/Generated/CMSIS_DSP/Source/FilteringFunctions/arm_correlate_q7.c ****         MVE_INTR_CORR_DUAL_INC_X_DEC_SIZE_Q7(acc0, acc1, pX, pY, count);
 237:../Dave/Generated/CMSIS_DSP/Source/FilteringFunctions/arm_correlate_q7.c **** 
 238:../Dave/Generated/CMSIS_DSP/Source/FilteringFunctions/arm_correlate_q7.c ****         *pDst = (q7_t) acc0;
 239:../Dave/Generated/CMSIS_DSP/Source/FilteringFunctions/arm_correlate_q7.c ****         pDst += incr;
 240:../Dave/Generated/CMSIS_DSP/Source/FilteringFunctions/arm_correlate_q7.c ****         *pDst = (q7_t) acc1;
 241:../Dave/Generated/CMSIS_DSP/Source/FilteringFunctions/arm_correlate_q7.c ****         pDst += incr;
 242:../Dave/Generated/CMSIS_DSP/Source/FilteringFunctions/arm_correlate_q7.c ****         pA += 2;
 243:../Dave/Generated/CMSIS_DSP/Source/FilteringFunctions/arm_correlate_q7.c **** 
 244:../Dave/Generated/CMSIS_DSP/Source/FilteringFunctions/arm_correlate_q7.c ****     }
 245:../Dave/Generated/CMSIS_DSP/Source/FilteringFunctions/arm_correlate_q7.c ****     for (; i >= 0; i--)
 246:../Dave/Generated/CMSIS_DSP/Source/FilteringFunctions/arm_correlate_q7.c ****     {
 247:../Dave/Generated/CMSIS_DSP/Source/FilteringFunctions/arm_correlate_q7.c ****         uint32_t  count = (i + 1);
 248:../Dave/Generated/CMSIS_DSP/Source/FilteringFunctions/arm_correlate_q7.c ****         int64_t   acc = 0LL;
 249:../Dave/Generated/CMSIS_DSP/Source/FilteringFunctions/arm_correlate_q7.c **** 
 250:../Dave/Generated/CMSIS_DSP/Source/FilteringFunctions/arm_correlate_q7.c ****         pX = pA;
 251:../Dave/Generated/CMSIS_DSP/Source/FilteringFunctions/arm_correlate_q7.c ****         pY = pB;
 252:../Dave/Generated/CMSIS_DSP/Source/FilteringFunctions/arm_correlate_q7.c ****         MVE_INTR_CORR_SINGLE_Q7(acc, pX, pY, count);
 253:../Dave/Generated/CMSIS_DSP/Source/FilteringFunctions/arm_correlate_q7.c **** 
 254:../Dave/Generated/CMSIS_DSP/Source/FilteringFunctions/arm_correlate_q7.c ****         *pDst = (q7_t) acc;
 255:../Dave/Generated/CMSIS_DSP/Source/FilteringFunctions/arm_correlate_q7.c ****         pDst += incr;
 256:../Dave/Generated/CMSIS_DSP/Source/FilteringFunctions/arm_correlate_q7.c ****         pA++;
 257:../Dave/Generated/CMSIS_DSP/Source/FilteringFunctions/arm_correlate_q7.c ****     }
 258:../Dave/Generated/CMSIS_DSP/Source/FilteringFunctions/arm_correlate_q7.c **** }
 259:../Dave/Generated/CMSIS_DSP/Source/FilteringFunctions/arm_correlate_q7.c **** 
 260:../Dave/Generated/CMSIS_DSP/Source/FilteringFunctions/arm_correlate_q7.c **** #else
 261:../Dave/Generated/CMSIS_DSP/Source/FilteringFunctions/arm_correlate_q7.c **** void arm_correlate_q7(
 262:../Dave/Generated/CMSIS_DSP/Source/FilteringFunctions/arm_correlate_q7.c ****   const q7_t * pSrcA,
 263:../Dave/Generated/CMSIS_DSP/Source/FilteringFunctions/arm_correlate_q7.c ****         uint32_t srcALen,
 264:../Dave/Generated/CMSIS_DSP/Source/FilteringFunctions/arm_correlate_q7.c ****   const q7_t * pSrcB,
 265:../Dave/Generated/CMSIS_DSP/Source/FilteringFunctions/arm_correlate_q7.c ****         uint32_t srcBLen,
 266:../Dave/Generated/CMSIS_DSP/Source/FilteringFunctions/arm_correlate_q7.c ****         q7_t * pDst)
 267:../Dave/Generated/CMSIS_DSP/Source/FilteringFunctions/arm_correlate_q7.c **** {
  28              	 .loc 1 267 0
  29              	 .cfi_startproc
  30              	 
  31              	 
  32              	 
  33 0000 80B4     	 push {r7}
  34              	.LCFI0:
  35              	 .cfi_def_cfa_offset 4
  36              	 .cfi_offset 7,-4
  37 0002 9DB0     	 sub sp,sp,#116
  38              	.LCFI1:
  39              	 .cfi_def_cfa_offset 120
  40 0004 00AF     	 add r7,sp,#0
  41              	.LCFI2:
  42              	 .cfi_def_cfa_register 7
  43 0006 F860     	 str r0,[r7,#12]
  44 0008 B960     	 str r1,[r7,#8]
  45 000a 7A60     	 str r2,[r7,#4]
  46 000c 3B60     	 str r3,[r7]
 268:../Dave/Generated/CMSIS_DSP/Source/FilteringFunctions/arm_correlate_q7.c **** 
 269:../Dave/Generated/CMSIS_DSP/Source/FilteringFunctions/arm_correlate_q7.c **** #if (1)
 270:../Dave/Generated/CMSIS_DSP/Source/FilteringFunctions/arm_correlate_q7.c **** //#if !defined(ARM_MATH_CM0_FAMILY)
 271:../Dave/Generated/CMSIS_DSP/Source/FilteringFunctions/arm_correlate_q7.c **** 
 272:../Dave/Generated/CMSIS_DSP/Source/FilteringFunctions/arm_correlate_q7.c ****   const q7_t *pIn1;                                    /* InputA pointer */
 273:../Dave/Generated/CMSIS_DSP/Source/FilteringFunctions/arm_correlate_q7.c ****   const q7_t *pIn2;                                    /* InputB pointer */
 274:../Dave/Generated/CMSIS_DSP/Source/FilteringFunctions/arm_correlate_q7.c ****         q7_t *pOut = pDst;                             /* Output pointer */
  47              	 .loc 1 274 0
  48 000e BB6F     	 ldr r3,[r7,#120]
  49 0010 7B66     	 str r3,[r7,#100]
 275:../Dave/Generated/CMSIS_DSP/Source/FilteringFunctions/arm_correlate_q7.c ****   const q7_t *px;                                      /* Intermediate inputA pointer */
 276:../Dave/Generated/CMSIS_DSP/Source/FilteringFunctions/arm_correlate_q7.c ****   const q7_t *py;                                      /* Intermediate inputB pointer */
 277:../Dave/Generated/CMSIS_DSP/Source/FilteringFunctions/arm_correlate_q7.c ****   const q7_t *pSrc1;                                   /* Intermediate pointers */
 278:../Dave/Generated/CMSIS_DSP/Source/FilteringFunctions/arm_correlate_q7.c ****         q31_t sum;                                     /* Accumulators */
 279:../Dave/Generated/CMSIS_DSP/Source/FilteringFunctions/arm_correlate_q7.c ****         uint32_t blockSize1, blockSize2, blockSize3;   /* Loop counters */
 280:../Dave/Generated/CMSIS_DSP/Source/FilteringFunctions/arm_correlate_q7.c ****         uint32_t j, k, count, blkCnt;                  /* Loop counters */
 281:../Dave/Generated/CMSIS_DSP/Source/FilteringFunctions/arm_correlate_q7.c ****         uint32_t outBlockSize;
 282:../Dave/Generated/CMSIS_DSP/Source/FilteringFunctions/arm_correlate_q7.c ****         int32_t inc = 1;
  50              	 .loc 1 282 0
  51 0012 0123     	 movs r3,#1
  52 0014 FB63     	 str r3,[r7,#60]
 283:../Dave/Generated/CMSIS_DSP/Source/FilteringFunctions/arm_correlate_q7.c **** 
 284:../Dave/Generated/CMSIS_DSP/Source/FilteringFunctions/arm_correlate_q7.c **** #if defined (ARM_MATH_LOOPUNROLL)
 285:../Dave/Generated/CMSIS_DSP/Source/FilteringFunctions/arm_correlate_q7.c ****         q31_t acc0, acc1, acc2, acc3;                  /* Accumulators */
 286:../Dave/Generated/CMSIS_DSP/Source/FilteringFunctions/arm_correlate_q7.c ****         q31_t input1, input2;                          /* Temporary input variables */
 287:../Dave/Generated/CMSIS_DSP/Source/FilteringFunctions/arm_correlate_q7.c ****         q15_t in1, in2;                                /* Temporary input variables */
 288:../Dave/Generated/CMSIS_DSP/Source/FilteringFunctions/arm_correlate_q7.c ****         q7_t x0, x1, x2, x3, c0, c1;                   /* Temporary variables for holding input and
 289:../Dave/Generated/CMSIS_DSP/Source/FilteringFunctions/arm_correlate_q7.c **** #endif
 290:../Dave/Generated/CMSIS_DSP/Source/FilteringFunctions/arm_correlate_q7.c **** 
 291:../Dave/Generated/CMSIS_DSP/Source/FilteringFunctions/arm_correlate_q7.c ****   /* The algorithm implementation is based on the lengths of the inputs. */
 292:../Dave/Generated/CMSIS_DSP/Source/FilteringFunctions/arm_correlate_q7.c ****   /* srcB is always made to slide across srcA. */
 293:../Dave/Generated/CMSIS_DSP/Source/FilteringFunctions/arm_correlate_q7.c ****   /* So srcBLen is always considered as shorter or equal to srcALen */
 294:../Dave/Generated/CMSIS_DSP/Source/FilteringFunctions/arm_correlate_q7.c ****   /* But CORR(x, y) is reverse of CORR(y, x) */
 295:../Dave/Generated/CMSIS_DSP/Source/FilteringFunctions/arm_correlate_q7.c ****   /* So, when srcBLen > srcALen, output pointer is made to point to the end of the output buffer */
 296:../Dave/Generated/CMSIS_DSP/Source/FilteringFunctions/arm_correlate_q7.c ****   /* and the destination pointer modifier, inc is set to -1 */
 297:../Dave/Generated/CMSIS_DSP/Source/FilteringFunctions/arm_correlate_q7.c ****   /* If srcALen > srcBLen, zero pad has to be done to srcB to make the two inputs of same length */
 298:../Dave/Generated/CMSIS_DSP/Source/FilteringFunctions/arm_correlate_q7.c ****   /* But to improve the performance,
 299:../Dave/Generated/CMSIS_DSP/Source/FilteringFunctions/arm_correlate_q7.c ****    * we include zeroes in the output instead of zero padding either of the the inputs*/
 300:../Dave/Generated/CMSIS_DSP/Source/FilteringFunctions/arm_correlate_q7.c ****   /* If srcALen > srcBLen,
 301:../Dave/Generated/CMSIS_DSP/Source/FilteringFunctions/arm_correlate_q7.c ****    * (srcALen - srcBLen) zeroes has to included in the starting of the output buffer */
 302:../Dave/Generated/CMSIS_DSP/Source/FilteringFunctions/arm_correlate_q7.c ****   /* If srcALen < srcBLen,
 303:../Dave/Generated/CMSIS_DSP/Source/FilteringFunctions/arm_correlate_q7.c ****    * (srcALen - srcBLen) zeroes has to included in the ending of the output buffer */
 304:../Dave/Generated/CMSIS_DSP/Source/FilteringFunctions/arm_correlate_q7.c ****   if (srcALen >= srcBLen)
  53              	 .loc 1 304 0
  54 0016 BA68     	 ldr r2,[r7,#8]
  55 0018 3B68     	 ldr r3,[r7]
  56 001a 9A42     	 cmp r2,r3
  57 001c 13D3     	 bcc .L2
 305:../Dave/Generated/CMSIS_DSP/Source/FilteringFunctions/arm_correlate_q7.c ****   {
 306:../Dave/Generated/CMSIS_DSP/Source/FilteringFunctions/arm_correlate_q7.c ****     /* Initialization of inputA pointer */
 307:../Dave/Generated/CMSIS_DSP/Source/FilteringFunctions/arm_correlate_q7.c ****     pIn1 = pSrcA;
  58              	 .loc 1 307 0
  59 001e FB68     	 ldr r3,[r7,#12]
  60 0020 FB66     	 str r3,[r7,#108]
 308:../Dave/Generated/CMSIS_DSP/Source/FilteringFunctions/arm_correlate_q7.c **** 
 309:../Dave/Generated/CMSIS_DSP/Source/FilteringFunctions/arm_correlate_q7.c ****     /* Initialization of inputB pointer */
 310:../Dave/Generated/CMSIS_DSP/Source/FilteringFunctions/arm_correlate_q7.c ****     pIn2 = pSrcB;
  61              	 .loc 1 310 0
  62 0022 7B68     	 ldr r3,[r7,#4]
  63 0024 BB66     	 str r3,[r7,#104]
 311:../Dave/Generated/CMSIS_DSP/Source/FilteringFunctions/arm_correlate_q7.c **** 
 312:../Dave/Generated/CMSIS_DSP/Source/FilteringFunctions/arm_correlate_q7.c ****     /* Number of output samples is calculated */
 313:../Dave/Generated/CMSIS_DSP/Source/FilteringFunctions/arm_correlate_q7.c ****     outBlockSize = (2U * srcALen) - 1U;
  64              	 .loc 1 313 0
  65 0026 BB68     	 ldr r3,[r7,#8]
  66 0028 5B00     	 lsls r3,r3,#1
  67 002a 013B     	 subs r3,r3,#1
  68 002c BB63     	 str r3,[r7,#56]
 314:../Dave/Generated/CMSIS_DSP/Source/FilteringFunctions/arm_correlate_q7.c **** 
 315:../Dave/Generated/CMSIS_DSP/Source/FilteringFunctions/arm_correlate_q7.c ****     /* When srcALen > srcBLen, zero padding is done to srcB
 316:../Dave/Generated/CMSIS_DSP/Source/FilteringFunctions/arm_correlate_q7.c ****      * to make their lengths equal.
 317:../Dave/Generated/CMSIS_DSP/Source/FilteringFunctions/arm_correlate_q7.c ****      * Instead, (outBlockSize - (srcALen + srcBLen - 1))
 318:../Dave/Generated/CMSIS_DSP/Source/FilteringFunctions/arm_correlate_q7.c ****      * number of output samples are made zero */
 319:../Dave/Generated/CMSIS_DSP/Source/FilteringFunctions/arm_correlate_q7.c ****     j = outBlockSize - (srcALen + (srcBLen - 1U));
  69              	 .loc 1 319 0
  70 002e 3A68     	 ldr r2,[r7]
  71 0030 BB68     	 ldr r3,[r7,#8]
  72 0032 1344     	 add r3,r3,r2
  73 0034 BA6B     	 ldr r2,[r7,#56]
  74 0036 D31A     	 subs r3,r2,r3
  75 0038 0133     	 adds r3,r3,#1
  76 003a 7B63     	 str r3,[r7,#52]
 320:../Dave/Generated/CMSIS_DSP/Source/FilteringFunctions/arm_correlate_q7.c **** 
 321:../Dave/Generated/CMSIS_DSP/Source/FilteringFunctions/arm_correlate_q7.c ****     /* Updating the pointer position to non zero value */
 322:../Dave/Generated/CMSIS_DSP/Source/FilteringFunctions/arm_correlate_q7.c ****     pOut += j;
  77              	 .loc 1 322 0
  78 003c 7A6E     	 ldr r2,[r7,#100]
  79 003e 7B6B     	 ldr r3,[r7,#52]
  80 0040 1344     	 add r3,r3,r2
  81 0042 7B66     	 str r3,[r7,#100]
  82 0044 13E0     	 b .L3
  83              	.L2:
 323:../Dave/Generated/CMSIS_DSP/Source/FilteringFunctions/arm_correlate_q7.c ****   }
 324:../Dave/Generated/CMSIS_DSP/Source/FilteringFunctions/arm_correlate_q7.c ****   else
 325:../Dave/Generated/CMSIS_DSP/Source/FilteringFunctions/arm_correlate_q7.c ****   {
 326:../Dave/Generated/CMSIS_DSP/Source/FilteringFunctions/arm_correlate_q7.c ****     /* Initialization of inputA pointer */
 327:../Dave/Generated/CMSIS_DSP/Source/FilteringFunctions/arm_correlate_q7.c ****     pIn1 = pSrcB;
  84              	 .loc 1 327 0
  85 0046 7B68     	 ldr r3,[r7,#4]
  86 0048 FB66     	 str r3,[r7,#108]
 328:../Dave/Generated/CMSIS_DSP/Source/FilteringFunctions/arm_correlate_q7.c **** 
 329:../Dave/Generated/CMSIS_DSP/Source/FilteringFunctions/arm_correlate_q7.c ****     /* Initialization of inputB pointer */
 330:../Dave/Generated/CMSIS_DSP/Source/FilteringFunctions/arm_correlate_q7.c ****     pIn2 = pSrcA;
  87              	 .loc 1 330 0
  88 004a FB68     	 ldr r3,[r7,#12]
  89 004c BB66     	 str r3,[r7,#104]
 331:../Dave/Generated/CMSIS_DSP/Source/FilteringFunctions/arm_correlate_q7.c **** 
 332:../Dave/Generated/CMSIS_DSP/Source/FilteringFunctions/arm_correlate_q7.c ****     /* srcBLen is always considered as shorter or equal to srcALen */
 333:../Dave/Generated/CMSIS_DSP/Source/FilteringFunctions/arm_correlate_q7.c ****     j = srcBLen;
  90              	 .loc 1 333 0
  91 004e 3B68     	 ldr r3,[r7]
  92 0050 7B63     	 str r3,[r7,#52]
 334:../Dave/Generated/CMSIS_DSP/Source/FilteringFunctions/arm_correlate_q7.c ****     srcBLen = srcALen;
  93              	 .loc 1 334 0
  94 0052 BB68     	 ldr r3,[r7,#8]
  95 0054 3B60     	 str r3,[r7]
 335:../Dave/Generated/CMSIS_DSP/Source/FilteringFunctions/arm_correlate_q7.c ****     srcALen = j;
  96              	 .loc 1 335 0
  97 0056 7B6B     	 ldr r3,[r7,#52]
  98 0058 BB60     	 str r3,[r7,#8]
 336:../Dave/Generated/CMSIS_DSP/Source/FilteringFunctions/arm_correlate_q7.c **** 
 337:../Dave/Generated/CMSIS_DSP/Source/FilteringFunctions/arm_correlate_q7.c ****     /* CORR(x, y) = Reverse order(CORR(y, x)) */
 338:../Dave/Generated/CMSIS_DSP/Source/FilteringFunctions/arm_correlate_q7.c ****     /* Hence set the destination pointer to point to the last output sample */
 339:../Dave/Generated/CMSIS_DSP/Source/FilteringFunctions/arm_correlate_q7.c ****     pOut = pDst + ((srcALen + srcBLen) - 2U);
  99              	 .loc 1 339 0
 100 005a BA68     	 ldr r2,[r7,#8]
 101 005c 3B68     	 ldr r3,[r7]
 102 005e 1344     	 add r3,r3,r2
 103 0060 023B     	 subs r3,r3,#2
 104 0062 BA6F     	 ldr r2,[r7,#120]
 105 0064 1344     	 add r3,r3,r2
 106 0066 7B66     	 str r3,[r7,#100]
 340:../Dave/Generated/CMSIS_DSP/Source/FilteringFunctions/arm_correlate_q7.c **** 
 341:../Dave/Generated/CMSIS_DSP/Source/FilteringFunctions/arm_correlate_q7.c ****     /* Destination address modifier is set to -1 */
 342:../Dave/Generated/CMSIS_DSP/Source/FilteringFunctions/arm_correlate_q7.c ****     inc = -1;
 107              	 .loc 1 342 0
 108 0068 4FF0FF33 	 mov r3,#-1
 109 006c FB63     	 str r3,[r7,#60]
 110              	.L3:
 343:../Dave/Generated/CMSIS_DSP/Source/FilteringFunctions/arm_correlate_q7.c ****   }
 344:../Dave/Generated/CMSIS_DSP/Source/FilteringFunctions/arm_correlate_q7.c **** 
 345:../Dave/Generated/CMSIS_DSP/Source/FilteringFunctions/arm_correlate_q7.c ****   /* The function is internally
 346:../Dave/Generated/CMSIS_DSP/Source/FilteringFunctions/arm_correlate_q7.c ****    * divided into three stages according to the number of multiplications that has to be
 347:../Dave/Generated/CMSIS_DSP/Source/FilteringFunctions/arm_correlate_q7.c ****    * taken place between inputA samples and inputB samples. In the first stage of the
 348:../Dave/Generated/CMSIS_DSP/Source/FilteringFunctions/arm_correlate_q7.c ****    * algorithm, the multiplications increase by one for every iteration.
 349:../Dave/Generated/CMSIS_DSP/Source/FilteringFunctions/arm_correlate_q7.c ****    * In the second stage of the algorithm, srcBLen number of multiplications are done.
 350:../Dave/Generated/CMSIS_DSP/Source/FilteringFunctions/arm_correlate_q7.c ****    * In the third stage of the algorithm, the multiplications decrease by one
 351:../Dave/Generated/CMSIS_DSP/Source/FilteringFunctions/arm_correlate_q7.c ****    * for every iteration. */
 352:../Dave/Generated/CMSIS_DSP/Source/FilteringFunctions/arm_correlate_q7.c **** 
 353:../Dave/Generated/CMSIS_DSP/Source/FilteringFunctions/arm_correlate_q7.c ****   /* The algorithm is implemented in three stages.
 354:../Dave/Generated/CMSIS_DSP/Source/FilteringFunctions/arm_correlate_q7.c ****      The loop counters of each stage is initiated here. */
 355:../Dave/Generated/CMSIS_DSP/Source/FilteringFunctions/arm_correlate_q7.c ****   blockSize1 = srcBLen - 1U;
 111              	 .loc 1 355 0
 112 006e 3B68     	 ldr r3,[r7]
 113 0070 013B     	 subs r3,r3,#1
 114 0072 3B65     	 str r3,[r7,#80]
 356:../Dave/Generated/CMSIS_DSP/Source/FilteringFunctions/arm_correlate_q7.c ****   blockSize2 = srcALen - (srcBLen - 1U);
 115              	 .loc 1 356 0
 116 0074 BA68     	 ldr r2,[r7,#8]
 117 0076 3B68     	 ldr r3,[r7]
 118 0078 D31A     	 subs r3,r2,r3
 119 007a 0133     	 adds r3,r3,#1
 120 007c 3B63     	 str r3,[r7,#48]
 357:../Dave/Generated/CMSIS_DSP/Source/FilteringFunctions/arm_correlate_q7.c ****   blockSize3 = blockSize1;
 121              	 .loc 1 357 0
 122 007e 3B6D     	 ldr r3,[r7,#80]
 123 0080 FB64     	 str r3,[r7,#76]
 358:../Dave/Generated/CMSIS_DSP/Source/FilteringFunctions/arm_correlate_q7.c **** 
 359:../Dave/Generated/CMSIS_DSP/Source/FilteringFunctions/arm_correlate_q7.c ****   /* --------------------------
 360:../Dave/Generated/CMSIS_DSP/Source/FilteringFunctions/arm_correlate_q7.c ****    * Initializations of stage1
 361:../Dave/Generated/CMSIS_DSP/Source/FilteringFunctions/arm_correlate_q7.c ****    * -------------------------*/
 362:../Dave/Generated/CMSIS_DSP/Source/FilteringFunctions/arm_correlate_q7.c **** 
 363:../Dave/Generated/CMSIS_DSP/Source/FilteringFunctions/arm_correlate_q7.c ****   /* sum = x[0] * y[srcBlen - 1]
 364:../Dave/Generated/CMSIS_DSP/Source/FilteringFunctions/arm_correlate_q7.c ****    * sum = x[0] * y[srcBlen - 2] + x[1] * y[srcBlen - 1]
 365:../Dave/Generated/CMSIS_DSP/Source/FilteringFunctions/arm_correlate_q7.c ****    * ....
 366:../Dave/Generated/CMSIS_DSP/Source/FilteringFunctions/arm_correlate_q7.c ****    * sum = x[0] * y[0] + x[1] * y[1] +...+ x[srcBLen - 1] * y[srcBLen - 1]
 367:../Dave/Generated/CMSIS_DSP/Source/FilteringFunctions/arm_correlate_q7.c ****    */
 368:../Dave/Generated/CMSIS_DSP/Source/FilteringFunctions/arm_correlate_q7.c **** 
 369:../Dave/Generated/CMSIS_DSP/Source/FilteringFunctions/arm_correlate_q7.c ****   /* In this stage the MAC operations are increased by 1 for every iteration.
 370:../Dave/Generated/CMSIS_DSP/Source/FilteringFunctions/arm_correlate_q7.c ****      The count variable holds the number of MAC operations performed */
 371:../Dave/Generated/CMSIS_DSP/Source/FilteringFunctions/arm_correlate_q7.c ****   count = 1U;
 124              	 .loc 1 371 0
 125 0082 0123     	 movs r3,#1
 126 0084 7B64     	 str r3,[r7,#68]
 372:../Dave/Generated/CMSIS_DSP/Source/FilteringFunctions/arm_correlate_q7.c **** 
 373:../Dave/Generated/CMSIS_DSP/Source/FilteringFunctions/arm_correlate_q7.c ****   /* Working pointer of inputA */
 374:../Dave/Generated/CMSIS_DSP/Source/FilteringFunctions/arm_correlate_q7.c ****   px = pIn1;
 127              	 .loc 1 374 0
 128 0086 FB6E     	 ldr r3,[r7,#108]
 129 0088 3B66     	 str r3,[r7,#96]
 375:../Dave/Generated/CMSIS_DSP/Source/FilteringFunctions/arm_correlate_q7.c **** 
 376:../Dave/Generated/CMSIS_DSP/Source/FilteringFunctions/arm_correlate_q7.c ****   /* Working pointer of inputB */
 377:../Dave/Generated/CMSIS_DSP/Source/FilteringFunctions/arm_correlate_q7.c ****   pSrc1 = pIn2 + (srcBLen - 1U);
 130              	 .loc 1 377 0
 131 008a 3B68     	 ldr r3,[r7]
 132 008c 013B     	 subs r3,r3,#1
 133 008e BA6E     	 ldr r2,[r7,#104]
 134 0090 1344     	 add r3,r3,r2
 135 0092 BB65     	 str r3,[r7,#88]
 378:../Dave/Generated/CMSIS_DSP/Source/FilteringFunctions/arm_correlate_q7.c ****   py = pSrc1;
 136              	 .loc 1 378 0
 137 0094 BB6D     	 ldr r3,[r7,#88]
 138 0096 FB65     	 str r3,[r7,#92]
 379:../Dave/Generated/CMSIS_DSP/Source/FilteringFunctions/arm_correlate_q7.c **** 
 380:../Dave/Generated/CMSIS_DSP/Source/FilteringFunctions/arm_correlate_q7.c ****   /* ------------------------
 381:../Dave/Generated/CMSIS_DSP/Source/FilteringFunctions/arm_correlate_q7.c ****    * Stage1 process
 382:../Dave/Generated/CMSIS_DSP/Source/FilteringFunctions/arm_correlate_q7.c ****    * ----------------------*/
 383:../Dave/Generated/CMSIS_DSP/Source/FilteringFunctions/arm_correlate_q7.c **** 
 384:../Dave/Generated/CMSIS_DSP/Source/FilteringFunctions/arm_correlate_q7.c ****   /* The first stage starts here */
 385:../Dave/Generated/CMSIS_DSP/Source/FilteringFunctions/arm_correlate_q7.c ****   while (blockSize1 > 0U)
 139              	 .loc 1 385 0
 140 0098 35E0     	 b .L4
 141              	.L7:
 386:../Dave/Generated/CMSIS_DSP/Source/FilteringFunctions/arm_correlate_q7.c ****   {
 387:../Dave/Generated/CMSIS_DSP/Source/FilteringFunctions/arm_correlate_q7.c ****     /* Accumulator is made zero for every iteration */
 388:../Dave/Generated/CMSIS_DSP/Source/FilteringFunctions/arm_correlate_q7.c ****     sum = 0;
 142              	 .loc 1 388 0
 143 009a 0023     	 movs r3,#0
 144 009c 7B65     	 str r3,[r7,#84]
 389:../Dave/Generated/CMSIS_DSP/Source/FilteringFunctions/arm_correlate_q7.c **** 
 390:../Dave/Generated/CMSIS_DSP/Source/FilteringFunctions/arm_correlate_q7.c **** #if defined (ARM_MATH_LOOPUNROLL)
 391:../Dave/Generated/CMSIS_DSP/Source/FilteringFunctions/arm_correlate_q7.c **** 
 392:../Dave/Generated/CMSIS_DSP/Source/FilteringFunctions/arm_correlate_q7.c ****     /* Loop unrolling: Compute 4 outputs at a time */
 393:../Dave/Generated/CMSIS_DSP/Source/FilteringFunctions/arm_correlate_q7.c ****     k = count >> 2U;
 394:../Dave/Generated/CMSIS_DSP/Source/FilteringFunctions/arm_correlate_q7.c **** 
 395:../Dave/Generated/CMSIS_DSP/Source/FilteringFunctions/arm_correlate_q7.c ****     while (k > 0U)
 396:../Dave/Generated/CMSIS_DSP/Source/FilteringFunctions/arm_correlate_q7.c ****     {
 397:../Dave/Generated/CMSIS_DSP/Source/FilteringFunctions/arm_correlate_q7.c ****       /* x[0] , x[1] */
 398:../Dave/Generated/CMSIS_DSP/Source/FilteringFunctions/arm_correlate_q7.c ****       in1 = (q15_t) *px++;
 399:../Dave/Generated/CMSIS_DSP/Source/FilteringFunctions/arm_correlate_q7.c ****       in2 = (q15_t) *px++;
 400:../Dave/Generated/CMSIS_DSP/Source/FilteringFunctions/arm_correlate_q7.c ****       input1 = ((q31_t) in1 & 0x0000FFFF) | ((q31_t) in2 << 16);
 401:../Dave/Generated/CMSIS_DSP/Source/FilteringFunctions/arm_correlate_q7.c **** 
 402:../Dave/Generated/CMSIS_DSP/Source/FilteringFunctions/arm_correlate_q7.c ****       /* y[srcBLen - 4] , y[srcBLen - 3] */
 403:../Dave/Generated/CMSIS_DSP/Source/FilteringFunctions/arm_correlate_q7.c ****       in1 = (q15_t) *py++;
 404:../Dave/Generated/CMSIS_DSP/Source/FilteringFunctions/arm_correlate_q7.c ****       in2 = (q15_t) *py++;
 405:../Dave/Generated/CMSIS_DSP/Source/FilteringFunctions/arm_correlate_q7.c ****       input2 = ((q31_t) in1 & 0x0000FFFF) | ((q31_t) in2 << 16);
 406:../Dave/Generated/CMSIS_DSP/Source/FilteringFunctions/arm_correlate_q7.c **** 
 407:../Dave/Generated/CMSIS_DSP/Source/FilteringFunctions/arm_correlate_q7.c ****       /* x[0] * y[srcBLen - 4] */
 408:../Dave/Generated/CMSIS_DSP/Source/FilteringFunctions/arm_correlate_q7.c ****       /* x[1] * y[srcBLen - 3] */
 409:../Dave/Generated/CMSIS_DSP/Source/FilteringFunctions/arm_correlate_q7.c ****       sum = __SMLAD(input1, input2, sum);
 410:../Dave/Generated/CMSIS_DSP/Source/FilteringFunctions/arm_correlate_q7.c **** 
 411:../Dave/Generated/CMSIS_DSP/Source/FilteringFunctions/arm_correlate_q7.c ****       /* x[2] , x[3] */
 412:../Dave/Generated/CMSIS_DSP/Source/FilteringFunctions/arm_correlate_q7.c ****       in1 = (q15_t) *px++;
 413:../Dave/Generated/CMSIS_DSP/Source/FilteringFunctions/arm_correlate_q7.c ****       in2 = (q15_t) *px++;
 414:../Dave/Generated/CMSIS_DSP/Source/FilteringFunctions/arm_correlate_q7.c ****       input1 = ((q31_t) in1 & 0x0000FFFF) | ((q31_t) in2 << 16);
 415:../Dave/Generated/CMSIS_DSP/Source/FilteringFunctions/arm_correlate_q7.c **** 
 416:../Dave/Generated/CMSIS_DSP/Source/FilteringFunctions/arm_correlate_q7.c ****       /* y[srcBLen - 2] , y[srcBLen - 1] */
 417:../Dave/Generated/CMSIS_DSP/Source/FilteringFunctions/arm_correlate_q7.c ****       in1 = (q15_t) *py++;
 418:../Dave/Generated/CMSIS_DSP/Source/FilteringFunctions/arm_correlate_q7.c ****       in2 = (q15_t) *py++;
 419:../Dave/Generated/CMSIS_DSP/Source/FilteringFunctions/arm_correlate_q7.c ****       input2 = ((q31_t) in1 & 0x0000FFFF) | ((q31_t) in2 << 16);
 420:../Dave/Generated/CMSIS_DSP/Source/FilteringFunctions/arm_correlate_q7.c **** 
 421:../Dave/Generated/CMSIS_DSP/Source/FilteringFunctions/arm_correlate_q7.c ****       /* x[2] * y[srcBLen - 2] */
 422:../Dave/Generated/CMSIS_DSP/Source/FilteringFunctions/arm_correlate_q7.c ****       /* x[3] * y[srcBLen - 1] */
 423:../Dave/Generated/CMSIS_DSP/Source/FilteringFunctions/arm_correlate_q7.c ****       sum = __SMLAD(input1, input2, sum);
 424:../Dave/Generated/CMSIS_DSP/Source/FilteringFunctions/arm_correlate_q7.c **** 
 425:../Dave/Generated/CMSIS_DSP/Source/FilteringFunctions/arm_correlate_q7.c ****       /* Decrement loop counter */
 426:../Dave/Generated/CMSIS_DSP/Source/FilteringFunctions/arm_correlate_q7.c ****       k--;
 427:../Dave/Generated/CMSIS_DSP/Source/FilteringFunctions/arm_correlate_q7.c ****     }
 428:../Dave/Generated/CMSIS_DSP/Source/FilteringFunctions/arm_correlate_q7.c **** 
 429:../Dave/Generated/CMSIS_DSP/Source/FilteringFunctions/arm_correlate_q7.c ****     /* Loop unrolling: Compute remaining outputs */
 430:../Dave/Generated/CMSIS_DSP/Source/FilteringFunctions/arm_correlate_q7.c ****     k = count % 0x4U;
 431:../Dave/Generated/CMSIS_DSP/Source/FilteringFunctions/arm_correlate_q7.c **** 
 432:../Dave/Generated/CMSIS_DSP/Source/FilteringFunctions/arm_correlate_q7.c **** #else
 433:../Dave/Generated/CMSIS_DSP/Source/FilteringFunctions/arm_correlate_q7.c **** 
 434:../Dave/Generated/CMSIS_DSP/Source/FilteringFunctions/arm_correlate_q7.c ****     /* Initialize k with number of samples */
 435:../Dave/Generated/CMSIS_DSP/Source/FilteringFunctions/arm_correlate_q7.c ****     k = count;
 145              	 .loc 1 435 0
 146 009e 7B6C     	 ldr r3,[r7,#68]
 147 00a0 BB64     	 str r3,[r7,#72]
 436:../Dave/Generated/CMSIS_DSP/Source/FilteringFunctions/arm_correlate_q7.c **** 
 437:../Dave/Generated/CMSIS_DSP/Source/FilteringFunctions/arm_correlate_q7.c **** #endif /* #if defined (ARM_MATH_LOOPUNROLL) */
 438:../Dave/Generated/CMSIS_DSP/Source/FilteringFunctions/arm_correlate_q7.c **** 
 439:../Dave/Generated/CMSIS_DSP/Source/FilteringFunctions/arm_correlate_q7.c ****     while (k > 0U)
 148              	 .loc 1 439 0
 149 00a2 11E0     	 b .L5
 150              	.L6:
 440:../Dave/Generated/CMSIS_DSP/Source/FilteringFunctions/arm_correlate_q7.c ****     {
 441:../Dave/Generated/CMSIS_DSP/Source/FilteringFunctions/arm_correlate_q7.c ****       /* Perform the multiply-accumulate */
 442:../Dave/Generated/CMSIS_DSP/Source/FilteringFunctions/arm_correlate_q7.c ****       /* x[0] * y[srcBLen - 1] */
 443:../Dave/Generated/CMSIS_DSP/Source/FilteringFunctions/arm_correlate_q7.c ****       sum += (q31_t) ((q15_t) *px++ * *py++);
 151              	 .loc 1 443 0
 152 00a4 3B6E     	 ldr r3,[r7,#96]
 153 00a6 5A1C     	 adds r2,r3,#1
 154 00a8 3A66     	 str r2,[r7,#96]
 155 00aa 1B78     	 ldrb r3,[r3]
 156 00ac 5AB2     	 sxtb r2,r3
 157 00ae FB6D     	 ldr r3,[r7,#92]
 158 00b0 591C     	 adds r1,r3,#1
 159 00b2 F965     	 str r1,[r7,#92]
 160 00b4 1B78     	 ldrb r3,[r3]
 161 00b6 5BB2     	 sxtb r3,r3
 162 00b8 03FB02F3 	 mul r3,r3,r2
 163 00bc 7A6D     	 ldr r2,[r7,#84]
 164 00be 1344     	 add r3,r3,r2
 165 00c0 7B65     	 str r3,[r7,#84]
 444:../Dave/Generated/CMSIS_DSP/Source/FilteringFunctions/arm_correlate_q7.c **** 
 445:../Dave/Generated/CMSIS_DSP/Source/FilteringFunctions/arm_correlate_q7.c ****       /* Decrement loop counter */
 446:../Dave/Generated/CMSIS_DSP/Source/FilteringFunctions/arm_correlate_q7.c ****       k--;
 166              	 .loc 1 446 0
 167 00c2 BB6C     	 ldr r3,[r7,#72]
 168 00c4 013B     	 subs r3,r3,#1
 169 00c6 BB64     	 str r3,[r7,#72]
 170              	.L5:
 439:../Dave/Generated/CMSIS_DSP/Source/FilteringFunctions/arm_correlate_q7.c ****     {
 171              	 .loc 1 439 0
 172 00c8 BB6C     	 ldr r3,[r7,#72]
 173 00ca 002B     	 cmp r3,#0
 174 00cc EAD1     	 bne .L6
 175              	.LBB2:
 447:../Dave/Generated/CMSIS_DSP/Source/FilteringFunctions/arm_correlate_q7.c ****     }
 448:../Dave/Generated/CMSIS_DSP/Source/FilteringFunctions/arm_correlate_q7.c **** 
 449:../Dave/Generated/CMSIS_DSP/Source/FilteringFunctions/arm_correlate_q7.c ****     /* Store the result in the accumulator in the destination buffer. */
 450:../Dave/Generated/CMSIS_DSP/Source/FilteringFunctions/arm_correlate_q7.c ****     *pOut = (q7_t) (__SSAT(sum >> 7U, 8));
 176              	 .loc 1 450 0
 177 00ce 7B6D     	 ldr r3,[r7,#84]
 178 00d0 DB11     	 asrs r3,r3,#7
 179 00d2 FB62     	 str r3,[r7,#44]
 180 00d4 FB6A     	 ldr r3,[r7,#44]
 181              	
 182 00d6 03F30703 	 ssat r3,#8,r3
 183              	
 184              	 .thumb
 185 00da BB62     	 str r3,[r7,#40]
 186 00dc BB6A     	 ldr r3,[r7,#40]
 187              	.LBE2:
 188 00de DAB2     	 uxtb r2,r3
 189 00e0 7B6E     	 ldr r3,[r7,#100]
 190 00e2 1A70     	 strb r2,[r3]
 451:../Dave/Generated/CMSIS_DSP/Source/FilteringFunctions/arm_correlate_q7.c ****     /* Destination pointer is updated according to the address modifier, inc */
 452:../Dave/Generated/CMSIS_DSP/Source/FilteringFunctions/arm_correlate_q7.c ****     pOut += inc;
 191              	 .loc 1 452 0
 192 00e4 FB6B     	 ldr r3,[r7,#60]
 193 00e6 7A6E     	 ldr r2,[r7,#100]
 194 00e8 1344     	 add r3,r3,r2
 195 00ea 7B66     	 str r3,[r7,#100]
 453:../Dave/Generated/CMSIS_DSP/Source/FilteringFunctions/arm_correlate_q7.c **** 
 454:../Dave/Generated/CMSIS_DSP/Source/FilteringFunctions/arm_correlate_q7.c ****     /* Update the inputA and inputB pointers for next MAC calculation */
 455:../Dave/Generated/CMSIS_DSP/Source/FilteringFunctions/arm_correlate_q7.c ****     py = pSrc1 - count;
 196              	 .loc 1 455 0
 197 00ec 7B6C     	 ldr r3,[r7,#68]
 198 00ee 5B42     	 negs r3,r3
 199 00f0 BA6D     	 ldr r2,[r7,#88]
 200 00f2 1344     	 add r3,r3,r2
 201 00f4 FB65     	 str r3,[r7,#92]
 456:../Dave/Generated/CMSIS_DSP/Source/FilteringFunctions/arm_correlate_q7.c ****     px = pIn1;
 202              	 .loc 1 456 0
 203 00f6 FB6E     	 ldr r3,[r7,#108]
 204 00f8 3B66     	 str r3,[r7,#96]
 457:../Dave/Generated/CMSIS_DSP/Source/FilteringFunctions/arm_correlate_q7.c **** 
 458:../Dave/Generated/CMSIS_DSP/Source/FilteringFunctions/arm_correlate_q7.c ****     /* Increment MAC count */
 459:../Dave/Generated/CMSIS_DSP/Source/FilteringFunctions/arm_correlate_q7.c ****     count++;
 205              	 .loc 1 459 0
 206 00fa 7B6C     	 ldr r3,[r7,#68]
 207 00fc 0133     	 adds r3,r3,#1
 208 00fe 7B64     	 str r3,[r7,#68]
 460:../Dave/Generated/CMSIS_DSP/Source/FilteringFunctions/arm_correlate_q7.c **** 
 461:../Dave/Generated/CMSIS_DSP/Source/FilteringFunctions/arm_correlate_q7.c ****     /* Decrement loop counter */
 462:../Dave/Generated/CMSIS_DSP/Source/FilteringFunctions/arm_correlate_q7.c ****     blockSize1--;
 209              	 .loc 1 462 0
 210 0100 3B6D     	 ldr r3,[r7,#80]
 211 0102 013B     	 subs r3,r3,#1
 212 0104 3B65     	 str r3,[r7,#80]
 213              	.L4:
 385:../Dave/Generated/CMSIS_DSP/Source/FilteringFunctions/arm_correlate_q7.c ****   {
 214              	 .loc 1 385 0
 215 0106 3B6D     	 ldr r3,[r7,#80]
 216 0108 002B     	 cmp r3,#0
 217 010a C6D1     	 bne .L7
 463:../Dave/Generated/CMSIS_DSP/Source/FilteringFunctions/arm_correlate_q7.c ****   }
 464:../Dave/Generated/CMSIS_DSP/Source/FilteringFunctions/arm_correlate_q7.c **** 
 465:../Dave/Generated/CMSIS_DSP/Source/FilteringFunctions/arm_correlate_q7.c ****   /* --------------------------
 466:../Dave/Generated/CMSIS_DSP/Source/FilteringFunctions/arm_correlate_q7.c ****    * Initializations of stage2
 467:../Dave/Generated/CMSIS_DSP/Source/FilteringFunctions/arm_correlate_q7.c ****    * ------------------------*/
 468:../Dave/Generated/CMSIS_DSP/Source/FilteringFunctions/arm_correlate_q7.c **** 
 469:../Dave/Generated/CMSIS_DSP/Source/FilteringFunctions/arm_correlate_q7.c ****   /* sum = x[0] * y[0] + x[1] * y[1] +...+ x[srcBLen-1] * y[srcBLen-1]
 470:../Dave/Generated/CMSIS_DSP/Source/FilteringFunctions/arm_correlate_q7.c ****    * sum = x[1] * y[0] + x[2] * y[1] +...+ x[srcBLen] * y[srcBLen-1]
 471:../Dave/Generated/CMSIS_DSP/Source/FilteringFunctions/arm_correlate_q7.c ****    * ....
 472:../Dave/Generated/CMSIS_DSP/Source/FilteringFunctions/arm_correlate_q7.c ****    * sum = x[srcALen-srcBLen-2] * y[0] + x[srcALen-srcBLen-1] * y[1] +...+ x[srcALen-1] * y[srcBLen
 473:../Dave/Generated/CMSIS_DSP/Source/FilteringFunctions/arm_correlate_q7.c ****    */
 474:../Dave/Generated/CMSIS_DSP/Source/FilteringFunctions/arm_correlate_q7.c **** 
 475:../Dave/Generated/CMSIS_DSP/Source/FilteringFunctions/arm_correlate_q7.c ****   /* Working pointer of inputA */
 476:../Dave/Generated/CMSIS_DSP/Source/FilteringFunctions/arm_correlate_q7.c ****   px = pIn1;
 218              	 .loc 1 476 0
 219 010c FB6E     	 ldr r3,[r7,#108]
 220 010e 3B66     	 str r3,[r7,#96]
 477:../Dave/Generated/CMSIS_DSP/Source/FilteringFunctions/arm_correlate_q7.c **** 
 478:../Dave/Generated/CMSIS_DSP/Source/FilteringFunctions/arm_correlate_q7.c ****   /* Working pointer of inputB */
 479:../Dave/Generated/CMSIS_DSP/Source/FilteringFunctions/arm_correlate_q7.c ****   py = pIn2;
 221              	 .loc 1 479 0
 222 0110 BB6E     	 ldr r3,[r7,#104]
 223 0112 FB65     	 str r3,[r7,#92]
 480:../Dave/Generated/CMSIS_DSP/Source/FilteringFunctions/arm_correlate_q7.c **** 
 481:../Dave/Generated/CMSIS_DSP/Source/FilteringFunctions/arm_correlate_q7.c ****   /* count is index by which the pointer pIn1 to be incremented */
 482:../Dave/Generated/CMSIS_DSP/Source/FilteringFunctions/arm_correlate_q7.c ****   count = 0U;
 224              	 .loc 1 482 0
 225 0114 0023     	 movs r3,#0
 226 0116 7B64     	 str r3,[r7,#68]
 483:../Dave/Generated/CMSIS_DSP/Source/FilteringFunctions/arm_correlate_q7.c **** 
 484:../Dave/Generated/CMSIS_DSP/Source/FilteringFunctions/arm_correlate_q7.c ****   /* -------------------
 485:../Dave/Generated/CMSIS_DSP/Source/FilteringFunctions/arm_correlate_q7.c ****    * Stage2 process
 486:../Dave/Generated/CMSIS_DSP/Source/FilteringFunctions/arm_correlate_q7.c ****    * ------------------*/
 487:../Dave/Generated/CMSIS_DSP/Source/FilteringFunctions/arm_correlate_q7.c **** 
 488:../Dave/Generated/CMSIS_DSP/Source/FilteringFunctions/arm_correlate_q7.c ****   /* Stage2 depends on srcBLen as in this stage srcBLen number of MACS are performed.
 489:../Dave/Generated/CMSIS_DSP/Source/FilteringFunctions/arm_correlate_q7.c ****    * So, to loop unroll over blockSize2,
 490:../Dave/Generated/CMSIS_DSP/Source/FilteringFunctions/arm_correlate_q7.c ****    * srcBLen should be greater than or equal to 4 */
 491:../Dave/Generated/CMSIS_DSP/Source/FilteringFunctions/arm_correlate_q7.c ****   if (srcBLen >= 4U)
 227              	 .loc 1 491 0
 228 0118 3B68     	 ldr r3,[r7]
 229 011a 032B     	 cmp r3,#3
 230 011c 3BD9     	 bls .L8
 492:../Dave/Generated/CMSIS_DSP/Source/FilteringFunctions/arm_correlate_q7.c ****   {
 493:../Dave/Generated/CMSIS_DSP/Source/FilteringFunctions/arm_correlate_q7.c **** #if defined (ARM_MATH_LOOPUNROLL)
 494:../Dave/Generated/CMSIS_DSP/Source/FilteringFunctions/arm_correlate_q7.c **** 
 495:../Dave/Generated/CMSIS_DSP/Source/FilteringFunctions/arm_correlate_q7.c ****     /* Loop unrolling: Compute 4 outputs at a time */
 496:../Dave/Generated/CMSIS_DSP/Source/FilteringFunctions/arm_correlate_q7.c ****     blkCnt = blockSize2 >> 2U;
 497:../Dave/Generated/CMSIS_DSP/Source/FilteringFunctions/arm_correlate_q7.c **** 
 498:../Dave/Generated/CMSIS_DSP/Source/FilteringFunctions/arm_correlate_q7.c ****     while (blkCnt > 0U)
 499:../Dave/Generated/CMSIS_DSP/Source/FilteringFunctions/arm_correlate_q7.c ****     {
 500:../Dave/Generated/CMSIS_DSP/Source/FilteringFunctions/arm_correlate_q7.c ****       /* Set all accumulators to zero */
 501:../Dave/Generated/CMSIS_DSP/Source/FilteringFunctions/arm_correlate_q7.c ****       acc0 = 0;
 502:../Dave/Generated/CMSIS_DSP/Source/FilteringFunctions/arm_correlate_q7.c ****       acc1 = 0;
 503:../Dave/Generated/CMSIS_DSP/Source/FilteringFunctions/arm_correlate_q7.c ****       acc2 = 0;
 504:../Dave/Generated/CMSIS_DSP/Source/FilteringFunctions/arm_correlate_q7.c ****       acc3 = 0;
 505:../Dave/Generated/CMSIS_DSP/Source/FilteringFunctions/arm_correlate_q7.c **** 
 506:../Dave/Generated/CMSIS_DSP/Source/FilteringFunctions/arm_correlate_q7.c ****       /* read x[0], x[1], x[2] samples */
 507:../Dave/Generated/CMSIS_DSP/Source/FilteringFunctions/arm_correlate_q7.c ****       x0 = *px++;
 508:../Dave/Generated/CMSIS_DSP/Source/FilteringFunctions/arm_correlate_q7.c ****       x1 = *px++;
 509:../Dave/Generated/CMSIS_DSP/Source/FilteringFunctions/arm_correlate_q7.c ****       x2 = *px++;
 510:../Dave/Generated/CMSIS_DSP/Source/FilteringFunctions/arm_correlate_q7.c **** 
 511:../Dave/Generated/CMSIS_DSP/Source/FilteringFunctions/arm_correlate_q7.c ****       /* Apply loop unrolling and compute 4 MACs simultaneously. */
 512:../Dave/Generated/CMSIS_DSP/Source/FilteringFunctions/arm_correlate_q7.c ****       k = srcBLen >> 2U;
 513:../Dave/Generated/CMSIS_DSP/Source/FilteringFunctions/arm_correlate_q7.c **** 
 514:../Dave/Generated/CMSIS_DSP/Source/FilteringFunctions/arm_correlate_q7.c ****       /* First part of the processing with loop unrolling.  Compute 4 MACs at a time.
 515:../Dave/Generated/CMSIS_DSP/Source/FilteringFunctions/arm_correlate_q7.c ****        ** a second loop below computes MACs for the remaining 1 to 3 samples. */
 516:../Dave/Generated/CMSIS_DSP/Source/FilteringFunctions/arm_correlate_q7.c ****       do
 517:../Dave/Generated/CMSIS_DSP/Source/FilteringFunctions/arm_correlate_q7.c ****       {
 518:../Dave/Generated/CMSIS_DSP/Source/FilteringFunctions/arm_correlate_q7.c ****         /* Read y[0] sample */
 519:../Dave/Generated/CMSIS_DSP/Source/FilteringFunctions/arm_correlate_q7.c ****         c0 = *py++;
 520:../Dave/Generated/CMSIS_DSP/Source/FilteringFunctions/arm_correlate_q7.c ****         /* Read y[1] sample */
 521:../Dave/Generated/CMSIS_DSP/Source/FilteringFunctions/arm_correlate_q7.c ****         c1 = *py++;
 522:../Dave/Generated/CMSIS_DSP/Source/FilteringFunctions/arm_correlate_q7.c **** 
 523:../Dave/Generated/CMSIS_DSP/Source/FilteringFunctions/arm_correlate_q7.c ****         /* Read x[3] sample */
 524:../Dave/Generated/CMSIS_DSP/Source/FilteringFunctions/arm_correlate_q7.c ****         x3 = *px++;
 525:../Dave/Generated/CMSIS_DSP/Source/FilteringFunctions/arm_correlate_q7.c **** 
 526:../Dave/Generated/CMSIS_DSP/Source/FilteringFunctions/arm_correlate_q7.c ****         /* x[0] and x[1] are packed */
 527:../Dave/Generated/CMSIS_DSP/Source/FilteringFunctions/arm_correlate_q7.c ****         in1 = (q15_t) x0;
 528:../Dave/Generated/CMSIS_DSP/Source/FilteringFunctions/arm_correlate_q7.c ****         in2 = (q15_t) x1;
 529:../Dave/Generated/CMSIS_DSP/Source/FilteringFunctions/arm_correlate_q7.c **** 
 530:../Dave/Generated/CMSIS_DSP/Source/FilteringFunctions/arm_correlate_q7.c ****         input1 = ((q31_t) in1 & 0x0000FFFF) | ((q31_t) in2 << 16U);
 531:../Dave/Generated/CMSIS_DSP/Source/FilteringFunctions/arm_correlate_q7.c **** 
 532:../Dave/Generated/CMSIS_DSP/Source/FilteringFunctions/arm_correlate_q7.c ****         /* y[0] and y[1] are packed */
 533:../Dave/Generated/CMSIS_DSP/Source/FilteringFunctions/arm_correlate_q7.c ****         in1 = (q15_t) c0;
 534:../Dave/Generated/CMSIS_DSP/Source/FilteringFunctions/arm_correlate_q7.c ****         in2 = (q15_t) c1;
 535:../Dave/Generated/CMSIS_DSP/Source/FilteringFunctions/arm_correlate_q7.c **** 
 536:../Dave/Generated/CMSIS_DSP/Source/FilteringFunctions/arm_correlate_q7.c ****         input2 = ((q31_t) in1 & 0x0000FFFF) | ((q31_t) in2 << 16U);
 537:../Dave/Generated/CMSIS_DSP/Source/FilteringFunctions/arm_correlate_q7.c **** 
 538:../Dave/Generated/CMSIS_DSP/Source/FilteringFunctions/arm_correlate_q7.c ****         /* acc0 += x[0] * y[0] + x[1] * y[1]  */
 539:../Dave/Generated/CMSIS_DSP/Source/FilteringFunctions/arm_correlate_q7.c ****         acc0 = __SMLAD(input1, input2, acc0);
 540:../Dave/Generated/CMSIS_DSP/Source/FilteringFunctions/arm_correlate_q7.c **** 
 541:../Dave/Generated/CMSIS_DSP/Source/FilteringFunctions/arm_correlate_q7.c ****         /* x[1] and x[2] are packed */
 542:../Dave/Generated/CMSIS_DSP/Source/FilteringFunctions/arm_correlate_q7.c ****         in1 = (q15_t) x1;
 543:../Dave/Generated/CMSIS_DSP/Source/FilteringFunctions/arm_correlate_q7.c ****         in2 = (q15_t) x2;
 544:../Dave/Generated/CMSIS_DSP/Source/FilteringFunctions/arm_correlate_q7.c **** 
 545:../Dave/Generated/CMSIS_DSP/Source/FilteringFunctions/arm_correlate_q7.c ****         input1 = ((q31_t) in1 & 0x0000FFFF) | ((q31_t) in2 << 16U);
 546:../Dave/Generated/CMSIS_DSP/Source/FilteringFunctions/arm_correlate_q7.c **** 
 547:../Dave/Generated/CMSIS_DSP/Source/FilteringFunctions/arm_correlate_q7.c ****         /* acc1 += x[1] * y[0] + x[2] * y[1] */
 548:../Dave/Generated/CMSIS_DSP/Source/FilteringFunctions/arm_correlate_q7.c ****         acc1 = __SMLAD(input1, input2, acc1);
 549:../Dave/Generated/CMSIS_DSP/Source/FilteringFunctions/arm_correlate_q7.c **** 
 550:../Dave/Generated/CMSIS_DSP/Source/FilteringFunctions/arm_correlate_q7.c ****         /* x[2] and x[3] are packed */
 551:../Dave/Generated/CMSIS_DSP/Source/FilteringFunctions/arm_correlate_q7.c ****         in1 = (q15_t) x2;
 552:../Dave/Generated/CMSIS_DSP/Source/FilteringFunctions/arm_correlate_q7.c ****         in2 = (q15_t) x3;
 553:../Dave/Generated/CMSIS_DSP/Source/FilteringFunctions/arm_correlate_q7.c **** 
 554:../Dave/Generated/CMSIS_DSP/Source/FilteringFunctions/arm_correlate_q7.c ****         input1 = ((q31_t) in1 & 0x0000FFFF) | ((q31_t) in2 << 16U);
 555:../Dave/Generated/CMSIS_DSP/Source/FilteringFunctions/arm_correlate_q7.c **** 
 556:../Dave/Generated/CMSIS_DSP/Source/FilteringFunctions/arm_correlate_q7.c ****         /* acc2 += x[2] * y[0] + x[3] * y[1]  */
 557:../Dave/Generated/CMSIS_DSP/Source/FilteringFunctions/arm_correlate_q7.c ****         acc2 = __SMLAD(input1, input2, acc2);
 558:../Dave/Generated/CMSIS_DSP/Source/FilteringFunctions/arm_correlate_q7.c **** 
 559:../Dave/Generated/CMSIS_DSP/Source/FilteringFunctions/arm_correlate_q7.c ****         /* Read x[4] sample */
 560:../Dave/Generated/CMSIS_DSP/Source/FilteringFunctions/arm_correlate_q7.c ****         x0 = *px++;
 561:../Dave/Generated/CMSIS_DSP/Source/FilteringFunctions/arm_correlate_q7.c **** 
 562:../Dave/Generated/CMSIS_DSP/Source/FilteringFunctions/arm_correlate_q7.c ****         /* x[3] and x[4] are packed */
 563:../Dave/Generated/CMSIS_DSP/Source/FilteringFunctions/arm_correlate_q7.c ****         in1 = (q15_t) x3;
 564:../Dave/Generated/CMSIS_DSP/Source/FilteringFunctions/arm_correlate_q7.c ****         in2 = (q15_t) x0;
 565:../Dave/Generated/CMSIS_DSP/Source/FilteringFunctions/arm_correlate_q7.c **** 
 566:../Dave/Generated/CMSIS_DSP/Source/FilteringFunctions/arm_correlate_q7.c ****         input1 = ((q31_t) in1 & 0x0000FFFF) | ((q31_t) in2 << 16U);
 567:../Dave/Generated/CMSIS_DSP/Source/FilteringFunctions/arm_correlate_q7.c **** 
 568:../Dave/Generated/CMSIS_DSP/Source/FilteringFunctions/arm_correlate_q7.c ****         /* acc3 += x[3] * y[0] + x[4] * y[1]  */
 569:../Dave/Generated/CMSIS_DSP/Source/FilteringFunctions/arm_correlate_q7.c ****         acc3 = __SMLAD(input1, input2, acc3);
 570:../Dave/Generated/CMSIS_DSP/Source/FilteringFunctions/arm_correlate_q7.c **** 
 571:../Dave/Generated/CMSIS_DSP/Source/FilteringFunctions/arm_correlate_q7.c ****         /* Read y[2] sample */
 572:../Dave/Generated/CMSIS_DSP/Source/FilteringFunctions/arm_correlate_q7.c ****         c0 = *py++;
 573:../Dave/Generated/CMSIS_DSP/Source/FilteringFunctions/arm_correlate_q7.c ****         /* Read y[3] sample */
 574:../Dave/Generated/CMSIS_DSP/Source/FilteringFunctions/arm_correlate_q7.c ****         c1 = *py++;
 575:../Dave/Generated/CMSIS_DSP/Source/FilteringFunctions/arm_correlate_q7.c **** 
 576:../Dave/Generated/CMSIS_DSP/Source/FilteringFunctions/arm_correlate_q7.c ****         /* Read x[5] sample */
 577:../Dave/Generated/CMSIS_DSP/Source/FilteringFunctions/arm_correlate_q7.c ****         x1 = *px++;
 578:../Dave/Generated/CMSIS_DSP/Source/FilteringFunctions/arm_correlate_q7.c **** 
 579:../Dave/Generated/CMSIS_DSP/Source/FilteringFunctions/arm_correlate_q7.c ****         /* x[2] and x[3] are packed */
 580:../Dave/Generated/CMSIS_DSP/Source/FilteringFunctions/arm_correlate_q7.c ****         in1 = (q15_t) x2;
 581:../Dave/Generated/CMSIS_DSP/Source/FilteringFunctions/arm_correlate_q7.c ****         in2 = (q15_t) x3;
 582:../Dave/Generated/CMSIS_DSP/Source/FilteringFunctions/arm_correlate_q7.c **** 
 583:../Dave/Generated/CMSIS_DSP/Source/FilteringFunctions/arm_correlate_q7.c ****         input1 = ((q31_t) in1 & 0x0000FFFF) | ((q31_t) in2 << 16U);
 584:../Dave/Generated/CMSIS_DSP/Source/FilteringFunctions/arm_correlate_q7.c **** 
 585:../Dave/Generated/CMSIS_DSP/Source/FilteringFunctions/arm_correlate_q7.c ****         /* y[2] and y[3] are packed */
 586:../Dave/Generated/CMSIS_DSP/Source/FilteringFunctions/arm_correlate_q7.c ****         in1 = (q15_t) c0;
 587:../Dave/Generated/CMSIS_DSP/Source/FilteringFunctions/arm_correlate_q7.c ****         in2 = (q15_t) c1;
 588:../Dave/Generated/CMSIS_DSP/Source/FilteringFunctions/arm_correlate_q7.c **** 
 589:../Dave/Generated/CMSIS_DSP/Source/FilteringFunctions/arm_correlate_q7.c ****         input2 = ((q31_t) in1 & 0x0000FFFF) | ((q31_t) in2 << 16U);
 590:../Dave/Generated/CMSIS_DSP/Source/FilteringFunctions/arm_correlate_q7.c **** 
 591:../Dave/Generated/CMSIS_DSP/Source/FilteringFunctions/arm_correlate_q7.c ****         /* acc0 += x[2] * y[2] + x[3] * y[3]  */
 592:../Dave/Generated/CMSIS_DSP/Source/FilteringFunctions/arm_correlate_q7.c ****         acc0 = __SMLAD(input1, input2, acc0);
 593:../Dave/Generated/CMSIS_DSP/Source/FilteringFunctions/arm_correlate_q7.c **** 
 594:../Dave/Generated/CMSIS_DSP/Source/FilteringFunctions/arm_correlate_q7.c ****         /* x[3] and x[4] are packed */
 595:../Dave/Generated/CMSIS_DSP/Source/FilteringFunctions/arm_correlate_q7.c ****         in1 = (q15_t) x3;
 596:../Dave/Generated/CMSIS_DSP/Source/FilteringFunctions/arm_correlate_q7.c ****         in2 = (q15_t) x0;
 597:../Dave/Generated/CMSIS_DSP/Source/FilteringFunctions/arm_correlate_q7.c **** 
 598:../Dave/Generated/CMSIS_DSP/Source/FilteringFunctions/arm_correlate_q7.c ****         input1 = ((q31_t) in1 & 0x0000FFFF) | ((q31_t) in2 << 16U);
 599:../Dave/Generated/CMSIS_DSP/Source/FilteringFunctions/arm_correlate_q7.c **** 
 600:../Dave/Generated/CMSIS_DSP/Source/FilteringFunctions/arm_correlate_q7.c ****         /* acc1 += x[3] * y[2] + x[4] * y[3]  */
 601:../Dave/Generated/CMSIS_DSP/Source/FilteringFunctions/arm_correlate_q7.c ****         acc1 = __SMLAD(input1, input2, acc1);
 602:../Dave/Generated/CMSIS_DSP/Source/FilteringFunctions/arm_correlate_q7.c **** 
 603:../Dave/Generated/CMSIS_DSP/Source/FilteringFunctions/arm_correlate_q7.c ****         /* x[4] and x[5] are packed */
 604:../Dave/Generated/CMSIS_DSP/Source/FilteringFunctions/arm_correlate_q7.c ****         in1 = (q15_t) x0;
 605:../Dave/Generated/CMSIS_DSP/Source/FilteringFunctions/arm_correlate_q7.c ****         in2 = (q15_t) x1;
 606:../Dave/Generated/CMSIS_DSP/Source/FilteringFunctions/arm_correlate_q7.c **** 
 607:../Dave/Generated/CMSIS_DSP/Source/FilteringFunctions/arm_correlate_q7.c ****         input1 = ((q31_t) in1 & 0x0000FFFF) | ((q31_t) in2 << 16U);
 608:../Dave/Generated/CMSIS_DSP/Source/FilteringFunctions/arm_correlate_q7.c **** 
 609:../Dave/Generated/CMSIS_DSP/Source/FilteringFunctions/arm_correlate_q7.c ****         /* acc2 += x[4] * y[2] + x[5] * y[3]  */
 610:../Dave/Generated/CMSIS_DSP/Source/FilteringFunctions/arm_correlate_q7.c ****         acc2 = __SMLAD(input1, input2, acc2);
 611:../Dave/Generated/CMSIS_DSP/Source/FilteringFunctions/arm_correlate_q7.c **** 
 612:../Dave/Generated/CMSIS_DSP/Source/FilteringFunctions/arm_correlate_q7.c ****         /* Read x[6] sample */
 613:../Dave/Generated/CMSIS_DSP/Source/FilteringFunctions/arm_correlate_q7.c ****         x2 = *px++;
 614:../Dave/Generated/CMSIS_DSP/Source/FilteringFunctions/arm_correlate_q7.c **** 
 615:../Dave/Generated/CMSIS_DSP/Source/FilteringFunctions/arm_correlate_q7.c ****         /* x[5] and x[6] are packed */
 616:../Dave/Generated/CMSIS_DSP/Source/FilteringFunctions/arm_correlate_q7.c ****         in1 = (q15_t) x1;
 617:../Dave/Generated/CMSIS_DSP/Source/FilteringFunctions/arm_correlate_q7.c ****         in2 = (q15_t) x2;
 618:../Dave/Generated/CMSIS_DSP/Source/FilteringFunctions/arm_correlate_q7.c **** 
 619:../Dave/Generated/CMSIS_DSP/Source/FilteringFunctions/arm_correlate_q7.c ****         input1 = ((q31_t) in1 & 0x0000FFFF) | ((q31_t) in2 << 16U);
 620:../Dave/Generated/CMSIS_DSP/Source/FilteringFunctions/arm_correlate_q7.c **** 
 621:../Dave/Generated/CMSIS_DSP/Source/FilteringFunctions/arm_correlate_q7.c ****         /* acc3 += x[5] * y[2] + x[6] * y[3]  */
 622:../Dave/Generated/CMSIS_DSP/Source/FilteringFunctions/arm_correlate_q7.c ****         acc3 = __SMLAD(input1, input2, acc3);
 623:../Dave/Generated/CMSIS_DSP/Source/FilteringFunctions/arm_correlate_q7.c **** 
 624:../Dave/Generated/CMSIS_DSP/Source/FilteringFunctions/arm_correlate_q7.c ****       } while (--k);
 625:../Dave/Generated/CMSIS_DSP/Source/FilteringFunctions/arm_correlate_q7.c **** 
 626:../Dave/Generated/CMSIS_DSP/Source/FilteringFunctions/arm_correlate_q7.c ****       /* If the srcBLen is not a multiple of 4, compute any remaining MACs here.
 627:../Dave/Generated/CMSIS_DSP/Source/FilteringFunctions/arm_correlate_q7.c ****        ** No loop unrolling is used. */
 628:../Dave/Generated/CMSIS_DSP/Source/FilteringFunctions/arm_correlate_q7.c ****       k = srcBLen % 0x4U;
 629:../Dave/Generated/CMSIS_DSP/Source/FilteringFunctions/arm_correlate_q7.c **** 
 630:../Dave/Generated/CMSIS_DSP/Source/FilteringFunctions/arm_correlate_q7.c ****       while (k > 0U)
 631:../Dave/Generated/CMSIS_DSP/Source/FilteringFunctions/arm_correlate_q7.c ****       {
 632:../Dave/Generated/CMSIS_DSP/Source/FilteringFunctions/arm_correlate_q7.c ****         /* Read y[4] sample */
 633:../Dave/Generated/CMSIS_DSP/Source/FilteringFunctions/arm_correlate_q7.c ****         c0 = *py++;
 634:../Dave/Generated/CMSIS_DSP/Source/FilteringFunctions/arm_correlate_q7.c ****         /* Read x[7] sample */
 635:../Dave/Generated/CMSIS_DSP/Source/FilteringFunctions/arm_correlate_q7.c ****         x3 = *px++;
 636:../Dave/Generated/CMSIS_DSP/Source/FilteringFunctions/arm_correlate_q7.c **** 
 637:../Dave/Generated/CMSIS_DSP/Source/FilteringFunctions/arm_correlate_q7.c ****         /* Perform the multiply-accumulates */
 638:../Dave/Generated/CMSIS_DSP/Source/FilteringFunctions/arm_correlate_q7.c ****         /* acc0 +=  x[4] * y[4] */
 639:../Dave/Generated/CMSIS_DSP/Source/FilteringFunctions/arm_correlate_q7.c ****         acc0 += ((q15_t) x0 * c0);
 640:../Dave/Generated/CMSIS_DSP/Source/FilteringFunctions/arm_correlate_q7.c ****         /* acc1 +=  x[5] * y[4] */
 641:../Dave/Generated/CMSIS_DSP/Source/FilteringFunctions/arm_correlate_q7.c ****         acc1 += ((q15_t) x1 * c0);
 642:../Dave/Generated/CMSIS_DSP/Source/FilteringFunctions/arm_correlate_q7.c ****         /* acc2 +=  x[6] * y[4] */
 643:../Dave/Generated/CMSIS_DSP/Source/FilteringFunctions/arm_correlate_q7.c ****         acc2 += ((q15_t) x2 * c0);
 644:../Dave/Generated/CMSIS_DSP/Source/FilteringFunctions/arm_correlate_q7.c ****         /* acc3 +=  x[7] * y[4] */
 645:../Dave/Generated/CMSIS_DSP/Source/FilteringFunctions/arm_correlate_q7.c ****         acc3 += ((q15_t) x3 * c0);
 646:../Dave/Generated/CMSIS_DSP/Source/FilteringFunctions/arm_correlate_q7.c **** 
 647:../Dave/Generated/CMSIS_DSP/Source/FilteringFunctions/arm_correlate_q7.c ****         /* Reuse the present samples for the next MAC */
 648:../Dave/Generated/CMSIS_DSP/Source/FilteringFunctions/arm_correlate_q7.c ****         x0 = x1;
 649:../Dave/Generated/CMSIS_DSP/Source/FilteringFunctions/arm_correlate_q7.c ****         x1 = x2;
 650:../Dave/Generated/CMSIS_DSP/Source/FilteringFunctions/arm_correlate_q7.c ****         x2 = x3;
 651:../Dave/Generated/CMSIS_DSP/Source/FilteringFunctions/arm_correlate_q7.c **** 
 652:../Dave/Generated/CMSIS_DSP/Source/FilteringFunctions/arm_correlate_q7.c ****         /* Decrement loop counter */
 653:../Dave/Generated/CMSIS_DSP/Source/FilteringFunctions/arm_correlate_q7.c ****         k--;
 654:../Dave/Generated/CMSIS_DSP/Source/FilteringFunctions/arm_correlate_q7.c ****       }
 655:../Dave/Generated/CMSIS_DSP/Source/FilteringFunctions/arm_correlate_q7.c **** 
 656:../Dave/Generated/CMSIS_DSP/Source/FilteringFunctions/arm_correlate_q7.c ****       /* Store the result in the accumulator in the destination buffer. */
 657:../Dave/Generated/CMSIS_DSP/Source/FilteringFunctions/arm_correlate_q7.c ****       *pOut = (q7_t) (__SSAT(acc0 >> 7, 8));
 658:../Dave/Generated/CMSIS_DSP/Source/FilteringFunctions/arm_correlate_q7.c ****       /* Destination pointer is updated according to the address modifier, inc */
 659:../Dave/Generated/CMSIS_DSP/Source/FilteringFunctions/arm_correlate_q7.c ****       pOut += inc;
 660:../Dave/Generated/CMSIS_DSP/Source/FilteringFunctions/arm_correlate_q7.c **** 
 661:../Dave/Generated/CMSIS_DSP/Source/FilteringFunctions/arm_correlate_q7.c ****       *pOut = (q7_t) (__SSAT(acc1 >> 7, 8));
 662:../Dave/Generated/CMSIS_DSP/Source/FilteringFunctions/arm_correlate_q7.c ****       pOut += inc;
 663:../Dave/Generated/CMSIS_DSP/Source/FilteringFunctions/arm_correlate_q7.c **** 
 664:../Dave/Generated/CMSIS_DSP/Source/FilteringFunctions/arm_correlate_q7.c ****       *pOut = (q7_t) (__SSAT(acc2 >> 7, 8));
 665:../Dave/Generated/CMSIS_DSP/Source/FilteringFunctions/arm_correlate_q7.c ****       pOut += inc;
 666:../Dave/Generated/CMSIS_DSP/Source/FilteringFunctions/arm_correlate_q7.c **** 
 667:../Dave/Generated/CMSIS_DSP/Source/FilteringFunctions/arm_correlate_q7.c ****       *pOut = (q7_t) (__SSAT(acc3 >> 7, 8));
 668:../Dave/Generated/CMSIS_DSP/Source/FilteringFunctions/arm_correlate_q7.c ****       pOut += inc;
 669:../Dave/Generated/CMSIS_DSP/Source/FilteringFunctions/arm_correlate_q7.c **** 
 670:../Dave/Generated/CMSIS_DSP/Source/FilteringFunctions/arm_correlate_q7.c **** 	  count += 4U;
 671:../Dave/Generated/CMSIS_DSP/Source/FilteringFunctions/arm_correlate_q7.c ****       /* Update the inputA and inputB pointers for next MAC calculation */
 672:../Dave/Generated/CMSIS_DSP/Source/FilteringFunctions/arm_correlate_q7.c ****       px = pIn1 + count;
 673:../Dave/Generated/CMSIS_DSP/Source/FilteringFunctions/arm_correlate_q7.c ****       py = pIn2;
 674:../Dave/Generated/CMSIS_DSP/Source/FilteringFunctions/arm_correlate_q7.c **** 
 675:../Dave/Generated/CMSIS_DSP/Source/FilteringFunctions/arm_correlate_q7.c ****       /* Decrement loop counter */
 676:../Dave/Generated/CMSIS_DSP/Source/FilteringFunctions/arm_correlate_q7.c ****       blkCnt--;
 677:../Dave/Generated/CMSIS_DSP/Source/FilteringFunctions/arm_correlate_q7.c ****     }
 678:../Dave/Generated/CMSIS_DSP/Source/FilteringFunctions/arm_correlate_q7.c **** 
 679:../Dave/Generated/CMSIS_DSP/Source/FilteringFunctions/arm_correlate_q7.c ****     /* Loop unrolling: Compute remaining outputs */
 680:../Dave/Generated/CMSIS_DSP/Source/FilteringFunctions/arm_correlate_q7.c ****     blkCnt = blockSize2 % 0x4U;
 681:../Dave/Generated/CMSIS_DSP/Source/FilteringFunctions/arm_correlate_q7.c **** 
 682:../Dave/Generated/CMSIS_DSP/Source/FilteringFunctions/arm_correlate_q7.c **** #else
 683:../Dave/Generated/CMSIS_DSP/Source/FilteringFunctions/arm_correlate_q7.c **** 
 684:../Dave/Generated/CMSIS_DSP/Source/FilteringFunctions/arm_correlate_q7.c ****     /* Initialize blkCnt with number of samples */
 685:../Dave/Generated/CMSIS_DSP/Source/FilteringFunctions/arm_correlate_q7.c ****     blkCnt = blockSize2;
 231              	 .loc 1 685 0
 232 011e 3B6B     	 ldr r3,[r7,#48]
 233 0120 3B64     	 str r3,[r7,#64]
 686:../Dave/Generated/CMSIS_DSP/Source/FilteringFunctions/arm_correlate_q7.c **** 
 687:../Dave/Generated/CMSIS_DSP/Source/FilteringFunctions/arm_correlate_q7.c **** #endif /* #if defined (ARM_MATH_LOOPUNROLL) */
 688:../Dave/Generated/CMSIS_DSP/Source/FilteringFunctions/arm_correlate_q7.c **** 
 689:../Dave/Generated/CMSIS_DSP/Source/FilteringFunctions/arm_correlate_q7.c ****     while (blkCnt > 0U)
 234              	 .loc 1 689 0
 235 0122 34E0     	 b .L9
 236              	.L12:
 690:../Dave/Generated/CMSIS_DSP/Source/FilteringFunctions/arm_correlate_q7.c ****     {
 691:../Dave/Generated/CMSIS_DSP/Source/FilteringFunctions/arm_correlate_q7.c ****       /* Accumulator is made zero for every iteration */
 692:../Dave/Generated/CMSIS_DSP/Source/FilteringFunctions/arm_correlate_q7.c ****       sum = 0;
 237              	 .loc 1 692 0
 238 0124 0023     	 movs r3,#0
 239 0126 7B65     	 str r3,[r7,#84]
 693:../Dave/Generated/CMSIS_DSP/Source/FilteringFunctions/arm_correlate_q7.c **** 
 694:../Dave/Generated/CMSIS_DSP/Source/FilteringFunctions/arm_correlate_q7.c **** #if defined (ARM_MATH_LOOPUNROLL)
 695:../Dave/Generated/CMSIS_DSP/Source/FilteringFunctions/arm_correlate_q7.c **** 
 696:../Dave/Generated/CMSIS_DSP/Source/FilteringFunctions/arm_correlate_q7.c ****     /* Loop unrolling: Compute 4 outputs at a time */
 697:../Dave/Generated/CMSIS_DSP/Source/FilteringFunctions/arm_correlate_q7.c ****       k = srcBLen >> 2U;
 698:../Dave/Generated/CMSIS_DSP/Source/FilteringFunctions/arm_correlate_q7.c **** 
 699:../Dave/Generated/CMSIS_DSP/Source/FilteringFunctions/arm_correlate_q7.c ****       while (k > 0U)
 700:../Dave/Generated/CMSIS_DSP/Source/FilteringFunctions/arm_correlate_q7.c ****       {
 701:../Dave/Generated/CMSIS_DSP/Source/FilteringFunctions/arm_correlate_q7.c **** 
 702:../Dave/Generated/CMSIS_DSP/Source/FilteringFunctions/arm_correlate_q7.c ****         /* Reading two inputs of SrcA buffer and packing */
 703:../Dave/Generated/CMSIS_DSP/Source/FilteringFunctions/arm_correlate_q7.c ****         in1 = (q15_t) *px++;
 704:../Dave/Generated/CMSIS_DSP/Source/FilteringFunctions/arm_correlate_q7.c ****         in2 = (q15_t) *px++;
 705:../Dave/Generated/CMSIS_DSP/Source/FilteringFunctions/arm_correlate_q7.c ****         input1 = ((q31_t) in1 & 0x0000FFFF) | ((q31_t) in2 << 16U);
 706:../Dave/Generated/CMSIS_DSP/Source/FilteringFunctions/arm_correlate_q7.c **** 
 707:../Dave/Generated/CMSIS_DSP/Source/FilteringFunctions/arm_correlate_q7.c ****         /* Reading two inputs of SrcB buffer and packing */
 708:../Dave/Generated/CMSIS_DSP/Source/FilteringFunctions/arm_correlate_q7.c ****         in1 = (q15_t) *py++;
 709:../Dave/Generated/CMSIS_DSP/Source/FilteringFunctions/arm_correlate_q7.c ****         in2 = (q15_t) *py++;
 710:../Dave/Generated/CMSIS_DSP/Source/FilteringFunctions/arm_correlate_q7.c ****         input2 = ((q31_t) in1 & 0x0000FFFF) | ((q31_t) in2 << 16U);
 711:../Dave/Generated/CMSIS_DSP/Source/FilteringFunctions/arm_correlate_q7.c **** 
 712:../Dave/Generated/CMSIS_DSP/Source/FilteringFunctions/arm_correlate_q7.c ****         /* Perform the multiply-accumulate */
 713:../Dave/Generated/CMSIS_DSP/Source/FilteringFunctions/arm_correlate_q7.c ****         sum = __SMLAD(input1, input2, sum);
 714:../Dave/Generated/CMSIS_DSP/Source/FilteringFunctions/arm_correlate_q7.c **** 
 715:../Dave/Generated/CMSIS_DSP/Source/FilteringFunctions/arm_correlate_q7.c ****         /* Reading two inputs of SrcA buffer and packing */
 716:../Dave/Generated/CMSIS_DSP/Source/FilteringFunctions/arm_correlate_q7.c ****         in1 = (q15_t) *px++;
 717:../Dave/Generated/CMSIS_DSP/Source/FilteringFunctions/arm_correlate_q7.c ****         in2 = (q15_t) *px++;
 718:../Dave/Generated/CMSIS_DSP/Source/FilteringFunctions/arm_correlate_q7.c ****         input1 = ((q31_t) in1 & 0x0000FFFF) | ((q31_t) in2 << 16U);
 719:../Dave/Generated/CMSIS_DSP/Source/FilteringFunctions/arm_correlate_q7.c **** 
 720:../Dave/Generated/CMSIS_DSP/Source/FilteringFunctions/arm_correlate_q7.c ****         /* Reading two inputs of SrcB buffer and packing */
 721:../Dave/Generated/CMSIS_DSP/Source/FilteringFunctions/arm_correlate_q7.c ****         in1 = (q15_t) *py++;
 722:../Dave/Generated/CMSIS_DSP/Source/FilteringFunctions/arm_correlate_q7.c ****         in2 = (q15_t) *py++;
 723:../Dave/Generated/CMSIS_DSP/Source/FilteringFunctions/arm_correlate_q7.c ****         input2 = ((q31_t) in1 & 0x0000FFFF) | ((q31_t) in2 << 16U);
 724:../Dave/Generated/CMSIS_DSP/Source/FilteringFunctions/arm_correlate_q7.c **** 
 725:../Dave/Generated/CMSIS_DSP/Source/FilteringFunctions/arm_correlate_q7.c ****         /* Perform the multiply-accumulate */
 726:../Dave/Generated/CMSIS_DSP/Source/FilteringFunctions/arm_correlate_q7.c ****         sum = __SMLAD(input1, input2, sum);
 727:../Dave/Generated/CMSIS_DSP/Source/FilteringFunctions/arm_correlate_q7.c **** 
 728:../Dave/Generated/CMSIS_DSP/Source/FilteringFunctions/arm_correlate_q7.c ****         /* Decrement loop counter */
 729:../Dave/Generated/CMSIS_DSP/Source/FilteringFunctions/arm_correlate_q7.c ****         k--;
 730:../Dave/Generated/CMSIS_DSP/Source/FilteringFunctions/arm_correlate_q7.c ****       }
 731:../Dave/Generated/CMSIS_DSP/Source/FilteringFunctions/arm_correlate_q7.c **** 
 732:../Dave/Generated/CMSIS_DSP/Source/FilteringFunctions/arm_correlate_q7.c ****       /* Loop unrolling: Compute remaining outputs */
 733:../Dave/Generated/CMSIS_DSP/Source/FilteringFunctions/arm_correlate_q7.c ****       k = srcBLen % 0x4U;
 734:../Dave/Generated/CMSIS_DSP/Source/FilteringFunctions/arm_correlate_q7.c **** 
 735:../Dave/Generated/CMSIS_DSP/Source/FilteringFunctions/arm_correlate_q7.c **** #else
 736:../Dave/Generated/CMSIS_DSP/Source/FilteringFunctions/arm_correlate_q7.c **** 
 737:../Dave/Generated/CMSIS_DSP/Source/FilteringFunctions/arm_correlate_q7.c ****       /* Initialize blkCnt with number of samples */
 738:../Dave/Generated/CMSIS_DSP/Source/FilteringFunctions/arm_correlate_q7.c ****       k = srcBLen;
 240              	 .loc 1 738 0
 241 0128 3B68     	 ldr r3,[r7]
 242 012a BB64     	 str r3,[r7,#72]
 739:../Dave/Generated/CMSIS_DSP/Source/FilteringFunctions/arm_correlate_q7.c **** 
 740:../Dave/Generated/CMSIS_DSP/Source/FilteringFunctions/arm_correlate_q7.c **** #endif /* #if defined (ARM_MATH_LOOPUNROLL) */
 741:../Dave/Generated/CMSIS_DSP/Source/FilteringFunctions/arm_correlate_q7.c **** 
 742:../Dave/Generated/CMSIS_DSP/Source/FilteringFunctions/arm_correlate_q7.c ****       while (k > 0U)
 243              	 .loc 1 742 0
 244 012c 11E0     	 b .L10
 245              	.L11:
 743:../Dave/Generated/CMSIS_DSP/Source/FilteringFunctions/arm_correlate_q7.c ****       {
 744:../Dave/Generated/CMSIS_DSP/Source/FilteringFunctions/arm_correlate_q7.c ****         /* Perform the multiply-accumulate */
 745:../Dave/Generated/CMSIS_DSP/Source/FilteringFunctions/arm_correlate_q7.c ****         sum += ((q15_t) *px++ * *py++);
 246              	 .loc 1 745 0
 247 012e 3B6E     	 ldr r3,[r7,#96]
 248 0130 5A1C     	 adds r2,r3,#1
 249 0132 3A66     	 str r2,[r7,#96]
 250 0134 1B78     	 ldrb r3,[r3]
 251 0136 5AB2     	 sxtb r2,r3
 252 0138 FB6D     	 ldr r3,[r7,#92]
 253 013a 591C     	 adds r1,r3,#1
 254 013c F965     	 str r1,[r7,#92]
 255 013e 1B78     	 ldrb r3,[r3]
 256 0140 5BB2     	 sxtb r3,r3
 257 0142 03FB02F3 	 mul r3,r3,r2
 258 0146 7A6D     	 ldr r2,[r7,#84]
 259 0148 1344     	 add r3,r3,r2
 260 014a 7B65     	 str r3,[r7,#84]
 746:../Dave/Generated/CMSIS_DSP/Source/FilteringFunctions/arm_correlate_q7.c **** 
 747:../Dave/Generated/CMSIS_DSP/Source/FilteringFunctions/arm_correlate_q7.c ****         /* Decrement the loop counter */
 748:../Dave/Generated/CMSIS_DSP/Source/FilteringFunctions/arm_correlate_q7.c ****         k--;
 261              	 .loc 1 748 0
 262 014c BB6C     	 ldr r3,[r7,#72]
 263 014e 013B     	 subs r3,r3,#1
 264 0150 BB64     	 str r3,[r7,#72]
 265              	.L10:
 742:../Dave/Generated/CMSIS_DSP/Source/FilteringFunctions/arm_correlate_q7.c ****       {
 266              	 .loc 1 742 0
 267 0152 BB6C     	 ldr r3,[r7,#72]
 268 0154 002B     	 cmp r3,#0
 269 0156 EAD1     	 bne .L11
 270              	.LBB3:
 749:../Dave/Generated/CMSIS_DSP/Source/FilteringFunctions/arm_correlate_q7.c ****       }
 750:../Dave/Generated/CMSIS_DSP/Source/FilteringFunctions/arm_correlate_q7.c **** 
 751:../Dave/Generated/CMSIS_DSP/Source/FilteringFunctions/arm_correlate_q7.c ****       /* Store the result in the accumulator in the destination buffer. */
 752:../Dave/Generated/CMSIS_DSP/Source/FilteringFunctions/arm_correlate_q7.c ****       *pOut = (q7_t) (__SSAT(sum >> 7U, 8));
 271              	 .loc 1 752 0
 272 0158 7B6D     	 ldr r3,[r7,#84]
 273 015a DB11     	 asrs r3,r3,#7
 274 015c 7B62     	 str r3,[r7,#36]
 275 015e 7B6A     	 ldr r3,[r7,#36]
 276              	
 277 0160 03F30703 	 ssat r3,#8,r3
 278              	
 279              	 .thumb
 280 0164 3B62     	 str r3,[r7,#32]
 281 0166 3B6A     	 ldr r3,[r7,#32]
 282              	.LBE3:
 283 0168 DAB2     	 uxtb r2,r3
 284 016a 7B6E     	 ldr r3,[r7,#100]
 285 016c 1A70     	 strb r2,[r3]
 753:../Dave/Generated/CMSIS_DSP/Source/FilteringFunctions/arm_correlate_q7.c ****       /* Destination pointer is updated according to the address modifier, inc */
 754:../Dave/Generated/CMSIS_DSP/Source/FilteringFunctions/arm_correlate_q7.c ****       pOut += inc;
 286              	 .loc 1 754 0
 287 016e FB6B     	 ldr r3,[r7,#60]
 288 0170 7A6E     	 ldr r2,[r7,#100]
 289 0172 1344     	 add r3,r3,r2
 290 0174 7B66     	 str r3,[r7,#100]
 755:../Dave/Generated/CMSIS_DSP/Source/FilteringFunctions/arm_correlate_q7.c **** 
 756:../Dave/Generated/CMSIS_DSP/Source/FilteringFunctions/arm_correlate_q7.c ****       /* Increment the pointer pIn1 index, count by 1 */
 757:../Dave/Generated/CMSIS_DSP/Source/FilteringFunctions/arm_correlate_q7.c ****       count++;
 291              	 .loc 1 757 0
 292 0176 7B6C     	 ldr r3,[r7,#68]
 293 0178 0133     	 adds r3,r3,#1
 294 017a 7B64     	 str r3,[r7,#68]
 758:../Dave/Generated/CMSIS_DSP/Source/FilteringFunctions/arm_correlate_q7.c **** 
 759:../Dave/Generated/CMSIS_DSP/Source/FilteringFunctions/arm_correlate_q7.c ****       /* Update the inputA and inputB pointers for next MAC calculation */
 760:../Dave/Generated/CMSIS_DSP/Source/FilteringFunctions/arm_correlate_q7.c ****       px = pIn1 + count;
 295              	 .loc 1 760 0
 296 017c FA6E     	 ldr r2,[r7,#108]
 297 017e 7B6C     	 ldr r3,[r7,#68]
 298 0180 1344     	 add r3,r3,r2
 299 0182 3B66     	 str r3,[r7,#96]
 761:../Dave/Generated/CMSIS_DSP/Source/FilteringFunctions/arm_correlate_q7.c ****       py = pIn2;
 300              	 .loc 1 761 0
 301 0184 BB6E     	 ldr r3,[r7,#104]
 302 0186 FB65     	 str r3,[r7,#92]
 762:../Dave/Generated/CMSIS_DSP/Source/FilteringFunctions/arm_correlate_q7.c **** 
 763:../Dave/Generated/CMSIS_DSP/Source/FilteringFunctions/arm_correlate_q7.c ****       /* Decrement the loop counter */
 764:../Dave/Generated/CMSIS_DSP/Source/FilteringFunctions/arm_correlate_q7.c ****       blkCnt--;
 303              	 .loc 1 764 0
 304 0188 3B6C     	 ldr r3,[r7,#64]
 305 018a 013B     	 subs r3,r3,#1
 306 018c 3B64     	 str r3,[r7,#64]
 307              	.L9:
 689:../Dave/Generated/CMSIS_DSP/Source/FilteringFunctions/arm_correlate_q7.c ****     {
 308              	 .loc 1 689 0
 309 018e 3B6C     	 ldr r3,[r7,#64]
 310 0190 002B     	 cmp r3,#0
 311 0192 C7D1     	 bne .L12
 312 0194 3AE0     	 b .L13
 313              	.L8:
 765:../Dave/Generated/CMSIS_DSP/Source/FilteringFunctions/arm_correlate_q7.c ****     }
 766:../Dave/Generated/CMSIS_DSP/Source/FilteringFunctions/arm_correlate_q7.c ****   }
 767:../Dave/Generated/CMSIS_DSP/Source/FilteringFunctions/arm_correlate_q7.c ****   else
 768:../Dave/Generated/CMSIS_DSP/Source/FilteringFunctions/arm_correlate_q7.c ****   {
 769:../Dave/Generated/CMSIS_DSP/Source/FilteringFunctions/arm_correlate_q7.c ****     /* If the srcBLen is not a multiple of 4,
 770:../Dave/Generated/CMSIS_DSP/Source/FilteringFunctions/arm_correlate_q7.c ****      * the blockSize2 loop cannot be unrolled by 4 */
 771:../Dave/Generated/CMSIS_DSP/Source/FilteringFunctions/arm_correlate_q7.c ****     blkCnt = blockSize2;
 314              	 .loc 1 771 0
 315 0196 3B6B     	 ldr r3,[r7,#48]
 316 0198 3B64     	 str r3,[r7,#64]
 772:../Dave/Generated/CMSIS_DSP/Source/FilteringFunctions/arm_correlate_q7.c **** 
 773:../Dave/Generated/CMSIS_DSP/Source/FilteringFunctions/arm_correlate_q7.c ****     while (blkCnt > 0U)
 317              	 .loc 1 773 0
 318 019a 34E0     	 b .L14
 319              	.L17:
 774:../Dave/Generated/CMSIS_DSP/Source/FilteringFunctions/arm_correlate_q7.c ****     {
 775:../Dave/Generated/CMSIS_DSP/Source/FilteringFunctions/arm_correlate_q7.c ****       /* Accumulator is made zero for every iteration */
 776:../Dave/Generated/CMSIS_DSP/Source/FilteringFunctions/arm_correlate_q7.c ****       sum = 0;
 320              	 .loc 1 776 0
 321 019c 0023     	 movs r3,#0
 322 019e 7B65     	 str r3,[r7,#84]
 777:../Dave/Generated/CMSIS_DSP/Source/FilteringFunctions/arm_correlate_q7.c **** 
 778:../Dave/Generated/CMSIS_DSP/Source/FilteringFunctions/arm_correlate_q7.c ****       /* srcBLen number of MACS should be performed */
 779:../Dave/Generated/CMSIS_DSP/Source/FilteringFunctions/arm_correlate_q7.c ****       k = srcBLen;
 323              	 .loc 1 779 0
 324 01a0 3B68     	 ldr r3,[r7]
 325 01a2 BB64     	 str r3,[r7,#72]
 780:../Dave/Generated/CMSIS_DSP/Source/FilteringFunctions/arm_correlate_q7.c **** 
 781:../Dave/Generated/CMSIS_DSP/Source/FilteringFunctions/arm_correlate_q7.c ****       while (k > 0U)
 326              	 .loc 1 781 0
 327 01a4 11E0     	 b .L15
 328              	.L16:
 782:../Dave/Generated/CMSIS_DSP/Source/FilteringFunctions/arm_correlate_q7.c ****       {
 783:../Dave/Generated/CMSIS_DSP/Source/FilteringFunctions/arm_correlate_q7.c ****         /* Perform the multiply-accumulate */
 784:../Dave/Generated/CMSIS_DSP/Source/FilteringFunctions/arm_correlate_q7.c ****         sum += ((q15_t) *px++ * *py++);
 329              	 .loc 1 784 0
 330 01a6 3B6E     	 ldr r3,[r7,#96]
 331 01a8 5A1C     	 adds r2,r3,#1
 332 01aa 3A66     	 str r2,[r7,#96]
 333 01ac 1B78     	 ldrb r3,[r3]
 334 01ae 5AB2     	 sxtb r2,r3
 335 01b0 FB6D     	 ldr r3,[r7,#92]
 336 01b2 591C     	 adds r1,r3,#1
 337 01b4 F965     	 str r1,[r7,#92]
 338 01b6 1B78     	 ldrb r3,[r3]
 339 01b8 5BB2     	 sxtb r3,r3
 340 01ba 03FB02F3 	 mul r3,r3,r2
 341 01be 7A6D     	 ldr r2,[r7,#84]
 342 01c0 1344     	 add r3,r3,r2
 343 01c2 7B65     	 str r3,[r7,#84]
 785:../Dave/Generated/CMSIS_DSP/Source/FilteringFunctions/arm_correlate_q7.c **** 
 786:../Dave/Generated/CMSIS_DSP/Source/FilteringFunctions/arm_correlate_q7.c ****         /* Decrement the loop counter */
 787:../Dave/Generated/CMSIS_DSP/Source/FilteringFunctions/arm_correlate_q7.c ****         k--;
 344              	 .loc 1 787 0
 345 01c4 BB6C     	 ldr r3,[r7,#72]
 346 01c6 013B     	 subs r3,r3,#1
 347 01c8 BB64     	 str r3,[r7,#72]
 348              	.L15:
 781:../Dave/Generated/CMSIS_DSP/Source/FilteringFunctions/arm_correlate_q7.c ****       {
 349              	 .loc 1 781 0
 350 01ca BB6C     	 ldr r3,[r7,#72]
 351 01cc 002B     	 cmp r3,#0
 352 01ce EAD1     	 bne .L16
 353              	.LBB4:
 788:../Dave/Generated/CMSIS_DSP/Source/FilteringFunctions/arm_correlate_q7.c ****       }
 789:../Dave/Generated/CMSIS_DSP/Source/FilteringFunctions/arm_correlate_q7.c **** 
 790:../Dave/Generated/CMSIS_DSP/Source/FilteringFunctions/arm_correlate_q7.c ****       /* Store the result in the accumulator in the destination buffer. */
 791:../Dave/Generated/CMSIS_DSP/Source/FilteringFunctions/arm_correlate_q7.c ****       *pOut = (q7_t) (__SSAT(sum >> 7U, 8));
 354              	 .loc 1 791 0
 355 01d0 7B6D     	 ldr r3,[r7,#84]
 356 01d2 DB11     	 asrs r3,r3,#7
 357 01d4 FB61     	 str r3,[r7,#28]
 358 01d6 FB69     	 ldr r3,[r7,#28]
 359              	
 360 01d8 03F30703 	 ssat r3,#8,r3
 361              	
 362              	 .thumb
 363 01dc BB61     	 str r3,[r7,#24]
 364 01de BB69     	 ldr r3,[r7,#24]
 365              	.LBE4:
 366 01e0 DAB2     	 uxtb r2,r3
 367 01e2 7B6E     	 ldr r3,[r7,#100]
 368 01e4 1A70     	 strb r2,[r3]
 792:../Dave/Generated/CMSIS_DSP/Source/FilteringFunctions/arm_correlate_q7.c ****       /* Destination pointer is updated according to the address modifier, inc */
 793:../Dave/Generated/CMSIS_DSP/Source/FilteringFunctions/arm_correlate_q7.c ****       pOut += inc;
 369              	 .loc 1 793 0
 370 01e6 FB6B     	 ldr r3,[r7,#60]
 371 01e8 7A6E     	 ldr r2,[r7,#100]
 372 01ea 1344     	 add r3,r3,r2
 373 01ec 7B66     	 str r3,[r7,#100]
 794:../Dave/Generated/CMSIS_DSP/Source/FilteringFunctions/arm_correlate_q7.c **** 
 795:../Dave/Generated/CMSIS_DSP/Source/FilteringFunctions/arm_correlate_q7.c ****       /* Increment the MAC count */
 796:../Dave/Generated/CMSIS_DSP/Source/FilteringFunctions/arm_correlate_q7.c ****       count++;
 374              	 .loc 1 796 0
 375 01ee 7B6C     	 ldr r3,[r7,#68]
 376 01f0 0133     	 adds r3,r3,#1
 377 01f2 7B64     	 str r3,[r7,#68]
 797:../Dave/Generated/CMSIS_DSP/Source/FilteringFunctions/arm_correlate_q7.c **** 
 798:../Dave/Generated/CMSIS_DSP/Source/FilteringFunctions/arm_correlate_q7.c ****       /* Update the inputA and inputB pointers for next MAC calculation */
 799:../Dave/Generated/CMSIS_DSP/Source/FilteringFunctions/arm_correlate_q7.c ****       px = pIn1 + count;
 378              	 .loc 1 799 0
 379 01f4 FA6E     	 ldr r2,[r7,#108]
 380 01f6 7B6C     	 ldr r3,[r7,#68]
 381 01f8 1344     	 add r3,r3,r2
 382 01fa 3B66     	 str r3,[r7,#96]
 800:../Dave/Generated/CMSIS_DSP/Source/FilteringFunctions/arm_correlate_q7.c ****       py = pIn2;
 383              	 .loc 1 800 0
 384 01fc BB6E     	 ldr r3,[r7,#104]
 385 01fe FB65     	 str r3,[r7,#92]
 801:../Dave/Generated/CMSIS_DSP/Source/FilteringFunctions/arm_correlate_q7.c **** 
 802:../Dave/Generated/CMSIS_DSP/Source/FilteringFunctions/arm_correlate_q7.c ****       /* Decrement loop counter */
 803:../Dave/Generated/CMSIS_DSP/Source/FilteringFunctions/arm_correlate_q7.c ****       blkCnt--;
 386              	 .loc 1 803 0
 387 0200 3B6C     	 ldr r3,[r7,#64]
 388 0202 013B     	 subs r3,r3,#1
 389 0204 3B64     	 str r3,[r7,#64]
 390              	.L14:
 773:../Dave/Generated/CMSIS_DSP/Source/FilteringFunctions/arm_correlate_q7.c ****     {
 391              	 .loc 1 773 0
 392 0206 3B6C     	 ldr r3,[r7,#64]
 393 0208 002B     	 cmp r3,#0
 394 020a C7D1     	 bne .L17
 395              	.L13:
 804:../Dave/Generated/CMSIS_DSP/Source/FilteringFunctions/arm_correlate_q7.c ****     }
 805:../Dave/Generated/CMSIS_DSP/Source/FilteringFunctions/arm_correlate_q7.c ****   }
 806:../Dave/Generated/CMSIS_DSP/Source/FilteringFunctions/arm_correlate_q7.c **** 
 807:../Dave/Generated/CMSIS_DSP/Source/FilteringFunctions/arm_correlate_q7.c **** 
 808:../Dave/Generated/CMSIS_DSP/Source/FilteringFunctions/arm_correlate_q7.c ****   /* --------------------------
 809:../Dave/Generated/CMSIS_DSP/Source/FilteringFunctions/arm_correlate_q7.c ****    * Initializations of stage3
 810:../Dave/Generated/CMSIS_DSP/Source/FilteringFunctions/arm_correlate_q7.c ****    * -------------------------*/
 811:../Dave/Generated/CMSIS_DSP/Source/FilteringFunctions/arm_correlate_q7.c **** 
 812:../Dave/Generated/CMSIS_DSP/Source/FilteringFunctions/arm_correlate_q7.c ****   /* sum += x[srcALen-srcBLen+1] * y[0] + x[srcALen-srcBLen+2] * y[1] +...+ x[srcALen-1] * y[srcBLe
 813:../Dave/Generated/CMSIS_DSP/Source/FilteringFunctions/arm_correlate_q7.c ****    * sum += x[srcALen-srcBLen+2] * y[0] + x[srcALen-srcBLen+3] * y[1] +...+ x[srcALen-1] * y[srcBLe
 814:../Dave/Generated/CMSIS_DSP/Source/FilteringFunctions/arm_correlate_q7.c ****    * ....
 815:../Dave/Generated/CMSIS_DSP/Source/FilteringFunctions/arm_correlate_q7.c ****    * sum +=  x[srcALen-2] * y[0] + x[srcALen-1] * y[1]
 816:../Dave/Generated/CMSIS_DSP/Source/FilteringFunctions/arm_correlate_q7.c ****    * sum +=  x[srcALen-1] * y[0]
 817:../Dave/Generated/CMSIS_DSP/Source/FilteringFunctions/arm_correlate_q7.c ****    */
 818:../Dave/Generated/CMSIS_DSP/Source/FilteringFunctions/arm_correlate_q7.c **** 
 819:../Dave/Generated/CMSIS_DSP/Source/FilteringFunctions/arm_correlate_q7.c ****   /* In this stage the MAC operations are decreased by 1 for every iteration.
 820:../Dave/Generated/CMSIS_DSP/Source/FilteringFunctions/arm_correlate_q7.c ****      The count variable holds the number of MAC operations performed */
 821:../Dave/Generated/CMSIS_DSP/Source/FilteringFunctions/arm_correlate_q7.c ****   count = srcBLen - 1U;
 396              	 .loc 1 821 0
 397 020c 3B68     	 ldr r3,[r7]
 398 020e 013B     	 subs r3,r3,#1
 399 0210 7B64     	 str r3,[r7,#68]
 822:../Dave/Generated/CMSIS_DSP/Source/FilteringFunctions/arm_correlate_q7.c **** 
 823:../Dave/Generated/CMSIS_DSP/Source/FilteringFunctions/arm_correlate_q7.c ****   /* Working pointer of inputA */
 824:../Dave/Generated/CMSIS_DSP/Source/FilteringFunctions/arm_correlate_q7.c ****   pSrc1 = pIn1 + (srcALen - (srcBLen - 1U));
 400              	 .loc 1 824 0
 401 0212 BA68     	 ldr r2,[r7,#8]
 402 0214 3B68     	 ldr r3,[r7]
 403 0216 D31A     	 subs r3,r2,r3
 404 0218 0133     	 adds r3,r3,#1
 405 021a FA6E     	 ldr r2,[r7,#108]
 406 021c 1344     	 add r3,r3,r2
 407 021e BB65     	 str r3,[r7,#88]
 825:../Dave/Generated/CMSIS_DSP/Source/FilteringFunctions/arm_correlate_q7.c ****   px = pSrc1;
 408              	 .loc 1 825 0
 409 0220 BB6D     	 ldr r3,[r7,#88]
 410 0222 3B66     	 str r3,[r7,#96]
 826:../Dave/Generated/CMSIS_DSP/Source/FilteringFunctions/arm_correlate_q7.c **** 
 827:../Dave/Generated/CMSIS_DSP/Source/FilteringFunctions/arm_correlate_q7.c ****   /* Working pointer of inputB */
 828:../Dave/Generated/CMSIS_DSP/Source/FilteringFunctions/arm_correlate_q7.c ****   py = pIn2;
 411              	 .loc 1 828 0
 412 0224 BB6E     	 ldr r3,[r7,#104]
 413 0226 FB65     	 str r3,[r7,#92]
 829:../Dave/Generated/CMSIS_DSP/Source/FilteringFunctions/arm_correlate_q7.c **** 
 830:../Dave/Generated/CMSIS_DSP/Source/FilteringFunctions/arm_correlate_q7.c ****   /* -------------------
 831:../Dave/Generated/CMSIS_DSP/Source/FilteringFunctions/arm_correlate_q7.c ****    * Stage3 process
 832:../Dave/Generated/CMSIS_DSP/Source/FilteringFunctions/arm_correlate_q7.c ****    * ------------------*/
 833:../Dave/Generated/CMSIS_DSP/Source/FilteringFunctions/arm_correlate_q7.c **** 
 834:../Dave/Generated/CMSIS_DSP/Source/FilteringFunctions/arm_correlate_q7.c ****   while (blockSize3 > 0U)
 414              	 .loc 1 834 0
 415 0228 35E0     	 b .L18
 416              	.L21:
 835:../Dave/Generated/CMSIS_DSP/Source/FilteringFunctions/arm_correlate_q7.c ****   {
 836:../Dave/Generated/CMSIS_DSP/Source/FilteringFunctions/arm_correlate_q7.c ****     /* Accumulator is made zero for every iteration */
 837:../Dave/Generated/CMSIS_DSP/Source/FilteringFunctions/arm_correlate_q7.c ****     sum = 0;
 417              	 .loc 1 837 0
 418 022a 0023     	 movs r3,#0
 419 022c 7B65     	 str r3,[r7,#84]
 838:../Dave/Generated/CMSIS_DSP/Source/FilteringFunctions/arm_correlate_q7.c **** 
 839:../Dave/Generated/CMSIS_DSP/Source/FilteringFunctions/arm_correlate_q7.c **** #if defined (ARM_MATH_LOOPUNROLL)
 840:../Dave/Generated/CMSIS_DSP/Source/FilteringFunctions/arm_correlate_q7.c **** 
 841:../Dave/Generated/CMSIS_DSP/Source/FilteringFunctions/arm_correlate_q7.c ****     /* Loop unrolling: Compute 4 outputs at a time */
 842:../Dave/Generated/CMSIS_DSP/Source/FilteringFunctions/arm_correlate_q7.c ****     k = count >> 2U;
 843:../Dave/Generated/CMSIS_DSP/Source/FilteringFunctions/arm_correlate_q7.c **** 
 844:../Dave/Generated/CMSIS_DSP/Source/FilteringFunctions/arm_correlate_q7.c ****     while (k > 0U)
 845:../Dave/Generated/CMSIS_DSP/Source/FilteringFunctions/arm_correlate_q7.c ****     {
 846:../Dave/Generated/CMSIS_DSP/Source/FilteringFunctions/arm_correlate_q7.c ****       /* x[srcALen - srcBLen + 1] , x[srcALen - srcBLen + 2]  */
 847:../Dave/Generated/CMSIS_DSP/Source/FilteringFunctions/arm_correlate_q7.c ****       in1 = (q15_t) *px++;
 848:../Dave/Generated/CMSIS_DSP/Source/FilteringFunctions/arm_correlate_q7.c ****       in2 = (q15_t) *px++;
 849:../Dave/Generated/CMSIS_DSP/Source/FilteringFunctions/arm_correlate_q7.c ****       input1 = ((q31_t) in1 & 0x0000FFFF) | ((q31_t) in2 << 16U);
 850:../Dave/Generated/CMSIS_DSP/Source/FilteringFunctions/arm_correlate_q7.c **** 
 851:../Dave/Generated/CMSIS_DSP/Source/FilteringFunctions/arm_correlate_q7.c ****       /* y[0] , y[1] */
 852:../Dave/Generated/CMSIS_DSP/Source/FilteringFunctions/arm_correlate_q7.c ****       in1 = (q15_t) *py++;
 853:../Dave/Generated/CMSIS_DSP/Source/FilteringFunctions/arm_correlate_q7.c ****       in2 = (q15_t) *py++;
 854:../Dave/Generated/CMSIS_DSP/Source/FilteringFunctions/arm_correlate_q7.c ****       input2 = ((q31_t) in1 & 0x0000FFFF) | ((q31_t) in2 << 16U);
 855:../Dave/Generated/CMSIS_DSP/Source/FilteringFunctions/arm_correlate_q7.c **** 
 856:../Dave/Generated/CMSIS_DSP/Source/FilteringFunctions/arm_correlate_q7.c ****       /* sum += x[srcALen - srcBLen + 1] * y[0] */
 857:../Dave/Generated/CMSIS_DSP/Source/FilteringFunctions/arm_correlate_q7.c ****       /* sum += x[srcALen - srcBLen + 2] * y[1] */
 858:../Dave/Generated/CMSIS_DSP/Source/FilteringFunctions/arm_correlate_q7.c ****       sum = __SMLAD(input1, input2, sum);
 859:../Dave/Generated/CMSIS_DSP/Source/FilteringFunctions/arm_correlate_q7.c **** 
 860:../Dave/Generated/CMSIS_DSP/Source/FilteringFunctions/arm_correlate_q7.c ****       /* x[srcALen - srcBLen + 3] , x[srcALen - srcBLen + 4] */
 861:../Dave/Generated/CMSIS_DSP/Source/FilteringFunctions/arm_correlate_q7.c ****       in1 = (q15_t) *px++;
 862:../Dave/Generated/CMSIS_DSP/Source/FilteringFunctions/arm_correlate_q7.c ****       in2 = (q15_t) *px++;
 863:../Dave/Generated/CMSIS_DSP/Source/FilteringFunctions/arm_correlate_q7.c ****       input1 = ((q31_t) in1 & 0x0000FFFF) | ((q31_t) in2 << 16U);
 864:../Dave/Generated/CMSIS_DSP/Source/FilteringFunctions/arm_correlate_q7.c **** 
 865:../Dave/Generated/CMSIS_DSP/Source/FilteringFunctions/arm_correlate_q7.c ****       /* y[2] , y[3] */
 866:../Dave/Generated/CMSIS_DSP/Source/FilteringFunctions/arm_correlate_q7.c ****       in1 = (q15_t) *py++;
 867:../Dave/Generated/CMSIS_DSP/Source/FilteringFunctions/arm_correlate_q7.c ****       in2 = (q15_t) *py++;
 868:../Dave/Generated/CMSIS_DSP/Source/FilteringFunctions/arm_correlate_q7.c ****       input2 = ((q31_t) in1 & 0x0000FFFF) | ((q31_t) in2 << 16U);
 869:../Dave/Generated/CMSIS_DSP/Source/FilteringFunctions/arm_correlate_q7.c **** 
 870:../Dave/Generated/CMSIS_DSP/Source/FilteringFunctions/arm_correlate_q7.c ****       /* sum += x[srcALen - srcBLen + 3] * y[2] */
 871:../Dave/Generated/CMSIS_DSP/Source/FilteringFunctions/arm_correlate_q7.c ****       /* sum += x[srcALen - srcBLen + 4] * y[3] */
 872:../Dave/Generated/CMSIS_DSP/Source/FilteringFunctions/arm_correlate_q7.c ****       sum = __SMLAD(input1, input2, sum);
 873:../Dave/Generated/CMSIS_DSP/Source/FilteringFunctions/arm_correlate_q7.c **** 
 874:../Dave/Generated/CMSIS_DSP/Source/FilteringFunctions/arm_correlate_q7.c ****       /* Decrement loop counter */
 875:../Dave/Generated/CMSIS_DSP/Source/FilteringFunctions/arm_correlate_q7.c ****       k--;
 876:../Dave/Generated/CMSIS_DSP/Source/FilteringFunctions/arm_correlate_q7.c ****     }
 877:../Dave/Generated/CMSIS_DSP/Source/FilteringFunctions/arm_correlate_q7.c **** 
 878:../Dave/Generated/CMSIS_DSP/Source/FilteringFunctions/arm_correlate_q7.c ****     /* Loop unrolling: Compute remaining outputs */
 879:../Dave/Generated/CMSIS_DSP/Source/FilteringFunctions/arm_correlate_q7.c ****     k = count % 0x4U;
 880:../Dave/Generated/CMSIS_DSP/Source/FilteringFunctions/arm_correlate_q7.c **** 
 881:../Dave/Generated/CMSIS_DSP/Source/FilteringFunctions/arm_correlate_q7.c **** #else
 882:../Dave/Generated/CMSIS_DSP/Source/FilteringFunctions/arm_correlate_q7.c **** 
 883:../Dave/Generated/CMSIS_DSP/Source/FilteringFunctions/arm_correlate_q7.c ****     /* Initialize blkCnt with number of samples */
 884:../Dave/Generated/CMSIS_DSP/Source/FilteringFunctions/arm_correlate_q7.c ****     k = count;
 420              	 .loc 1 884 0
 421 022e 7B6C     	 ldr r3,[r7,#68]
 422 0230 BB64     	 str r3,[r7,#72]
 885:../Dave/Generated/CMSIS_DSP/Source/FilteringFunctions/arm_correlate_q7.c **** 
 886:../Dave/Generated/CMSIS_DSP/Source/FilteringFunctions/arm_correlate_q7.c **** #endif /* #if defined (ARM_MATH_LOOPUNROLL) */
 887:../Dave/Generated/CMSIS_DSP/Source/FilteringFunctions/arm_correlate_q7.c **** 
 888:../Dave/Generated/CMSIS_DSP/Source/FilteringFunctions/arm_correlate_q7.c ****     while (k > 0U)
 423              	 .loc 1 888 0
 424 0232 11E0     	 b .L19
 425              	.L20:
 889:../Dave/Generated/CMSIS_DSP/Source/FilteringFunctions/arm_correlate_q7.c ****     {
 890:../Dave/Generated/CMSIS_DSP/Source/FilteringFunctions/arm_correlate_q7.c ****       /* Perform the multiply-accumulate */
 891:../Dave/Generated/CMSIS_DSP/Source/FilteringFunctions/arm_correlate_q7.c ****       sum += ((q15_t) *px++ * *py++);
 426              	 .loc 1 891 0
 427 0234 3B6E     	 ldr r3,[r7,#96]
 428 0236 5A1C     	 adds r2,r3,#1
 429 0238 3A66     	 str r2,[r7,#96]
 430 023a 1B78     	 ldrb r3,[r3]
 431 023c 5AB2     	 sxtb r2,r3
 432 023e FB6D     	 ldr r3,[r7,#92]
 433 0240 591C     	 adds r1,r3,#1
 434 0242 F965     	 str r1,[r7,#92]
 435 0244 1B78     	 ldrb r3,[r3]
 436 0246 5BB2     	 sxtb r3,r3
 437 0248 03FB02F3 	 mul r3,r3,r2
 438 024c 7A6D     	 ldr r2,[r7,#84]
 439 024e 1344     	 add r3,r3,r2
 440 0250 7B65     	 str r3,[r7,#84]
 892:../Dave/Generated/CMSIS_DSP/Source/FilteringFunctions/arm_correlate_q7.c **** 
 893:../Dave/Generated/CMSIS_DSP/Source/FilteringFunctions/arm_correlate_q7.c ****       /* Decrement loop counter */
 894:../Dave/Generated/CMSIS_DSP/Source/FilteringFunctions/arm_correlate_q7.c ****       k--;
 441              	 .loc 1 894 0
 442 0252 BB6C     	 ldr r3,[r7,#72]
 443 0254 013B     	 subs r3,r3,#1
 444 0256 BB64     	 str r3,[r7,#72]
 445              	.L19:
 888:../Dave/Generated/CMSIS_DSP/Source/FilteringFunctions/arm_correlate_q7.c ****     {
 446              	 .loc 1 888 0
 447 0258 BB6C     	 ldr r3,[r7,#72]
 448 025a 002B     	 cmp r3,#0
 449 025c EAD1     	 bne .L20
 450              	.LBB5:
 895:../Dave/Generated/CMSIS_DSP/Source/FilteringFunctions/arm_correlate_q7.c ****     }
 896:../Dave/Generated/CMSIS_DSP/Source/FilteringFunctions/arm_correlate_q7.c **** 
 897:../Dave/Generated/CMSIS_DSP/Source/FilteringFunctions/arm_correlate_q7.c ****     /* Store the result in the accumulator in the destination buffer. */
 898:../Dave/Generated/CMSIS_DSP/Source/FilteringFunctions/arm_correlate_q7.c ****     *pOut = (q7_t) (__SSAT(sum >> 7U, 8));
 451              	 .loc 1 898 0
 452 025e 7B6D     	 ldr r3,[r7,#84]
 453 0260 DB11     	 asrs r3,r3,#7
 454 0262 7B61     	 str r3,[r7,#20]
 455 0264 7B69     	 ldr r3,[r7,#20]
 456              	
 457 0266 03F30703 	 ssat r3,#8,r3
 458              	
 459              	 .thumb
 460 026a 3B61     	 str r3,[r7,#16]
 461 026c 3B69     	 ldr r3,[r7,#16]
 462              	.LBE5:
 463 026e DAB2     	 uxtb r2,r3
 464 0270 7B6E     	 ldr r3,[r7,#100]
 465 0272 1A70     	 strb r2,[r3]
 899:../Dave/Generated/CMSIS_DSP/Source/FilteringFunctions/arm_correlate_q7.c ****     /* Destination pointer is updated according to the address modifier, inc */
 900:../Dave/Generated/CMSIS_DSP/Source/FilteringFunctions/arm_correlate_q7.c ****     pOut += inc;
 466              	 .loc 1 900 0
 467 0274 FB6B     	 ldr r3,[r7,#60]
 468 0276 7A6E     	 ldr r2,[r7,#100]
 469 0278 1344     	 add r3,r3,r2
 470 027a 7B66     	 str r3,[r7,#100]
 901:../Dave/Generated/CMSIS_DSP/Source/FilteringFunctions/arm_correlate_q7.c **** 
 902:../Dave/Generated/CMSIS_DSP/Source/FilteringFunctions/arm_correlate_q7.c ****     /* Update the inputA and inputB pointers for next MAC calculation */
 903:../Dave/Generated/CMSIS_DSP/Source/FilteringFunctions/arm_correlate_q7.c ****     px = ++pSrc1;
 471              	 .loc 1 903 0
 472 027c BB6D     	 ldr r3,[r7,#88]
 473 027e 0133     	 adds r3,r3,#1
 474 0280 BB65     	 str r3,[r7,#88]
 475 0282 BB6D     	 ldr r3,[r7,#88]
 476 0284 3B66     	 str r3,[r7,#96]
 904:../Dave/Generated/CMSIS_DSP/Source/FilteringFunctions/arm_correlate_q7.c ****     py = pIn2;
 477              	 .loc 1 904 0
 478 0286 BB6E     	 ldr r3,[r7,#104]
 479 0288 FB65     	 str r3,[r7,#92]
 905:../Dave/Generated/CMSIS_DSP/Source/FilteringFunctions/arm_correlate_q7.c **** 
 906:../Dave/Generated/CMSIS_DSP/Source/FilteringFunctions/arm_correlate_q7.c ****     /* Decrement MAC count */
 907:../Dave/Generated/CMSIS_DSP/Source/FilteringFunctions/arm_correlate_q7.c ****     count--;
 480              	 .loc 1 907 0
 481 028a 7B6C     	 ldr r3,[r7,#68]
 482 028c 013B     	 subs r3,r3,#1
 483 028e 7B64     	 str r3,[r7,#68]
 908:../Dave/Generated/CMSIS_DSP/Source/FilteringFunctions/arm_correlate_q7.c **** 
 909:../Dave/Generated/CMSIS_DSP/Source/FilteringFunctions/arm_correlate_q7.c ****     /* Decrement loop counter */
 910:../Dave/Generated/CMSIS_DSP/Source/FilteringFunctions/arm_correlate_q7.c ****     blockSize3--;
 484              	 .loc 1 910 0
 485 0290 FB6C     	 ldr r3,[r7,#76]
 486 0292 013B     	 subs r3,r3,#1
 487 0294 FB64     	 str r3,[r7,#76]
 488              	.L18:
 834:../Dave/Generated/CMSIS_DSP/Source/FilteringFunctions/arm_correlate_q7.c ****   {
 489              	 .loc 1 834 0
 490 0296 FB6C     	 ldr r3,[r7,#76]
 491 0298 002B     	 cmp r3,#0
 492 029a C6D1     	 bne .L21
 911:../Dave/Generated/CMSIS_DSP/Source/FilteringFunctions/arm_correlate_q7.c ****   }
 912:../Dave/Generated/CMSIS_DSP/Source/FilteringFunctions/arm_correlate_q7.c **** 
 913:../Dave/Generated/CMSIS_DSP/Source/FilteringFunctions/arm_correlate_q7.c **** #else
 914:../Dave/Generated/CMSIS_DSP/Source/FilteringFunctions/arm_correlate_q7.c **** /* alternate version for CM0_FAMILY */
 915:../Dave/Generated/CMSIS_DSP/Source/FilteringFunctions/arm_correlate_q7.c **** 
 916:../Dave/Generated/CMSIS_DSP/Source/FilteringFunctions/arm_correlate_q7.c ****   const q7_t *pIn1 = pSrcA;                            /* InputA pointer */
 917:../Dave/Generated/CMSIS_DSP/Source/FilteringFunctions/arm_correlate_q7.c ****   const q7_t *pIn2 = pSrcB + (srcBLen - 1U);           /* InputB pointer */
 918:../Dave/Generated/CMSIS_DSP/Source/FilteringFunctions/arm_correlate_q7.c ****         q31_t sum;                                     /* Accumulator */
 919:../Dave/Generated/CMSIS_DSP/Source/FilteringFunctions/arm_correlate_q7.c ****         uint32_t i = 0U, j;                            /* Loop counters */
 920:../Dave/Generated/CMSIS_DSP/Source/FilteringFunctions/arm_correlate_q7.c ****         uint32_t inv = 0U;                             /* Reverse order flag */
 921:../Dave/Generated/CMSIS_DSP/Source/FilteringFunctions/arm_correlate_q7.c ****         uint32_t tot = 0U;                             /* Length */
 922:../Dave/Generated/CMSIS_DSP/Source/FilteringFunctions/arm_correlate_q7.c **** 
 923:../Dave/Generated/CMSIS_DSP/Source/FilteringFunctions/arm_correlate_q7.c ****   /* The algorithm implementation is based on the lengths of the inputs. */
 924:../Dave/Generated/CMSIS_DSP/Source/FilteringFunctions/arm_correlate_q7.c ****   /* srcB is always made to slide across srcA. */
 925:../Dave/Generated/CMSIS_DSP/Source/FilteringFunctions/arm_correlate_q7.c ****   /* So srcBLen is always considered as shorter or equal to srcALen */
 926:../Dave/Generated/CMSIS_DSP/Source/FilteringFunctions/arm_correlate_q7.c ****   /* But CORR(x, y) is reverse of CORR(y, x) */
 927:../Dave/Generated/CMSIS_DSP/Source/FilteringFunctions/arm_correlate_q7.c ****   /* So, when srcBLen > srcALen, output pointer is made to point to the end of the output buffer */
 928:../Dave/Generated/CMSIS_DSP/Source/FilteringFunctions/arm_correlate_q7.c ****   /* and a varaible, inv is set to 1 */
 929:../Dave/Generated/CMSIS_DSP/Source/FilteringFunctions/arm_correlate_q7.c ****   /* If lengths are not equal then zero pad has to be done to  make the two
 930:../Dave/Generated/CMSIS_DSP/Source/FilteringFunctions/arm_correlate_q7.c ****    * inputs of same length. But to improve the performance, we include zeroes
 931:../Dave/Generated/CMSIS_DSP/Source/FilteringFunctions/arm_correlate_q7.c ****    * in the output instead of zero padding either of the the inputs*/
 932:../Dave/Generated/CMSIS_DSP/Source/FilteringFunctions/arm_correlate_q7.c ****   /* If srcALen > srcBLen, (srcALen - srcBLen) zeroes has to included in the
 933:../Dave/Generated/CMSIS_DSP/Source/FilteringFunctions/arm_correlate_q7.c ****    * starting of the output buffer */
 934:../Dave/Generated/CMSIS_DSP/Source/FilteringFunctions/arm_correlate_q7.c ****   /* If srcALen < srcBLen, (srcALen - srcBLen) zeroes has to included in the
 935:../Dave/Generated/CMSIS_DSP/Source/FilteringFunctions/arm_correlate_q7.c ****    * ending of the output buffer */
 936:../Dave/Generated/CMSIS_DSP/Source/FilteringFunctions/arm_correlate_q7.c ****   /* Once the zero padding is done the remaining of the output is calcualted
 937:../Dave/Generated/CMSIS_DSP/Source/FilteringFunctions/arm_correlate_q7.c ****    * using convolution but with the shorter signal time shifted. */
 938:../Dave/Generated/CMSIS_DSP/Source/FilteringFunctions/arm_correlate_q7.c **** 
 939:../Dave/Generated/CMSIS_DSP/Source/FilteringFunctions/arm_correlate_q7.c ****   /* Calculate the length of the remaining sequence */
 940:../Dave/Generated/CMSIS_DSP/Source/FilteringFunctions/arm_correlate_q7.c ****   tot = ((srcALen + srcBLen) - 2U);
 941:../Dave/Generated/CMSIS_DSP/Source/FilteringFunctions/arm_correlate_q7.c **** 
 942:../Dave/Generated/CMSIS_DSP/Source/FilteringFunctions/arm_correlate_q7.c ****   if (srcALen > srcBLen)
 943:../Dave/Generated/CMSIS_DSP/Source/FilteringFunctions/arm_correlate_q7.c ****   {
 944:../Dave/Generated/CMSIS_DSP/Source/FilteringFunctions/arm_correlate_q7.c ****     /* Calculating the number of zeros to be padded to the output */
 945:../Dave/Generated/CMSIS_DSP/Source/FilteringFunctions/arm_correlate_q7.c ****     j = srcALen - srcBLen;
 946:../Dave/Generated/CMSIS_DSP/Source/FilteringFunctions/arm_correlate_q7.c **** 
 947:../Dave/Generated/CMSIS_DSP/Source/FilteringFunctions/arm_correlate_q7.c ****     /* Initialise the pointer after zero padding */
 948:../Dave/Generated/CMSIS_DSP/Source/FilteringFunctions/arm_correlate_q7.c ****     pDst += j;
 949:../Dave/Generated/CMSIS_DSP/Source/FilteringFunctions/arm_correlate_q7.c ****   }
 950:../Dave/Generated/CMSIS_DSP/Source/FilteringFunctions/arm_correlate_q7.c **** 
 951:../Dave/Generated/CMSIS_DSP/Source/FilteringFunctions/arm_correlate_q7.c ****   else if (srcALen < srcBLen)
 952:../Dave/Generated/CMSIS_DSP/Source/FilteringFunctions/arm_correlate_q7.c ****   {
 953:../Dave/Generated/CMSIS_DSP/Source/FilteringFunctions/arm_correlate_q7.c ****     /* Initialization to inputB pointer */
 954:../Dave/Generated/CMSIS_DSP/Source/FilteringFunctions/arm_correlate_q7.c ****     pIn1 = pSrcB;
 955:../Dave/Generated/CMSIS_DSP/Source/FilteringFunctions/arm_correlate_q7.c **** 
 956:../Dave/Generated/CMSIS_DSP/Source/FilteringFunctions/arm_correlate_q7.c ****     /* Initialization to the end of inputA pointer */
 957:../Dave/Generated/CMSIS_DSP/Source/FilteringFunctions/arm_correlate_q7.c ****     pIn2 = pSrcA + (srcALen - 1U);
 958:../Dave/Generated/CMSIS_DSP/Source/FilteringFunctions/arm_correlate_q7.c **** 
 959:../Dave/Generated/CMSIS_DSP/Source/FilteringFunctions/arm_correlate_q7.c ****     /* Initialisation of the pointer after zero padding */
 960:../Dave/Generated/CMSIS_DSP/Source/FilteringFunctions/arm_correlate_q7.c ****     pDst = pDst + tot;
 961:../Dave/Generated/CMSIS_DSP/Source/FilteringFunctions/arm_correlate_q7.c **** 
 962:../Dave/Generated/CMSIS_DSP/Source/FilteringFunctions/arm_correlate_q7.c ****     /* Swapping the lengths */
 963:../Dave/Generated/CMSIS_DSP/Source/FilteringFunctions/arm_correlate_q7.c ****     j = srcALen;
 964:../Dave/Generated/CMSIS_DSP/Source/FilteringFunctions/arm_correlate_q7.c ****     srcALen = srcBLen;
 965:../Dave/Generated/CMSIS_DSP/Source/FilteringFunctions/arm_correlate_q7.c ****     srcBLen = j;
 966:../Dave/Generated/CMSIS_DSP/Source/FilteringFunctions/arm_correlate_q7.c **** 
 967:../Dave/Generated/CMSIS_DSP/Source/FilteringFunctions/arm_correlate_q7.c ****     /* Setting the reverse flag */
 968:../Dave/Generated/CMSIS_DSP/Source/FilteringFunctions/arm_correlate_q7.c ****     inv = 1;
 969:../Dave/Generated/CMSIS_DSP/Source/FilteringFunctions/arm_correlate_q7.c ****   }
 970:../Dave/Generated/CMSIS_DSP/Source/FilteringFunctions/arm_correlate_q7.c **** 
 971:../Dave/Generated/CMSIS_DSP/Source/FilteringFunctions/arm_correlate_q7.c ****   /* Loop to calculate convolution for output length number of times */
 972:../Dave/Generated/CMSIS_DSP/Source/FilteringFunctions/arm_correlate_q7.c ****   for (i = 0U; i <= tot; i++)
 973:../Dave/Generated/CMSIS_DSP/Source/FilteringFunctions/arm_correlate_q7.c ****   {
 974:../Dave/Generated/CMSIS_DSP/Source/FilteringFunctions/arm_correlate_q7.c ****     /* Initialize sum with zero to carry out MAC operations */
 975:../Dave/Generated/CMSIS_DSP/Source/FilteringFunctions/arm_correlate_q7.c ****     sum = 0;
 976:../Dave/Generated/CMSIS_DSP/Source/FilteringFunctions/arm_correlate_q7.c **** 
 977:../Dave/Generated/CMSIS_DSP/Source/FilteringFunctions/arm_correlate_q7.c ****     /* Loop to perform MAC operations according to convolution equation */
 978:../Dave/Generated/CMSIS_DSP/Source/FilteringFunctions/arm_correlate_q7.c ****     for (j = 0U; j <= i; j++)
 979:../Dave/Generated/CMSIS_DSP/Source/FilteringFunctions/arm_correlate_q7.c ****     {
 980:../Dave/Generated/CMSIS_DSP/Source/FilteringFunctions/arm_correlate_q7.c ****       /* Check the array limitations */
 981:../Dave/Generated/CMSIS_DSP/Source/FilteringFunctions/arm_correlate_q7.c ****       if (((i - j) < srcBLen) && (j < srcALen))
 982:../Dave/Generated/CMSIS_DSP/Source/FilteringFunctions/arm_correlate_q7.c ****       {
 983:../Dave/Generated/CMSIS_DSP/Source/FilteringFunctions/arm_correlate_q7.c ****         /* z[i] += x[i-j] * y[j] */
 984:../Dave/Generated/CMSIS_DSP/Source/FilteringFunctions/arm_correlate_q7.c ****         sum += ((q15_t) pIn1[j] * pIn2[-((int32_t) i - j)]);
 985:../Dave/Generated/CMSIS_DSP/Source/FilteringFunctions/arm_correlate_q7.c ****       }
 986:../Dave/Generated/CMSIS_DSP/Source/FilteringFunctions/arm_correlate_q7.c ****     }
 987:../Dave/Generated/CMSIS_DSP/Source/FilteringFunctions/arm_correlate_q7.c **** 
 988:../Dave/Generated/CMSIS_DSP/Source/FilteringFunctions/arm_correlate_q7.c ****     /* Store the output in the destination buffer */
 989:../Dave/Generated/CMSIS_DSP/Source/FilteringFunctions/arm_correlate_q7.c ****     if (inv == 1)
 990:../Dave/Generated/CMSIS_DSP/Source/FilteringFunctions/arm_correlate_q7.c ****       *pDst-- = (q7_t) __SSAT((sum >> 7U), 8U);
 991:../Dave/Generated/CMSIS_DSP/Source/FilteringFunctions/arm_correlate_q7.c ****     else
 992:../Dave/Generated/CMSIS_DSP/Source/FilteringFunctions/arm_correlate_q7.c ****       *pDst++ = (q7_t) __SSAT((sum >> 7U), 8U);
 993:../Dave/Generated/CMSIS_DSP/Source/FilteringFunctions/arm_correlate_q7.c ****   }
 994:../Dave/Generated/CMSIS_DSP/Source/FilteringFunctions/arm_correlate_q7.c **** 
 995:../Dave/Generated/CMSIS_DSP/Source/FilteringFunctions/arm_correlate_q7.c **** #endif /* #if !defined(ARM_MATH_CM0_FAMILY) */
 996:../Dave/Generated/CMSIS_DSP/Source/FilteringFunctions/arm_correlate_q7.c **** 
 997:../Dave/Generated/CMSIS_DSP/Source/FilteringFunctions/arm_correlate_q7.c **** }
 493              	 .loc 1 997 0
 494 029c 7437     	 adds r7,r7,#116
 495              	.LCFI3:
 496              	 .cfi_def_cfa_offset 4
 497 029e BD46     	 mov sp,r7
 498              	.LCFI4:
 499              	 .cfi_def_cfa_register 13
 500              	 
 501 02a0 5DF8047B 	 ldr r7,[sp],#4
 502              	.LCFI5:
 503              	 .cfi_restore 7
 504              	 .cfi_def_cfa_offset 0
 505 02a4 7047     	 bx lr
 506              	 .cfi_endproc
 507              	.LFE149:
 509 02a6 00BF     	 .text
 510              	.Letext0:
 511              	 .file 2 "c:\\infineon\\tools\\dave ide\\4.5.0.202105191637\\eclipse\\arm-gcc-49\\arm-none-eabi\\include\\machine\\_default_types.h"
 512              	 .file 3 "c:\\infineon\\tools\\dave ide\\4.5.0.202105191637\\eclipse\\arm-gcc-49\\arm-none-eabi\\include\\stdint.h"
 513              	 .file 4 "C:/Users/Rui Mendes/Desktop/DAVE/_Naive/_ForTesting/Dave/Generated/CMSIS_DSP/Include/arm_math.h"
 514              	 .file 5 "C:/Users/Rui Mendes/Desktop/DAVE/_Naive/_ForTesting/Libraries/CMSIS/Include/cmsis_gcc.h"
DEFINED SYMBOLS
                            *ABS*:00000000 arm_correlate_q7.c
    {standard input}:20     .text.arm_correlate_q7:00000000 $t
    {standard input}:25     .text.arm_correlate_q7:00000000 arm_correlate_q7
                     .debug_frame:00000010 $d

NO UNDEFINED SYMBOLS
