   1              	 .syntax unified
   2              	 .cpu cortex-m4
   3              	 .eabi_attribute 27,3
   4              	 .fpu fpv4-sp-d16
   5              	 .eabi_attribute 20,1
   6              	 .eabi_attribute 21,1
   7              	 .eabi_attribute 23,3
   8              	 .eabi_attribute 24,1
   9              	 .eabi_attribute 25,1
  10              	 .eabi_attribute 26,1
  11              	 .eabi_attribute 30,6
  12              	 .eabi_attribute 34,1
  13              	 .eabi_attribute 18,4
  14              	 .thumb
  15              	 .file "arm_fir_interpolate_q31.c"
  16              	 .text
  17              	.Ltext0:
  18              	 .cfi_sections .debug_frame
  19              	 .section .text.arm_fir_interpolate_q31,"ax",%progbits
  20              	 .align 2
  21              	 .global arm_fir_interpolate_q31
  22              	 .thumb
  23              	 .thumb_func
  25              	arm_fir_interpolate_q31:
  26              	.LFB149:
  27              	 .file 1 "../Dave/Generated/CMSIS_DSP/Source/FilteringFunctions/arm_fir_interpolate_q31.c"
   1:../Dave/Generated/CMSIS_DSP/Source/FilteringFunctions/arm_fir_interpolate_q31.c **** /* ----------------------------------------------------------------------
   2:../Dave/Generated/CMSIS_DSP/Source/FilteringFunctions/arm_fir_interpolate_q31.c ****  * Project:      CMSIS DSP Library
   3:../Dave/Generated/CMSIS_DSP/Source/FilteringFunctions/arm_fir_interpolate_q31.c ****  * Title:        arm_fir_interpolate_q31.c
   4:../Dave/Generated/CMSIS_DSP/Source/FilteringFunctions/arm_fir_interpolate_q31.c ****  * Description:  Q31 FIR interpolation
   5:../Dave/Generated/CMSIS_DSP/Source/FilteringFunctions/arm_fir_interpolate_q31.c ****  *
   6:../Dave/Generated/CMSIS_DSP/Source/FilteringFunctions/arm_fir_interpolate_q31.c ****  * $Date:        18. March 2019
   7:../Dave/Generated/CMSIS_DSP/Source/FilteringFunctions/arm_fir_interpolate_q31.c ****  * $Revision:    V1.6.0
   8:../Dave/Generated/CMSIS_DSP/Source/FilteringFunctions/arm_fir_interpolate_q31.c ****  *
   9:../Dave/Generated/CMSIS_DSP/Source/FilteringFunctions/arm_fir_interpolate_q31.c ****  * Target Processor: Cortex-M cores
  10:../Dave/Generated/CMSIS_DSP/Source/FilteringFunctions/arm_fir_interpolate_q31.c ****  * -------------------------------------------------------------------- */
  11:../Dave/Generated/CMSIS_DSP/Source/FilteringFunctions/arm_fir_interpolate_q31.c **** /*
  12:../Dave/Generated/CMSIS_DSP/Source/FilteringFunctions/arm_fir_interpolate_q31.c ****  * Copyright (C) 2010-2019 ARM Limited or its affiliates. All rights reserved.
  13:../Dave/Generated/CMSIS_DSP/Source/FilteringFunctions/arm_fir_interpolate_q31.c ****  *
  14:../Dave/Generated/CMSIS_DSP/Source/FilteringFunctions/arm_fir_interpolate_q31.c ****  * SPDX-License-Identifier: Apache-2.0
  15:../Dave/Generated/CMSIS_DSP/Source/FilteringFunctions/arm_fir_interpolate_q31.c ****  *
  16:../Dave/Generated/CMSIS_DSP/Source/FilteringFunctions/arm_fir_interpolate_q31.c ****  * Licensed under the Apache License, Version 2.0 (the License); you may
  17:../Dave/Generated/CMSIS_DSP/Source/FilteringFunctions/arm_fir_interpolate_q31.c ****  * not use this file except in compliance with the License.
  18:../Dave/Generated/CMSIS_DSP/Source/FilteringFunctions/arm_fir_interpolate_q31.c ****  * You may obtain a copy of the License at
  19:../Dave/Generated/CMSIS_DSP/Source/FilteringFunctions/arm_fir_interpolate_q31.c ****  *
  20:../Dave/Generated/CMSIS_DSP/Source/FilteringFunctions/arm_fir_interpolate_q31.c ****  * www.apache.org/licenses/LICENSE-2.0
  21:../Dave/Generated/CMSIS_DSP/Source/FilteringFunctions/arm_fir_interpolate_q31.c ****  *
  22:../Dave/Generated/CMSIS_DSP/Source/FilteringFunctions/arm_fir_interpolate_q31.c ****  * Unless required by applicable law or agreed to in writing, software
  23:../Dave/Generated/CMSIS_DSP/Source/FilteringFunctions/arm_fir_interpolate_q31.c ****  * distributed under the License is distributed on an AS IS BASIS, WITHOUT
  24:../Dave/Generated/CMSIS_DSP/Source/FilteringFunctions/arm_fir_interpolate_q31.c ****  * WARRANTIES OR CONDITIONS OF ANY KIND, either express or implied.
  25:../Dave/Generated/CMSIS_DSP/Source/FilteringFunctions/arm_fir_interpolate_q31.c ****  * See the License for the specific language governing permissions and
  26:../Dave/Generated/CMSIS_DSP/Source/FilteringFunctions/arm_fir_interpolate_q31.c ****  * limitations under the License.
  27:../Dave/Generated/CMSIS_DSP/Source/FilteringFunctions/arm_fir_interpolate_q31.c ****  */
  28:../Dave/Generated/CMSIS_DSP/Source/FilteringFunctions/arm_fir_interpolate_q31.c **** 
  29:../Dave/Generated/CMSIS_DSP/Source/FilteringFunctions/arm_fir_interpolate_q31.c **** #include "CMSIS_DSP/cmsis_dsp.h"
  30:../Dave/Generated/CMSIS_DSP/Source/FilteringFunctions/arm_fir_interpolate_q31.c **** 
  31:../Dave/Generated/CMSIS_DSP/Source/FilteringFunctions/arm_fir_interpolate_q31.c **** /**
  32:../Dave/Generated/CMSIS_DSP/Source/FilteringFunctions/arm_fir_interpolate_q31.c ****   @ingroup groupFilters
  33:../Dave/Generated/CMSIS_DSP/Source/FilteringFunctions/arm_fir_interpolate_q31.c ****  */
  34:../Dave/Generated/CMSIS_DSP/Source/FilteringFunctions/arm_fir_interpolate_q31.c **** 
  35:../Dave/Generated/CMSIS_DSP/Source/FilteringFunctions/arm_fir_interpolate_q31.c **** /**
  36:../Dave/Generated/CMSIS_DSP/Source/FilteringFunctions/arm_fir_interpolate_q31.c ****   @addtogroup FIR_Interpolate
  37:../Dave/Generated/CMSIS_DSP/Source/FilteringFunctions/arm_fir_interpolate_q31.c ****   @{
  38:../Dave/Generated/CMSIS_DSP/Source/FilteringFunctions/arm_fir_interpolate_q31.c ****  */
  39:../Dave/Generated/CMSIS_DSP/Source/FilteringFunctions/arm_fir_interpolate_q31.c **** 
  40:../Dave/Generated/CMSIS_DSP/Source/FilteringFunctions/arm_fir_interpolate_q31.c **** /**
  41:../Dave/Generated/CMSIS_DSP/Source/FilteringFunctions/arm_fir_interpolate_q31.c ****   @brief         Processing function for the Q31 FIR interpolator.
  42:../Dave/Generated/CMSIS_DSP/Source/FilteringFunctions/arm_fir_interpolate_q31.c ****   @param[in]     S          points to an instance of the Q31 FIR interpolator structure
  43:../Dave/Generated/CMSIS_DSP/Source/FilteringFunctions/arm_fir_interpolate_q31.c ****   @param[in]     pSrc       points to the block of input data
  44:../Dave/Generated/CMSIS_DSP/Source/FilteringFunctions/arm_fir_interpolate_q31.c ****   @param[out]    pDst       points to the block of output data
  45:../Dave/Generated/CMSIS_DSP/Source/FilteringFunctions/arm_fir_interpolate_q31.c ****   @param[in]     blockSize  number of samples to process
  46:../Dave/Generated/CMSIS_DSP/Source/FilteringFunctions/arm_fir_interpolate_q31.c ****   @return        none
  47:../Dave/Generated/CMSIS_DSP/Source/FilteringFunctions/arm_fir_interpolate_q31.c **** 
  48:../Dave/Generated/CMSIS_DSP/Source/FilteringFunctions/arm_fir_interpolate_q31.c ****   @par           Scaling and Overflow Behavior
  49:../Dave/Generated/CMSIS_DSP/Source/FilteringFunctions/arm_fir_interpolate_q31.c ****                    The function is implemented using an internal 64-bit accumulator.
  50:../Dave/Generated/CMSIS_DSP/Source/FilteringFunctions/arm_fir_interpolate_q31.c ****                    The accumulator has a 2.62 format and maintains full precision of the intermedia
  51:../Dave/Generated/CMSIS_DSP/Source/FilteringFunctions/arm_fir_interpolate_q31.c ****                    Thus, if the accumulator result overflows it wraps around rather than clip.
  52:../Dave/Generated/CMSIS_DSP/Source/FilteringFunctions/arm_fir_interpolate_q31.c ****                    In order to avoid overflows completely the input signal must be scaled down by <
  53:../Dave/Generated/CMSIS_DSP/Source/FilteringFunctions/arm_fir_interpolate_q31.c ****                    since <code>numTaps/L</code> additions occur per output sample.
  54:../Dave/Generated/CMSIS_DSP/Source/FilteringFunctions/arm_fir_interpolate_q31.c ****                    After all multiply-accumulates are performed, the 2.62 accumulator is truncated 
  55:../Dave/Generated/CMSIS_DSP/Source/FilteringFunctions/arm_fir_interpolate_q31.c ****  */
  56:../Dave/Generated/CMSIS_DSP/Source/FilteringFunctions/arm_fir_interpolate_q31.c **** 
  57:../Dave/Generated/CMSIS_DSP/Source/FilteringFunctions/arm_fir_interpolate_q31.c **** #if defined(ARM_MATH_MVEI)
  58:../Dave/Generated/CMSIS_DSP/Source/FilteringFunctions/arm_fir_interpolate_q31.c **** 
  59:../Dave/Generated/CMSIS_DSP/Source/FilteringFunctions/arm_fir_interpolate_q31.c **** #include "CMSIS_DSP/Include/arm_helium_utils.h"
  60:../Dave/Generated/CMSIS_DSP/Source/FilteringFunctions/arm_fir_interpolate_q31.c **** void arm_fir_interpolate_q31(
  61:../Dave/Generated/CMSIS_DSP/Source/FilteringFunctions/arm_fir_interpolate_q31.c ****   const arm_fir_interpolate_instance_q31 * S,
  62:../Dave/Generated/CMSIS_DSP/Source/FilteringFunctions/arm_fir_interpolate_q31.c ****   const q31_t * pSrc,
  63:../Dave/Generated/CMSIS_DSP/Source/FilteringFunctions/arm_fir_interpolate_q31.c ****         q31_t * pDst,
  64:../Dave/Generated/CMSIS_DSP/Source/FilteringFunctions/arm_fir_interpolate_q31.c ****         uint32_t blockSize)
  65:../Dave/Generated/CMSIS_DSP/Source/FilteringFunctions/arm_fir_interpolate_q31.c **** {
  66:../Dave/Generated/CMSIS_DSP/Source/FilteringFunctions/arm_fir_interpolate_q31.c ****     q31_t    *pState = S->pState;   /* State pointer */
  67:../Dave/Generated/CMSIS_DSP/Source/FilteringFunctions/arm_fir_interpolate_q31.c ****     const q31_t    *pCoeffs = S->pCoeffs; /* Coefficient pointer */
  68:../Dave/Generated/CMSIS_DSP/Source/FilteringFunctions/arm_fir_interpolate_q31.c ****     q31_t    *pStateCurnt;      /* Points to the current sample of the state */
  69:../Dave/Generated/CMSIS_DSP/Source/FilteringFunctions/arm_fir_interpolate_q31.c ****     const q31_t    *ptr1, *ptr2;      /* Temporary pointers for state and coefficient buffers */
  70:../Dave/Generated/CMSIS_DSP/Source/FilteringFunctions/arm_fir_interpolate_q31.c **** 
  71:../Dave/Generated/CMSIS_DSP/Source/FilteringFunctions/arm_fir_interpolate_q31.c ****     uint32_t  i, blkCnt;        /* Loop counters */
  72:../Dave/Generated/CMSIS_DSP/Source/FilteringFunctions/arm_fir_interpolate_q31.c ****     uint16_t  phaseLen = S->phaseLength;    /* Length of each polyphase filter component */
  73:../Dave/Generated/CMSIS_DSP/Source/FilteringFunctions/arm_fir_interpolate_q31.c ****     uint32_t  strides[4] = { 0, 1 * S->L, 2 * S->L, 3 * S->L };
  74:../Dave/Generated/CMSIS_DSP/Source/FilteringFunctions/arm_fir_interpolate_q31.c ****     uint32x4_t vec_strides0 = *(uint32x4_t *) strides;
  75:../Dave/Generated/CMSIS_DSP/Source/FilteringFunctions/arm_fir_interpolate_q31.c ****     uint32x4_t vec_strides1 = vec_strides0 + 1;
  76:../Dave/Generated/CMSIS_DSP/Source/FilteringFunctions/arm_fir_interpolate_q31.c ****     uint32x4_t vec_strides2 = vec_strides0 + 2;
  77:../Dave/Generated/CMSIS_DSP/Source/FilteringFunctions/arm_fir_interpolate_q31.c ****     uint32x4_t vec_strides3 = vec_strides0 + 3;
  78:../Dave/Generated/CMSIS_DSP/Source/FilteringFunctions/arm_fir_interpolate_q31.c ****     q31x4_t vecState, vecCoef;
  79:../Dave/Generated/CMSIS_DSP/Source/FilteringFunctions/arm_fir_interpolate_q31.c **** 
  80:../Dave/Generated/CMSIS_DSP/Source/FilteringFunctions/arm_fir_interpolate_q31.c ****     /*
  81:../Dave/Generated/CMSIS_DSP/Source/FilteringFunctions/arm_fir_interpolate_q31.c ****      * S->pState buffer contains previous frame (phaseLen - 1) samples
  82:../Dave/Generated/CMSIS_DSP/Source/FilteringFunctions/arm_fir_interpolate_q31.c ****      * pStateCurnt points to the location where the new input data should be written
  83:../Dave/Generated/CMSIS_DSP/Source/FilteringFunctions/arm_fir_interpolate_q31.c ****      */
  84:../Dave/Generated/CMSIS_DSP/Source/FilteringFunctions/arm_fir_interpolate_q31.c ****     pStateCurnt = S->pState + ((q31_t) phaseLen - 1);
  85:../Dave/Generated/CMSIS_DSP/Source/FilteringFunctions/arm_fir_interpolate_q31.c ****     /*
  86:../Dave/Generated/CMSIS_DSP/Source/FilteringFunctions/arm_fir_interpolate_q31.c ****      * Total number of intput samples
  87:../Dave/Generated/CMSIS_DSP/Source/FilteringFunctions/arm_fir_interpolate_q31.c ****      */
  88:../Dave/Generated/CMSIS_DSP/Source/FilteringFunctions/arm_fir_interpolate_q31.c ****     blkCnt = blockSize;
  89:../Dave/Generated/CMSIS_DSP/Source/FilteringFunctions/arm_fir_interpolate_q31.c ****     /*
  90:../Dave/Generated/CMSIS_DSP/Source/FilteringFunctions/arm_fir_interpolate_q31.c ****      * Loop over the blockSize.
  91:../Dave/Generated/CMSIS_DSP/Source/FilteringFunctions/arm_fir_interpolate_q31.c ****      */
  92:../Dave/Generated/CMSIS_DSP/Source/FilteringFunctions/arm_fir_interpolate_q31.c ****     while (blkCnt > 0U)
  93:../Dave/Generated/CMSIS_DSP/Source/FilteringFunctions/arm_fir_interpolate_q31.c ****     {
  94:../Dave/Generated/CMSIS_DSP/Source/FilteringFunctions/arm_fir_interpolate_q31.c ****         /*
  95:../Dave/Generated/CMSIS_DSP/Source/FilteringFunctions/arm_fir_interpolate_q31.c ****          * Copy new input sample into the state buffer
  96:../Dave/Generated/CMSIS_DSP/Source/FilteringFunctions/arm_fir_interpolate_q31.c ****          */
  97:../Dave/Generated/CMSIS_DSP/Source/FilteringFunctions/arm_fir_interpolate_q31.c ****         *pStateCurnt++ = *pSrc++;
  98:../Dave/Generated/CMSIS_DSP/Source/FilteringFunctions/arm_fir_interpolate_q31.c ****         /*
  99:../Dave/Generated/CMSIS_DSP/Source/FilteringFunctions/arm_fir_interpolate_q31.c ****          * Loop over the Interpolation factor.
 100:../Dave/Generated/CMSIS_DSP/Source/FilteringFunctions/arm_fir_interpolate_q31.c ****          */
 101:../Dave/Generated/CMSIS_DSP/Source/FilteringFunctions/arm_fir_interpolate_q31.c ****         i = S->L;
 102:../Dave/Generated/CMSIS_DSP/Source/FilteringFunctions/arm_fir_interpolate_q31.c ****         while (i > 0U)
 103:../Dave/Generated/CMSIS_DSP/Source/FilteringFunctions/arm_fir_interpolate_q31.c ****         {
 104:../Dave/Generated/CMSIS_DSP/Source/FilteringFunctions/arm_fir_interpolate_q31.c ****             /*
 105:../Dave/Generated/CMSIS_DSP/Source/FilteringFunctions/arm_fir_interpolate_q31.c ****              * Initialize state pointer
 106:../Dave/Generated/CMSIS_DSP/Source/FilteringFunctions/arm_fir_interpolate_q31.c ****              */
 107:../Dave/Generated/CMSIS_DSP/Source/FilteringFunctions/arm_fir_interpolate_q31.c ****             ptr1 = pState;
 108:../Dave/Generated/CMSIS_DSP/Source/FilteringFunctions/arm_fir_interpolate_q31.c ****             if (i >= 4)
 109:../Dave/Generated/CMSIS_DSP/Source/FilteringFunctions/arm_fir_interpolate_q31.c ****             {
 110:../Dave/Generated/CMSIS_DSP/Source/FilteringFunctions/arm_fir_interpolate_q31.c ****                 /*
 111:../Dave/Generated/CMSIS_DSP/Source/FilteringFunctions/arm_fir_interpolate_q31.c ****                  * Initialize coefficient pointer
 112:../Dave/Generated/CMSIS_DSP/Source/FilteringFunctions/arm_fir_interpolate_q31.c ****                  */
 113:../Dave/Generated/CMSIS_DSP/Source/FilteringFunctions/arm_fir_interpolate_q31.c ****                 ptr2 = pCoeffs + (i - 1 - 3U);
 114:../Dave/Generated/CMSIS_DSP/Source/FilteringFunctions/arm_fir_interpolate_q31.c **** 
 115:../Dave/Generated/CMSIS_DSP/Source/FilteringFunctions/arm_fir_interpolate_q31.c ****                 q63_t     acc0 = 0LL;
 116:../Dave/Generated/CMSIS_DSP/Source/FilteringFunctions/arm_fir_interpolate_q31.c ****                 q63_t     acc1 = 0LL;
 117:../Dave/Generated/CMSIS_DSP/Source/FilteringFunctions/arm_fir_interpolate_q31.c ****                 q63_t     acc2 = 0LL;
 118:../Dave/Generated/CMSIS_DSP/Source/FilteringFunctions/arm_fir_interpolate_q31.c ****                 q63_t     acc3 = 0LL;
 119:../Dave/Generated/CMSIS_DSP/Source/FilteringFunctions/arm_fir_interpolate_q31.c **** 
 120:../Dave/Generated/CMSIS_DSP/Source/FilteringFunctions/arm_fir_interpolate_q31.c ****                 uint32_t  tapCnt = phaseLen >> 2;
 121:../Dave/Generated/CMSIS_DSP/Source/FilteringFunctions/arm_fir_interpolate_q31.c ****                 while (tapCnt > 0U)
 122:../Dave/Generated/CMSIS_DSP/Source/FilteringFunctions/arm_fir_interpolate_q31.c ****                 {
 123:../Dave/Generated/CMSIS_DSP/Source/FilteringFunctions/arm_fir_interpolate_q31.c ****                     vecState = vldrwq_s32(ptr1);
 124:../Dave/Generated/CMSIS_DSP/Source/FilteringFunctions/arm_fir_interpolate_q31.c **** 
 125:../Dave/Generated/CMSIS_DSP/Source/FilteringFunctions/arm_fir_interpolate_q31.c ****                     vecCoef = vldrwq_gather_shifted_offset_s32(ptr2, vec_strides3);
 126:../Dave/Generated/CMSIS_DSP/Source/FilteringFunctions/arm_fir_interpolate_q31.c ****                     acc0 = vrmlaldavhaq(acc0, vecState, vecCoef);
 127:../Dave/Generated/CMSIS_DSP/Source/FilteringFunctions/arm_fir_interpolate_q31.c **** 
 128:../Dave/Generated/CMSIS_DSP/Source/FilteringFunctions/arm_fir_interpolate_q31.c ****                     vecCoef = vldrwq_gather_shifted_offset_s32(ptr2, vec_strides2);
 129:../Dave/Generated/CMSIS_DSP/Source/FilteringFunctions/arm_fir_interpolate_q31.c ****                     acc1 = vrmlaldavhaq(acc1, vecState, vecCoef);
 130:../Dave/Generated/CMSIS_DSP/Source/FilteringFunctions/arm_fir_interpolate_q31.c **** 
 131:../Dave/Generated/CMSIS_DSP/Source/FilteringFunctions/arm_fir_interpolate_q31.c ****                     vecCoef = vldrwq_gather_shifted_offset_s32(ptr2, vec_strides1);
 132:../Dave/Generated/CMSIS_DSP/Source/FilteringFunctions/arm_fir_interpolate_q31.c ****                     acc2 = vrmlaldavhaq(acc2, vecState, vecCoef);
 133:../Dave/Generated/CMSIS_DSP/Source/FilteringFunctions/arm_fir_interpolate_q31.c **** 
 134:../Dave/Generated/CMSIS_DSP/Source/FilteringFunctions/arm_fir_interpolate_q31.c ****                     vecCoef = vldrwq_gather_shifted_offset_s32(ptr2, vec_strides0);
 135:../Dave/Generated/CMSIS_DSP/Source/FilteringFunctions/arm_fir_interpolate_q31.c ****                     acc3 = vrmlaldavhaq(acc3, vecState, vecCoef);
 136:../Dave/Generated/CMSIS_DSP/Source/FilteringFunctions/arm_fir_interpolate_q31.c **** 
 137:../Dave/Generated/CMSIS_DSP/Source/FilteringFunctions/arm_fir_interpolate_q31.c ****                     ptr1 += 4;
 138:../Dave/Generated/CMSIS_DSP/Source/FilteringFunctions/arm_fir_interpolate_q31.c ****                     ptr2 = ptr2 + S->L * 4;
 139:../Dave/Generated/CMSIS_DSP/Source/FilteringFunctions/arm_fir_interpolate_q31.c ****                     tapCnt--;
 140:../Dave/Generated/CMSIS_DSP/Source/FilteringFunctions/arm_fir_interpolate_q31.c ****                 }
 141:../Dave/Generated/CMSIS_DSP/Source/FilteringFunctions/arm_fir_interpolate_q31.c ****                 tapCnt = phaseLen & 3;
 142:../Dave/Generated/CMSIS_DSP/Source/FilteringFunctions/arm_fir_interpolate_q31.c ****                 if (tapCnt > 0U)
 143:../Dave/Generated/CMSIS_DSP/Source/FilteringFunctions/arm_fir_interpolate_q31.c ****                 {
 144:../Dave/Generated/CMSIS_DSP/Source/FilteringFunctions/arm_fir_interpolate_q31.c ****                     mve_pred16_t p0 = vctp32q(tapCnt);
 145:../Dave/Generated/CMSIS_DSP/Source/FilteringFunctions/arm_fir_interpolate_q31.c **** 
 146:../Dave/Generated/CMSIS_DSP/Source/FilteringFunctions/arm_fir_interpolate_q31.c ****                     vecState = vldrwq_z_s32(ptr1, p0);
 147:../Dave/Generated/CMSIS_DSP/Source/FilteringFunctions/arm_fir_interpolate_q31.c **** 
 148:../Dave/Generated/CMSIS_DSP/Source/FilteringFunctions/arm_fir_interpolate_q31.c ****                     vecCoef = vldrwq_gather_shifted_offset_z_s32(ptr2, vec_strides3, p0);
 149:../Dave/Generated/CMSIS_DSP/Source/FilteringFunctions/arm_fir_interpolate_q31.c ****                     acc0 = vrmlaldavhaq(acc0, vecState, vecCoef);
 150:../Dave/Generated/CMSIS_DSP/Source/FilteringFunctions/arm_fir_interpolate_q31.c **** 
 151:../Dave/Generated/CMSIS_DSP/Source/FilteringFunctions/arm_fir_interpolate_q31.c ****                     vecCoef = vldrwq_gather_shifted_offset_z_s32(ptr2, vec_strides2, p0);
 152:../Dave/Generated/CMSIS_DSP/Source/FilteringFunctions/arm_fir_interpolate_q31.c ****                     acc1 = vrmlaldavhaq(acc1, vecState, vecCoef);
 153:../Dave/Generated/CMSIS_DSP/Source/FilteringFunctions/arm_fir_interpolate_q31.c **** 
 154:../Dave/Generated/CMSIS_DSP/Source/FilteringFunctions/arm_fir_interpolate_q31.c ****                     vecCoef = vldrwq_gather_shifted_offset_z_s32(ptr2, vec_strides1, p0);
 155:../Dave/Generated/CMSIS_DSP/Source/FilteringFunctions/arm_fir_interpolate_q31.c ****                     acc2 = vrmlaldavhaq(acc2, vecState, vecCoef);
 156:../Dave/Generated/CMSIS_DSP/Source/FilteringFunctions/arm_fir_interpolate_q31.c **** 
 157:../Dave/Generated/CMSIS_DSP/Source/FilteringFunctions/arm_fir_interpolate_q31.c ****                     vecCoef = vldrwq_gather_shifted_offset_z_s32(ptr2, vec_strides0, p0);
 158:../Dave/Generated/CMSIS_DSP/Source/FilteringFunctions/arm_fir_interpolate_q31.c ****                     acc3 = vrmlaldavhaq(acc3, vecState, vecCoef);
 159:../Dave/Generated/CMSIS_DSP/Source/FilteringFunctions/arm_fir_interpolate_q31.c ****                 }
 160:../Dave/Generated/CMSIS_DSP/Source/FilteringFunctions/arm_fir_interpolate_q31.c **** 
 161:../Dave/Generated/CMSIS_DSP/Source/FilteringFunctions/arm_fir_interpolate_q31.c ****                 acc0 = asrl(acc0, 31 - 8);
 162:../Dave/Generated/CMSIS_DSP/Source/FilteringFunctions/arm_fir_interpolate_q31.c ****                 acc1 = asrl(acc1, 31 - 8);
 163:../Dave/Generated/CMSIS_DSP/Source/FilteringFunctions/arm_fir_interpolate_q31.c ****                 acc2 = asrl(acc2, 31 - 8);
 164:../Dave/Generated/CMSIS_DSP/Source/FilteringFunctions/arm_fir_interpolate_q31.c ****                 acc3 = asrl(acc3, 31 - 8);
 165:../Dave/Generated/CMSIS_DSP/Source/FilteringFunctions/arm_fir_interpolate_q31.c **** 
 166:../Dave/Generated/CMSIS_DSP/Source/FilteringFunctions/arm_fir_interpolate_q31.c ****                 *pDst++ = (q31_t) acc0;
 167:../Dave/Generated/CMSIS_DSP/Source/FilteringFunctions/arm_fir_interpolate_q31.c ****                 *pDst++ = (q31_t) acc1;
 168:../Dave/Generated/CMSIS_DSP/Source/FilteringFunctions/arm_fir_interpolate_q31.c ****                 *pDst++ = (q31_t) acc2;
 169:../Dave/Generated/CMSIS_DSP/Source/FilteringFunctions/arm_fir_interpolate_q31.c ****                 *pDst++ = (q31_t) acc3;
 170:../Dave/Generated/CMSIS_DSP/Source/FilteringFunctions/arm_fir_interpolate_q31.c ****                 i -= 4;
 171:../Dave/Generated/CMSIS_DSP/Source/FilteringFunctions/arm_fir_interpolate_q31.c ****             }
 172:../Dave/Generated/CMSIS_DSP/Source/FilteringFunctions/arm_fir_interpolate_q31.c ****             else if (i >= 3)
 173:../Dave/Generated/CMSIS_DSP/Source/FilteringFunctions/arm_fir_interpolate_q31.c ****             {
 174:../Dave/Generated/CMSIS_DSP/Source/FilteringFunctions/arm_fir_interpolate_q31.c ****                 /*
 175:../Dave/Generated/CMSIS_DSP/Source/FilteringFunctions/arm_fir_interpolate_q31.c ****                  * Initialize coefficient pointer
 176:../Dave/Generated/CMSIS_DSP/Source/FilteringFunctions/arm_fir_interpolate_q31.c ****                  */
 177:../Dave/Generated/CMSIS_DSP/Source/FilteringFunctions/arm_fir_interpolate_q31.c ****                 ptr2 = pCoeffs + (i - 1U - 2);
 178:../Dave/Generated/CMSIS_DSP/Source/FilteringFunctions/arm_fir_interpolate_q31.c **** 
 179:../Dave/Generated/CMSIS_DSP/Source/FilteringFunctions/arm_fir_interpolate_q31.c ****                 q63_t     acc0 = 0LL;
 180:../Dave/Generated/CMSIS_DSP/Source/FilteringFunctions/arm_fir_interpolate_q31.c ****                 q63_t     acc1 = 0LL;
 181:../Dave/Generated/CMSIS_DSP/Source/FilteringFunctions/arm_fir_interpolate_q31.c ****                 q63_t     acc2 = 0LL;
 182:../Dave/Generated/CMSIS_DSP/Source/FilteringFunctions/arm_fir_interpolate_q31.c **** 
 183:../Dave/Generated/CMSIS_DSP/Source/FilteringFunctions/arm_fir_interpolate_q31.c ****                 uint32_t  tapCnt = phaseLen >> 2;
 184:../Dave/Generated/CMSIS_DSP/Source/FilteringFunctions/arm_fir_interpolate_q31.c ****                 while (tapCnt > 0U)
 185:../Dave/Generated/CMSIS_DSP/Source/FilteringFunctions/arm_fir_interpolate_q31.c ****                 {
 186:../Dave/Generated/CMSIS_DSP/Source/FilteringFunctions/arm_fir_interpolate_q31.c ****                     vecState = vldrwq_s32(ptr1);
 187:../Dave/Generated/CMSIS_DSP/Source/FilteringFunctions/arm_fir_interpolate_q31.c **** 
 188:../Dave/Generated/CMSIS_DSP/Source/FilteringFunctions/arm_fir_interpolate_q31.c ****                     vecCoef = vldrwq_gather_shifted_offset_s32(ptr2, vec_strides2);
 189:../Dave/Generated/CMSIS_DSP/Source/FilteringFunctions/arm_fir_interpolate_q31.c ****                     acc0 = vrmlaldavhaq(acc0, vecState, vecCoef);
 190:../Dave/Generated/CMSIS_DSP/Source/FilteringFunctions/arm_fir_interpolate_q31.c **** 
 191:../Dave/Generated/CMSIS_DSP/Source/FilteringFunctions/arm_fir_interpolate_q31.c ****                     vecCoef = vldrwq_gather_shifted_offset_s32(ptr2, vec_strides1);
 192:../Dave/Generated/CMSIS_DSP/Source/FilteringFunctions/arm_fir_interpolate_q31.c ****                     acc1 = vrmlaldavhaq(acc1, vecState, vecCoef);
 193:../Dave/Generated/CMSIS_DSP/Source/FilteringFunctions/arm_fir_interpolate_q31.c **** 
 194:../Dave/Generated/CMSIS_DSP/Source/FilteringFunctions/arm_fir_interpolate_q31.c ****                     vecCoef = vldrwq_gather_shifted_offset_s32(ptr2, vec_strides0);
 195:../Dave/Generated/CMSIS_DSP/Source/FilteringFunctions/arm_fir_interpolate_q31.c ****                     acc2 = vrmlaldavhaq(acc2, vecState, vecCoef);
 196:../Dave/Generated/CMSIS_DSP/Source/FilteringFunctions/arm_fir_interpolate_q31.c **** 
 197:../Dave/Generated/CMSIS_DSP/Source/FilteringFunctions/arm_fir_interpolate_q31.c ****                     ptr1 += 4;
 198:../Dave/Generated/CMSIS_DSP/Source/FilteringFunctions/arm_fir_interpolate_q31.c ****                     ptr2 = ptr2 + S->L * 4;
 199:../Dave/Generated/CMSIS_DSP/Source/FilteringFunctions/arm_fir_interpolate_q31.c ****                     tapCnt--;
 200:../Dave/Generated/CMSIS_DSP/Source/FilteringFunctions/arm_fir_interpolate_q31.c ****                 }
 201:../Dave/Generated/CMSIS_DSP/Source/FilteringFunctions/arm_fir_interpolate_q31.c ****                 tapCnt = phaseLen & 3;
 202:../Dave/Generated/CMSIS_DSP/Source/FilteringFunctions/arm_fir_interpolate_q31.c ****                 if (tapCnt > 0U)
 203:../Dave/Generated/CMSIS_DSP/Source/FilteringFunctions/arm_fir_interpolate_q31.c ****                 {
 204:../Dave/Generated/CMSIS_DSP/Source/FilteringFunctions/arm_fir_interpolate_q31.c ****                     mve_pred16_t p0 = vctp32q(tapCnt);
 205:../Dave/Generated/CMSIS_DSP/Source/FilteringFunctions/arm_fir_interpolate_q31.c **** 
 206:../Dave/Generated/CMSIS_DSP/Source/FilteringFunctions/arm_fir_interpolate_q31.c ****                     vecState = vldrwq_z_s32(ptr1, p0);
 207:../Dave/Generated/CMSIS_DSP/Source/FilteringFunctions/arm_fir_interpolate_q31.c **** 
 208:../Dave/Generated/CMSIS_DSP/Source/FilteringFunctions/arm_fir_interpolate_q31.c ****                     vecCoef = vldrwq_gather_shifted_offset_z_s32(ptr2, vec_strides2, p0);
 209:../Dave/Generated/CMSIS_DSP/Source/FilteringFunctions/arm_fir_interpolate_q31.c ****                     acc0 = vrmlaldavhaq(acc0, vecState, vecCoef);
 210:../Dave/Generated/CMSIS_DSP/Source/FilteringFunctions/arm_fir_interpolate_q31.c **** 
 211:../Dave/Generated/CMSIS_DSP/Source/FilteringFunctions/arm_fir_interpolate_q31.c ****                     vecCoef = vldrwq_gather_shifted_offset_z_s32(ptr2, vec_strides1, p0);
 212:../Dave/Generated/CMSIS_DSP/Source/FilteringFunctions/arm_fir_interpolate_q31.c ****                     acc1 = vrmlaldavhaq(acc1, vecState, vecCoef);
 213:../Dave/Generated/CMSIS_DSP/Source/FilteringFunctions/arm_fir_interpolate_q31.c **** 
 214:../Dave/Generated/CMSIS_DSP/Source/FilteringFunctions/arm_fir_interpolate_q31.c ****                     vecCoef = vldrwq_gather_shifted_offset_z_s32(ptr2, vec_strides0, p0);
 215:../Dave/Generated/CMSIS_DSP/Source/FilteringFunctions/arm_fir_interpolate_q31.c ****                     acc2 = vrmlaldavhaq(acc2, vecState, vecCoef);
 216:../Dave/Generated/CMSIS_DSP/Source/FilteringFunctions/arm_fir_interpolate_q31.c ****                 }
 217:../Dave/Generated/CMSIS_DSP/Source/FilteringFunctions/arm_fir_interpolate_q31.c **** 
 218:../Dave/Generated/CMSIS_DSP/Source/FilteringFunctions/arm_fir_interpolate_q31.c ****                 acc0 = asrl(acc0, 31 - 8);
 219:../Dave/Generated/CMSIS_DSP/Source/FilteringFunctions/arm_fir_interpolate_q31.c ****                 acc1 = asrl(acc1, 31 - 8);
 220:../Dave/Generated/CMSIS_DSP/Source/FilteringFunctions/arm_fir_interpolate_q31.c ****                 acc2 = asrl(acc2, 31 - 8);
 221:../Dave/Generated/CMSIS_DSP/Source/FilteringFunctions/arm_fir_interpolate_q31.c **** 
 222:../Dave/Generated/CMSIS_DSP/Source/FilteringFunctions/arm_fir_interpolate_q31.c ****                 *pDst++ = (q31_t) acc0;
 223:../Dave/Generated/CMSIS_DSP/Source/FilteringFunctions/arm_fir_interpolate_q31.c ****                 *pDst++ = (q31_t) acc1;
 224:../Dave/Generated/CMSIS_DSP/Source/FilteringFunctions/arm_fir_interpolate_q31.c ****                 *pDst++ = (q31_t) acc2;
 225:../Dave/Generated/CMSIS_DSP/Source/FilteringFunctions/arm_fir_interpolate_q31.c ****                 i -= 3;
 226:../Dave/Generated/CMSIS_DSP/Source/FilteringFunctions/arm_fir_interpolate_q31.c ****             }
 227:../Dave/Generated/CMSIS_DSP/Source/FilteringFunctions/arm_fir_interpolate_q31.c ****             else if (i >= 2)
 228:../Dave/Generated/CMSIS_DSP/Source/FilteringFunctions/arm_fir_interpolate_q31.c ****             {
 229:../Dave/Generated/CMSIS_DSP/Source/FilteringFunctions/arm_fir_interpolate_q31.c ****                 /*
 230:../Dave/Generated/CMSIS_DSP/Source/FilteringFunctions/arm_fir_interpolate_q31.c ****                  * Initialize coefficient pointer
 231:../Dave/Generated/CMSIS_DSP/Source/FilteringFunctions/arm_fir_interpolate_q31.c ****                  */
 232:../Dave/Generated/CMSIS_DSP/Source/FilteringFunctions/arm_fir_interpolate_q31.c ****                 ptr2 = pCoeffs + (i - 1U - 1);
 233:../Dave/Generated/CMSIS_DSP/Source/FilteringFunctions/arm_fir_interpolate_q31.c **** 
 234:../Dave/Generated/CMSIS_DSP/Source/FilteringFunctions/arm_fir_interpolate_q31.c ****                 q63_t     acc0 = 0LL;
 235:../Dave/Generated/CMSIS_DSP/Source/FilteringFunctions/arm_fir_interpolate_q31.c ****                 q63_t     acc1 = 0LL;
 236:../Dave/Generated/CMSIS_DSP/Source/FilteringFunctions/arm_fir_interpolate_q31.c **** 
 237:../Dave/Generated/CMSIS_DSP/Source/FilteringFunctions/arm_fir_interpolate_q31.c ****                 uint32_t  tapCnt = phaseLen >> 2;
 238:../Dave/Generated/CMSIS_DSP/Source/FilteringFunctions/arm_fir_interpolate_q31.c ****                 while (tapCnt > 0U)
 239:../Dave/Generated/CMSIS_DSP/Source/FilteringFunctions/arm_fir_interpolate_q31.c ****                 {
 240:../Dave/Generated/CMSIS_DSP/Source/FilteringFunctions/arm_fir_interpolate_q31.c ****                     vecState = vldrwq_s32(ptr1);
 241:../Dave/Generated/CMSIS_DSP/Source/FilteringFunctions/arm_fir_interpolate_q31.c **** 
 242:../Dave/Generated/CMSIS_DSP/Source/FilteringFunctions/arm_fir_interpolate_q31.c ****                     vecCoef = vldrwq_gather_shifted_offset_s32(ptr2, vec_strides1);
 243:../Dave/Generated/CMSIS_DSP/Source/FilteringFunctions/arm_fir_interpolate_q31.c ****                     acc0 = vrmlaldavhaq(acc0, vecState, vecCoef);
 244:../Dave/Generated/CMSIS_DSP/Source/FilteringFunctions/arm_fir_interpolate_q31.c **** 
 245:../Dave/Generated/CMSIS_DSP/Source/FilteringFunctions/arm_fir_interpolate_q31.c ****                     vecCoef = vldrwq_gather_shifted_offset_s32(ptr2, vec_strides0);
 246:../Dave/Generated/CMSIS_DSP/Source/FilteringFunctions/arm_fir_interpolate_q31.c ****                     acc1 = vrmlaldavhaq(acc1, vecState, vecCoef);
 247:../Dave/Generated/CMSIS_DSP/Source/FilteringFunctions/arm_fir_interpolate_q31.c **** 
 248:../Dave/Generated/CMSIS_DSP/Source/FilteringFunctions/arm_fir_interpolate_q31.c ****                     ptr1 += 4;
 249:../Dave/Generated/CMSIS_DSP/Source/FilteringFunctions/arm_fir_interpolate_q31.c ****                     ptr2 = ptr2 + S->L * 4;
 250:../Dave/Generated/CMSIS_DSP/Source/FilteringFunctions/arm_fir_interpolate_q31.c ****                     tapCnt--;
 251:../Dave/Generated/CMSIS_DSP/Source/FilteringFunctions/arm_fir_interpolate_q31.c ****                 }
 252:../Dave/Generated/CMSIS_DSP/Source/FilteringFunctions/arm_fir_interpolate_q31.c ****                 tapCnt = phaseLen & 3;
 253:../Dave/Generated/CMSIS_DSP/Source/FilteringFunctions/arm_fir_interpolate_q31.c ****                 if (tapCnt > 0U)
 254:../Dave/Generated/CMSIS_DSP/Source/FilteringFunctions/arm_fir_interpolate_q31.c ****                 {
 255:../Dave/Generated/CMSIS_DSP/Source/FilteringFunctions/arm_fir_interpolate_q31.c ****                     mve_pred16_t p0 = vctp32q(tapCnt);
 256:../Dave/Generated/CMSIS_DSP/Source/FilteringFunctions/arm_fir_interpolate_q31.c **** 
 257:../Dave/Generated/CMSIS_DSP/Source/FilteringFunctions/arm_fir_interpolate_q31.c ****                     vecState = vldrwq_z_s32(ptr1, p0);
 258:../Dave/Generated/CMSIS_DSP/Source/FilteringFunctions/arm_fir_interpolate_q31.c **** 
 259:../Dave/Generated/CMSIS_DSP/Source/FilteringFunctions/arm_fir_interpolate_q31.c ****                     vecCoef = vldrwq_gather_shifted_offset_z_s32(ptr2, vec_strides1, p0);
 260:../Dave/Generated/CMSIS_DSP/Source/FilteringFunctions/arm_fir_interpolate_q31.c ****                     acc0 = vrmlaldavhaq(acc0, vecState, vecCoef);
 261:../Dave/Generated/CMSIS_DSP/Source/FilteringFunctions/arm_fir_interpolate_q31.c **** 
 262:../Dave/Generated/CMSIS_DSP/Source/FilteringFunctions/arm_fir_interpolate_q31.c ****                     vecCoef = vldrwq_gather_shifted_offset_z_s32(ptr2, vec_strides0, p0);
 263:../Dave/Generated/CMSIS_DSP/Source/FilteringFunctions/arm_fir_interpolate_q31.c ****                     acc1 = vrmlaldavhaq(acc1, vecState, vecCoef);
 264:../Dave/Generated/CMSIS_DSP/Source/FilteringFunctions/arm_fir_interpolate_q31.c ****                 }
 265:../Dave/Generated/CMSIS_DSP/Source/FilteringFunctions/arm_fir_interpolate_q31.c **** 
 266:../Dave/Generated/CMSIS_DSP/Source/FilteringFunctions/arm_fir_interpolate_q31.c ****                 acc0 = asrl(acc0, 31 - 8);
 267:../Dave/Generated/CMSIS_DSP/Source/FilteringFunctions/arm_fir_interpolate_q31.c ****                 acc1 = asrl(acc1, 31 - 8);
 268:../Dave/Generated/CMSIS_DSP/Source/FilteringFunctions/arm_fir_interpolate_q31.c **** 
 269:../Dave/Generated/CMSIS_DSP/Source/FilteringFunctions/arm_fir_interpolate_q31.c ****                 *pDst++ = (q31_t) acc0;
 270:../Dave/Generated/CMSIS_DSP/Source/FilteringFunctions/arm_fir_interpolate_q31.c ****                 *pDst++ = (q31_t) acc1;
 271:../Dave/Generated/CMSIS_DSP/Source/FilteringFunctions/arm_fir_interpolate_q31.c ****                 i -= 2;
 272:../Dave/Generated/CMSIS_DSP/Source/FilteringFunctions/arm_fir_interpolate_q31.c ****             }
 273:../Dave/Generated/CMSIS_DSP/Source/FilteringFunctions/arm_fir_interpolate_q31.c ****             else
 274:../Dave/Generated/CMSIS_DSP/Source/FilteringFunctions/arm_fir_interpolate_q31.c ****             {
 275:../Dave/Generated/CMSIS_DSP/Source/FilteringFunctions/arm_fir_interpolate_q31.c ****                 /*
 276:../Dave/Generated/CMSIS_DSP/Source/FilteringFunctions/arm_fir_interpolate_q31.c ****                  * Initialize coefficient pointer
 277:../Dave/Generated/CMSIS_DSP/Source/FilteringFunctions/arm_fir_interpolate_q31.c ****                  */
 278:../Dave/Generated/CMSIS_DSP/Source/FilteringFunctions/arm_fir_interpolate_q31.c ****                 ptr2 = pCoeffs + (i - 1U);
 279:../Dave/Generated/CMSIS_DSP/Source/FilteringFunctions/arm_fir_interpolate_q31.c **** 
 280:../Dave/Generated/CMSIS_DSP/Source/FilteringFunctions/arm_fir_interpolate_q31.c ****                 q63_t     acc0 = 0LL;
 281:../Dave/Generated/CMSIS_DSP/Source/FilteringFunctions/arm_fir_interpolate_q31.c **** 
 282:../Dave/Generated/CMSIS_DSP/Source/FilteringFunctions/arm_fir_interpolate_q31.c ****                 uint32_t  tapCnt = phaseLen >> 2;
 283:../Dave/Generated/CMSIS_DSP/Source/FilteringFunctions/arm_fir_interpolate_q31.c ****                 while (tapCnt > 0U)
 284:../Dave/Generated/CMSIS_DSP/Source/FilteringFunctions/arm_fir_interpolate_q31.c ****                 {
 285:../Dave/Generated/CMSIS_DSP/Source/FilteringFunctions/arm_fir_interpolate_q31.c ****                     vecState = vldrwq_s32(ptr1);
 286:../Dave/Generated/CMSIS_DSP/Source/FilteringFunctions/arm_fir_interpolate_q31.c ****                     vecCoef = vldrwq_gather_shifted_offset_s32(ptr2, vec_strides0);
 287:../Dave/Generated/CMSIS_DSP/Source/FilteringFunctions/arm_fir_interpolate_q31.c **** 
 288:../Dave/Generated/CMSIS_DSP/Source/FilteringFunctions/arm_fir_interpolate_q31.c ****                     acc0 = vrmlaldavhaq(acc0, vecState, vecCoef);
 289:../Dave/Generated/CMSIS_DSP/Source/FilteringFunctions/arm_fir_interpolate_q31.c **** 
 290:../Dave/Generated/CMSIS_DSP/Source/FilteringFunctions/arm_fir_interpolate_q31.c ****                     ptr1 += 4;
 291:../Dave/Generated/CMSIS_DSP/Source/FilteringFunctions/arm_fir_interpolate_q31.c ****                     ptr2 = ptr2 + S->L * 4;
 292:../Dave/Generated/CMSIS_DSP/Source/FilteringFunctions/arm_fir_interpolate_q31.c ****                     tapCnt--;
 293:../Dave/Generated/CMSIS_DSP/Source/FilteringFunctions/arm_fir_interpolate_q31.c ****                 }
 294:../Dave/Generated/CMSIS_DSP/Source/FilteringFunctions/arm_fir_interpolate_q31.c ****                 tapCnt = phaseLen & 3;
 295:../Dave/Generated/CMSIS_DSP/Source/FilteringFunctions/arm_fir_interpolate_q31.c ****                 if (tapCnt > 0U)
 296:../Dave/Generated/CMSIS_DSP/Source/FilteringFunctions/arm_fir_interpolate_q31.c ****                 {
 297:../Dave/Generated/CMSIS_DSP/Source/FilteringFunctions/arm_fir_interpolate_q31.c ****                     mve_pred16_t p0 = vctp32q(tapCnt);
 298:../Dave/Generated/CMSIS_DSP/Source/FilteringFunctions/arm_fir_interpolate_q31.c **** 
 299:../Dave/Generated/CMSIS_DSP/Source/FilteringFunctions/arm_fir_interpolate_q31.c ****                     vecState = vldrwq_z_s32(ptr1, p0);
 300:../Dave/Generated/CMSIS_DSP/Source/FilteringFunctions/arm_fir_interpolate_q31.c ****                     vecCoef = vldrwq_gather_shifted_offset_z_s32(ptr2, vec_strides0, p0);
 301:../Dave/Generated/CMSIS_DSP/Source/FilteringFunctions/arm_fir_interpolate_q31.c ****                     acc0 = vrmlaldavhaq(acc0, vecState, vecCoef);
 302:../Dave/Generated/CMSIS_DSP/Source/FilteringFunctions/arm_fir_interpolate_q31.c ****                 }
 303:../Dave/Generated/CMSIS_DSP/Source/FilteringFunctions/arm_fir_interpolate_q31.c **** 
 304:../Dave/Generated/CMSIS_DSP/Source/FilteringFunctions/arm_fir_interpolate_q31.c ****                 acc0 = asrl(acc0, 31 - 8);
 305:../Dave/Generated/CMSIS_DSP/Source/FilteringFunctions/arm_fir_interpolate_q31.c ****                 *pDst++ = (q31_t) acc0;
 306:../Dave/Generated/CMSIS_DSP/Source/FilteringFunctions/arm_fir_interpolate_q31.c ****                 /*
 307:../Dave/Generated/CMSIS_DSP/Source/FilteringFunctions/arm_fir_interpolate_q31.c ****                  * Decrement the loop counter
 308:../Dave/Generated/CMSIS_DSP/Source/FilteringFunctions/arm_fir_interpolate_q31.c ****                  */
 309:../Dave/Generated/CMSIS_DSP/Source/FilteringFunctions/arm_fir_interpolate_q31.c ****                 i--;
 310:../Dave/Generated/CMSIS_DSP/Source/FilteringFunctions/arm_fir_interpolate_q31.c ****             }
 311:../Dave/Generated/CMSIS_DSP/Source/FilteringFunctions/arm_fir_interpolate_q31.c ****         }
 312:../Dave/Generated/CMSIS_DSP/Source/FilteringFunctions/arm_fir_interpolate_q31.c ****         /*
 313:../Dave/Generated/CMSIS_DSP/Source/FilteringFunctions/arm_fir_interpolate_q31.c ****          * Advance the state pointer by 1
 314:../Dave/Generated/CMSIS_DSP/Source/FilteringFunctions/arm_fir_interpolate_q31.c ****          * * to process the next group of interpolation factor number samples
 315:../Dave/Generated/CMSIS_DSP/Source/FilteringFunctions/arm_fir_interpolate_q31.c ****          */
 316:../Dave/Generated/CMSIS_DSP/Source/FilteringFunctions/arm_fir_interpolate_q31.c ****         pState = pState + 1;
 317:../Dave/Generated/CMSIS_DSP/Source/FilteringFunctions/arm_fir_interpolate_q31.c ****         /*
 318:../Dave/Generated/CMSIS_DSP/Source/FilteringFunctions/arm_fir_interpolate_q31.c ****          * Decrement the loop counter
 319:../Dave/Generated/CMSIS_DSP/Source/FilteringFunctions/arm_fir_interpolate_q31.c ****          */
 320:../Dave/Generated/CMSIS_DSP/Source/FilteringFunctions/arm_fir_interpolate_q31.c ****         blkCnt--;
 321:../Dave/Generated/CMSIS_DSP/Source/FilteringFunctions/arm_fir_interpolate_q31.c ****     }
 322:../Dave/Generated/CMSIS_DSP/Source/FilteringFunctions/arm_fir_interpolate_q31.c **** 
 323:../Dave/Generated/CMSIS_DSP/Source/FilteringFunctions/arm_fir_interpolate_q31.c ****     /*
 324:../Dave/Generated/CMSIS_DSP/Source/FilteringFunctions/arm_fir_interpolate_q31.c ****      * Processing is complete.
 325:../Dave/Generated/CMSIS_DSP/Source/FilteringFunctions/arm_fir_interpolate_q31.c ****      * ** Now copy the last phaseLen - 1 samples to the satrt of the state buffer.
 326:../Dave/Generated/CMSIS_DSP/Source/FilteringFunctions/arm_fir_interpolate_q31.c ****      * ** This prepares the state buffer for the next function call.
 327:../Dave/Generated/CMSIS_DSP/Source/FilteringFunctions/arm_fir_interpolate_q31.c ****      */
 328:../Dave/Generated/CMSIS_DSP/Source/FilteringFunctions/arm_fir_interpolate_q31.c **** 
 329:../Dave/Generated/CMSIS_DSP/Source/FilteringFunctions/arm_fir_interpolate_q31.c ****     /*
 330:../Dave/Generated/CMSIS_DSP/Source/FilteringFunctions/arm_fir_interpolate_q31.c ****      * Points to the start of the state buffer
 331:../Dave/Generated/CMSIS_DSP/Source/FilteringFunctions/arm_fir_interpolate_q31.c ****      */
 332:../Dave/Generated/CMSIS_DSP/Source/FilteringFunctions/arm_fir_interpolate_q31.c ****     pStateCurnt = S->pState;
 333:../Dave/Generated/CMSIS_DSP/Source/FilteringFunctions/arm_fir_interpolate_q31.c ****     blkCnt = (phaseLen - 1U) >> 2;
 334:../Dave/Generated/CMSIS_DSP/Source/FilteringFunctions/arm_fir_interpolate_q31.c ****     while (blkCnt > 0U)
 335:../Dave/Generated/CMSIS_DSP/Source/FilteringFunctions/arm_fir_interpolate_q31.c ****     {
 336:../Dave/Generated/CMSIS_DSP/Source/FilteringFunctions/arm_fir_interpolate_q31.c ****         vst1q(pStateCurnt, vldrwq_s32(pState));
 337:../Dave/Generated/CMSIS_DSP/Source/FilteringFunctions/arm_fir_interpolate_q31.c ****         pState += 4;
 338:../Dave/Generated/CMSIS_DSP/Source/FilteringFunctions/arm_fir_interpolate_q31.c ****         pStateCurnt += 4;
 339:../Dave/Generated/CMSIS_DSP/Source/FilteringFunctions/arm_fir_interpolate_q31.c ****         blkCnt--;
 340:../Dave/Generated/CMSIS_DSP/Source/FilteringFunctions/arm_fir_interpolate_q31.c ****     }
 341:../Dave/Generated/CMSIS_DSP/Source/FilteringFunctions/arm_fir_interpolate_q31.c ****     blkCnt = (phaseLen - 1U) & 3;
 342:../Dave/Generated/CMSIS_DSP/Source/FilteringFunctions/arm_fir_interpolate_q31.c ****     if (blkCnt > 0U)
 343:../Dave/Generated/CMSIS_DSP/Source/FilteringFunctions/arm_fir_interpolate_q31.c ****     {
 344:../Dave/Generated/CMSIS_DSP/Source/FilteringFunctions/arm_fir_interpolate_q31.c ****         mve_pred16_t p0 = vctp32q(blkCnt);
 345:../Dave/Generated/CMSIS_DSP/Source/FilteringFunctions/arm_fir_interpolate_q31.c ****         vstrwq_p_s32(pStateCurnt, vldrwq_s32(pState), p0);
 346:../Dave/Generated/CMSIS_DSP/Source/FilteringFunctions/arm_fir_interpolate_q31.c ****     }
 347:../Dave/Generated/CMSIS_DSP/Source/FilteringFunctions/arm_fir_interpolate_q31.c **** }
 348:../Dave/Generated/CMSIS_DSP/Source/FilteringFunctions/arm_fir_interpolate_q31.c **** #else
 349:../Dave/Generated/CMSIS_DSP/Source/FilteringFunctions/arm_fir_interpolate_q31.c **** void arm_fir_interpolate_q31(
 350:../Dave/Generated/CMSIS_DSP/Source/FilteringFunctions/arm_fir_interpolate_q31.c ****   const arm_fir_interpolate_instance_q31 * S,
 351:../Dave/Generated/CMSIS_DSP/Source/FilteringFunctions/arm_fir_interpolate_q31.c ****   const q31_t * pSrc,
 352:../Dave/Generated/CMSIS_DSP/Source/FilteringFunctions/arm_fir_interpolate_q31.c ****         q31_t * pDst,
 353:../Dave/Generated/CMSIS_DSP/Source/FilteringFunctions/arm_fir_interpolate_q31.c ****         uint32_t blockSize)
 354:../Dave/Generated/CMSIS_DSP/Source/FilteringFunctions/arm_fir_interpolate_q31.c **** {
  28              	 .loc 1 354 0
  29              	 .cfi_startproc
  30              	 
  31              	 
  32 0000 F0B5     	 push {r4,r5,r6,r7,lr}
  33              	.LCFI0:
  34              	 .cfi_def_cfa_offset 20
  35              	 .cfi_offset 4,-20
  36              	 .cfi_offset 5,-16
  37              	 .cfi_offset 6,-12
  38              	 .cfi_offset 7,-8
  39              	 .cfi_offset 14,-4
  40 0002 91B0     	 sub sp,sp,#68
  41              	.LCFI1:
  42              	 .cfi_def_cfa_offset 88
  43 0004 00AF     	 add r7,sp,#0
  44              	.LCFI2:
  45              	 .cfi_def_cfa_register 7
  46 0006 F860     	 str r0,[r7,#12]
  47 0008 B960     	 str r1,[r7,#8]
  48 000a 7A60     	 str r2,[r7,#4]
  49 000c 3B60     	 str r3,[r7]
 355:../Dave/Generated/CMSIS_DSP/Source/FilteringFunctions/arm_fir_interpolate_q31.c **** #if (1)
 356:../Dave/Generated/CMSIS_DSP/Source/FilteringFunctions/arm_fir_interpolate_q31.c **** //#if !defined(ARM_MATH_CM0_FAMILY)
 357:../Dave/Generated/CMSIS_DSP/Source/FilteringFunctions/arm_fir_interpolate_q31.c **** 
 358:../Dave/Generated/CMSIS_DSP/Source/FilteringFunctions/arm_fir_interpolate_q31.c ****         q31_t *pState = S->pState;                     /* State pointer */
  50              	 .loc 1 358 0
  51 000e FB68     	 ldr r3,[r7,#12]
  52 0010 9B68     	 ldr r3,[r3,#8]
  53 0012 FB63     	 str r3,[r7,#60]
 359:../Dave/Generated/CMSIS_DSP/Source/FilteringFunctions/arm_fir_interpolate_q31.c ****   const q31_t *pCoeffs = S->pCoeffs;                   /* Coefficient pointer */
  54              	 .loc 1 359 0
  55 0014 FB68     	 ldr r3,[r7,#12]
  56 0016 5B68     	 ldr r3,[r3,#4]
  57 0018 7B61     	 str r3,[r7,#20]
 360:../Dave/Generated/CMSIS_DSP/Source/FilteringFunctions/arm_fir_interpolate_q31.c ****         q31_t *pStateCur;                              /* Points to the current sample of the state
 361:../Dave/Generated/CMSIS_DSP/Source/FilteringFunctions/arm_fir_interpolate_q31.c ****         q31_t *ptr1;                                   /* Temporary pointer for state buffer */
 362:../Dave/Generated/CMSIS_DSP/Source/FilteringFunctions/arm_fir_interpolate_q31.c ****   const q31_t *ptr2;                                   /* Temporary pointer for coefficient buffer 
 363:../Dave/Generated/CMSIS_DSP/Source/FilteringFunctions/arm_fir_interpolate_q31.c ****         q63_t sum0;                                    /* Accumulators */
 364:../Dave/Generated/CMSIS_DSP/Source/FilteringFunctions/arm_fir_interpolate_q31.c ****         uint32_t i, blkCnt, tapCnt;                    /* Loop counters */
 365:../Dave/Generated/CMSIS_DSP/Source/FilteringFunctions/arm_fir_interpolate_q31.c ****         uint32_t phaseLen = S->phaseLength;            /* Length of each polyphase filter component
  58              	 .loc 1 365 0
  59 001a FB68     	 ldr r3,[r7,#12]
  60 001c 5B88     	 ldrh r3,[r3,#2]
  61 001e 3B61     	 str r3,[r7,#16]
 366:../Dave/Generated/CMSIS_DSP/Source/FilteringFunctions/arm_fir_interpolate_q31.c ****         uint32_t j;
 367:../Dave/Generated/CMSIS_DSP/Source/FilteringFunctions/arm_fir_interpolate_q31.c **** 
 368:../Dave/Generated/CMSIS_DSP/Source/FilteringFunctions/arm_fir_interpolate_q31.c **** #if defined (ARM_MATH_LOOPUNROLL)
 369:../Dave/Generated/CMSIS_DSP/Source/FilteringFunctions/arm_fir_interpolate_q31.c ****         q63_t acc0, acc1, acc2, acc3;
 370:../Dave/Generated/CMSIS_DSP/Source/FilteringFunctions/arm_fir_interpolate_q31.c ****         q31_t x0, x1, x2, x3;
 371:../Dave/Generated/CMSIS_DSP/Source/FilteringFunctions/arm_fir_interpolate_q31.c ****         q31_t c0, c1, c2, c3;
 372:../Dave/Generated/CMSIS_DSP/Source/FilteringFunctions/arm_fir_interpolate_q31.c **** #endif
 373:../Dave/Generated/CMSIS_DSP/Source/FilteringFunctions/arm_fir_interpolate_q31.c **** 
 374:../Dave/Generated/CMSIS_DSP/Source/FilteringFunctions/arm_fir_interpolate_q31.c ****   /* S->pState buffer contains previous frame (phaseLen - 1) samples */
 375:../Dave/Generated/CMSIS_DSP/Source/FilteringFunctions/arm_fir_interpolate_q31.c ****   /* pStateCur points to the location where the new input data should be written */
 376:../Dave/Generated/CMSIS_DSP/Source/FilteringFunctions/arm_fir_interpolate_q31.c ****   pStateCur = S->pState + (phaseLen - 1U);
  62              	 .loc 1 376 0
  63 0020 FB68     	 ldr r3,[r7,#12]
  64 0022 9A68     	 ldr r2,[r3,#8]
  65 0024 3B69     	 ldr r3,[r7,#16]
  66 0026 03F18043 	 add r3,r3,#1073741824
  67 002a 013B     	 subs r3,r3,#1
  68 002c 9B00     	 lsls r3,r3,#2
  69 002e 1344     	 add r3,r3,r2
  70 0030 BB63     	 str r3,[r7,#56]
 377:../Dave/Generated/CMSIS_DSP/Source/FilteringFunctions/arm_fir_interpolate_q31.c **** 
 378:../Dave/Generated/CMSIS_DSP/Source/FilteringFunctions/arm_fir_interpolate_q31.c **** #if defined (ARM_MATH_LOOPUNROLL)
 379:../Dave/Generated/CMSIS_DSP/Source/FilteringFunctions/arm_fir_interpolate_q31.c **** 
 380:../Dave/Generated/CMSIS_DSP/Source/FilteringFunctions/arm_fir_interpolate_q31.c ****   /* Loop unrolling: Compute 4 outputs at a time */
 381:../Dave/Generated/CMSIS_DSP/Source/FilteringFunctions/arm_fir_interpolate_q31.c ****   blkCnt = blockSize >> 2U;
 382:../Dave/Generated/CMSIS_DSP/Source/FilteringFunctions/arm_fir_interpolate_q31.c **** 
 383:../Dave/Generated/CMSIS_DSP/Source/FilteringFunctions/arm_fir_interpolate_q31.c ****   while (blkCnt > 0U)
 384:../Dave/Generated/CMSIS_DSP/Source/FilteringFunctions/arm_fir_interpolate_q31.c ****   {
 385:../Dave/Generated/CMSIS_DSP/Source/FilteringFunctions/arm_fir_interpolate_q31.c ****     /* Copy new input sample into the state buffer */
 386:../Dave/Generated/CMSIS_DSP/Source/FilteringFunctions/arm_fir_interpolate_q31.c ****     *pStateCur++ = *pSrc++;
 387:../Dave/Generated/CMSIS_DSP/Source/FilteringFunctions/arm_fir_interpolate_q31.c ****     *pStateCur++ = *pSrc++;
 388:../Dave/Generated/CMSIS_DSP/Source/FilteringFunctions/arm_fir_interpolate_q31.c ****     *pStateCur++ = *pSrc++;
 389:../Dave/Generated/CMSIS_DSP/Source/FilteringFunctions/arm_fir_interpolate_q31.c ****     *pStateCur++ = *pSrc++;
 390:../Dave/Generated/CMSIS_DSP/Source/FilteringFunctions/arm_fir_interpolate_q31.c **** 
 391:../Dave/Generated/CMSIS_DSP/Source/FilteringFunctions/arm_fir_interpolate_q31.c ****     /* Address modifier index of coefficient buffer */
 392:../Dave/Generated/CMSIS_DSP/Source/FilteringFunctions/arm_fir_interpolate_q31.c ****     j = 1U;
 393:../Dave/Generated/CMSIS_DSP/Source/FilteringFunctions/arm_fir_interpolate_q31.c **** 
 394:../Dave/Generated/CMSIS_DSP/Source/FilteringFunctions/arm_fir_interpolate_q31.c ****     /* Loop over the Interpolation factor. */
 395:../Dave/Generated/CMSIS_DSP/Source/FilteringFunctions/arm_fir_interpolate_q31.c ****     i = (S->L);
 396:../Dave/Generated/CMSIS_DSP/Source/FilteringFunctions/arm_fir_interpolate_q31.c **** 
 397:../Dave/Generated/CMSIS_DSP/Source/FilteringFunctions/arm_fir_interpolate_q31.c ****     while (i > 0U)
 398:../Dave/Generated/CMSIS_DSP/Source/FilteringFunctions/arm_fir_interpolate_q31.c ****     {
 399:../Dave/Generated/CMSIS_DSP/Source/FilteringFunctions/arm_fir_interpolate_q31.c ****       /* Set accumulator to zero */
 400:../Dave/Generated/CMSIS_DSP/Source/FilteringFunctions/arm_fir_interpolate_q31.c ****       acc0 = 0;
 401:../Dave/Generated/CMSIS_DSP/Source/FilteringFunctions/arm_fir_interpolate_q31.c ****       acc1 = 0;
 402:../Dave/Generated/CMSIS_DSP/Source/FilteringFunctions/arm_fir_interpolate_q31.c ****       acc2 = 0;
 403:../Dave/Generated/CMSIS_DSP/Source/FilteringFunctions/arm_fir_interpolate_q31.c ****       acc3 = 0;
 404:../Dave/Generated/CMSIS_DSP/Source/FilteringFunctions/arm_fir_interpolate_q31.c **** 
 405:../Dave/Generated/CMSIS_DSP/Source/FilteringFunctions/arm_fir_interpolate_q31.c ****       /* Initialize state pointer */
 406:../Dave/Generated/CMSIS_DSP/Source/FilteringFunctions/arm_fir_interpolate_q31.c ****       ptr1 = pState;
 407:../Dave/Generated/CMSIS_DSP/Source/FilteringFunctions/arm_fir_interpolate_q31.c **** 
 408:../Dave/Generated/CMSIS_DSP/Source/FilteringFunctions/arm_fir_interpolate_q31.c ****       /* Initialize coefficient pointer */
 409:../Dave/Generated/CMSIS_DSP/Source/FilteringFunctions/arm_fir_interpolate_q31.c ****       ptr2 = pCoeffs + (S->L - j);
 410:../Dave/Generated/CMSIS_DSP/Source/FilteringFunctions/arm_fir_interpolate_q31.c **** 
 411:../Dave/Generated/CMSIS_DSP/Source/FilteringFunctions/arm_fir_interpolate_q31.c ****       /* Loop over the polyPhase length. Unroll by a factor of 4.
 412:../Dave/Generated/CMSIS_DSP/Source/FilteringFunctions/arm_fir_interpolate_q31.c ****          Repeat until we've computed numTaps-(4*S->L) coefficients. */
 413:../Dave/Generated/CMSIS_DSP/Source/FilteringFunctions/arm_fir_interpolate_q31.c ****       tapCnt = phaseLen >> 2U;
 414:../Dave/Generated/CMSIS_DSP/Source/FilteringFunctions/arm_fir_interpolate_q31.c **** 
 415:../Dave/Generated/CMSIS_DSP/Source/FilteringFunctions/arm_fir_interpolate_q31.c ****       x0 = *(ptr1++);
 416:../Dave/Generated/CMSIS_DSP/Source/FilteringFunctions/arm_fir_interpolate_q31.c ****       x1 = *(ptr1++);
 417:../Dave/Generated/CMSIS_DSP/Source/FilteringFunctions/arm_fir_interpolate_q31.c ****       x2 = *(ptr1++);
 418:../Dave/Generated/CMSIS_DSP/Source/FilteringFunctions/arm_fir_interpolate_q31.c **** 
 419:../Dave/Generated/CMSIS_DSP/Source/FilteringFunctions/arm_fir_interpolate_q31.c ****       while (tapCnt > 0U)
 420:../Dave/Generated/CMSIS_DSP/Source/FilteringFunctions/arm_fir_interpolate_q31.c ****       {
 421:../Dave/Generated/CMSIS_DSP/Source/FilteringFunctions/arm_fir_interpolate_q31.c ****         /* Read the input sample */
 422:../Dave/Generated/CMSIS_DSP/Source/FilteringFunctions/arm_fir_interpolate_q31.c ****         x3 = *(ptr1++);
 423:../Dave/Generated/CMSIS_DSP/Source/FilteringFunctions/arm_fir_interpolate_q31.c **** 
 424:../Dave/Generated/CMSIS_DSP/Source/FilteringFunctions/arm_fir_interpolate_q31.c ****         /* Read the coefficient */
 425:../Dave/Generated/CMSIS_DSP/Source/FilteringFunctions/arm_fir_interpolate_q31.c ****         c0 = *(ptr2);
 426:../Dave/Generated/CMSIS_DSP/Source/FilteringFunctions/arm_fir_interpolate_q31.c **** 
 427:../Dave/Generated/CMSIS_DSP/Source/FilteringFunctions/arm_fir_interpolate_q31.c ****         /* Perform the multiply-accumulate */
 428:../Dave/Generated/CMSIS_DSP/Source/FilteringFunctions/arm_fir_interpolate_q31.c ****         acc0 += (q63_t) x0 * c0;
 429:../Dave/Generated/CMSIS_DSP/Source/FilteringFunctions/arm_fir_interpolate_q31.c ****         acc1 += (q63_t) x1 * c0;
 430:../Dave/Generated/CMSIS_DSP/Source/FilteringFunctions/arm_fir_interpolate_q31.c ****         acc2 += (q63_t) x2 * c0;
 431:../Dave/Generated/CMSIS_DSP/Source/FilteringFunctions/arm_fir_interpolate_q31.c ****         acc3 += (q63_t) x3 * c0;
 432:../Dave/Generated/CMSIS_DSP/Source/FilteringFunctions/arm_fir_interpolate_q31.c **** 
 433:../Dave/Generated/CMSIS_DSP/Source/FilteringFunctions/arm_fir_interpolate_q31.c ****         /* Read the coefficient */
 434:../Dave/Generated/CMSIS_DSP/Source/FilteringFunctions/arm_fir_interpolate_q31.c ****         c1 = *(ptr2 + S->L);
 435:../Dave/Generated/CMSIS_DSP/Source/FilteringFunctions/arm_fir_interpolate_q31.c **** 
 436:../Dave/Generated/CMSIS_DSP/Source/FilteringFunctions/arm_fir_interpolate_q31.c ****         /* Read the input sample */
 437:../Dave/Generated/CMSIS_DSP/Source/FilteringFunctions/arm_fir_interpolate_q31.c ****         x0 = *(ptr1++);
 438:../Dave/Generated/CMSIS_DSP/Source/FilteringFunctions/arm_fir_interpolate_q31.c **** 
 439:../Dave/Generated/CMSIS_DSP/Source/FilteringFunctions/arm_fir_interpolate_q31.c ****         /* Perform the multiply-accumulate */
 440:../Dave/Generated/CMSIS_DSP/Source/FilteringFunctions/arm_fir_interpolate_q31.c ****         acc0 += (q63_t) x1 * c1;
 441:../Dave/Generated/CMSIS_DSP/Source/FilteringFunctions/arm_fir_interpolate_q31.c ****         acc1 += (q63_t) x2 * c1;
 442:../Dave/Generated/CMSIS_DSP/Source/FilteringFunctions/arm_fir_interpolate_q31.c ****         acc2 += (q63_t) x3 * c1;
 443:../Dave/Generated/CMSIS_DSP/Source/FilteringFunctions/arm_fir_interpolate_q31.c ****         acc3 += (q63_t) x0 * c1;
 444:../Dave/Generated/CMSIS_DSP/Source/FilteringFunctions/arm_fir_interpolate_q31.c **** 
 445:../Dave/Generated/CMSIS_DSP/Source/FilteringFunctions/arm_fir_interpolate_q31.c ****         /* Read the coefficient */
 446:../Dave/Generated/CMSIS_DSP/Source/FilteringFunctions/arm_fir_interpolate_q31.c ****         c2 = *(ptr2 + S->L * 2);
 447:../Dave/Generated/CMSIS_DSP/Source/FilteringFunctions/arm_fir_interpolate_q31.c **** 
 448:../Dave/Generated/CMSIS_DSP/Source/FilteringFunctions/arm_fir_interpolate_q31.c ****         /* Read the input sample */
 449:../Dave/Generated/CMSIS_DSP/Source/FilteringFunctions/arm_fir_interpolate_q31.c ****         x1 = *(ptr1++);
 450:../Dave/Generated/CMSIS_DSP/Source/FilteringFunctions/arm_fir_interpolate_q31.c **** 
 451:../Dave/Generated/CMSIS_DSP/Source/FilteringFunctions/arm_fir_interpolate_q31.c ****         /* Perform the multiply-accumulate */
 452:../Dave/Generated/CMSIS_DSP/Source/FilteringFunctions/arm_fir_interpolate_q31.c ****         acc0 += (q63_t) x2 * c2;
 453:../Dave/Generated/CMSIS_DSP/Source/FilteringFunctions/arm_fir_interpolate_q31.c ****         acc1 += (q63_t) x3 * c2;
 454:../Dave/Generated/CMSIS_DSP/Source/FilteringFunctions/arm_fir_interpolate_q31.c ****         acc2 += (q63_t) x0 * c2;
 455:../Dave/Generated/CMSIS_DSP/Source/FilteringFunctions/arm_fir_interpolate_q31.c ****         acc3 += (q63_t) x1 * c2;
 456:../Dave/Generated/CMSIS_DSP/Source/FilteringFunctions/arm_fir_interpolate_q31.c **** 
 457:../Dave/Generated/CMSIS_DSP/Source/FilteringFunctions/arm_fir_interpolate_q31.c ****         /* Read the coefficient */
 458:../Dave/Generated/CMSIS_DSP/Source/FilteringFunctions/arm_fir_interpolate_q31.c ****         c3 = *(ptr2 + S->L * 3);
 459:../Dave/Generated/CMSIS_DSP/Source/FilteringFunctions/arm_fir_interpolate_q31.c **** 
 460:../Dave/Generated/CMSIS_DSP/Source/FilteringFunctions/arm_fir_interpolate_q31.c ****         /* Read the input sample */
 461:../Dave/Generated/CMSIS_DSP/Source/FilteringFunctions/arm_fir_interpolate_q31.c ****         x2 = *(ptr1++);
 462:../Dave/Generated/CMSIS_DSP/Source/FilteringFunctions/arm_fir_interpolate_q31.c **** 
 463:../Dave/Generated/CMSIS_DSP/Source/FilteringFunctions/arm_fir_interpolate_q31.c ****         /* Perform the multiply-accumulate */
 464:../Dave/Generated/CMSIS_DSP/Source/FilteringFunctions/arm_fir_interpolate_q31.c ****         acc0 += (q63_t) x3 * c3;
 465:../Dave/Generated/CMSIS_DSP/Source/FilteringFunctions/arm_fir_interpolate_q31.c ****         acc1 += (q63_t) x0 * c3;
 466:../Dave/Generated/CMSIS_DSP/Source/FilteringFunctions/arm_fir_interpolate_q31.c ****         acc2 += (q63_t) x1 * c3;
 467:../Dave/Generated/CMSIS_DSP/Source/FilteringFunctions/arm_fir_interpolate_q31.c ****         acc3 += (q63_t) x2 * c3;
 468:../Dave/Generated/CMSIS_DSP/Source/FilteringFunctions/arm_fir_interpolate_q31.c **** 
 469:../Dave/Generated/CMSIS_DSP/Source/FilteringFunctions/arm_fir_interpolate_q31.c **** 
 470:../Dave/Generated/CMSIS_DSP/Source/FilteringFunctions/arm_fir_interpolate_q31.c ****         /* Upsampling is done by stuffing L-1 zeros between each sample.
 471:../Dave/Generated/CMSIS_DSP/Source/FilteringFunctions/arm_fir_interpolate_q31.c ****          * So instead of multiplying zeros with coefficients,
 472:../Dave/Generated/CMSIS_DSP/Source/FilteringFunctions/arm_fir_interpolate_q31.c ****          * Increment the coefficient pointer by interpolation factor times. */
 473:../Dave/Generated/CMSIS_DSP/Source/FilteringFunctions/arm_fir_interpolate_q31.c ****         ptr2 += 4 * S->L;
 474:../Dave/Generated/CMSIS_DSP/Source/FilteringFunctions/arm_fir_interpolate_q31.c **** 
 475:../Dave/Generated/CMSIS_DSP/Source/FilteringFunctions/arm_fir_interpolate_q31.c ****         /* Decrement loop counter */
 476:../Dave/Generated/CMSIS_DSP/Source/FilteringFunctions/arm_fir_interpolate_q31.c ****         tapCnt--;
 477:../Dave/Generated/CMSIS_DSP/Source/FilteringFunctions/arm_fir_interpolate_q31.c ****       }
 478:../Dave/Generated/CMSIS_DSP/Source/FilteringFunctions/arm_fir_interpolate_q31.c **** 
 479:../Dave/Generated/CMSIS_DSP/Source/FilteringFunctions/arm_fir_interpolate_q31.c ****       /* If the polyPhase length is not a multiple of 4, compute the remaining filter taps */
 480:../Dave/Generated/CMSIS_DSP/Source/FilteringFunctions/arm_fir_interpolate_q31.c ****       tapCnt = phaseLen % 0x4U;
 481:../Dave/Generated/CMSIS_DSP/Source/FilteringFunctions/arm_fir_interpolate_q31.c **** 
 482:../Dave/Generated/CMSIS_DSP/Source/FilteringFunctions/arm_fir_interpolate_q31.c ****       while (tapCnt > 0U)
 483:../Dave/Generated/CMSIS_DSP/Source/FilteringFunctions/arm_fir_interpolate_q31.c ****       {
 484:../Dave/Generated/CMSIS_DSP/Source/FilteringFunctions/arm_fir_interpolate_q31.c ****         /* Read the input sample */
 485:../Dave/Generated/CMSIS_DSP/Source/FilteringFunctions/arm_fir_interpolate_q31.c ****         x3 = *(ptr1++);
 486:../Dave/Generated/CMSIS_DSP/Source/FilteringFunctions/arm_fir_interpolate_q31.c **** 
 487:../Dave/Generated/CMSIS_DSP/Source/FilteringFunctions/arm_fir_interpolate_q31.c ****         /* Read the coefficient */
 488:../Dave/Generated/CMSIS_DSP/Source/FilteringFunctions/arm_fir_interpolate_q31.c ****         c0 = *(ptr2);
 489:../Dave/Generated/CMSIS_DSP/Source/FilteringFunctions/arm_fir_interpolate_q31.c **** 
 490:../Dave/Generated/CMSIS_DSP/Source/FilteringFunctions/arm_fir_interpolate_q31.c ****         /* Perform the multiply-accumulate */
 491:../Dave/Generated/CMSIS_DSP/Source/FilteringFunctions/arm_fir_interpolate_q31.c ****         acc0 += (q63_t) x0 * c0;
 492:../Dave/Generated/CMSIS_DSP/Source/FilteringFunctions/arm_fir_interpolate_q31.c ****         acc1 += (q63_t) x1 * c0;
 493:../Dave/Generated/CMSIS_DSP/Source/FilteringFunctions/arm_fir_interpolate_q31.c ****         acc2 += (q63_t) x2 * c0;
 494:../Dave/Generated/CMSIS_DSP/Source/FilteringFunctions/arm_fir_interpolate_q31.c ****         acc3 += (q63_t) x3 * c0;
 495:../Dave/Generated/CMSIS_DSP/Source/FilteringFunctions/arm_fir_interpolate_q31.c **** 
 496:../Dave/Generated/CMSIS_DSP/Source/FilteringFunctions/arm_fir_interpolate_q31.c ****         /* Increment the coefficient pointer by interpolation factor times. */
 497:../Dave/Generated/CMSIS_DSP/Source/FilteringFunctions/arm_fir_interpolate_q31.c ****         ptr2 += S->L;
 498:../Dave/Generated/CMSIS_DSP/Source/FilteringFunctions/arm_fir_interpolate_q31.c **** 
 499:../Dave/Generated/CMSIS_DSP/Source/FilteringFunctions/arm_fir_interpolate_q31.c ****         /* update states for next sample processing */
 500:../Dave/Generated/CMSIS_DSP/Source/FilteringFunctions/arm_fir_interpolate_q31.c ****         x0 = x1;
 501:../Dave/Generated/CMSIS_DSP/Source/FilteringFunctions/arm_fir_interpolate_q31.c ****         x1 = x2;
 502:../Dave/Generated/CMSIS_DSP/Source/FilteringFunctions/arm_fir_interpolate_q31.c ****         x2 = x3;
 503:../Dave/Generated/CMSIS_DSP/Source/FilteringFunctions/arm_fir_interpolate_q31.c **** 
 504:../Dave/Generated/CMSIS_DSP/Source/FilteringFunctions/arm_fir_interpolate_q31.c ****         /* Decrement loop counter */
 505:../Dave/Generated/CMSIS_DSP/Source/FilteringFunctions/arm_fir_interpolate_q31.c ****         tapCnt--;
 506:../Dave/Generated/CMSIS_DSP/Source/FilteringFunctions/arm_fir_interpolate_q31.c ****       }
 507:../Dave/Generated/CMSIS_DSP/Source/FilteringFunctions/arm_fir_interpolate_q31.c **** 
 508:../Dave/Generated/CMSIS_DSP/Source/FilteringFunctions/arm_fir_interpolate_q31.c ****       /* The result is in the accumulator, store in the destination buffer. */
 509:../Dave/Generated/CMSIS_DSP/Source/FilteringFunctions/arm_fir_interpolate_q31.c ****       *(pDst           ) = (q31_t) (acc0 >> 31);
 510:../Dave/Generated/CMSIS_DSP/Source/FilteringFunctions/arm_fir_interpolate_q31.c ****       *(pDst +     S->L) = (q31_t) (acc1 >> 31);
 511:../Dave/Generated/CMSIS_DSP/Source/FilteringFunctions/arm_fir_interpolate_q31.c ****       *(pDst + 2 * S->L) = (q31_t) (acc2 >> 31);
 512:../Dave/Generated/CMSIS_DSP/Source/FilteringFunctions/arm_fir_interpolate_q31.c ****       *(pDst + 3 * S->L) = (q31_t) (acc3 >> 31);
 513:../Dave/Generated/CMSIS_DSP/Source/FilteringFunctions/arm_fir_interpolate_q31.c **** 
 514:../Dave/Generated/CMSIS_DSP/Source/FilteringFunctions/arm_fir_interpolate_q31.c ****       pDst++;
 515:../Dave/Generated/CMSIS_DSP/Source/FilteringFunctions/arm_fir_interpolate_q31.c **** 
 516:../Dave/Generated/CMSIS_DSP/Source/FilteringFunctions/arm_fir_interpolate_q31.c ****       /* Increment the address modifier index of coefficient buffer */
 517:../Dave/Generated/CMSIS_DSP/Source/FilteringFunctions/arm_fir_interpolate_q31.c ****       j++;
 518:../Dave/Generated/CMSIS_DSP/Source/FilteringFunctions/arm_fir_interpolate_q31.c **** 
 519:../Dave/Generated/CMSIS_DSP/Source/FilteringFunctions/arm_fir_interpolate_q31.c ****       /* Decrement loop counter */
 520:../Dave/Generated/CMSIS_DSP/Source/FilteringFunctions/arm_fir_interpolate_q31.c ****       i--;
 521:../Dave/Generated/CMSIS_DSP/Source/FilteringFunctions/arm_fir_interpolate_q31.c ****     }
 522:../Dave/Generated/CMSIS_DSP/Source/FilteringFunctions/arm_fir_interpolate_q31.c **** 
 523:../Dave/Generated/CMSIS_DSP/Source/FilteringFunctions/arm_fir_interpolate_q31.c ****     /* Advance the state pointer by 1
 524:../Dave/Generated/CMSIS_DSP/Source/FilteringFunctions/arm_fir_interpolate_q31.c ****      * to process the next group of interpolation factor number samples */
 525:../Dave/Generated/CMSIS_DSP/Source/FilteringFunctions/arm_fir_interpolate_q31.c ****     pState = pState + 4;
 526:../Dave/Generated/CMSIS_DSP/Source/FilteringFunctions/arm_fir_interpolate_q31.c **** 
 527:../Dave/Generated/CMSIS_DSP/Source/FilteringFunctions/arm_fir_interpolate_q31.c ****     pDst += S->L * 3;
 528:../Dave/Generated/CMSIS_DSP/Source/FilteringFunctions/arm_fir_interpolate_q31.c **** 
 529:../Dave/Generated/CMSIS_DSP/Source/FilteringFunctions/arm_fir_interpolate_q31.c ****     /* Decrement loop counter */
 530:../Dave/Generated/CMSIS_DSP/Source/FilteringFunctions/arm_fir_interpolate_q31.c ****     blkCnt--;
 531:../Dave/Generated/CMSIS_DSP/Source/FilteringFunctions/arm_fir_interpolate_q31.c ****   }
 532:../Dave/Generated/CMSIS_DSP/Source/FilteringFunctions/arm_fir_interpolate_q31.c **** 
 533:../Dave/Generated/CMSIS_DSP/Source/FilteringFunctions/arm_fir_interpolate_q31.c ****   /* Loop unrolling: Compute remaining outputs */
 534:../Dave/Generated/CMSIS_DSP/Source/FilteringFunctions/arm_fir_interpolate_q31.c ****   blkCnt = blockSize % 0x4U;
 535:../Dave/Generated/CMSIS_DSP/Source/FilteringFunctions/arm_fir_interpolate_q31.c **** 
 536:../Dave/Generated/CMSIS_DSP/Source/FilteringFunctions/arm_fir_interpolate_q31.c **** #else
 537:../Dave/Generated/CMSIS_DSP/Source/FilteringFunctions/arm_fir_interpolate_q31.c **** 
 538:../Dave/Generated/CMSIS_DSP/Source/FilteringFunctions/arm_fir_interpolate_q31.c ****   /* Initialize blkCnt with number of samples */
 539:../Dave/Generated/CMSIS_DSP/Source/FilteringFunctions/arm_fir_interpolate_q31.c ****   blkCnt = blockSize;
  71              	 .loc 1 539 0
  72 0032 3B68     	 ldr r3,[r7]
  73 0034 3B62     	 str r3,[r7,#32]
 540:../Dave/Generated/CMSIS_DSP/Source/FilteringFunctions/arm_fir_interpolate_q31.c **** 
 541:../Dave/Generated/CMSIS_DSP/Source/FilteringFunctions/arm_fir_interpolate_q31.c **** #endif /* #if defined (ARM_MATH_LOOPUNROLL) */
 542:../Dave/Generated/CMSIS_DSP/Source/FilteringFunctions/arm_fir_interpolate_q31.c **** 
 543:../Dave/Generated/CMSIS_DSP/Source/FilteringFunctions/arm_fir_interpolate_q31.c ****   while (blkCnt > 0U)
  74              	 .loc 1 543 0
  75 0036 63E0     	 b .L2
  76              	.L7:
 544:../Dave/Generated/CMSIS_DSP/Source/FilteringFunctions/arm_fir_interpolate_q31.c ****   {
 545:../Dave/Generated/CMSIS_DSP/Source/FilteringFunctions/arm_fir_interpolate_q31.c ****     /* Copy new input sample into the state buffer */
 546:../Dave/Generated/CMSIS_DSP/Source/FilteringFunctions/arm_fir_interpolate_q31.c ****     *pStateCur++ = *pSrc++;
  77              	 .loc 1 546 0
  78 0038 BB6B     	 ldr r3,[r7,#56]
  79 003a 1A1D     	 adds r2,r3,#4
  80 003c BA63     	 str r2,[r7,#56]
  81 003e BA68     	 ldr r2,[r7,#8]
  82 0040 111D     	 adds r1,r2,#4
  83 0042 B960     	 str r1,[r7,#8]
  84 0044 1268     	 ldr r2,[r2]
  85 0046 1A60     	 str r2,[r3]
 547:../Dave/Generated/CMSIS_DSP/Source/FilteringFunctions/arm_fir_interpolate_q31.c **** 
 548:../Dave/Generated/CMSIS_DSP/Source/FilteringFunctions/arm_fir_interpolate_q31.c ****     /* Address modifier index of coefficient buffer */
 549:../Dave/Generated/CMSIS_DSP/Source/FilteringFunctions/arm_fir_interpolate_q31.c ****     j = 1U;
  86              	 .loc 1 549 0
  87 0048 0123     	 movs r3,#1
  88 004a BB61     	 str r3,[r7,#24]
 550:../Dave/Generated/CMSIS_DSP/Source/FilteringFunctions/arm_fir_interpolate_q31.c **** 
 551:../Dave/Generated/CMSIS_DSP/Source/FilteringFunctions/arm_fir_interpolate_q31.c ****     /* Loop over the Interpolation factor. */
 552:../Dave/Generated/CMSIS_DSP/Source/FilteringFunctions/arm_fir_interpolate_q31.c ****     i = S->L;
  89              	 .loc 1 552 0
  90 004c FB68     	 ldr r3,[r7,#12]
  91 004e 1B78     	 ldrb r3,[r3]
  92 0050 7B62     	 str r3,[r7,#36]
 553:../Dave/Generated/CMSIS_DSP/Source/FilteringFunctions/arm_fir_interpolate_q31.c ****     while (i > 0U)
  93              	 .loc 1 553 0
  94 0052 4CE0     	 b .L3
  95              	.L6:
 554:../Dave/Generated/CMSIS_DSP/Source/FilteringFunctions/arm_fir_interpolate_q31.c ****     {
 555:../Dave/Generated/CMSIS_DSP/Source/FilteringFunctions/arm_fir_interpolate_q31.c ****       /* Set accumulator to zero */
 556:../Dave/Generated/CMSIS_DSP/Source/FilteringFunctions/arm_fir_interpolate_q31.c ****       sum0 = 0;
  96              	 .loc 1 556 0
  97 0054 4FF00002 	 mov r2,#0
  98 0058 4FF00003 	 mov r3,#0
  99 005c C7E90A23 	 strd r2,[r7,#40]
 557:../Dave/Generated/CMSIS_DSP/Source/FilteringFunctions/arm_fir_interpolate_q31.c **** 
 558:../Dave/Generated/CMSIS_DSP/Source/FilteringFunctions/arm_fir_interpolate_q31.c ****       /* Initialize state pointer */
 559:../Dave/Generated/CMSIS_DSP/Source/FilteringFunctions/arm_fir_interpolate_q31.c ****       ptr1 = pState;
 100              	 .loc 1 559 0
 101 0060 FB6B     	 ldr r3,[r7,#60]
 102 0062 7B63     	 str r3,[r7,#52]
 560:../Dave/Generated/CMSIS_DSP/Source/FilteringFunctions/arm_fir_interpolate_q31.c **** 
 561:../Dave/Generated/CMSIS_DSP/Source/FilteringFunctions/arm_fir_interpolate_q31.c ****       /* Initialize coefficient pointer */
 562:../Dave/Generated/CMSIS_DSP/Source/FilteringFunctions/arm_fir_interpolate_q31.c ****       ptr2 = pCoeffs + (S->L - j);
 103              	 .loc 1 562 0
 104 0064 FB68     	 ldr r3,[r7,#12]
 105 0066 1B78     	 ldrb r3,[r3]
 106 0068 1A46     	 mov r2,r3
 107 006a BB69     	 ldr r3,[r7,#24]
 108 006c D31A     	 subs r3,r2,r3
 109 006e 9B00     	 lsls r3,r3,#2
 110 0070 7A69     	 ldr r2,[r7,#20]
 111 0072 1344     	 add r3,r3,r2
 112 0074 3B63     	 str r3,[r7,#48]
 563:../Dave/Generated/CMSIS_DSP/Source/FilteringFunctions/arm_fir_interpolate_q31.c **** 
 564:../Dave/Generated/CMSIS_DSP/Source/FilteringFunctions/arm_fir_interpolate_q31.c ****       /* Loop over the polyPhase length.
 565:../Dave/Generated/CMSIS_DSP/Source/FilteringFunctions/arm_fir_interpolate_q31.c ****          Repeat until we've computed numTaps-(4*S->L) coefficients. */
 566:../Dave/Generated/CMSIS_DSP/Source/FilteringFunctions/arm_fir_interpolate_q31.c **** 
 567:../Dave/Generated/CMSIS_DSP/Source/FilteringFunctions/arm_fir_interpolate_q31.c **** #if defined (ARM_MATH_LOOPUNROLL)
 568:../Dave/Generated/CMSIS_DSP/Source/FilteringFunctions/arm_fir_interpolate_q31.c **** 
 569:../Dave/Generated/CMSIS_DSP/Source/FilteringFunctions/arm_fir_interpolate_q31.c ****      /* Loop unrolling: Compute 4 outputs at a time */
 570:../Dave/Generated/CMSIS_DSP/Source/FilteringFunctions/arm_fir_interpolate_q31.c ****       tapCnt = phaseLen >> 2U;
 571:../Dave/Generated/CMSIS_DSP/Source/FilteringFunctions/arm_fir_interpolate_q31.c **** 
 572:../Dave/Generated/CMSIS_DSP/Source/FilteringFunctions/arm_fir_interpolate_q31.c ****       while (tapCnt > 0U)
 573:../Dave/Generated/CMSIS_DSP/Source/FilteringFunctions/arm_fir_interpolate_q31.c ****       {
 574:../Dave/Generated/CMSIS_DSP/Source/FilteringFunctions/arm_fir_interpolate_q31.c ****         /* Perform the multiply-accumulate */
 575:../Dave/Generated/CMSIS_DSP/Source/FilteringFunctions/arm_fir_interpolate_q31.c ****         sum0 += (q63_t) *ptr1++ * *ptr2;
 576:../Dave/Generated/CMSIS_DSP/Source/FilteringFunctions/arm_fir_interpolate_q31.c **** 
 577:../Dave/Generated/CMSIS_DSP/Source/FilteringFunctions/arm_fir_interpolate_q31.c ****         /* Upsampling is done by stuffing L-1 zeros between each sample.
 578:../Dave/Generated/CMSIS_DSP/Source/FilteringFunctions/arm_fir_interpolate_q31.c ****          * So instead of multiplying zeros with coefficients,
 579:../Dave/Generated/CMSIS_DSP/Source/FilteringFunctions/arm_fir_interpolate_q31.c ****          * Increment the coefficient pointer by interpolation factor times. */
 580:../Dave/Generated/CMSIS_DSP/Source/FilteringFunctions/arm_fir_interpolate_q31.c ****         ptr2 += S->L;
 581:../Dave/Generated/CMSIS_DSP/Source/FilteringFunctions/arm_fir_interpolate_q31.c **** 
 582:../Dave/Generated/CMSIS_DSP/Source/FilteringFunctions/arm_fir_interpolate_q31.c ****         sum0 += (q63_t) *ptr1++ * *ptr2;
 583:../Dave/Generated/CMSIS_DSP/Source/FilteringFunctions/arm_fir_interpolate_q31.c ****         ptr2 += S->L;
 584:../Dave/Generated/CMSIS_DSP/Source/FilteringFunctions/arm_fir_interpolate_q31.c **** 
 585:../Dave/Generated/CMSIS_DSP/Source/FilteringFunctions/arm_fir_interpolate_q31.c ****         sum0 += (q63_t) *ptr1++ * *ptr2;
 586:../Dave/Generated/CMSIS_DSP/Source/FilteringFunctions/arm_fir_interpolate_q31.c ****         ptr2 += S->L;
 587:../Dave/Generated/CMSIS_DSP/Source/FilteringFunctions/arm_fir_interpolate_q31.c **** 
 588:../Dave/Generated/CMSIS_DSP/Source/FilteringFunctions/arm_fir_interpolate_q31.c ****         sum0 += (q63_t) *ptr1++ * *ptr2;
 589:../Dave/Generated/CMSIS_DSP/Source/FilteringFunctions/arm_fir_interpolate_q31.c ****         ptr2 += S->L;
 590:../Dave/Generated/CMSIS_DSP/Source/FilteringFunctions/arm_fir_interpolate_q31.c **** 
 591:../Dave/Generated/CMSIS_DSP/Source/FilteringFunctions/arm_fir_interpolate_q31.c ****         /* Decrement loop counter */
 592:../Dave/Generated/CMSIS_DSP/Source/FilteringFunctions/arm_fir_interpolate_q31.c ****         tapCnt--;
 593:../Dave/Generated/CMSIS_DSP/Source/FilteringFunctions/arm_fir_interpolate_q31.c ****       }
 594:../Dave/Generated/CMSIS_DSP/Source/FilteringFunctions/arm_fir_interpolate_q31.c **** 
 595:../Dave/Generated/CMSIS_DSP/Source/FilteringFunctions/arm_fir_interpolate_q31.c ****       /* Loop unrolling: Compute remaining outputs */
 596:../Dave/Generated/CMSIS_DSP/Source/FilteringFunctions/arm_fir_interpolate_q31.c ****       tapCnt = phaseLen % 0x4U;
 597:../Dave/Generated/CMSIS_DSP/Source/FilteringFunctions/arm_fir_interpolate_q31.c **** 
 598:../Dave/Generated/CMSIS_DSP/Source/FilteringFunctions/arm_fir_interpolate_q31.c **** #else
 599:../Dave/Generated/CMSIS_DSP/Source/FilteringFunctions/arm_fir_interpolate_q31.c **** 
 600:../Dave/Generated/CMSIS_DSP/Source/FilteringFunctions/arm_fir_interpolate_q31.c ****       /* Initialize tapCnt with number of samples */
 601:../Dave/Generated/CMSIS_DSP/Source/FilteringFunctions/arm_fir_interpolate_q31.c ****       tapCnt = phaseLen;
 113              	 .loc 1 601 0
 114 0076 3B69     	 ldr r3,[r7,#16]
 115 0078 FB61     	 str r3,[r7,#28]
 602:../Dave/Generated/CMSIS_DSP/Source/FilteringFunctions/arm_fir_interpolate_q31.c **** 
 603:../Dave/Generated/CMSIS_DSP/Source/FilteringFunctions/arm_fir_interpolate_q31.c **** #endif /* #if defined (ARM_MATH_LOOPUNROLL) */
 604:../Dave/Generated/CMSIS_DSP/Source/FilteringFunctions/arm_fir_interpolate_q31.c **** 
 605:../Dave/Generated/CMSIS_DSP/Source/FilteringFunctions/arm_fir_interpolate_q31.c ****       while (tapCnt > 0U)
 116              	 .loc 1 605 0
 117 007a 24E0     	 b .L4
 118              	.L5:
 606:../Dave/Generated/CMSIS_DSP/Source/FilteringFunctions/arm_fir_interpolate_q31.c ****       {
 607:../Dave/Generated/CMSIS_DSP/Source/FilteringFunctions/arm_fir_interpolate_q31.c ****         /* Perform the multiply-accumulate */
 608:../Dave/Generated/CMSIS_DSP/Source/FilteringFunctions/arm_fir_interpolate_q31.c ****         sum0 += (q63_t) *ptr1++ * *ptr2;
 119              	 .loc 1 608 0
 120 007c 7B6B     	 ldr r3,[r7,#52]
 121 007e 1A1D     	 adds r2,r3,#4
 122 0080 7A63     	 str r2,[r7,#52]
 123 0082 1B68     	 ldr r3,[r3]
 124 0084 1846     	 mov r0,r3
 125 0086 4FEAE071 	 asr r1,r0,#31
 126 008a 3B6B     	 ldr r3,[r7,#48]
 127 008c 1B68     	 ldr r3,[r3]
 128 008e 1A46     	 mov r2,r3
 129 0090 4FEAE273 	 asr r3,r2,#31
 130 0094 02FB01FE 	 mul lr,r2,r1
 131 0098 00FB03F6 	 mul r6,r0,r3
 132 009c 7644     	 add r6,r6,lr
 133 009e A0FB0223 	 umull r2,r3,r0,r2
 134 00a2 F118     	 adds r1,r6,r3
 135 00a4 0B46     	 mov r3,r1
 136 00a6 D7E90A01 	 ldrd r0,[r7,#40]
 137 00aa 1218     	 adds r2,r2,r0
 138 00ac 43EB0103 	 adc r3,r3,r1
 139 00b0 C7E90A23 	 strd r2,[r7,#40]
 609:../Dave/Generated/CMSIS_DSP/Source/FilteringFunctions/arm_fir_interpolate_q31.c **** 
 610:../Dave/Generated/CMSIS_DSP/Source/FilteringFunctions/arm_fir_interpolate_q31.c ****         /* Upsampling is done by stuffing L-1 zeros between each sample.
 611:../Dave/Generated/CMSIS_DSP/Source/FilteringFunctions/arm_fir_interpolate_q31.c ****          * So instead of multiplying zeros with coefficients,
 612:../Dave/Generated/CMSIS_DSP/Source/FilteringFunctions/arm_fir_interpolate_q31.c ****          * Increment the coefficient pointer by interpolation factor times. */
 613:../Dave/Generated/CMSIS_DSP/Source/FilteringFunctions/arm_fir_interpolate_q31.c ****         ptr2 += S->L;
 140              	 .loc 1 613 0
 141 00b4 FB68     	 ldr r3,[r7,#12]
 142 00b6 1B78     	 ldrb r3,[r3]
 143 00b8 9B00     	 lsls r3,r3,#2
 144 00ba 3A6B     	 ldr r2,[r7,#48]
 145 00bc 1344     	 add r3,r3,r2
 146 00be 3B63     	 str r3,[r7,#48]
 614:../Dave/Generated/CMSIS_DSP/Source/FilteringFunctions/arm_fir_interpolate_q31.c **** 
 615:../Dave/Generated/CMSIS_DSP/Source/FilteringFunctions/arm_fir_interpolate_q31.c ****         /* Decrement loop counter */
 616:../Dave/Generated/CMSIS_DSP/Source/FilteringFunctions/arm_fir_interpolate_q31.c ****         tapCnt--;
 147              	 .loc 1 616 0
 148 00c0 FB69     	 ldr r3,[r7,#28]
 149 00c2 013B     	 subs r3,r3,#1
 150 00c4 FB61     	 str r3,[r7,#28]
 151              	.L4:
 605:../Dave/Generated/CMSIS_DSP/Source/FilteringFunctions/arm_fir_interpolate_q31.c ****       {
 152              	 .loc 1 605 0
 153 00c6 FB69     	 ldr r3,[r7,#28]
 154 00c8 002B     	 cmp r3,#0
 155 00ca D7D1     	 bne .L5
 617:../Dave/Generated/CMSIS_DSP/Source/FilteringFunctions/arm_fir_interpolate_q31.c ****       }
 618:../Dave/Generated/CMSIS_DSP/Source/FilteringFunctions/arm_fir_interpolate_q31.c **** 
 619:../Dave/Generated/CMSIS_DSP/Source/FilteringFunctions/arm_fir_interpolate_q31.c ****       /* The result is in the accumulator, store in the destination buffer. */
 620:../Dave/Generated/CMSIS_DSP/Source/FilteringFunctions/arm_fir_interpolate_q31.c ****       *pDst++ = (q31_t) (sum0 >> 31);
 156              	 .loc 1 620 0
 157 00cc 7968     	 ldr r1,[r7,#4]
 158 00ce 0B1D     	 adds r3,r1,#4
 159 00d0 7B60     	 str r3,[r7,#4]
 160 00d2 D7E90A23 	 ldrd r2,[r7,#40]
 161 00d6 D40F     	 lsrs r4,r2,#31
 162 00d8 44EA4304 	 orr r4,r4,r3,lsl#1
 163 00dc DD17     	 asrs r5,r3,#31
 164 00de 2346     	 mov r3,r4
 165 00e0 0B60     	 str r3,[r1]
 621:../Dave/Generated/CMSIS_DSP/Source/FilteringFunctions/arm_fir_interpolate_q31.c **** 
 622:../Dave/Generated/CMSIS_DSP/Source/FilteringFunctions/arm_fir_interpolate_q31.c ****       /* Increment the address modifier index of coefficient buffer */
 623:../Dave/Generated/CMSIS_DSP/Source/FilteringFunctions/arm_fir_interpolate_q31.c ****       j++;
 166              	 .loc 1 623 0
 167 00e2 BB69     	 ldr r3,[r7,#24]
 168 00e4 0133     	 adds r3,r3,#1
 169 00e6 BB61     	 str r3,[r7,#24]
 624:../Dave/Generated/CMSIS_DSP/Source/FilteringFunctions/arm_fir_interpolate_q31.c **** 
 625:../Dave/Generated/CMSIS_DSP/Source/FilteringFunctions/arm_fir_interpolate_q31.c ****       /* Decrement the loop counter */
 626:../Dave/Generated/CMSIS_DSP/Source/FilteringFunctions/arm_fir_interpolate_q31.c ****       i--;
 170              	 .loc 1 626 0
 171 00e8 7B6A     	 ldr r3,[r7,#36]
 172 00ea 013B     	 subs r3,r3,#1
 173 00ec 7B62     	 str r3,[r7,#36]
 174              	.L3:
 553:../Dave/Generated/CMSIS_DSP/Source/FilteringFunctions/arm_fir_interpolate_q31.c ****     {
 175              	 .loc 1 553 0
 176 00ee 7B6A     	 ldr r3,[r7,#36]
 177 00f0 002B     	 cmp r3,#0
 178 00f2 AFD1     	 bne .L6
 627:../Dave/Generated/CMSIS_DSP/Source/FilteringFunctions/arm_fir_interpolate_q31.c ****     }
 628:../Dave/Generated/CMSIS_DSP/Source/FilteringFunctions/arm_fir_interpolate_q31.c **** 
 629:../Dave/Generated/CMSIS_DSP/Source/FilteringFunctions/arm_fir_interpolate_q31.c ****     /* Advance the state pointer by 1
 630:../Dave/Generated/CMSIS_DSP/Source/FilteringFunctions/arm_fir_interpolate_q31.c ****      * to process the next group of interpolation factor number samples */
 631:../Dave/Generated/CMSIS_DSP/Source/FilteringFunctions/arm_fir_interpolate_q31.c ****     pState = pState + 1;
 179              	 .loc 1 631 0
 180 00f4 FB6B     	 ldr r3,[r7,#60]
 181 00f6 0433     	 adds r3,r3,#4
 182 00f8 FB63     	 str r3,[r7,#60]
 632:../Dave/Generated/CMSIS_DSP/Source/FilteringFunctions/arm_fir_interpolate_q31.c **** 
 633:../Dave/Generated/CMSIS_DSP/Source/FilteringFunctions/arm_fir_interpolate_q31.c ****     /* Decrement the loop counter */
 634:../Dave/Generated/CMSIS_DSP/Source/FilteringFunctions/arm_fir_interpolate_q31.c ****     blkCnt--;
 183              	 .loc 1 634 0
 184 00fa 3B6A     	 ldr r3,[r7,#32]
 185 00fc 013B     	 subs r3,r3,#1
 186 00fe 3B62     	 str r3,[r7,#32]
 187              	.L2:
 543:../Dave/Generated/CMSIS_DSP/Source/FilteringFunctions/arm_fir_interpolate_q31.c ****   {
 188              	 .loc 1 543 0
 189 0100 3B6A     	 ldr r3,[r7,#32]
 190 0102 002B     	 cmp r3,#0
 191 0104 98D1     	 bne .L7
 635:../Dave/Generated/CMSIS_DSP/Source/FilteringFunctions/arm_fir_interpolate_q31.c ****   }
 636:../Dave/Generated/CMSIS_DSP/Source/FilteringFunctions/arm_fir_interpolate_q31.c **** 
 637:../Dave/Generated/CMSIS_DSP/Source/FilteringFunctions/arm_fir_interpolate_q31.c ****   /* Processing is complete.
 638:../Dave/Generated/CMSIS_DSP/Source/FilteringFunctions/arm_fir_interpolate_q31.c ****      Now copy the last phaseLen - 1 samples to the satrt of the state buffer.
 639:../Dave/Generated/CMSIS_DSP/Source/FilteringFunctions/arm_fir_interpolate_q31.c ****      This prepares the state buffer for the next function call. */
 640:../Dave/Generated/CMSIS_DSP/Source/FilteringFunctions/arm_fir_interpolate_q31.c **** 
 641:../Dave/Generated/CMSIS_DSP/Source/FilteringFunctions/arm_fir_interpolate_q31.c ****   /* Points to the start of the state buffer */
 642:../Dave/Generated/CMSIS_DSP/Source/FilteringFunctions/arm_fir_interpolate_q31.c ****   pStateCur = S->pState;
 192              	 .loc 1 642 0
 193 0106 FB68     	 ldr r3,[r7,#12]
 194 0108 9B68     	 ldr r3,[r3,#8]
 195 010a BB63     	 str r3,[r7,#56]
 643:../Dave/Generated/CMSIS_DSP/Source/FilteringFunctions/arm_fir_interpolate_q31.c **** 
 644:../Dave/Generated/CMSIS_DSP/Source/FilteringFunctions/arm_fir_interpolate_q31.c **** #if defined (ARM_MATH_LOOPUNROLL)
 645:../Dave/Generated/CMSIS_DSP/Source/FilteringFunctions/arm_fir_interpolate_q31.c **** 
 646:../Dave/Generated/CMSIS_DSP/Source/FilteringFunctions/arm_fir_interpolate_q31.c ****   /* Loop unrolling: Compute 4 outputs at a time */
 647:../Dave/Generated/CMSIS_DSP/Source/FilteringFunctions/arm_fir_interpolate_q31.c ****   tapCnt = (phaseLen - 1U) >> 2U;
 648:../Dave/Generated/CMSIS_DSP/Source/FilteringFunctions/arm_fir_interpolate_q31.c **** 
 649:../Dave/Generated/CMSIS_DSP/Source/FilteringFunctions/arm_fir_interpolate_q31.c ****   /* copy data */
 650:../Dave/Generated/CMSIS_DSP/Source/FilteringFunctions/arm_fir_interpolate_q31.c ****   while (tapCnt > 0U)
 651:../Dave/Generated/CMSIS_DSP/Source/FilteringFunctions/arm_fir_interpolate_q31.c ****   {
 652:../Dave/Generated/CMSIS_DSP/Source/FilteringFunctions/arm_fir_interpolate_q31.c ****     *pStateCur++ = *pState++;
 653:../Dave/Generated/CMSIS_DSP/Source/FilteringFunctions/arm_fir_interpolate_q31.c ****     *pStateCur++ = *pState++;
 654:../Dave/Generated/CMSIS_DSP/Source/FilteringFunctions/arm_fir_interpolate_q31.c ****     *pStateCur++ = *pState++;
 655:../Dave/Generated/CMSIS_DSP/Source/FilteringFunctions/arm_fir_interpolate_q31.c ****     *pStateCur++ = *pState++;
 656:../Dave/Generated/CMSIS_DSP/Source/FilteringFunctions/arm_fir_interpolate_q31.c **** 
 657:../Dave/Generated/CMSIS_DSP/Source/FilteringFunctions/arm_fir_interpolate_q31.c ****     /* Decrement loop counter */
 658:../Dave/Generated/CMSIS_DSP/Source/FilteringFunctions/arm_fir_interpolate_q31.c ****     tapCnt--;
 659:../Dave/Generated/CMSIS_DSP/Source/FilteringFunctions/arm_fir_interpolate_q31.c ****   }
 660:../Dave/Generated/CMSIS_DSP/Source/FilteringFunctions/arm_fir_interpolate_q31.c **** 
 661:../Dave/Generated/CMSIS_DSP/Source/FilteringFunctions/arm_fir_interpolate_q31.c ****   /* Loop unrolling: Compute remaining outputs */
 662:../Dave/Generated/CMSIS_DSP/Source/FilteringFunctions/arm_fir_interpolate_q31.c ****   tapCnt = (phaseLen - 1U) % 0x04U;
 663:../Dave/Generated/CMSIS_DSP/Source/FilteringFunctions/arm_fir_interpolate_q31.c **** 
 664:../Dave/Generated/CMSIS_DSP/Source/FilteringFunctions/arm_fir_interpolate_q31.c **** #else
 665:../Dave/Generated/CMSIS_DSP/Source/FilteringFunctions/arm_fir_interpolate_q31.c **** 
 666:../Dave/Generated/CMSIS_DSP/Source/FilteringFunctions/arm_fir_interpolate_q31.c ****     /* Initialize tapCnt with number of samples */
 667:../Dave/Generated/CMSIS_DSP/Source/FilteringFunctions/arm_fir_interpolate_q31.c ****     tapCnt = (phaseLen - 1U);
 196              	 .loc 1 667 0
 197 010c 3B69     	 ldr r3,[r7,#16]
 198 010e 013B     	 subs r3,r3,#1
 199 0110 FB61     	 str r3,[r7,#28]
 668:../Dave/Generated/CMSIS_DSP/Source/FilteringFunctions/arm_fir_interpolate_q31.c **** 
 669:../Dave/Generated/CMSIS_DSP/Source/FilteringFunctions/arm_fir_interpolate_q31.c **** #endif /* #if defined (ARM_MATH_LOOPUNROLL) */
 670:../Dave/Generated/CMSIS_DSP/Source/FilteringFunctions/arm_fir_interpolate_q31.c **** 
 671:../Dave/Generated/CMSIS_DSP/Source/FilteringFunctions/arm_fir_interpolate_q31.c ****   /* Copy data */
 672:../Dave/Generated/CMSIS_DSP/Source/FilteringFunctions/arm_fir_interpolate_q31.c ****   while (tapCnt > 0U)
 200              	 .loc 1 672 0
 201 0112 0AE0     	 b .L8
 202              	.L9:
 673:../Dave/Generated/CMSIS_DSP/Source/FilteringFunctions/arm_fir_interpolate_q31.c ****   {
 674:../Dave/Generated/CMSIS_DSP/Source/FilteringFunctions/arm_fir_interpolate_q31.c ****     *pStateCur++ = *pState++;
 203              	 .loc 1 674 0
 204 0114 BB6B     	 ldr r3,[r7,#56]
 205 0116 1A1D     	 adds r2,r3,#4
 206 0118 BA63     	 str r2,[r7,#56]
 207 011a FA6B     	 ldr r2,[r7,#60]
 208 011c 111D     	 adds r1,r2,#4
 209 011e F963     	 str r1,[r7,#60]
 210 0120 1268     	 ldr r2,[r2]
 211 0122 1A60     	 str r2,[r3]
 675:../Dave/Generated/CMSIS_DSP/Source/FilteringFunctions/arm_fir_interpolate_q31.c **** 
 676:../Dave/Generated/CMSIS_DSP/Source/FilteringFunctions/arm_fir_interpolate_q31.c ****     /* Decrement loop counter */
 677:../Dave/Generated/CMSIS_DSP/Source/FilteringFunctions/arm_fir_interpolate_q31.c ****     tapCnt--;
 212              	 .loc 1 677 0
 213 0124 FB69     	 ldr r3,[r7,#28]
 214 0126 013B     	 subs r3,r3,#1
 215 0128 FB61     	 str r3,[r7,#28]
 216              	.L8:
 672:../Dave/Generated/CMSIS_DSP/Source/FilteringFunctions/arm_fir_interpolate_q31.c ****   {
 217              	 .loc 1 672 0
 218 012a FB69     	 ldr r3,[r7,#28]
 219 012c 002B     	 cmp r3,#0
 220 012e F1D1     	 bne .L9
 678:../Dave/Generated/CMSIS_DSP/Source/FilteringFunctions/arm_fir_interpolate_q31.c ****   }
 679:../Dave/Generated/CMSIS_DSP/Source/FilteringFunctions/arm_fir_interpolate_q31.c **** 
 680:../Dave/Generated/CMSIS_DSP/Source/FilteringFunctions/arm_fir_interpolate_q31.c **** #else
 681:../Dave/Generated/CMSIS_DSP/Source/FilteringFunctions/arm_fir_interpolate_q31.c **** /* alternate version for CM0_FAMILY */
 682:../Dave/Generated/CMSIS_DSP/Source/FilteringFunctions/arm_fir_interpolate_q31.c **** 
 683:../Dave/Generated/CMSIS_DSP/Source/FilteringFunctions/arm_fir_interpolate_q31.c ****         q31_t *pState = S->pState;                     /* State pointer */
 684:../Dave/Generated/CMSIS_DSP/Source/FilteringFunctions/arm_fir_interpolate_q31.c ****   const q31_t *pCoeffs = S->pCoeffs;                   /* Coefficient pointer */
 685:../Dave/Generated/CMSIS_DSP/Source/FilteringFunctions/arm_fir_interpolate_q31.c ****         q31_t *pStateCur;                              /* Points to the current sample of the state
 686:../Dave/Generated/CMSIS_DSP/Source/FilteringFunctions/arm_fir_interpolate_q31.c ****         q31_t *ptr1;                                   /* Temporary pointer for state buffer */
 687:../Dave/Generated/CMSIS_DSP/Source/FilteringFunctions/arm_fir_interpolate_q31.c ****   const q31_t *ptr2;                                   /* Temporary pointer for coefficient buffer 
 688:../Dave/Generated/CMSIS_DSP/Source/FilteringFunctions/arm_fir_interpolate_q31.c ****         q63_t sum0;                                    /* Accumulators */
 689:../Dave/Generated/CMSIS_DSP/Source/FilteringFunctions/arm_fir_interpolate_q31.c ****         uint32_t i, blkCnt, tapCnt;                    /* Loop counters */
 690:../Dave/Generated/CMSIS_DSP/Source/FilteringFunctions/arm_fir_interpolate_q31.c ****         uint32_t phaseLen = S->phaseLength;            /* Length of each polyphase filter component
 691:../Dave/Generated/CMSIS_DSP/Source/FilteringFunctions/arm_fir_interpolate_q31.c **** 
 692:../Dave/Generated/CMSIS_DSP/Source/FilteringFunctions/arm_fir_interpolate_q31.c ****   /* S->pState buffer contains previous frame (phaseLen - 1) samples */
 693:../Dave/Generated/CMSIS_DSP/Source/FilteringFunctions/arm_fir_interpolate_q31.c ****   /* pStateCur points to the location where the new input data should be written */
 694:../Dave/Generated/CMSIS_DSP/Source/FilteringFunctions/arm_fir_interpolate_q31.c ****   pStateCur = S->pState + (phaseLen - 1U);
 695:../Dave/Generated/CMSIS_DSP/Source/FilteringFunctions/arm_fir_interpolate_q31.c **** 
 696:../Dave/Generated/CMSIS_DSP/Source/FilteringFunctions/arm_fir_interpolate_q31.c ****   /* Total number of intput samples */
 697:../Dave/Generated/CMSIS_DSP/Source/FilteringFunctions/arm_fir_interpolate_q31.c ****   blkCnt = blockSize;
 698:../Dave/Generated/CMSIS_DSP/Source/FilteringFunctions/arm_fir_interpolate_q31.c **** 
 699:../Dave/Generated/CMSIS_DSP/Source/FilteringFunctions/arm_fir_interpolate_q31.c ****   /* Loop over the blockSize. */
 700:../Dave/Generated/CMSIS_DSP/Source/FilteringFunctions/arm_fir_interpolate_q31.c ****   while (blkCnt > 0U)
 701:../Dave/Generated/CMSIS_DSP/Source/FilteringFunctions/arm_fir_interpolate_q31.c ****   {
 702:../Dave/Generated/CMSIS_DSP/Source/FilteringFunctions/arm_fir_interpolate_q31.c ****     /* Copy new input sample into the state buffer */
 703:../Dave/Generated/CMSIS_DSP/Source/FilteringFunctions/arm_fir_interpolate_q31.c ****     *pStateCur++ = *pSrc++;
 704:../Dave/Generated/CMSIS_DSP/Source/FilteringFunctions/arm_fir_interpolate_q31.c **** 
 705:../Dave/Generated/CMSIS_DSP/Source/FilteringFunctions/arm_fir_interpolate_q31.c ****     /* Loop over the Interpolation factor. */
 706:../Dave/Generated/CMSIS_DSP/Source/FilteringFunctions/arm_fir_interpolate_q31.c ****     i = S->L;
 707:../Dave/Generated/CMSIS_DSP/Source/FilteringFunctions/arm_fir_interpolate_q31.c **** 
 708:../Dave/Generated/CMSIS_DSP/Source/FilteringFunctions/arm_fir_interpolate_q31.c ****     while (i > 0U)
 709:../Dave/Generated/CMSIS_DSP/Source/FilteringFunctions/arm_fir_interpolate_q31.c ****     {
 710:../Dave/Generated/CMSIS_DSP/Source/FilteringFunctions/arm_fir_interpolate_q31.c ****       /* Set accumulator to zero */
 711:../Dave/Generated/CMSIS_DSP/Source/FilteringFunctions/arm_fir_interpolate_q31.c ****       sum0 = 0;
 712:../Dave/Generated/CMSIS_DSP/Source/FilteringFunctions/arm_fir_interpolate_q31.c **** 
 713:../Dave/Generated/CMSIS_DSP/Source/FilteringFunctions/arm_fir_interpolate_q31.c ****       /* Initialize state pointer */
 714:../Dave/Generated/CMSIS_DSP/Source/FilteringFunctions/arm_fir_interpolate_q31.c ****       ptr1 = pState;
 715:../Dave/Generated/CMSIS_DSP/Source/FilteringFunctions/arm_fir_interpolate_q31.c **** 
 716:../Dave/Generated/CMSIS_DSP/Source/FilteringFunctions/arm_fir_interpolate_q31.c ****       /* Initialize coefficient pointer */
 717:../Dave/Generated/CMSIS_DSP/Source/FilteringFunctions/arm_fir_interpolate_q31.c ****       ptr2 = pCoeffs + (i - 1U);
 718:../Dave/Generated/CMSIS_DSP/Source/FilteringFunctions/arm_fir_interpolate_q31.c **** 
 719:../Dave/Generated/CMSIS_DSP/Source/FilteringFunctions/arm_fir_interpolate_q31.c ****       /* Loop over the polyPhase length */
 720:../Dave/Generated/CMSIS_DSP/Source/FilteringFunctions/arm_fir_interpolate_q31.c ****       tapCnt = phaseLen;
 721:../Dave/Generated/CMSIS_DSP/Source/FilteringFunctions/arm_fir_interpolate_q31.c **** 
 722:../Dave/Generated/CMSIS_DSP/Source/FilteringFunctions/arm_fir_interpolate_q31.c ****       while (tapCnt > 0U)
 723:../Dave/Generated/CMSIS_DSP/Source/FilteringFunctions/arm_fir_interpolate_q31.c ****       {
 724:../Dave/Generated/CMSIS_DSP/Source/FilteringFunctions/arm_fir_interpolate_q31.c ****         /* Perform the multiply-accumulate */
 725:../Dave/Generated/CMSIS_DSP/Source/FilteringFunctions/arm_fir_interpolate_q31.c ****         sum0 += ((q63_t) *ptr1++ * *ptr2);
 726:../Dave/Generated/CMSIS_DSP/Source/FilteringFunctions/arm_fir_interpolate_q31.c **** 
 727:../Dave/Generated/CMSIS_DSP/Source/FilteringFunctions/arm_fir_interpolate_q31.c ****         /* Increment the coefficient pointer by interpolation factor times. */
 728:../Dave/Generated/CMSIS_DSP/Source/FilteringFunctions/arm_fir_interpolate_q31.c ****         ptr2 += S->L;
 729:../Dave/Generated/CMSIS_DSP/Source/FilteringFunctions/arm_fir_interpolate_q31.c **** 
 730:../Dave/Generated/CMSIS_DSP/Source/FilteringFunctions/arm_fir_interpolate_q31.c ****         /* Decrement the loop counter */
 731:../Dave/Generated/CMSIS_DSP/Source/FilteringFunctions/arm_fir_interpolate_q31.c ****         tapCnt--;
 732:../Dave/Generated/CMSIS_DSP/Source/FilteringFunctions/arm_fir_interpolate_q31.c ****       }
 733:../Dave/Generated/CMSIS_DSP/Source/FilteringFunctions/arm_fir_interpolate_q31.c **** 
 734:../Dave/Generated/CMSIS_DSP/Source/FilteringFunctions/arm_fir_interpolate_q31.c ****       /* The result is in the accumulator, store in the destination buffer. */
 735:../Dave/Generated/CMSIS_DSP/Source/FilteringFunctions/arm_fir_interpolate_q31.c ****       *pDst++ = (q31_t) (sum0 >> 31);
 736:../Dave/Generated/CMSIS_DSP/Source/FilteringFunctions/arm_fir_interpolate_q31.c **** 
 737:../Dave/Generated/CMSIS_DSP/Source/FilteringFunctions/arm_fir_interpolate_q31.c ****       /* Decrement loop counter */
 738:../Dave/Generated/CMSIS_DSP/Source/FilteringFunctions/arm_fir_interpolate_q31.c ****       i--;
 739:../Dave/Generated/CMSIS_DSP/Source/FilteringFunctions/arm_fir_interpolate_q31.c ****     }
 740:../Dave/Generated/CMSIS_DSP/Source/FilteringFunctions/arm_fir_interpolate_q31.c **** 
 741:../Dave/Generated/CMSIS_DSP/Source/FilteringFunctions/arm_fir_interpolate_q31.c ****     /* Advance the state pointer by 1
 742:../Dave/Generated/CMSIS_DSP/Source/FilteringFunctions/arm_fir_interpolate_q31.c ****      * to process the next group of interpolation factor number samples */
 743:../Dave/Generated/CMSIS_DSP/Source/FilteringFunctions/arm_fir_interpolate_q31.c ****     pState = pState + 1;
 744:../Dave/Generated/CMSIS_DSP/Source/FilteringFunctions/arm_fir_interpolate_q31.c **** 
 745:../Dave/Generated/CMSIS_DSP/Source/FilteringFunctions/arm_fir_interpolate_q31.c ****     /* Decrement loop counter */
 746:../Dave/Generated/CMSIS_DSP/Source/FilteringFunctions/arm_fir_interpolate_q31.c ****     blkCnt--;
 747:../Dave/Generated/CMSIS_DSP/Source/FilteringFunctions/arm_fir_interpolate_q31.c ****   }
 748:../Dave/Generated/CMSIS_DSP/Source/FilteringFunctions/arm_fir_interpolate_q31.c **** 
 749:../Dave/Generated/CMSIS_DSP/Source/FilteringFunctions/arm_fir_interpolate_q31.c ****   /* Processing is complete.
 750:../Dave/Generated/CMSIS_DSP/Source/FilteringFunctions/arm_fir_interpolate_q31.c ****    ** Now copy the last phaseLen - 1 samples to the start of the state buffer.
 751:../Dave/Generated/CMSIS_DSP/Source/FilteringFunctions/arm_fir_interpolate_q31.c ****    ** This prepares the state buffer for the next function call. */
 752:../Dave/Generated/CMSIS_DSP/Source/FilteringFunctions/arm_fir_interpolate_q31.c **** 
 753:../Dave/Generated/CMSIS_DSP/Source/FilteringFunctions/arm_fir_interpolate_q31.c ****   /* Points to the start of the state buffer */
 754:../Dave/Generated/CMSIS_DSP/Source/FilteringFunctions/arm_fir_interpolate_q31.c ****   pStateCur = S->pState;
 755:../Dave/Generated/CMSIS_DSP/Source/FilteringFunctions/arm_fir_interpolate_q31.c **** 
 756:../Dave/Generated/CMSIS_DSP/Source/FilteringFunctions/arm_fir_interpolate_q31.c ****   tapCnt = phaseLen - 1U;
 757:../Dave/Generated/CMSIS_DSP/Source/FilteringFunctions/arm_fir_interpolate_q31.c **** 
 758:../Dave/Generated/CMSIS_DSP/Source/FilteringFunctions/arm_fir_interpolate_q31.c ****   /* Copy data */
 759:../Dave/Generated/CMSIS_DSP/Source/FilteringFunctions/arm_fir_interpolate_q31.c ****   while (tapCnt > 0U)
 760:../Dave/Generated/CMSIS_DSP/Source/FilteringFunctions/arm_fir_interpolate_q31.c ****   {
 761:../Dave/Generated/CMSIS_DSP/Source/FilteringFunctions/arm_fir_interpolate_q31.c ****     *pStateCur++ = *pState++;
 762:../Dave/Generated/CMSIS_DSP/Source/FilteringFunctions/arm_fir_interpolate_q31.c **** 
 763:../Dave/Generated/CMSIS_DSP/Source/FilteringFunctions/arm_fir_interpolate_q31.c ****     /* Decrement loop counter */
 764:../Dave/Generated/CMSIS_DSP/Source/FilteringFunctions/arm_fir_interpolate_q31.c ****     tapCnt--;
 765:../Dave/Generated/CMSIS_DSP/Source/FilteringFunctions/arm_fir_interpolate_q31.c ****   }
 766:../Dave/Generated/CMSIS_DSP/Source/FilteringFunctions/arm_fir_interpolate_q31.c **** 
 767:../Dave/Generated/CMSIS_DSP/Source/FilteringFunctions/arm_fir_interpolate_q31.c **** #endif /* #if !defined(ARM_MATH_CM0_FAMILY) */
 768:../Dave/Generated/CMSIS_DSP/Source/FilteringFunctions/arm_fir_interpolate_q31.c **** 
 769:../Dave/Generated/CMSIS_DSP/Source/FilteringFunctions/arm_fir_interpolate_q31.c **** }
 221              	 .loc 1 769 0
 222 0130 4437     	 adds r7,r7,#68
 223              	.LCFI3:
 224              	 .cfi_def_cfa_offset 20
 225 0132 BD46     	 mov sp,r7
 226              	.LCFI4:
 227              	 .cfi_def_cfa_register 13
 228              	 
 229 0134 F0BD     	 pop {r4,r5,r6,r7,pc}
 230              	 .cfi_endproc
 231              	.LFE149:
 233 0136 00BF     	 .text
 234              	.Letext0:
 235              	 .file 2 "c:\\infineon\\tools\\dave ide\\4.5.0.202105191637\\eclipse\\arm-gcc-49\\arm-none-eabi\\include\\machine\\_default_types.h"
 236              	 .file 3 "c:\\infineon\\tools\\dave ide\\4.5.0.202105191637\\eclipse\\arm-gcc-49\\arm-none-eabi\\include\\stdint.h"
 237              	 .file 4 "C:/Users/Rui Mendes/Desktop/DAVE/_Naive/_ForTesting/Dave/Generated/CMSIS_DSP/Include/arm_math.h"
 238              	 .file 5 "C:/Users/Rui Mendes/Desktop/DAVE/_Naive/_ForTesting/Libraries/CMSIS/Include/cmsis_gcc.h"