   1              	 .syntax unified
   2              	 .cpu cortex-m4
   3              	 .eabi_attribute 27,3
   4              	 .fpu fpv4-sp-d16
   5              	 .eabi_attribute 20,1
   6              	 .eabi_attribute 21,1
   7              	 .eabi_attribute 23,3
   8              	 .eabi_attribute 24,1
   9              	 .eabi_attribute 25,1
  10              	 .eabi_attribute 26,1
  11              	 .eabi_attribute 30,6
  12              	 .eabi_attribute 34,1
  13              	 .eabi_attribute 18,4
  14              	 .thumb
  15              	 .file "arm_fir_decimate_fast_q31.c"
  16              	 .text
  17              	.Ltext0:
  18              	 .cfi_sections .debug_frame
  19              	 .section .text.arm_fir_decimate_fast_q31,"ax",%progbits
  20              	 .align 2
  21              	 .global arm_fir_decimate_fast_q31
  22              	 .thumb
  23              	 .thumb_func
  25              	arm_fir_decimate_fast_q31:
  26              	.LFB149:
  27              	 .file 1 "../Dave/Generated/CMSIS_DSP/Source/FilteringFunctions/arm_fir_decimate_fast_q31.c"
   1:../Dave/Generated/CMSIS_DSP/Source/FilteringFunctions/arm_fir_decimate_fast_q31.c **** /* ----------------------------------------------------------------------
   2:../Dave/Generated/CMSIS_DSP/Source/FilteringFunctions/arm_fir_decimate_fast_q31.c ****  * Project:      CMSIS DSP Library
   3:../Dave/Generated/CMSIS_DSP/Source/FilteringFunctions/arm_fir_decimate_fast_q31.c ****  * Title:        arm_fir_decimate_fast_q31.c
   4:../Dave/Generated/CMSIS_DSP/Source/FilteringFunctions/arm_fir_decimate_fast_q31.c ****  * Description:  Fast Q31 FIR Decimator
   5:../Dave/Generated/CMSIS_DSP/Source/FilteringFunctions/arm_fir_decimate_fast_q31.c ****  *
   6:../Dave/Generated/CMSIS_DSP/Source/FilteringFunctions/arm_fir_decimate_fast_q31.c ****  * $Date:        18. March 2019
   7:../Dave/Generated/CMSIS_DSP/Source/FilteringFunctions/arm_fir_decimate_fast_q31.c ****  * $Revision:    V1.6.0
   8:../Dave/Generated/CMSIS_DSP/Source/FilteringFunctions/arm_fir_decimate_fast_q31.c ****  *
   9:../Dave/Generated/CMSIS_DSP/Source/FilteringFunctions/arm_fir_decimate_fast_q31.c ****  * Target Processor: Cortex-M cores
  10:../Dave/Generated/CMSIS_DSP/Source/FilteringFunctions/arm_fir_decimate_fast_q31.c ****  * -------------------------------------------------------------------- */
  11:../Dave/Generated/CMSIS_DSP/Source/FilteringFunctions/arm_fir_decimate_fast_q31.c **** /*
  12:../Dave/Generated/CMSIS_DSP/Source/FilteringFunctions/arm_fir_decimate_fast_q31.c ****  * Copyright (C) 2010-2019 ARM Limited or its affiliates. All rights reserved.
  13:../Dave/Generated/CMSIS_DSP/Source/FilteringFunctions/arm_fir_decimate_fast_q31.c ****  *
  14:../Dave/Generated/CMSIS_DSP/Source/FilteringFunctions/arm_fir_decimate_fast_q31.c ****  * SPDX-License-Identifier: Apache-2.0
  15:../Dave/Generated/CMSIS_DSP/Source/FilteringFunctions/arm_fir_decimate_fast_q31.c ****  *
  16:../Dave/Generated/CMSIS_DSP/Source/FilteringFunctions/arm_fir_decimate_fast_q31.c ****  * Licensed under the Apache License, Version 2.0 (the License); you may
  17:../Dave/Generated/CMSIS_DSP/Source/FilteringFunctions/arm_fir_decimate_fast_q31.c ****  * not use this file except in compliance with the License.
  18:../Dave/Generated/CMSIS_DSP/Source/FilteringFunctions/arm_fir_decimate_fast_q31.c ****  * You may obtain a copy of the License at
  19:../Dave/Generated/CMSIS_DSP/Source/FilteringFunctions/arm_fir_decimate_fast_q31.c ****  *
  20:../Dave/Generated/CMSIS_DSP/Source/FilteringFunctions/arm_fir_decimate_fast_q31.c ****  * www.apache.org/licenses/LICENSE-2.0
  21:../Dave/Generated/CMSIS_DSP/Source/FilteringFunctions/arm_fir_decimate_fast_q31.c ****  *
  22:../Dave/Generated/CMSIS_DSP/Source/FilteringFunctions/arm_fir_decimate_fast_q31.c ****  * Unless required by applicable law or agreed to in writing, software
  23:../Dave/Generated/CMSIS_DSP/Source/FilteringFunctions/arm_fir_decimate_fast_q31.c ****  * distributed under the License is distributed on an AS IS BASIS, WITHOUT
  24:../Dave/Generated/CMSIS_DSP/Source/FilteringFunctions/arm_fir_decimate_fast_q31.c ****  * WARRANTIES OR CONDITIONS OF ANY KIND, either express or implied.
  25:../Dave/Generated/CMSIS_DSP/Source/FilteringFunctions/arm_fir_decimate_fast_q31.c ****  * See the License for the specific language governing permissions and
  26:../Dave/Generated/CMSIS_DSP/Source/FilteringFunctions/arm_fir_decimate_fast_q31.c ****  * limitations under the License.
  27:../Dave/Generated/CMSIS_DSP/Source/FilteringFunctions/arm_fir_decimate_fast_q31.c ****  */
  28:../Dave/Generated/CMSIS_DSP/Source/FilteringFunctions/arm_fir_decimate_fast_q31.c **** 
  29:../Dave/Generated/CMSIS_DSP/Source/FilteringFunctions/arm_fir_decimate_fast_q31.c **** #include "CMSIS_DSP/cmsis_dsp.h"
  30:../Dave/Generated/CMSIS_DSP/Source/FilteringFunctions/arm_fir_decimate_fast_q31.c **** 
  31:../Dave/Generated/CMSIS_DSP/Source/FilteringFunctions/arm_fir_decimate_fast_q31.c **** /**
  32:../Dave/Generated/CMSIS_DSP/Source/FilteringFunctions/arm_fir_decimate_fast_q31.c ****   @ingroup groupFilters
  33:../Dave/Generated/CMSIS_DSP/Source/FilteringFunctions/arm_fir_decimate_fast_q31.c ****  */
  34:../Dave/Generated/CMSIS_DSP/Source/FilteringFunctions/arm_fir_decimate_fast_q31.c **** 
  35:../Dave/Generated/CMSIS_DSP/Source/FilteringFunctions/arm_fir_decimate_fast_q31.c **** /**
  36:../Dave/Generated/CMSIS_DSP/Source/FilteringFunctions/arm_fir_decimate_fast_q31.c ****   @addtogroup FIR_decimate
  37:../Dave/Generated/CMSIS_DSP/Source/FilteringFunctions/arm_fir_decimate_fast_q31.c ****   @{
  38:../Dave/Generated/CMSIS_DSP/Source/FilteringFunctions/arm_fir_decimate_fast_q31.c ****  */
  39:../Dave/Generated/CMSIS_DSP/Source/FilteringFunctions/arm_fir_decimate_fast_q31.c **** 
  40:../Dave/Generated/CMSIS_DSP/Source/FilteringFunctions/arm_fir_decimate_fast_q31.c **** /**
  41:../Dave/Generated/CMSIS_DSP/Source/FilteringFunctions/arm_fir_decimate_fast_q31.c ****   @brief         Processing function for the Q31 FIR decimator (fast variant).
  42:../Dave/Generated/CMSIS_DSP/Source/FilteringFunctions/arm_fir_decimate_fast_q31.c ****   @param[in]     S          points to an instance of the Q31 FIR decimator structure
  43:../Dave/Generated/CMSIS_DSP/Source/FilteringFunctions/arm_fir_decimate_fast_q31.c ****   @param[in]     pSrc       points to the block of input data
  44:../Dave/Generated/CMSIS_DSP/Source/FilteringFunctions/arm_fir_decimate_fast_q31.c ****   @param[out]    pDst       points to the block of output data
  45:../Dave/Generated/CMSIS_DSP/Source/FilteringFunctions/arm_fir_decimate_fast_q31.c ****   @param[in]     blockSize  number of samples to process
  46:../Dave/Generated/CMSIS_DSP/Source/FilteringFunctions/arm_fir_decimate_fast_q31.c ****   @return        none
  47:../Dave/Generated/CMSIS_DSP/Source/FilteringFunctions/arm_fir_decimate_fast_q31.c **** 
  48:../Dave/Generated/CMSIS_DSP/Source/FilteringFunctions/arm_fir_decimate_fast_q31.c ****   @par           Scaling and Overflow Behavior
  49:../Dave/Generated/CMSIS_DSP/Source/FilteringFunctions/arm_fir_decimate_fast_q31.c ****                    This function is optimized for speed at the expense of fixed-point precision and
  50:../Dave/Generated/CMSIS_DSP/Source/FilteringFunctions/arm_fir_decimate_fast_q31.c ****                    The result of each 1.31 x 1.31 multiplication is truncated to 2.30 format.
  51:../Dave/Generated/CMSIS_DSP/Source/FilteringFunctions/arm_fir_decimate_fast_q31.c ****                    These intermediate results are added to a 2.30 accumulator.
  52:../Dave/Generated/CMSIS_DSP/Source/FilteringFunctions/arm_fir_decimate_fast_q31.c ****                    Finally, the accumulator is saturated and converted to a 1.31 result.
  53:../Dave/Generated/CMSIS_DSP/Source/FilteringFunctions/arm_fir_decimate_fast_q31.c ****                    The fast version has the same overflow behavior as the standard version and prov
  54:../Dave/Generated/CMSIS_DSP/Source/FilteringFunctions/arm_fir_decimate_fast_q31.c ****                    In order to avoid overflows completely the input signal must be scaled down by l
  55:../Dave/Generated/CMSIS_DSP/Source/FilteringFunctions/arm_fir_decimate_fast_q31.c **** 
  56:../Dave/Generated/CMSIS_DSP/Source/FilteringFunctions/arm_fir_decimate_fast_q31.c ****   @remark
  57:../Dave/Generated/CMSIS_DSP/Source/FilteringFunctions/arm_fir_decimate_fast_q31.c ****                    Refer to \ref arm_fir_decimate_q31() for a slower implementation of this functio
  58:../Dave/Generated/CMSIS_DSP/Source/FilteringFunctions/arm_fir_decimate_fast_q31.c ****                    Both the slow and the fast versions use the same instance structure.
  59:../Dave/Generated/CMSIS_DSP/Source/FilteringFunctions/arm_fir_decimate_fast_q31.c ****                    Use function \ref arm_fir_decimate_init_q31() to initialize the filter structure
  60:../Dave/Generated/CMSIS_DSP/Source/FilteringFunctions/arm_fir_decimate_fast_q31.c ****  */
  61:../Dave/Generated/CMSIS_DSP/Source/FilteringFunctions/arm_fir_decimate_fast_q31.c **** 
  62:../Dave/Generated/CMSIS_DSP/Source/FilteringFunctions/arm_fir_decimate_fast_q31.c **** void arm_fir_decimate_fast_q31(
  63:../Dave/Generated/CMSIS_DSP/Source/FilteringFunctions/arm_fir_decimate_fast_q31.c ****   const arm_fir_decimate_instance_q31 * S,
  64:../Dave/Generated/CMSIS_DSP/Source/FilteringFunctions/arm_fir_decimate_fast_q31.c ****   const q31_t * pSrc,
  65:../Dave/Generated/CMSIS_DSP/Source/FilteringFunctions/arm_fir_decimate_fast_q31.c ****         q31_t * pDst,
  66:../Dave/Generated/CMSIS_DSP/Source/FilteringFunctions/arm_fir_decimate_fast_q31.c ****         uint32_t blockSize)
  67:../Dave/Generated/CMSIS_DSP/Source/FilteringFunctions/arm_fir_decimate_fast_q31.c **** {
  28              	 .loc 1 67 0
  29              	 .cfi_startproc
  30              	 
  31              	 
  32 0000 2DE9F043 	 push {r4,r5,r6,r7,r8,r9,lr}
  33              	.LCFI0:
  34              	 .cfi_def_cfa_offset 28
  35              	 .cfi_offset 4,-28
  36              	 .cfi_offset 5,-24
  37              	 .cfi_offset 6,-20
  38              	 .cfi_offset 7,-16
  39              	 .cfi_offset 8,-12
  40              	 .cfi_offset 9,-8
  41              	 .cfi_offset 14,-4
  42 0004 93B0     	 sub sp,sp,#76
  43              	.LCFI1:
  44              	 .cfi_def_cfa_offset 104
  45 0006 00AF     	 add r7,sp,#0
  46              	.LCFI2:
  47              	 .cfi_def_cfa_register 7
  48 0008 F860     	 str r0,[r7,#12]
  49 000a B960     	 str r1,[r7,#8]
  50 000c 7A60     	 str r2,[r7,#4]
  51 000e 3B60     	 str r3,[r7]
  68:../Dave/Generated/CMSIS_DSP/Source/FilteringFunctions/arm_fir_decimate_fast_q31.c ****         q31_t *pState = S->pState;                     /* State pointer */
  52              	 .loc 1 68 0
  53 0010 FB68     	 ldr r3,[r7,#12]
  54 0012 9B68     	 ldr r3,[r3,#8]
  55 0014 7B64     	 str r3,[r7,#68]
  69:../Dave/Generated/CMSIS_DSP/Source/FilteringFunctions/arm_fir_decimate_fast_q31.c ****   const q31_t *pCoeffs = S->pCoeffs;                   /* Coefficient pointer */
  56              	 .loc 1 69 0
  57 0016 FB68     	 ldr r3,[r7,#12]
  58 0018 5B68     	 ldr r3,[r3,#4]
  59 001a 3B62     	 str r3,[r7,#32]
  70:../Dave/Generated/CMSIS_DSP/Source/FilteringFunctions/arm_fir_decimate_fast_q31.c ****         q31_t *pStateCur;                              /* Points to the current sample of the state
  71:../Dave/Generated/CMSIS_DSP/Source/FilteringFunctions/arm_fir_decimate_fast_q31.c ****         q31_t *px0;                                    /* Temporary pointer for state buffer */
  72:../Dave/Generated/CMSIS_DSP/Source/FilteringFunctions/arm_fir_decimate_fast_q31.c ****   const q31_t *pb;                                     /* Temporary pointer for coefficient buffer 
  73:../Dave/Generated/CMSIS_DSP/Source/FilteringFunctions/arm_fir_decimate_fast_q31.c ****         q31_t x0, c0;                                  /* Temporary variables to hold state and coe
  74:../Dave/Generated/CMSIS_DSP/Source/FilteringFunctions/arm_fir_decimate_fast_q31.c ****         q63_t acc0;                                    /* Accumulator */
  75:../Dave/Generated/CMSIS_DSP/Source/FilteringFunctions/arm_fir_decimate_fast_q31.c ****         uint32_t numTaps = S->numTaps;                 /* Number of filter coefficients in the filt
  60              	 .loc 1 75 0
  61 001c FB68     	 ldr r3,[r7,#12]
  62 001e 5B88     	 ldrh r3,[r3,#2]
  63 0020 FB61     	 str r3,[r7,#28]
  76:../Dave/Generated/CMSIS_DSP/Source/FilteringFunctions/arm_fir_decimate_fast_q31.c ****         uint32_t i, tapCnt, blkCnt, outBlockSize = blockSize / S->M;  /* Loop counters */
  64              	 .loc 1 76 0
  65 0022 FB68     	 ldr r3,[r7,#12]
  66 0024 1B78     	 ldrb r3,[r3]
  67 0026 1A46     	 mov r2,r3
  68 0028 3B68     	 ldr r3,[r7]
  69 002a B3FBF2F3 	 udiv r3,r3,r2
  70 002e BB61     	 str r3,[r7,#24]
  77:../Dave/Generated/CMSIS_DSP/Source/FilteringFunctions/arm_fir_decimate_fast_q31.c **** 
  78:../Dave/Generated/CMSIS_DSP/Source/FilteringFunctions/arm_fir_decimate_fast_q31.c **** #if defined (ARM_MATH_LOOPUNROLL)
  79:../Dave/Generated/CMSIS_DSP/Source/FilteringFunctions/arm_fir_decimate_fast_q31.c ****         q31_t *px1, *px2, *px3;
  80:../Dave/Generated/CMSIS_DSP/Source/FilteringFunctions/arm_fir_decimate_fast_q31.c ****         q31_t x1, x2, x3;
  81:../Dave/Generated/CMSIS_DSP/Source/FilteringFunctions/arm_fir_decimate_fast_q31.c ****         q63_t acc1, acc2, acc3;
  82:../Dave/Generated/CMSIS_DSP/Source/FilteringFunctions/arm_fir_decimate_fast_q31.c **** #endif
  83:../Dave/Generated/CMSIS_DSP/Source/FilteringFunctions/arm_fir_decimate_fast_q31.c **** 
  84:../Dave/Generated/CMSIS_DSP/Source/FilteringFunctions/arm_fir_decimate_fast_q31.c ****   /* S->pState buffer contains previous frame (numTaps - 1) samples */
  85:../Dave/Generated/CMSIS_DSP/Source/FilteringFunctions/arm_fir_decimate_fast_q31.c ****   /* pStateCur points to the location where the new input data should be written */
  86:../Dave/Generated/CMSIS_DSP/Source/FilteringFunctions/arm_fir_decimate_fast_q31.c ****   pStateCur = S->pState + (numTaps - 1U);
  71              	 .loc 1 86 0
  72 0030 FB68     	 ldr r3,[r7,#12]
  73 0032 9A68     	 ldr r2,[r3,#8]
  74 0034 FB69     	 ldr r3,[r7,#28]
  75 0036 03F18043 	 add r3,r3,#1073741824
  76 003a 013B     	 subs r3,r3,#1
  77 003c 9B00     	 lsls r3,r3,#2
  78 003e 1344     	 add r3,r3,r2
  79 0040 3B64     	 str r3,[r7,#64]
  87:../Dave/Generated/CMSIS_DSP/Source/FilteringFunctions/arm_fir_decimate_fast_q31.c **** 
  88:../Dave/Generated/CMSIS_DSP/Source/FilteringFunctions/arm_fir_decimate_fast_q31.c **** #if defined (ARM_MATH_LOOPUNROLL)
  89:../Dave/Generated/CMSIS_DSP/Source/FilteringFunctions/arm_fir_decimate_fast_q31.c **** 
  90:../Dave/Generated/CMSIS_DSP/Source/FilteringFunctions/arm_fir_decimate_fast_q31.c ****     /* Loop unrolling: Compute 4 samples at a time */
  91:../Dave/Generated/CMSIS_DSP/Source/FilteringFunctions/arm_fir_decimate_fast_q31.c ****   blkCnt = outBlockSize >> 2U;
  92:../Dave/Generated/CMSIS_DSP/Source/FilteringFunctions/arm_fir_decimate_fast_q31.c **** 
  93:../Dave/Generated/CMSIS_DSP/Source/FilteringFunctions/arm_fir_decimate_fast_q31.c ****   /* Samples loop unrolled by 4 */
  94:../Dave/Generated/CMSIS_DSP/Source/FilteringFunctions/arm_fir_decimate_fast_q31.c ****   while (blkCnt > 0U)
  95:../Dave/Generated/CMSIS_DSP/Source/FilteringFunctions/arm_fir_decimate_fast_q31.c ****   {
  96:../Dave/Generated/CMSIS_DSP/Source/FilteringFunctions/arm_fir_decimate_fast_q31.c ****     /* Copy 4 * decimation factor number of new input samples into the state buffer */
  97:../Dave/Generated/CMSIS_DSP/Source/FilteringFunctions/arm_fir_decimate_fast_q31.c ****     i = S->M * 4;
  98:../Dave/Generated/CMSIS_DSP/Source/FilteringFunctions/arm_fir_decimate_fast_q31.c **** 
  99:../Dave/Generated/CMSIS_DSP/Source/FilteringFunctions/arm_fir_decimate_fast_q31.c ****     do
 100:../Dave/Generated/CMSIS_DSP/Source/FilteringFunctions/arm_fir_decimate_fast_q31.c ****     {
 101:../Dave/Generated/CMSIS_DSP/Source/FilteringFunctions/arm_fir_decimate_fast_q31.c ****       *pStateCur++ = *pSrc++;
 102:../Dave/Generated/CMSIS_DSP/Source/FilteringFunctions/arm_fir_decimate_fast_q31.c **** 
 103:../Dave/Generated/CMSIS_DSP/Source/FilteringFunctions/arm_fir_decimate_fast_q31.c ****     } while (--i);
 104:../Dave/Generated/CMSIS_DSP/Source/FilteringFunctions/arm_fir_decimate_fast_q31.c **** 
 105:../Dave/Generated/CMSIS_DSP/Source/FilteringFunctions/arm_fir_decimate_fast_q31.c ****     /* Set accumulators to zero */
 106:../Dave/Generated/CMSIS_DSP/Source/FilteringFunctions/arm_fir_decimate_fast_q31.c ****     acc0 = 0;
 107:../Dave/Generated/CMSIS_DSP/Source/FilteringFunctions/arm_fir_decimate_fast_q31.c ****     acc1 = 0;
 108:../Dave/Generated/CMSIS_DSP/Source/FilteringFunctions/arm_fir_decimate_fast_q31.c ****     acc2 = 0;
 109:../Dave/Generated/CMSIS_DSP/Source/FilteringFunctions/arm_fir_decimate_fast_q31.c ****     acc3 = 0;
 110:../Dave/Generated/CMSIS_DSP/Source/FilteringFunctions/arm_fir_decimate_fast_q31.c **** 
 111:../Dave/Generated/CMSIS_DSP/Source/FilteringFunctions/arm_fir_decimate_fast_q31.c ****     /* Initialize state pointer for all the samples */
 112:../Dave/Generated/CMSIS_DSP/Source/FilteringFunctions/arm_fir_decimate_fast_q31.c ****     px0 = pState;
 113:../Dave/Generated/CMSIS_DSP/Source/FilteringFunctions/arm_fir_decimate_fast_q31.c ****     px1 = pState + S->M;
 114:../Dave/Generated/CMSIS_DSP/Source/FilteringFunctions/arm_fir_decimate_fast_q31.c ****     px2 = pState + 2 * S->M;
 115:../Dave/Generated/CMSIS_DSP/Source/FilteringFunctions/arm_fir_decimate_fast_q31.c ****     px3 = pState + 3 * S->M;
 116:../Dave/Generated/CMSIS_DSP/Source/FilteringFunctions/arm_fir_decimate_fast_q31.c **** 
 117:../Dave/Generated/CMSIS_DSP/Source/FilteringFunctions/arm_fir_decimate_fast_q31.c ****     /* Initialize coeff pointer */
 118:../Dave/Generated/CMSIS_DSP/Source/FilteringFunctions/arm_fir_decimate_fast_q31.c ****     pb = pCoeffs;
 119:../Dave/Generated/CMSIS_DSP/Source/FilteringFunctions/arm_fir_decimate_fast_q31.c **** 
 120:../Dave/Generated/CMSIS_DSP/Source/FilteringFunctions/arm_fir_decimate_fast_q31.c ****     /* Loop unrolling: Compute 4 taps at a time */
 121:../Dave/Generated/CMSIS_DSP/Source/FilteringFunctions/arm_fir_decimate_fast_q31.c ****     tapCnt = numTaps >> 2U;
 122:../Dave/Generated/CMSIS_DSP/Source/FilteringFunctions/arm_fir_decimate_fast_q31.c **** 
 123:../Dave/Generated/CMSIS_DSP/Source/FilteringFunctions/arm_fir_decimate_fast_q31.c ****     while (tapCnt > 0U)
 124:../Dave/Generated/CMSIS_DSP/Source/FilteringFunctions/arm_fir_decimate_fast_q31.c ****     {
 125:../Dave/Generated/CMSIS_DSP/Source/FilteringFunctions/arm_fir_decimate_fast_q31.c ****       /* Read the b[numTaps-1] coefficient */
 126:../Dave/Generated/CMSIS_DSP/Source/FilteringFunctions/arm_fir_decimate_fast_q31.c ****       c0 = *(pb++);
 127:../Dave/Generated/CMSIS_DSP/Source/FilteringFunctions/arm_fir_decimate_fast_q31.c **** 
 128:../Dave/Generated/CMSIS_DSP/Source/FilteringFunctions/arm_fir_decimate_fast_q31.c ****       /* Read x[n-numTaps-1] sample for acc0 */
 129:../Dave/Generated/CMSIS_DSP/Source/FilteringFunctions/arm_fir_decimate_fast_q31.c ****       x0 = *(px0++);
 130:../Dave/Generated/CMSIS_DSP/Source/FilteringFunctions/arm_fir_decimate_fast_q31.c ****       /* Read x[n-numTaps-1] sample for acc1 */
 131:../Dave/Generated/CMSIS_DSP/Source/FilteringFunctions/arm_fir_decimate_fast_q31.c ****       x1 = *(px1++);
 132:../Dave/Generated/CMSIS_DSP/Source/FilteringFunctions/arm_fir_decimate_fast_q31.c ****       /* Read x[n-numTaps-1] sample for acc2 */
 133:../Dave/Generated/CMSIS_DSP/Source/FilteringFunctions/arm_fir_decimate_fast_q31.c ****       x2 = *(px2++);
 134:../Dave/Generated/CMSIS_DSP/Source/FilteringFunctions/arm_fir_decimate_fast_q31.c ****       /* Read x[n-numTaps-1] sample for acc3 */
 135:../Dave/Generated/CMSIS_DSP/Source/FilteringFunctions/arm_fir_decimate_fast_q31.c ****       x3 = *(px3++);
 136:../Dave/Generated/CMSIS_DSP/Source/FilteringFunctions/arm_fir_decimate_fast_q31.c **** 
 137:../Dave/Generated/CMSIS_DSP/Source/FilteringFunctions/arm_fir_decimate_fast_q31.c ****       /* Perform the multiply-accumulate */
 138:../Dave/Generated/CMSIS_DSP/Source/FilteringFunctions/arm_fir_decimate_fast_q31.c ****       acc0 = (q31_t) ((((q63_t) acc0 << 32) + ((q63_t) x0 * c0)) >> 32);
 139:../Dave/Generated/CMSIS_DSP/Source/FilteringFunctions/arm_fir_decimate_fast_q31.c ****       acc1 = (q31_t) ((((q63_t) acc1 << 32) + ((q63_t) x1 * c0)) >> 32);
 140:../Dave/Generated/CMSIS_DSP/Source/FilteringFunctions/arm_fir_decimate_fast_q31.c ****       acc2 = (q31_t) ((((q63_t) acc2 << 32) + ((q63_t) x2 * c0)) >> 32);
 141:../Dave/Generated/CMSIS_DSP/Source/FilteringFunctions/arm_fir_decimate_fast_q31.c ****       acc3 = (q31_t) ((((q63_t) acc3 << 32) + ((q63_t) x3 * c0)) >> 32);
 142:../Dave/Generated/CMSIS_DSP/Source/FilteringFunctions/arm_fir_decimate_fast_q31.c **** 
 143:../Dave/Generated/CMSIS_DSP/Source/FilteringFunctions/arm_fir_decimate_fast_q31.c ****       /* Read the b[numTaps-2] coefficient */
 144:../Dave/Generated/CMSIS_DSP/Source/FilteringFunctions/arm_fir_decimate_fast_q31.c ****       c0 = *(pb++);
 145:../Dave/Generated/CMSIS_DSP/Source/FilteringFunctions/arm_fir_decimate_fast_q31.c **** 
 146:../Dave/Generated/CMSIS_DSP/Source/FilteringFunctions/arm_fir_decimate_fast_q31.c ****       /* Read x[n-numTaps-2] sample for acc0, acc1, acc2, acc3 */
 147:../Dave/Generated/CMSIS_DSP/Source/FilteringFunctions/arm_fir_decimate_fast_q31.c ****       x0 = *(px0++);
 148:../Dave/Generated/CMSIS_DSP/Source/FilteringFunctions/arm_fir_decimate_fast_q31.c ****       x1 = *(px1++);
 149:../Dave/Generated/CMSIS_DSP/Source/FilteringFunctions/arm_fir_decimate_fast_q31.c ****       x2 = *(px2++);
 150:../Dave/Generated/CMSIS_DSP/Source/FilteringFunctions/arm_fir_decimate_fast_q31.c ****       x3 = *(px3++);
 151:../Dave/Generated/CMSIS_DSP/Source/FilteringFunctions/arm_fir_decimate_fast_q31.c **** 
 152:../Dave/Generated/CMSIS_DSP/Source/FilteringFunctions/arm_fir_decimate_fast_q31.c ****       /* Perform the multiply-accumulate */
 153:../Dave/Generated/CMSIS_DSP/Source/FilteringFunctions/arm_fir_decimate_fast_q31.c ****       acc0 = (q31_t) ((((q63_t) acc0 << 32) + ((q63_t) x0 * c0)) >> 32);
 154:../Dave/Generated/CMSIS_DSP/Source/FilteringFunctions/arm_fir_decimate_fast_q31.c ****       acc1 = (q31_t) ((((q63_t) acc1 << 32) + ((q63_t) x1 * c0)) >> 32);
 155:../Dave/Generated/CMSIS_DSP/Source/FilteringFunctions/arm_fir_decimate_fast_q31.c ****       acc2 = (q31_t) ((((q63_t) acc2 << 32) + ((q63_t) x2 * c0)) >> 32);
 156:../Dave/Generated/CMSIS_DSP/Source/FilteringFunctions/arm_fir_decimate_fast_q31.c ****       acc3 = (q31_t) ((((q63_t) acc3 << 32) + ((q63_t) x3 * c0)) >> 32);
 157:../Dave/Generated/CMSIS_DSP/Source/FilteringFunctions/arm_fir_decimate_fast_q31.c **** 
 158:../Dave/Generated/CMSIS_DSP/Source/FilteringFunctions/arm_fir_decimate_fast_q31.c ****       /* Read the b[numTaps-3] coefficient */
 159:../Dave/Generated/CMSIS_DSP/Source/FilteringFunctions/arm_fir_decimate_fast_q31.c ****       c0 = *(pb++);
 160:../Dave/Generated/CMSIS_DSP/Source/FilteringFunctions/arm_fir_decimate_fast_q31.c **** 
 161:../Dave/Generated/CMSIS_DSP/Source/FilteringFunctions/arm_fir_decimate_fast_q31.c ****       /* Read x[n-numTaps-3] sample acc0, acc1, acc2, acc3 */
 162:../Dave/Generated/CMSIS_DSP/Source/FilteringFunctions/arm_fir_decimate_fast_q31.c ****       x0 = *(px0++);
 163:../Dave/Generated/CMSIS_DSP/Source/FilteringFunctions/arm_fir_decimate_fast_q31.c ****       x1 = *(px1++);
 164:../Dave/Generated/CMSIS_DSP/Source/FilteringFunctions/arm_fir_decimate_fast_q31.c ****       x2 = *(px2++);
 165:../Dave/Generated/CMSIS_DSP/Source/FilteringFunctions/arm_fir_decimate_fast_q31.c ****       x3 = *(px3++);
 166:../Dave/Generated/CMSIS_DSP/Source/FilteringFunctions/arm_fir_decimate_fast_q31.c **** 
 167:../Dave/Generated/CMSIS_DSP/Source/FilteringFunctions/arm_fir_decimate_fast_q31.c ****       /* Perform the multiply-accumulate */
 168:../Dave/Generated/CMSIS_DSP/Source/FilteringFunctions/arm_fir_decimate_fast_q31.c ****       acc0 = (q31_t) ((((q63_t) acc0 << 32) + ((q63_t) x0 * c0)) >> 32);
 169:../Dave/Generated/CMSIS_DSP/Source/FilteringFunctions/arm_fir_decimate_fast_q31.c ****       acc1 = (q31_t) ((((q63_t) acc1 << 32) + ((q63_t) x1 * c0)) >> 32);
 170:../Dave/Generated/CMSIS_DSP/Source/FilteringFunctions/arm_fir_decimate_fast_q31.c ****       acc2 = (q31_t) ((((q63_t) acc2 << 32) + ((q63_t) x2 * c0)) >> 32);
 171:../Dave/Generated/CMSIS_DSP/Source/FilteringFunctions/arm_fir_decimate_fast_q31.c ****       acc3 = (q31_t) ((((q63_t) acc3 << 32) + ((q63_t) x3 * c0)) >> 32);
 172:../Dave/Generated/CMSIS_DSP/Source/FilteringFunctions/arm_fir_decimate_fast_q31.c **** 
 173:../Dave/Generated/CMSIS_DSP/Source/FilteringFunctions/arm_fir_decimate_fast_q31.c ****       /* Read the b[numTaps-4] coefficient */
 174:../Dave/Generated/CMSIS_DSP/Source/FilteringFunctions/arm_fir_decimate_fast_q31.c ****       c0 = *(pb++);
 175:../Dave/Generated/CMSIS_DSP/Source/FilteringFunctions/arm_fir_decimate_fast_q31.c **** 
 176:../Dave/Generated/CMSIS_DSP/Source/FilteringFunctions/arm_fir_decimate_fast_q31.c ****       /* Read x[n-numTaps-4] sample acc0, acc1, acc2, acc3 */
 177:../Dave/Generated/CMSIS_DSP/Source/FilteringFunctions/arm_fir_decimate_fast_q31.c ****       x0 = *(px0++);
 178:../Dave/Generated/CMSIS_DSP/Source/FilteringFunctions/arm_fir_decimate_fast_q31.c ****       x1 = *(px1++);
 179:../Dave/Generated/CMSIS_DSP/Source/FilteringFunctions/arm_fir_decimate_fast_q31.c ****       x2 = *(px2++);
 180:../Dave/Generated/CMSIS_DSP/Source/FilteringFunctions/arm_fir_decimate_fast_q31.c ****       x3 = *(px3++);
 181:../Dave/Generated/CMSIS_DSP/Source/FilteringFunctions/arm_fir_decimate_fast_q31.c **** 
 182:../Dave/Generated/CMSIS_DSP/Source/FilteringFunctions/arm_fir_decimate_fast_q31.c ****       /* Perform the multiply-accumulate */
 183:../Dave/Generated/CMSIS_DSP/Source/FilteringFunctions/arm_fir_decimate_fast_q31.c ****       acc0 = (q31_t) ((((q63_t) acc0 << 32) + ((q63_t) x0 * c0)) >> 32);
 184:../Dave/Generated/CMSIS_DSP/Source/FilteringFunctions/arm_fir_decimate_fast_q31.c ****       acc1 = (q31_t) ((((q63_t) acc1 << 32) + ((q63_t) x1 * c0)) >> 32);
 185:../Dave/Generated/CMSIS_DSP/Source/FilteringFunctions/arm_fir_decimate_fast_q31.c ****       acc2 = (q31_t) ((((q63_t) acc2 << 32) + ((q63_t) x2 * c0)) >> 32);
 186:../Dave/Generated/CMSIS_DSP/Source/FilteringFunctions/arm_fir_decimate_fast_q31.c ****       acc3 = (q31_t) ((((q63_t) acc3 << 32) + ((q63_t) x3 * c0)) >> 32);
 187:../Dave/Generated/CMSIS_DSP/Source/FilteringFunctions/arm_fir_decimate_fast_q31.c **** 
 188:../Dave/Generated/CMSIS_DSP/Source/FilteringFunctions/arm_fir_decimate_fast_q31.c ****       /* Decrement loop counter */
 189:../Dave/Generated/CMSIS_DSP/Source/FilteringFunctions/arm_fir_decimate_fast_q31.c ****       tapCnt--;
 190:../Dave/Generated/CMSIS_DSP/Source/FilteringFunctions/arm_fir_decimate_fast_q31.c ****     }
 191:../Dave/Generated/CMSIS_DSP/Source/FilteringFunctions/arm_fir_decimate_fast_q31.c **** 
 192:../Dave/Generated/CMSIS_DSP/Source/FilteringFunctions/arm_fir_decimate_fast_q31.c ****     /* Loop unrolling: Compute remaining taps */
 193:../Dave/Generated/CMSIS_DSP/Source/FilteringFunctions/arm_fir_decimate_fast_q31.c ****     tapCnt = numTaps % 0x4U;
 194:../Dave/Generated/CMSIS_DSP/Source/FilteringFunctions/arm_fir_decimate_fast_q31.c **** 
 195:../Dave/Generated/CMSIS_DSP/Source/FilteringFunctions/arm_fir_decimate_fast_q31.c ****     while (tapCnt > 0U)
 196:../Dave/Generated/CMSIS_DSP/Source/FilteringFunctions/arm_fir_decimate_fast_q31.c ****     {
 197:../Dave/Generated/CMSIS_DSP/Source/FilteringFunctions/arm_fir_decimate_fast_q31.c ****       /* Read coefficients */
 198:../Dave/Generated/CMSIS_DSP/Source/FilteringFunctions/arm_fir_decimate_fast_q31.c ****       c0 = *(pb++);
 199:../Dave/Generated/CMSIS_DSP/Source/FilteringFunctions/arm_fir_decimate_fast_q31.c **** 
 200:../Dave/Generated/CMSIS_DSP/Source/FilteringFunctions/arm_fir_decimate_fast_q31.c ****       /* Fetch state variables for acc0, acc1, acc2, acc3 */
 201:../Dave/Generated/CMSIS_DSP/Source/FilteringFunctions/arm_fir_decimate_fast_q31.c ****       x0 = *(px0++);
 202:../Dave/Generated/CMSIS_DSP/Source/FilteringFunctions/arm_fir_decimate_fast_q31.c ****       x1 = *(px1++);
 203:../Dave/Generated/CMSIS_DSP/Source/FilteringFunctions/arm_fir_decimate_fast_q31.c ****       x2 = *(px2++);
 204:../Dave/Generated/CMSIS_DSP/Source/FilteringFunctions/arm_fir_decimate_fast_q31.c ****       x3 = *(px3++);
 205:../Dave/Generated/CMSIS_DSP/Source/FilteringFunctions/arm_fir_decimate_fast_q31.c **** 
 206:../Dave/Generated/CMSIS_DSP/Source/FilteringFunctions/arm_fir_decimate_fast_q31.c ****       /* Perform the multiply-accumulate */
 207:../Dave/Generated/CMSIS_DSP/Source/FilteringFunctions/arm_fir_decimate_fast_q31.c ****       acc0 = (q31_t) ((((q63_t) acc0 << 32) + ((q63_t) x0 * c0)) >> 32);
 208:../Dave/Generated/CMSIS_DSP/Source/FilteringFunctions/arm_fir_decimate_fast_q31.c ****       acc1 = (q31_t) ((((q63_t) acc1 << 32) + ((q63_t) x1 * c0)) >> 32);
 209:../Dave/Generated/CMSIS_DSP/Source/FilteringFunctions/arm_fir_decimate_fast_q31.c ****       acc2 = (q31_t) ((((q63_t) acc2 << 32) + ((q63_t) x2 * c0)) >> 32);
 210:../Dave/Generated/CMSIS_DSP/Source/FilteringFunctions/arm_fir_decimate_fast_q31.c ****       acc3 = (q31_t) ((((q63_t) acc3 << 32) + ((q63_t) x3 * c0)) >> 32);
 211:../Dave/Generated/CMSIS_DSP/Source/FilteringFunctions/arm_fir_decimate_fast_q31.c **** 
 212:../Dave/Generated/CMSIS_DSP/Source/FilteringFunctions/arm_fir_decimate_fast_q31.c ****       /* Decrement loop counter */
 213:../Dave/Generated/CMSIS_DSP/Source/FilteringFunctions/arm_fir_decimate_fast_q31.c ****       tapCnt--;
 214:../Dave/Generated/CMSIS_DSP/Source/FilteringFunctions/arm_fir_decimate_fast_q31.c ****     }
 215:../Dave/Generated/CMSIS_DSP/Source/FilteringFunctions/arm_fir_decimate_fast_q31.c **** 
 216:../Dave/Generated/CMSIS_DSP/Source/FilteringFunctions/arm_fir_decimate_fast_q31.c ****     /* Advance the state pointer by the decimation factor
 217:../Dave/Generated/CMSIS_DSP/Source/FilteringFunctions/arm_fir_decimate_fast_q31.c ****      * to process the next group of decimation factor number samples */
 218:../Dave/Generated/CMSIS_DSP/Source/FilteringFunctions/arm_fir_decimate_fast_q31.c ****     pState = pState + S->M * 4;
 219:../Dave/Generated/CMSIS_DSP/Source/FilteringFunctions/arm_fir_decimate_fast_q31.c **** 
 220:../Dave/Generated/CMSIS_DSP/Source/FilteringFunctions/arm_fir_decimate_fast_q31.c ****     /* The result is in the accumulator, store in the destination buffer. */
 221:../Dave/Generated/CMSIS_DSP/Source/FilteringFunctions/arm_fir_decimate_fast_q31.c ****     *pDst++ = (q31_t) (acc0 << 1);
 222:../Dave/Generated/CMSIS_DSP/Source/FilteringFunctions/arm_fir_decimate_fast_q31.c ****     *pDst++ = (q31_t) (acc1 << 1);
 223:../Dave/Generated/CMSIS_DSP/Source/FilteringFunctions/arm_fir_decimate_fast_q31.c ****     *pDst++ = (q31_t) (acc2 << 1);
 224:../Dave/Generated/CMSIS_DSP/Source/FilteringFunctions/arm_fir_decimate_fast_q31.c ****     *pDst++ = (q31_t) (acc3 << 1);
 225:../Dave/Generated/CMSIS_DSP/Source/FilteringFunctions/arm_fir_decimate_fast_q31.c **** 
 226:../Dave/Generated/CMSIS_DSP/Source/FilteringFunctions/arm_fir_decimate_fast_q31.c ****     /* Decrement loop counter */
 227:../Dave/Generated/CMSIS_DSP/Source/FilteringFunctions/arm_fir_decimate_fast_q31.c ****     blkCnt--;
 228:../Dave/Generated/CMSIS_DSP/Source/FilteringFunctions/arm_fir_decimate_fast_q31.c ****   }
 229:../Dave/Generated/CMSIS_DSP/Source/FilteringFunctions/arm_fir_decimate_fast_q31.c **** 
 230:../Dave/Generated/CMSIS_DSP/Source/FilteringFunctions/arm_fir_decimate_fast_q31.c ****   /* Loop unrolling: Compute remaining samples */
 231:../Dave/Generated/CMSIS_DSP/Source/FilteringFunctions/arm_fir_decimate_fast_q31.c ****   blkCnt = outBlockSize % 0x4U;
 232:../Dave/Generated/CMSIS_DSP/Source/FilteringFunctions/arm_fir_decimate_fast_q31.c **** 
 233:../Dave/Generated/CMSIS_DSP/Source/FilteringFunctions/arm_fir_decimate_fast_q31.c **** #else
 234:../Dave/Generated/CMSIS_DSP/Source/FilteringFunctions/arm_fir_decimate_fast_q31.c **** 
 235:../Dave/Generated/CMSIS_DSP/Source/FilteringFunctions/arm_fir_decimate_fast_q31.c ****   /* Initialize blkCnt with number of samples */
 236:../Dave/Generated/CMSIS_DSP/Source/FilteringFunctions/arm_fir_decimate_fast_q31.c ****   blkCnt = outBlockSize;
  80              	 .loc 1 236 0
  81 0042 BB69     	 ldr r3,[r7,#24]
  82 0044 7B62     	 str r3,[r7,#36]
 237:../Dave/Generated/CMSIS_DSP/Source/FilteringFunctions/arm_fir_decimate_fast_q31.c **** 
 238:../Dave/Generated/CMSIS_DSP/Source/FilteringFunctions/arm_fir_decimate_fast_q31.c **** #endif /* #if defined (ARM_MATH_LOOPUNROLL) */
 239:../Dave/Generated/CMSIS_DSP/Source/FilteringFunctions/arm_fir_decimate_fast_q31.c **** 
 240:../Dave/Generated/CMSIS_DSP/Source/FilteringFunctions/arm_fir_decimate_fast_q31.c ****   while (blkCnt > 0U)
  83              	 .loc 1 240 0
  84 0046 61E0     	 b .L2
  85              	.L6:
 241:../Dave/Generated/CMSIS_DSP/Source/FilteringFunctions/arm_fir_decimate_fast_q31.c ****   {
 242:../Dave/Generated/CMSIS_DSP/Source/FilteringFunctions/arm_fir_decimate_fast_q31.c ****     /* Copy decimation factor number of new input samples into the state buffer */
 243:../Dave/Generated/CMSIS_DSP/Source/FilteringFunctions/arm_fir_decimate_fast_q31.c ****     i = S->M;
  86              	 .loc 1 243 0
  87 0048 FB68     	 ldr r3,[r7,#12]
  88 004a 1B78     	 ldrb r3,[r3]
  89 004c FB62     	 str r3,[r7,#44]
  90              	.L3:
 244:../Dave/Generated/CMSIS_DSP/Source/FilteringFunctions/arm_fir_decimate_fast_q31.c **** 
 245:../Dave/Generated/CMSIS_DSP/Source/FilteringFunctions/arm_fir_decimate_fast_q31.c ****     do
 246:../Dave/Generated/CMSIS_DSP/Source/FilteringFunctions/arm_fir_decimate_fast_q31.c ****     {
 247:../Dave/Generated/CMSIS_DSP/Source/FilteringFunctions/arm_fir_decimate_fast_q31.c ****       *pStateCur++ = *pSrc++;
  91              	 .loc 1 247 0 discriminator 1
  92 004e 3B6C     	 ldr r3,[r7,#64]
  93 0050 1A1D     	 adds r2,r3,#4
  94 0052 3A64     	 str r2,[r7,#64]
  95 0054 BA68     	 ldr r2,[r7,#8]
  96 0056 111D     	 adds r1,r2,#4
  97 0058 B960     	 str r1,[r7,#8]
  98 005a 1268     	 ldr r2,[r2]
  99 005c 1A60     	 str r2,[r3]
 248:../Dave/Generated/CMSIS_DSP/Source/FilteringFunctions/arm_fir_decimate_fast_q31.c **** 
 249:../Dave/Generated/CMSIS_DSP/Source/FilteringFunctions/arm_fir_decimate_fast_q31.c ****     } while (--i);
 100              	 .loc 1 249 0 discriminator 1
 101 005e FB6A     	 ldr r3,[r7,#44]
 102 0060 013B     	 subs r3,r3,#1
 103 0062 FB62     	 str r3,[r7,#44]
 104 0064 FB6A     	 ldr r3,[r7,#44]
 105 0066 002B     	 cmp r3,#0
 106 0068 F1D1     	 bne .L3
 250:../Dave/Generated/CMSIS_DSP/Source/FilteringFunctions/arm_fir_decimate_fast_q31.c **** 
 251:../Dave/Generated/CMSIS_DSP/Source/FilteringFunctions/arm_fir_decimate_fast_q31.c ****     /* Set accumulator to zero */
 252:../Dave/Generated/CMSIS_DSP/Source/FilteringFunctions/arm_fir_decimate_fast_q31.c ****     acc0 = 0;
 107              	 .loc 1 252 0
 108 006a 4FF00002 	 mov r2,#0
 109 006e 4FF00003 	 mov r3,#0
 110 0072 C7E90C23 	 strd r2,[r7,#48]
 253:../Dave/Generated/CMSIS_DSP/Source/FilteringFunctions/arm_fir_decimate_fast_q31.c **** 
 254:../Dave/Generated/CMSIS_DSP/Source/FilteringFunctions/arm_fir_decimate_fast_q31.c ****     /* Initialize state pointer */
 255:../Dave/Generated/CMSIS_DSP/Source/FilteringFunctions/arm_fir_decimate_fast_q31.c ****     px0 = pState;
 111              	 .loc 1 255 0
 112 0076 7B6C     	 ldr r3,[r7,#68]
 113 0078 FB63     	 str r3,[r7,#60]
 256:../Dave/Generated/CMSIS_DSP/Source/FilteringFunctions/arm_fir_decimate_fast_q31.c **** 
 257:../Dave/Generated/CMSIS_DSP/Source/FilteringFunctions/arm_fir_decimate_fast_q31.c ****     /* Initialize coeff pointer */
 258:../Dave/Generated/CMSIS_DSP/Source/FilteringFunctions/arm_fir_decimate_fast_q31.c ****     pb = pCoeffs;
 114              	 .loc 1 258 0
 115 007a 3B6A     	 ldr r3,[r7,#32]
 116 007c BB63     	 str r3,[r7,#56]
 259:../Dave/Generated/CMSIS_DSP/Source/FilteringFunctions/arm_fir_decimate_fast_q31.c **** 
 260:../Dave/Generated/CMSIS_DSP/Source/FilteringFunctions/arm_fir_decimate_fast_q31.c **** #if defined (ARM_MATH_LOOPUNROLL)
 261:../Dave/Generated/CMSIS_DSP/Source/FilteringFunctions/arm_fir_decimate_fast_q31.c **** 
 262:../Dave/Generated/CMSIS_DSP/Source/FilteringFunctions/arm_fir_decimate_fast_q31.c ****     /* Loop unrolling: Compute 4 taps at a time */
 263:../Dave/Generated/CMSIS_DSP/Source/FilteringFunctions/arm_fir_decimate_fast_q31.c ****     tapCnt = numTaps >> 2U;
 264:../Dave/Generated/CMSIS_DSP/Source/FilteringFunctions/arm_fir_decimate_fast_q31.c **** 
 265:../Dave/Generated/CMSIS_DSP/Source/FilteringFunctions/arm_fir_decimate_fast_q31.c ****     while (tapCnt > 0U)
 266:../Dave/Generated/CMSIS_DSP/Source/FilteringFunctions/arm_fir_decimate_fast_q31.c ****     {
 267:../Dave/Generated/CMSIS_DSP/Source/FilteringFunctions/arm_fir_decimate_fast_q31.c ****       /* Read the b[numTaps-1] coefficient */
 268:../Dave/Generated/CMSIS_DSP/Source/FilteringFunctions/arm_fir_decimate_fast_q31.c ****       c0 = *pb++;
 269:../Dave/Generated/CMSIS_DSP/Source/FilteringFunctions/arm_fir_decimate_fast_q31.c **** 
 270:../Dave/Generated/CMSIS_DSP/Source/FilteringFunctions/arm_fir_decimate_fast_q31.c ****       /* Read x[n-numTaps-1] sample */
 271:../Dave/Generated/CMSIS_DSP/Source/FilteringFunctions/arm_fir_decimate_fast_q31.c ****       x0 = *px0++;
 272:../Dave/Generated/CMSIS_DSP/Source/FilteringFunctions/arm_fir_decimate_fast_q31.c **** 
 273:../Dave/Generated/CMSIS_DSP/Source/FilteringFunctions/arm_fir_decimate_fast_q31.c ****       /* Perform the multiply-accumulate */
 274:../Dave/Generated/CMSIS_DSP/Source/FilteringFunctions/arm_fir_decimate_fast_q31.c ****       acc0 = (q31_t) ((((q63_t) acc0 << 32) + ((q63_t) x0 * c0)) >> 32);
 275:../Dave/Generated/CMSIS_DSP/Source/FilteringFunctions/arm_fir_decimate_fast_q31.c **** 
 276:../Dave/Generated/CMSIS_DSP/Source/FilteringFunctions/arm_fir_decimate_fast_q31.c ****       /* Read the b[numTaps-2] coefficient */
 277:../Dave/Generated/CMSIS_DSP/Source/FilteringFunctions/arm_fir_decimate_fast_q31.c ****       c0 = *pb++;
 278:../Dave/Generated/CMSIS_DSP/Source/FilteringFunctions/arm_fir_decimate_fast_q31.c **** 
 279:../Dave/Generated/CMSIS_DSP/Source/FilteringFunctions/arm_fir_decimate_fast_q31.c ****       /* Read x[n-numTaps-2] sample */
 280:../Dave/Generated/CMSIS_DSP/Source/FilteringFunctions/arm_fir_decimate_fast_q31.c ****       x0 = *px0++;
 281:../Dave/Generated/CMSIS_DSP/Source/FilteringFunctions/arm_fir_decimate_fast_q31.c **** 
 282:../Dave/Generated/CMSIS_DSP/Source/FilteringFunctions/arm_fir_decimate_fast_q31.c ****       /* Perform the multiply-accumulate */
 283:../Dave/Generated/CMSIS_DSP/Source/FilteringFunctions/arm_fir_decimate_fast_q31.c ****       acc0 = (q31_t) ((((q63_t) acc0 << 32) + ((q63_t) x0 * c0)) >> 32);
 284:../Dave/Generated/CMSIS_DSP/Source/FilteringFunctions/arm_fir_decimate_fast_q31.c **** 
 285:../Dave/Generated/CMSIS_DSP/Source/FilteringFunctions/arm_fir_decimate_fast_q31.c ****       /* Read the b[numTaps-3] coefficient */
 286:../Dave/Generated/CMSIS_DSP/Source/FilteringFunctions/arm_fir_decimate_fast_q31.c ****       c0 = *pb++;
 287:../Dave/Generated/CMSIS_DSP/Source/FilteringFunctions/arm_fir_decimate_fast_q31.c **** 
 288:../Dave/Generated/CMSIS_DSP/Source/FilteringFunctions/arm_fir_decimate_fast_q31.c ****       /* Read x[n-numTaps-3] sample */
 289:../Dave/Generated/CMSIS_DSP/Source/FilteringFunctions/arm_fir_decimate_fast_q31.c ****       x0 = *px0++;
 290:../Dave/Generated/CMSIS_DSP/Source/FilteringFunctions/arm_fir_decimate_fast_q31.c **** 
 291:../Dave/Generated/CMSIS_DSP/Source/FilteringFunctions/arm_fir_decimate_fast_q31.c ****       /* Perform the multiply-accumulate */
 292:../Dave/Generated/CMSIS_DSP/Source/FilteringFunctions/arm_fir_decimate_fast_q31.c ****       acc0 = (q31_t) ((((q63_t) acc0 << 32) + ((q63_t) x0 * c0)) >> 32);
 293:../Dave/Generated/CMSIS_DSP/Source/FilteringFunctions/arm_fir_decimate_fast_q31.c **** 
 294:../Dave/Generated/CMSIS_DSP/Source/FilteringFunctions/arm_fir_decimate_fast_q31.c ****       /* Read the b[numTaps-4] coefficient */
 295:../Dave/Generated/CMSIS_DSP/Source/FilteringFunctions/arm_fir_decimate_fast_q31.c ****       c0 = *pb++;
 296:../Dave/Generated/CMSIS_DSP/Source/FilteringFunctions/arm_fir_decimate_fast_q31.c **** 
 297:../Dave/Generated/CMSIS_DSP/Source/FilteringFunctions/arm_fir_decimate_fast_q31.c ****       /* Read x[n-numTaps-4] sample */
 298:../Dave/Generated/CMSIS_DSP/Source/FilteringFunctions/arm_fir_decimate_fast_q31.c ****       x0 = *px0++;
 299:../Dave/Generated/CMSIS_DSP/Source/FilteringFunctions/arm_fir_decimate_fast_q31.c **** 
 300:../Dave/Generated/CMSIS_DSP/Source/FilteringFunctions/arm_fir_decimate_fast_q31.c ****       /* Perform the multiply-accumulate */
 301:../Dave/Generated/CMSIS_DSP/Source/FilteringFunctions/arm_fir_decimate_fast_q31.c ****       acc0 = (q31_t) ((((q63_t) acc0 << 32) + ((q63_t) x0 * c0)) >> 32);
 302:../Dave/Generated/CMSIS_DSP/Source/FilteringFunctions/arm_fir_decimate_fast_q31.c **** 
 303:../Dave/Generated/CMSIS_DSP/Source/FilteringFunctions/arm_fir_decimate_fast_q31.c ****       /* Decrement loop counter */
 304:../Dave/Generated/CMSIS_DSP/Source/FilteringFunctions/arm_fir_decimate_fast_q31.c ****       tapCnt--;
 305:../Dave/Generated/CMSIS_DSP/Source/FilteringFunctions/arm_fir_decimate_fast_q31.c ****     }
 306:../Dave/Generated/CMSIS_DSP/Source/FilteringFunctions/arm_fir_decimate_fast_q31.c **** 
 307:../Dave/Generated/CMSIS_DSP/Source/FilteringFunctions/arm_fir_decimate_fast_q31.c ****     /* Loop unrolling: Compute remaining taps */
 308:../Dave/Generated/CMSIS_DSP/Source/FilteringFunctions/arm_fir_decimate_fast_q31.c ****     tapCnt = numTaps % 0x4U;
 309:../Dave/Generated/CMSIS_DSP/Source/FilteringFunctions/arm_fir_decimate_fast_q31.c **** 
 310:../Dave/Generated/CMSIS_DSP/Source/FilteringFunctions/arm_fir_decimate_fast_q31.c **** #else
 311:../Dave/Generated/CMSIS_DSP/Source/FilteringFunctions/arm_fir_decimate_fast_q31.c **** 
 312:../Dave/Generated/CMSIS_DSP/Source/FilteringFunctions/arm_fir_decimate_fast_q31.c ****     /* Initialize tapCnt with number of taps */
 313:../Dave/Generated/CMSIS_DSP/Source/FilteringFunctions/arm_fir_decimate_fast_q31.c ****     tapCnt = numTaps;
 117              	 .loc 1 313 0
 118 007e FB69     	 ldr r3,[r7,#28]
 119 0080 BB62     	 str r3,[r7,#40]
 314:../Dave/Generated/CMSIS_DSP/Source/FilteringFunctions/arm_fir_decimate_fast_q31.c **** 
 315:../Dave/Generated/CMSIS_DSP/Source/FilteringFunctions/arm_fir_decimate_fast_q31.c **** #endif /* #if defined (ARM_MATH_LOOPUNROLL) */
 316:../Dave/Generated/CMSIS_DSP/Source/FilteringFunctions/arm_fir_decimate_fast_q31.c **** 
 317:../Dave/Generated/CMSIS_DSP/Source/FilteringFunctions/arm_fir_decimate_fast_q31.c ****     while (tapCnt > 0U)
 120              	 .loc 1 317 0
 121 0082 2DE0     	 b .L4
 122              	.L5:
 318:../Dave/Generated/CMSIS_DSP/Source/FilteringFunctions/arm_fir_decimate_fast_q31.c ****     {
 319:../Dave/Generated/CMSIS_DSP/Source/FilteringFunctions/arm_fir_decimate_fast_q31.c ****       /* Read coefficients */
 320:../Dave/Generated/CMSIS_DSP/Source/FilteringFunctions/arm_fir_decimate_fast_q31.c ****       c0 = *pb++;
 123              	 .loc 1 320 0
 124 0084 BB6B     	 ldr r3,[r7,#56]
 125 0086 1A1D     	 adds r2,r3,#4
 126 0088 BA63     	 str r2,[r7,#56]
 127 008a 1B68     	 ldr r3,[r3]
 128 008c 7B61     	 str r3,[r7,#20]
 321:../Dave/Generated/CMSIS_DSP/Source/FilteringFunctions/arm_fir_decimate_fast_q31.c **** 
 322:../Dave/Generated/CMSIS_DSP/Source/FilteringFunctions/arm_fir_decimate_fast_q31.c ****       /* Fetch 1 state variable */
 323:../Dave/Generated/CMSIS_DSP/Source/FilteringFunctions/arm_fir_decimate_fast_q31.c ****       x0 = *px0++;
 129              	 .loc 1 323 0
 130 008e FB6B     	 ldr r3,[r7,#60]
 131 0090 1A1D     	 adds r2,r3,#4
 132 0092 FA63     	 str r2,[r7,#60]
 133 0094 1B68     	 ldr r3,[r3]
 134 0096 3B61     	 str r3,[r7,#16]
 324:../Dave/Generated/CMSIS_DSP/Source/FilteringFunctions/arm_fir_decimate_fast_q31.c **** 
 325:../Dave/Generated/CMSIS_DSP/Source/FilteringFunctions/arm_fir_decimate_fast_q31.c ****       /* Perform the multiply-accumulate */
 326:../Dave/Generated/CMSIS_DSP/Source/FilteringFunctions/arm_fir_decimate_fast_q31.c ****       acc0 = (q31_t) ((((q63_t) acc0 << 32) + ((q63_t) x0 * c0)) >> 32);
 135              	 .loc 1 326 0
 136 0098 D7E90C23 	 ldrd r2,[r7,#48]
 137 009c 1500     	 movs r5,r2
 138 009e 0024     	 movs r4,#0
 139 00a0 3B69     	 ldr r3,[r7,#16]
 140 00a2 1846     	 mov r0,r3
 141 00a4 4FEAE071 	 asr r1,r0,#31
 142 00a8 7B69     	 ldr r3,[r7,#20]
 143 00aa 1A46     	 mov r2,r3
 144 00ac 4FEAE273 	 asr r3,r2,#31
 145 00b0 02FB01FE 	 mul lr,r2,r1
 146 00b4 00FB03F6 	 mul r6,r0,r3
 147 00b8 7644     	 add r6,r6,lr
 148 00ba A0FB0223 	 umull r2,r3,r0,r2
 149 00be F118     	 adds r1,r6,r3
 150 00c0 0B46     	 mov r3,r1
 151 00c2 1219     	 adds r2,r2,r4
 152 00c4 43EB0503 	 adc r3,r3,r5
 153 00c8 9846     	 mov r8,r3
 154 00ca 4FEAE379 	 asr r9,r3,#31
 155 00ce 4346     	 mov r3,r8
 156 00d0 1A46     	 mov r2,r3
 157 00d2 4FEAE273 	 asr r3,r2,#31
 158 00d6 C7E90C23 	 strd r2,[r7,#48]
 327:../Dave/Generated/CMSIS_DSP/Source/FilteringFunctions/arm_fir_decimate_fast_q31.c **** 
 328:../Dave/Generated/CMSIS_DSP/Source/FilteringFunctions/arm_fir_decimate_fast_q31.c ****       /* Decrement loop counter */
 329:../Dave/Generated/CMSIS_DSP/Source/FilteringFunctions/arm_fir_decimate_fast_q31.c ****       tapCnt--;
 159              	 .loc 1 329 0
 160 00da BB6A     	 ldr r3,[r7,#40]
 161 00dc 013B     	 subs r3,r3,#1
 162 00de BB62     	 str r3,[r7,#40]
 163              	.L4:
 317:../Dave/Generated/CMSIS_DSP/Source/FilteringFunctions/arm_fir_decimate_fast_q31.c ****     {
 164              	 .loc 1 317 0
 165 00e0 BB6A     	 ldr r3,[r7,#40]
 166 00e2 002B     	 cmp r3,#0
 167 00e4 CED1     	 bne .L5
 330:../Dave/Generated/CMSIS_DSP/Source/FilteringFunctions/arm_fir_decimate_fast_q31.c ****     }
 331:../Dave/Generated/CMSIS_DSP/Source/FilteringFunctions/arm_fir_decimate_fast_q31.c **** 
 332:../Dave/Generated/CMSIS_DSP/Source/FilteringFunctions/arm_fir_decimate_fast_q31.c ****     /* Advance the state pointer by the decimation factor
 333:../Dave/Generated/CMSIS_DSP/Source/FilteringFunctions/arm_fir_decimate_fast_q31.c ****      * to process the next group of decimation factor number samples */
 334:../Dave/Generated/CMSIS_DSP/Source/FilteringFunctions/arm_fir_decimate_fast_q31.c ****     pState = pState + S->M;
 168              	 .loc 1 334 0
 169 00e6 FB68     	 ldr r3,[r7,#12]
 170 00e8 1B78     	 ldrb r3,[r3]
 171 00ea 9B00     	 lsls r3,r3,#2
 172 00ec 7A6C     	 ldr r2,[r7,#68]
 173 00ee 1344     	 add r3,r3,r2
 174 00f0 7B64     	 str r3,[r7,#68]
 335:../Dave/Generated/CMSIS_DSP/Source/FilteringFunctions/arm_fir_decimate_fast_q31.c **** 
 336:../Dave/Generated/CMSIS_DSP/Source/FilteringFunctions/arm_fir_decimate_fast_q31.c ****     /* The result is in the accumulator, store in the destination buffer. */
 337:../Dave/Generated/CMSIS_DSP/Source/FilteringFunctions/arm_fir_decimate_fast_q31.c ****     *pDst++ = (q31_t) (acc0 << 1);
 175              	 .loc 1 337 0
 176 00f2 7968     	 ldr r1,[r7,#4]
 177 00f4 0B1D     	 adds r3,r1,#4
 178 00f6 7B60     	 str r3,[r7,#4]
 179 00f8 D7E90C23 	 ldrd r2,[r7,#48]
 180 00fc 9218     	 adds r2,r2,r2
 181 00fe 43EB0303 	 adc r3,r3,r3
 182 0102 1346     	 mov r3,r2
 183 0104 0B60     	 str r3,[r1]
 338:../Dave/Generated/CMSIS_DSP/Source/FilteringFunctions/arm_fir_decimate_fast_q31.c **** 
 339:../Dave/Generated/CMSIS_DSP/Source/FilteringFunctions/arm_fir_decimate_fast_q31.c ****     /* Decrement loop counter */
 340:../Dave/Generated/CMSIS_DSP/Source/FilteringFunctions/arm_fir_decimate_fast_q31.c ****     blkCnt--;
 184              	 .loc 1 340 0
 185 0106 7B6A     	 ldr r3,[r7,#36]
 186 0108 013B     	 subs r3,r3,#1
 187 010a 7B62     	 str r3,[r7,#36]
 188              	.L2:
 240:../Dave/Generated/CMSIS_DSP/Source/FilteringFunctions/arm_fir_decimate_fast_q31.c ****   {
 189              	 .loc 1 240 0
 190 010c 7B6A     	 ldr r3,[r7,#36]
 191 010e 002B     	 cmp r3,#0
 192 0110 9AD1     	 bne .L6
 341:../Dave/Generated/CMSIS_DSP/Source/FilteringFunctions/arm_fir_decimate_fast_q31.c ****   }
 342:../Dave/Generated/CMSIS_DSP/Source/FilteringFunctions/arm_fir_decimate_fast_q31.c **** 
 343:../Dave/Generated/CMSIS_DSP/Source/FilteringFunctions/arm_fir_decimate_fast_q31.c ****   /* Processing is complete.
 344:../Dave/Generated/CMSIS_DSP/Source/FilteringFunctions/arm_fir_decimate_fast_q31.c ****      Now copy the last numTaps - 1 samples to the satrt of the state buffer.
 345:../Dave/Generated/CMSIS_DSP/Source/FilteringFunctions/arm_fir_decimate_fast_q31.c ****      This prepares the state buffer for the next function call. */
 346:../Dave/Generated/CMSIS_DSP/Source/FilteringFunctions/arm_fir_decimate_fast_q31.c **** 
 347:../Dave/Generated/CMSIS_DSP/Source/FilteringFunctions/arm_fir_decimate_fast_q31.c ****   /* Points to the start of the state buffer */
 348:../Dave/Generated/CMSIS_DSP/Source/FilteringFunctions/arm_fir_decimate_fast_q31.c ****   pStateCur = S->pState;
 193              	 .loc 1 348 0
 194 0112 FB68     	 ldr r3,[r7,#12]
 195 0114 9B68     	 ldr r3,[r3,#8]
 196 0116 3B64     	 str r3,[r7,#64]
 349:../Dave/Generated/CMSIS_DSP/Source/FilteringFunctions/arm_fir_decimate_fast_q31.c **** 
 350:../Dave/Generated/CMSIS_DSP/Source/FilteringFunctions/arm_fir_decimate_fast_q31.c **** #if defined (ARM_MATH_LOOPUNROLL)
 351:../Dave/Generated/CMSIS_DSP/Source/FilteringFunctions/arm_fir_decimate_fast_q31.c **** 
 352:../Dave/Generated/CMSIS_DSP/Source/FilteringFunctions/arm_fir_decimate_fast_q31.c ****   /* Loop unrolling: Compute 4 taps at a time */
 353:../Dave/Generated/CMSIS_DSP/Source/FilteringFunctions/arm_fir_decimate_fast_q31.c ****   tapCnt = (numTaps - 1U) >> 2U;
 354:../Dave/Generated/CMSIS_DSP/Source/FilteringFunctions/arm_fir_decimate_fast_q31.c **** 
 355:../Dave/Generated/CMSIS_DSP/Source/FilteringFunctions/arm_fir_decimate_fast_q31.c ****   /* Copy data */
 356:../Dave/Generated/CMSIS_DSP/Source/FilteringFunctions/arm_fir_decimate_fast_q31.c ****   while (tapCnt > 0U)
 357:../Dave/Generated/CMSIS_DSP/Source/FilteringFunctions/arm_fir_decimate_fast_q31.c ****   {
 358:../Dave/Generated/CMSIS_DSP/Source/FilteringFunctions/arm_fir_decimate_fast_q31.c ****     *pStateCur++ = *pState++;
 359:../Dave/Generated/CMSIS_DSP/Source/FilteringFunctions/arm_fir_decimate_fast_q31.c ****     *pStateCur++ = *pState++;
 360:../Dave/Generated/CMSIS_DSP/Source/FilteringFunctions/arm_fir_decimate_fast_q31.c ****     *pStateCur++ = *pState++;
 361:../Dave/Generated/CMSIS_DSP/Source/FilteringFunctions/arm_fir_decimate_fast_q31.c ****     *pStateCur++ = *pState++;
 362:../Dave/Generated/CMSIS_DSP/Source/FilteringFunctions/arm_fir_decimate_fast_q31.c **** 
 363:../Dave/Generated/CMSIS_DSP/Source/FilteringFunctions/arm_fir_decimate_fast_q31.c ****     /* Decrement loop counter */
 364:../Dave/Generated/CMSIS_DSP/Source/FilteringFunctions/arm_fir_decimate_fast_q31.c ****     tapCnt--;
 365:../Dave/Generated/CMSIS_DSP/Source/FilteringFunctions/arm_fir_decimate_fast_q31.c ****   }
 366:../Dave/Generated/CMSIS_DSP/Source/FilteringFunctions/arm_fir_decimate_fast_q31.c **** 
 367:../Dave/Generated/CMSIS_DSP/Source/FilteringFunctions/arm_fir_decimate_fast_q31.c ****   /* Loop unrolling: Compute remaining taps */
 368:../Dave/Generated/CMSIS_DSP/Source/FilteringFunctions/arm_fir_decimate_fast_q31.c ****   tapCnt = (numTaps - 1U) % 0x04U;
 369:../Dave/Generated/CMSIS_DSP/Source/FilteringFunctions/arm_fir_decimate_fast_q31.c **** 
 370:../Dave/Generated/CMSIS_DSP/Source/FilteringFunctions/arm_fir_decimate_fast_q31.c **** #else
 371:../Dave/Generated/CMSIS_DSP/Source/FilteringFunctions/arm_fir_decimate_fast_q31.c **** 
 372:../Dave/Generated/CMSIS_DSP/Source/FilteringFunctions/arm_fir_decimate_fast_q31.c ****   /* Initialize tapCnt with number of taps */
 373:../Dave/Generated/CMSIS_DSP/Source/FilteringFunctions/arm_fir_decimate_fast_q31.c ****   tapCnt = (numTaps - 1U);
 197              	 .loc 1 373 0
 198 0118 FB69     	 ldr r3,[r7,#28]
 199 011a 013B     	 subs r3,r3,#1
 200 011c BB62     	 str r3,[r7,#40]
 374:../Dave/Generated/CMSIS_DSP/Source/FilteringFunctions/arm_fir_decimate_fast_q31.c **** 
 375:../Dave/Generated/CMSIS_DSP/Source/FilteringFunctions/arm_fir_decimate_fast_q31.c **** #endif /* #if defined (ARM_MATH_LOOPUNROLL) */
 376:../Dave/Generated/CMSIS_DSP/Source/FilteringFunctions/arm_fir_decimate_fast_q31.c **** 
 377:../Dave/Generated/CMSIS_DSP/Source/FilteringFunctions/arm_fir_decimate_fast_q31.c ****   /* Copy data */
 378:../Dave/Generated/CMSIS_DSP/Source/FilteringFunctions/arm_fir_decimate_fast_q31.c ****   while (tapCnt > 0U)
 201              	 .loc 1 378 0
 202 011e 0AE0     	 b .L7
 203              	.L8:
 379:../Dave/Generated/CMSIS_DSP/Source/FilteringFunctions/arm_fir_decimate_fast_q31.c ****   {
 380:../Dave/Generated/CMSIS_DSP/Source/FilteringFunctions/arm_fir_decimate_fast_q31.c ****     *pStateCur++ = *pState++;
 204              	 .loc 1 380 0
 205 0120 3B6C     	 ldr r3,[r7,#64]
 206 0122 1A1D     	 adds r2,r3,#4
 207 0124 3A64     	 str r2,[r7,#64]
 208 0126 7A6C     	 ldr r2,[r7,#68]
 209 0128 111D     	 adds r1,r2,#4
 210 012a 7964     	 str r1,[r7,#68]
 211 012c 1268     	 ldr r2,[r2]
 212 012e 1A60     	 str r2,[r3]
 381:../Dave/Generated/CMSIS_DSP/Source/FilteringFunctions/arm_fir_decimate_fast_q31.c **** 
 382:../Dave/Generated/CMSIS_DSP/Source/FilteringFunctions/arm_fir_decimate_fast_q31.c ****     /* Decrement loop counter */
 383:../Dave/Generated/CMSIS_DSP/Source/FilteringFunctions/arm_fir_decimate_fast_q31.c ****     tapCnt--;
 213              	 .loc 1 383 0
 214 0130 BB6A     	 ldr r3,[r7,#40]
 215 0132 013B     	 subs r3,r3,#1
 216 0134 BB62     	 str r3,[r7,#40]
 217              	.L7:
 378:../Dave/Generated/CMSIS_DSP/Source/FilteringFunctions/arm_fir_decimate_fast_q31.c ****   {
 218              	 .loc 1 378 0
 219 0136 BB6A     	 ldr r3,[r7,#40]
 220 0138 002B     	 cmp r3,#0
 221 013a F1D1     	 bne .L8
 384:../Dave/Generated/CMSIS_DSP/Source/FilteringFunctions/arm_fir_decimate_fast_q31.c ****   }
 385:../Dave/Generated/CMSIS_DSP/Source/FilteringFunctions/arm_fir_decimate_fast_q31.c **** 
 386:../Dave/Generated/CMSIS_DSP/Source/FilteringFunctions/arm_fir_decimate_fast_q31.c **** }
 222              	 .loc 1 386 0
 223 013c 4C37     	 adds r7,r7,#76
 224              	.LCFI3:
 225              	 .cfi_def_cfa_offset 28
 226 013e BD46     	 mov sp,r7
 227              	.LCFI4:
 228              	 .cfi_def_cfa_register 13
 229              	 
 230 0140 BDE8F083 	 pop {r4,r5,r6,r7,r8,r9,pc}
 231              	 .cfi_endproc
 232              	.LFE149:
 234              	 .text
 235              	.Letext0:
 236              	 .file 2 "c:\\infineon\\tools\\dave ide\\4.5.0.202105191637\\eclipse\\arm-gcc-49\\arm-none-eabi\\include\\machine\\_default_types.h"
 237              	 .file 3 "c:\\infineon\\tools\\dave ide\\4.5.0.202105191637\\eclipse\\arm-gcc-49\\arm-none-eabi\\include\\stdint.h"
 238              	 .file 4 "C:/Users/Rui Mendes/Desktop/DAVE/_Naive/_ForTesting/Dave/Generated/CMSIS_DSP/Include/arm_math.h"
 239              	 .file 5 "C:/Users/Rui Mendes/Desktop/DAVE/_Naive/_ForTesting/Libraries/CMSIS/Include/cmsis_gcc.h"