   1              	 .syntax unified
   2              	 .cpu cortex-m4
   3              	 .eabi_attribute 27,3
   4              	 .fpu fpv4-sp-d16
   5              	 .eabi_attribute 20,1
   6              	 .eabi_attribute 21,1
   7              	 .eabi_attribute 23,3
   8              	 .eabi_attribute 24,1
   9              	 .eabi_attribute 25,1
  10              	 .eabi_attribute 26,1
  11              	 .eabi_attribute 30,6
  12              	 .eabi_attribute 34,1
  13              	 .eabi_attribute 18,4
  14              	 .thumb
  15              	 .file "arm_fir_lattice_f32.c"
  16              	 .text
  17              	.Ltext0:
  18              	 .cfi_sections .debug_frame
  19              	 .section .text.arm_fir_lattice_f32,"ax",%progbits
  20              	 .align 2
  21              	 .global arm_fir_lattice_f32
  22              	 .thumb
  23              	 .thumb_func
  25              	arm_fir_lattice_f32:
  26              	.LFB149:
  27              	 .file 1 "../Dave/Generated/CMSIS_DSP/Source/FilteringFunctions/arm_fir_lattice_f32.c"
   1:../Dave/Generated/CMSIS_DSP/Source/FilteringFunctions/arm_fir_lattice_f32.c **** /* ----------------------------------------------------------------------
   2:../Dave/Generated/CMSIS_DSP/Source/FilteringFunctions/arm_fir_lattice_f32.c ****  * Project:      CMSIS DSP Library
   3:../Dave/Generated/CMSIS_DSP/Source/FilteringFunctions/arm_fir_lattice_f32.c ****  * Title:        arm_fir_lattice_f32.c
   4:../Dave/Generated/CMSIS_DSP/Source/FilteringFunctions/arm_fir_lattice_f32.c ****  * Description:  Processing function for floating-point FIR Lattice filter
   5:../Dave/Generated/CMSIS_DSP/Source/FilteringFunctions/arm_fir_lattice_f32.c ****  *
   6:../Dave/Generated/CMSIS_DSP/Source/FilteringFunctions/arm_fir_lattice_f32.c ****  * $Date:        18. March 2019
   7:../Dave/Generated/CMSIS_DSP/Source/FilteringFunctions/arm_fir_lattice_f32.c ****  * $Revision:    V1.6.0
   8:../Dave/Generated/CMSIS_DSP/Source/FilteringFunctions/arm_fir_lattice_f32.c ****  *
   9:../Dave/Generated/CMSIS_DSP/Source/FilteringFunctions/arm_fir_lattice_f32.c ****  * Target Processor: Cortex-M cores
  10:../Dave/Generated/CMSIS_DSP/Source/FilteringFunctions/arm_fir_lattice_f32.c ****  * -------------------------------------------------------------------- */
  11:../Dave/Generated/CMSIS_DSP/Source/FilteringFunctions/arm_fir_lattice_f32.c **** /*
  12:../Dave/Generated/CMSIS_DSP/Source/FilteringFunctions/arm_fir_lattice_f32.c ****  * Copyright (C) 2010-2019 ARM Limited or its affiliates. All rights reserved.
  13:../Dave/Generated/CMSIS_DSP/Source/FilteringFunctions/arm_fir_lattice_f32.c ****  *
  14:../Dave/Generated/CMSIS_DSP/Source/FilteringFunctions/arm_fir_lattice_f32.c ****  * SPDX-License-Identifier: Apache-2.0
  15:../Dave/Generated/CMSIS_DSP/Source/FilteringFunctions/arm_fir_lattice_f32.c ****  *
  16:../Dave/Generated/CMSIS_DSP/Source/FilteringFunctions/arm_fir_lattice_f32.c ****  * Licensed under the Apache License, Version 2.0 (the License); you may
  17:../Dave/Generated/CMSIS_DSP/Source/FilteringFunctions/arm_fir_lattice_f32.c ****  * not use this file except in compliance with the License.
  18:../Dave/Generated/CMSIS_DSP/Source/FilteringFunctions/arm_fir_lattice_f32.c ****  * You may obtain a copy of the License at
  19:../Dave/Generated/CMSIS_DSP/Source/FilteringFunctions/arm_fir_lattice_f32.c ****  *
  20:../Dave/Generated/CMSIS_DSP/Source/FilteringFunctions/arm_fir_lattice_f32.c ****  * www.apache.org/licenses/LICENSE-2.0
  21:../Dave/Generated/CMSIS_DSP/Source/FilteringFunctions/arm_fir_lattice_f32.c ****  *
  22:../Dave/Generated/CMSIS_DSP/Source/FilteringFunctions/arm_fir_lattice_f32.c ****  * Unless required by applicable law or agreed to in writing, software
  23:../Dave/Generated/CMSIS_DSP/Source/FilteringFunctions/arm_fir_lattice_f32.c ****  * distributed under the License is distributed on an AS IS BASIS, WITHOUT
  24:../Dave/Generated/CMSIS_DSP/Source/FilteringFunctions/arm_fir_lattice_f32.c ****  * WARRANTIES OR CONDITIONS OF ANY KIND, either express or implied.
  25:../Dave/Generated/CMSIS_DSP/Source/FilteringFunctions/arm_fir_lattice_f32.c ****  * See the License for the specific language governing permissions and
  26:../Dave/Generated/CMSIS_DSP/Source/FilteringFunctions/arm_fir_lattice_f32.c ****  * limitations under the License.
  27:../Dave/Generated/CMSIS_DSP/Source/FilteringFunctions/arm_fir_lattice_f32.c ****  */
  28:../Dave/Generated/CMSIS_DSP/Source/FilteringFunctions/arm_fir_lattice_f32.c **** 
  29:../Dave/Generated/CMSIS_DSP/Source/FilteringFunctions/arm_fir_lattice_f32.c **** #include "CMSIS_DSP/cmsis_dsp.h"
  30:../Dave/Generated/CMSIS_DSP/Source/FilteringFunctions/arm_fir_lattice_f32.c **** 
  31:../Dave/Generated/CMSIS_DSP/Source/FilteringFunctions/arm_fir_lattice_f32.c **** /**
  32:../Dave/Generated/CMSIS_DSP/Source/FilteringFunctions/arm_fir_lattice_f32.c ****   @ingroup groupFilters
  33:../Dave/Generated/CMSIS_DSP/Source/FilteringFunctions/arm_fir_lattice_f32.c ****  */
  34:../Dave/Generated/CMSIS_DSP/Source/FilteringFunctions/arm_fir_lattice_f32.c **** 
  35:../Dave/Generated/CMSIS_DSP/Source/FilteringFunctions/arm_fir_lattice_f32.c **** /**
  36:../Dave/Generated/CMSIS_DSP/Source/FilteringFunctions/arm_fir_lattice_f32.c ****   @defgroup FIR_Lattice Finite Impulse Response (FIR) Lattice Filters
  37:../Dave/Generated/CMSIS_DSP/Source/FilteringFunctions/arm_fir_lattice_f32.c **** 
  38:../Dave/Generated/CMSIS_DSP/Source/FilteringFunctions/arm_fir_lattice_f32.c ****   This set of functions implements Finite Impulse Response (FIR) lattice filters
  39:../Dave/Generated/CMSIS_DSP/Source/FilteringFunctions/arm_fir_lattice_f32.c ****   for Q15, Q31 and floating-point data types.  Lattice filters are used in a
  40:../Dave/Generated/CMSIS_DSP/Source/FilteringFunctions/arm_fir_lattice_f32.c ****   variety of adaptive filter applications. The filter structure is feedforward and
  41:../Dave/Generated/CMSIS_DSP/Source/FilteringFunctions/arm_fir_lattice_f32.c ****   the net impulse response is finite length.
  42:../Dave/Generated/CMSIS_DSP/Source/FilteringFunctions/arm_fir_lattice_f32.c ****   The functions operate on blocks
  43:../Dave/Generated/CMSIS_DSP/Source/FilteringFunctions/arm_fir_lattice_f32.c ****   of input and output data and each call to the function processes
  44:../Dave/Generated/CMSIS_DSP/Source/FilteringFunctions/arm_fir_lattice_f32.c ****   <code>blockSize</code> samples through the filter.  <code>pSrc</code> and
  45:../Dave/Generated/CMSIS_DSP/Source/FilteringFunctions/arm_fir_lattice_f32.c ****   <code>pDst</code> point to input and output arrays containing <code>blockSize</code> values.
  46:../Dave/Generated/CMSIS_DSP/Source/FilteringFunctions/arm_fir_lattice_f32.c **** 
  47:../Dave/Generated/CMSIS_DSP/Source/FilteringFunctions/arm_fir_lattice_f32.c ****   @par           Algorithm
  48:../Dave/Generated/CMSIS_DSP/Source/FilteringFunctions/arm_fir_lattice_f32.c ****                    \image html FIRLattice.gif "Finite Impulse Response Lattice filter"
  49:../Dave/Generated/CMSIS_DSP/Source/FilteringFunctions/arm_fir_lattice_f32.c ****                    The following difference equation is implemented:
  50:../Dave/Generated/CMSIS_DSP/Source/FilteringFunctions/arm_fir_lattice_f32.c ****   @par
  51:../Dave/Generated/CMSIS_DSP/Source/FilteringFunctions/arm_fir_lattice_f32.c ****   <pre>
  52:../Dave/Generated/CMSIS_DSP/Source/FilteringFunctions/arm_fir_lattice_f32.c ****       f0[n] = g0[n] = x[n]
  53:../Dave/Generated/CMSIS_DSP/Source/FilteringFunctions/arm_fir_lattice_f32.c ****       fm[n] = fm-1[n] + km * gm-1[n-1] for m = 1, 2, ...M
  54:../Dave/Generated/CMSIS_DSP/Source/FilteringFunctions/arm_fir_lattice_f32.c ****       gm[n] = km * fm-1[n] + gm-1[n-1] for m = 1, 2, ...M
  55:../Dave/Generated/CMSIS_DSP/Source/FilteringFunctions/arm_fir_lattice_f32.c ****       y[n] = fM[n]
  56:../Dave/Generated/CMSIS_DSP/Source/FilteringFunctions/arm_fir_lattice_f32.c ****   </pre>
  57:../Dave/Generated/CMSIS_DSP/Source/FilteringFunctions/arm_fir_lattice_f32.c ****   @par
  58:../Dave/Generated/CMSIS_DSP/Source/FilteringFunctions/arm_fir_lattice_f32.c ****                    <code>pCoeffs</code> points to tha array of reflection coefficients of size <cod
  59:../Dave/Generated/CMSIS_DSP/Source/FilteringFunctions/arm_fir_lattice_f32.c ****                    Reflection Coefficients are stored in the following order.
  60:../Dave/Generated/CMSIS_DSP/Source/FilteringFunctions/arm_fir_lattice_f32.c ****   @par
  61:../Dave/Generated/CMSIS_DSP/Source/FilteringFunctions/arm_fir_lattice_f32.c ****   <pre>
  62:../Dave/Generated/CMSIS_DSP/Source/FilteringFunctions/arm_fir_lattice_f32.c ****       {k1, k2, ..., kM}
  63:../Dave/Generated/CMSIS_DSP/Source/FilteringFunctions/arm_fir_lattice_f32.c ****   </pre>
  64:../Dave/Generated/CMSIS_DSP/Source/FilteringFunctions/arm_fir_lattice_f32.c ****                    where M is number of stages
  65:../Dave/Generated/CMSIS_DSP/Source/FilteringFunctions/arm_fir_lattice_f32.c ****   @par
  66:../Dave/Generated/CMSIS_DSP/Source/FilteringFunctions/arm_fir_lattice_f32.c ****                    <code>pState</code> points to a state array of size <code>numStages</code>.
  67:../Dave/Generated/CMSIS_DSP/Source/FilteringFunctions/arm_fir_lattice_f32.c ****                    The state variables (g values) hold previous inputs and are stored in the follow
  68:../Dave/Generated/CMSIS_DSP/Source/FilteringFunctions/arm_fir_lattice_f32.c ****   <pre>
  69:../Dave/Generated/CMSIS_DSP/Source/FilteringFunctions/arm_fir_lattice_f32.c ****     {g0[n], g1[n], g2[n] ...gM-1[n]}
  70:../Dave/Generated/CMSIS_DSP/Source/FilteringFunctions/arm_fir_lattice_f32.c ****   </pre>
  71:../Dave/Generated/CMSIS_DSP/Source/FilteringFunctions/arm_fir_lattice_f32.c ****                    The state variables are updated after each block of data is processed; the coeff
  72:../Dave/Generated/CMSIS_DSP/Source/FilteringFunctions/arm_fir_lattice_f32.c **** 
  73:../Dave/Generated/CMSIS_DSP/Source/FilteringFunctions/arm_fir_lattice_f32.c ****   @par           Instance Structure
  74:../Dave/Generated/CMSIS_DSP/Source/FilteringFunctions/arm_fir_lattice_f32.c ****                    The coefficients and state variables for a filter are stored together in an inst
  75:../Dave/Generated/CMSIS_DSP/Source/FilteringFunctions/arm_fir_lattice_f32.c ****                    A separate instance structure must be defined for each filter.
  76:../Dave/Generated/CMSIS_DSP/Source/FilteringFunctions/arm_fir_lattice_f32.c ****                    Coefficient arrays may be shared among several instances while state variable ar
  77:../Dave/Generated/CMSIS_DSP/Source/FilteringFunctions/arm_fir_lattice_f32.c ****                    There are separate instance structure declarations for each of the 3 supported d
  78:../Dave/Generated/CMSIS_DSP/Source/FilteringFunctions/arm_fir_lattice_f32.c **** 
  79:../Dave/Generated/CMSIS_DSP/Source/FilteringFunctions/arm_fir_lattice_f32.c ****   @par           Initialization Functions
  80:../Dave/Generated/CMSIS_DSP/Source/FilteringFunctions/arm_fir_lattice_f32.c ****                    There is also an associated initialization function for each data type.
  81:../Dave/Generated/CMSIS_DSP/Source/FilteringFunctions/arm_fir_lattice_f32.c ****                    The initialization function performs the following operations:
  82:../Dave/Generated/CMSIS_DSP/Source/FilteringFunctions/arm_fir_lattice_f32.c ****                    - Sets the values of the internal structure fields.
  83:../Dave/Generated/CMSIS_DSP/Source/FilteringFunctions/arm_fir_lattice_f32.c ****                    - Zeros out the values in the state buffer.
  84:../Dave/Generated/CMSIS_DSP/Source/FilteringFunctions/arm_fir_lattice_f32.c ****                    To do this manually without calling the init function, assign the follow subfiel
  85:../Dave/Generated/CMSIS_DSP/Source/FilteringFunctions/arm_fir_lattice_f32.c ****                    numStages, pCoeffs, pState. Also set all of the values in pState to zero.
  86:../Dave/Generated/CMSIS_DSP/Source/FilteringFunctions/arm_fir_lattice_f32.c ****   @par
  87:../Dave/Generated/CMSIS_DSP/Source/FilteringFunctions/arm_fir_lattice_f32.c ****                    Use of the initialization function is optional.
  88:../Dave/Generated/CMSIS_DSP/Source/FilteringFunctions/arm_fir_lattice_f32.c ****                    However, if the initialization function is used, then the instance structure can
  89:../Dave/Generated/CMSIS_DSP/Source/FilteringFunctions/arm_fir_lattice_f32.c ****                    To place an instance structure into a const data section, the instance structure
  90:../Dave/Generated/CMSIS_DSP/Source/FilteringFunctions/arm_fir_lattice_f32.c ****                    Set the values in the state buffer to zeros and then manually initialize the ins
  91:../Dave/Generated/CMSIS_DSP/Source/FilteringFunctions/arm_fir_lattice_f32.c ****   <pre>
  92:../Dave/Generated/CMSIS_DSP/Source/FilteringFunctions/arm_fir_lattice_f32.c ****       arm_fir_lattice_instance_f32 S = {numStages, pState, pCoeffs};
  93:../Dave/Generated/CMSIS_DSP/Source/FilteringFunctions/arm_fir_lattice_f32.c ****       arm_fir_lattice_instance_q31 S = {numStages, pState, pCoeffs};
  94:../Dave/Generated/CMSIS_DSP/Source/FilteringFunctions/arm_fir_lattice_f32.c ****       arm_fir_lattice_instance_q15 S = {numStages, pState, pCoeffs};
  95:../Dave/Generated/CMSIS_DSP/Source/FilteringFunctions/arm_fir_lattice_f32.c ****   </pre>
  96:../Dave/Generated/CMSIS_DSP/Source/FilteringFunctions/arm_fir_lattice_f32.c ****   @par
  97:../Dave/Generated/CMSIS_DSP/Source/FilteringFunctions/arm_fir_lattice_f32.c ****                    where <code>numStages</code> is the number of stages in the filter;
  98:../Dave/Generated/CMSIS_DSP/Source/FilteringFunctions/arm_fir_lattice_f32.c ****                    <code>pState</code> is the address of the state buffer;
  99:../Dave/Generated/CMSIS_DSP/Source/FilteringFunctions/arm_fir_lattice_f32.c ****                    <code>pCoeffs</code> is the address of the coefficient buffer.
 100:../Dave/Generated/CMSIS_DSP/Source/FilteringFunctions/arm_fir_lattice_f32.c **** 
 101:../Dave/Generated/CMSIS_DSP/Source/FilteringFunctions/arm_fir_lattice_f32.c ****   @par           Fixed-Point Behavior
 102:../Dave/Generated/CMSIS_DSP/Source/FilteringFunctions/arm_fir_lattice_f32.c ****                    Care must be taken when using the fixed-point versions of the FIR Lattice filter
 103:../Dave/Generated/CMSIS_DSP/Source/FilteringFunctions/arm_fir_lattice_f32.c ****                    In particular, the overflow and saturation behavior of the accumulator used in e
 104:../Dave/Generated/CMSIS_DSP/Source/FilteringFunctions/arm_fir_lattice_f32.c ****                    Refer to the function specific documentation below for usage guidelines.
 105:../Dave/Generated/CMSIS_DSP/Source/FilteringFunctions/arm_fir_lattice_f32.c ****  */
 106:../Dave/Generated/CMSIS_DSP/Source/FilteringFunctions/arm_fir_lattice_f32.c **** 
 107:../Dave/Generated/CMSIS_DSP/Source/FilteringFunctions/arm_fir_lattice_f32.c **** /**
 108:../Dave/Generated/CMSIS_DSP/Source/FilteringFunctions/arm_fir_lattice_f32.c ****   @addtogroup FIR_Lattice
 109:../Dave/Generated/CMSIS_DSP/Source/FilteringFunctions/arm_fir_lattice_f32.c ****   @{
 110:../Dave/Generated/CMSIS_DSP/Source/FilteringFunctions/arm_fir_lattice_f32.c ****  */
 111:../Dave/Generated/CMSIS_DSP/Source/FilteringFunctions/arm_fir_lattice_f32.c **** 
 112:../Dave/Generated/CMSIS_DSP/Source/FilteringFunctions/arm_fir_lattice_f32.c **** /**
 113:../Dave/Generated/CMSIS_DSP/Source/FilteringFunctions/arm_fir_lattice_f32.c ****   @brief         Processing function for the floating-point FIR lattice filter.
 114:../Dave/Generated/CMSIS_DSP/Source/FilteringFunctions/arm_fir_lattice_f32.c ****   @param[in]     S          points to an instance of the floating-point FIR lattice structure
 115:../Dave/Generated/CMSIS_DSP/Source/FilteringFunctions/arm_fir_lattice_f32.c ****   @param[in]     pSrc       points to the block of input data
 116:../Dave/Generated/CMSIS_DSP/Source/FilteringFunctions/arm_fir_lattice_f32.c ****   @param[out]    pDst       points to the block of output data
 117:../Dave/Generated/CMSIS_DSP/Source/FilteringFunctions/arm_fir_lattice_f32.c ****   @param[in]     blockSize  number of samples to process
 118:../Dave/Generated/CMSIS_DSP/Source/FilteringFunctions/arm_fir_lattice_f32.c ****   @return        none
 119:../Dave/Generated/CMSIS_DSP/Source/FilteringFunctions/arm_fir_lattice_f32.c ****  */
 120:../Dave/Generated/CMSIS_DSP/Source/FilteringFunctions/arm_fir_lattice_f32.c **** 
 121:../Dave/Generated/CMSIS_DSP/Source/FilteringFunctions/arm_fir_lattice_f32.c **** void arm_fir_lattice_f32(
 122:../Dave/Generated/CMSIS_DSP/Source/FilteringFunctions/arm_fir_lattice_f32.c ****   const arm_fir_lattice_instance_f32 * S,
 123:../Dave/Generated/CMSIS_DSP/Source/FilteringFunctions/arm_fir_lattice_f32.c ****   const float32_t * pSrc,
 124:../Dave/Generated/CMSIS_DSP/Source/FilteringFunctions/arm_fir_lattice_f32.c ****         float32_t * pDst,
 125:../Dave/Generated/CMSIS_DSP/Source/FilteringFunctions/arm_fir_lattice_f32.c ****         uint32_t blockSize)
 126:../Dave/Generated/CMSIS_DSP/Source/FilteringFunctions/arm_fir_lattice_f32.c **** {
  28              	 .loc 1 126 0
  29              	 .cfi_startproc
  30              	 
  31              	 
  32              	 
  33 0000 80B4     	 push {r7}
  34              	.LCFI0:
  35              	 .cfi_def_cfa_offset 4
  36              	 .cfi_offset 7,-4
  37 0002 91B0     	 sub sp,sp,#68
  38              	.LCFI1:
  39              	 .cfi_def_cfa_offset 72
  40 0004 00AF     	 add r7,sp,#0
  41              	.LCFI2:
  42              	 .cfi_def_cfa_register 7
  43 0006 F860     	 str r0,[r7,#12]
  44 0008 B960     	 str r1,[r7,#8]
  45 000a 7A60     	 str r2,[r7,#4]
  46 000c 3B60     	 str r3,[r7]
 127:../Dave/Generated/CMSIS_DSP/Source/FilteringFunctions/arm_fir_lattice_f32.c ****         float32_t *pState = S->pState;                 /* State pointer */
  47              	 .loc 1 127 0
  48 000e FB68     	 ldr r3,[r7,#12]
  49 0010 5B68     	 ldr r3,[r3,#4]
  50 0012 7B62     	 str r3,[r7,#36]
 128:../Dave/Generated/CMSIS_DSP/Source/FilteringFunctions/arm_fir_lattice_f32.c ****   const float32_t *pCoeffs = S->pCoeffs;               /* Coefficient pointer */
  51              	 .loc 1 128 0
  52 0014 FB68     	 ldr r3,[r7,#12]
  53 0016 9B68     	 ldr r3,[r3,#8]
  54 0018 3B62     	 str r3,[r7,#32]
 129:../Dave/Generated/CMSIS_DSP/Source/FilteringFunctions/arm_fir_lattice_f32.c ****         float32_t *px;                                 /* Temporary state pointer */
 130:../Dave/Generated/CMSIS_DSP/Source/FilteringFunctions/arm_fir_lattice_f32.c ****   const float32_t *pk;                                 /* Temporary coefficient pointer */
 131:../Dave/Generated/CMSIS_DSP/Source/FilteringFunctions/arm_fir_lattice_f32.c ****         uint32_t numStages = S->numStages;             /* Number of stages in the filter */
  55              	 .loc 1 131 0
  56 001a FB68     	 ldr r3,[r7,#12]
  57 001c 1B88     	 ldrh r3,[r3]
  58 001e FB61     	 str r3,[r7,#28]
 132:../Dave/Generated/CMSIS_DSP/Source/FilteringFunctions/arm_fir_lattice_f32.c ****         uint32_t blkCnt, stageCnt;                     /* Loop counters */
 133:../Dave/Generated/CMSIS_DSP/Source/FilteringFunctions/arm_fir_lattice_f32.c ****         float32_t fcurr0, fnext0, gnext0, gcurr0;      /* Temporary variables */
 134:../Dave/Generated/CMSIS_DSP/Source/FilteringFunctions/arm_fir_lattice_f32.c **** 
 135:../Dave/Generated/CMSIS_DSP/Source/FilteringFunctions/arm_fir_lattice_f32.c **** #if defined (ARM_MATH_LOOPUNROLL)
 136:../Dave/Generated/CMSIS_DSP/Source/FilteringFunctions/arm_fir_lattice_f32.c ****         float32_t fcurr1, fnext1, gnext1;              /* Temporary variables for second sample in 
 137:../Dave/Generated/CMSIS_DSP/Source/FilteringFunctions/arm_fir_lattice_f32.c ****         float32_t fcurr2, fnext2, gnext2;              /* Temporary variables for third sample in l
 138:../Dave/Generated/CMSIS_DSP/Source/FilteringFunctions/arm_fir_lattice_f32.c ****         float32_t fcurr3, fnext3, gnext3;              /* Temporary variables for fourth sample in 
 139:../Dave/Generated/CMSIS_DSP/Source/FilteringFunctions/arm_fir_lattice_f32.c **** #endif
 140:../Dave/Generated/CMSIS_DSP/Source/FilteringFunctions/arm_fir_lattice_f32.c **** 
 141:../Dave/Generated/CMSIS_DSP/Source/FilteringFunctions/arm_fir_lattice_f32.c ****   gcurr0 = 0.0f;
  59              	 .loc 1 141 0
  60 0020 4FF00003 	 mov r3,#0
  61 0024 BB61     	 str r3,[r7,#24]
 142:../Dave/Generated/CMSIS_DSP/Source/FilteringFunctions/arm_fir_lattice_f32.c **** 
 143:../Dave/Generated/CMSIS_DSP/Source/FilteringFunctions/arm_fir_lattice_f32.c **** #if defined (ARM_MATH_LOOPUNROLL)
 144:../Dave/Generated/CMSIS_DSP/Source/FilteringFunctions/arm_fir_lattice_f32.c **** 
 145:../Dave/Generated/CMSIS_DSP/Source/FilteringFunctions/arm_fir_lattice_f32.c ****   /* Loop unrolling: Compute 4 outputs at a time */
 146:../Dave/Generated/CMSIS_DSP/Source/FilteringFunctions/arm_fir_lattice_f32.c ****   blkCnt = blockSize >> 2U;
 147:../Dave/Generated/CMSIS_DSP/Source/FilteringFunctions/arm_fir_lattice_f32.c **** 
 148:../Dave/Generated/CMSIS_DSP/Source/FilteringFunctions/arm_fir_lattice_f32.c ****   while (blkCnt > 0U)
 149:../Dave/Generated/CMSIS_DSP/Source/FilteringFunctions/arm_fir_lattice_f32.c ****   {
 150:../Dave/Generated/CMSIS_DSP/Source/FilteringFunctions/arm_fir_lattice_f32.c ****     /* Read two samples from input buffer */
 151:../Dave/Generated/CMSIS_DSP/Source/FilteringFunctions/arm_fir_lattice_f32.c ****     /* f0(n) = x(n) */
 152:../Dave/Generated/CMSIS_DSP/Source/FilteringFunctions/arm_fir_lattice_f32.c ****     fcurr0 = *pSrc++;
 153:../Dave/Generated/CMSIS_DSP/Source/FilteringFunctions/arm_fir_lattice_f32.c ****     fcurr1 = *pSrc++;
 154:../Dave/Generated/CMSIS_DSP/Source/FilteringFunctions/arm_fir_lattice_f32.c **** 
 155:../Dave/Generated/CMSIS_DSP/Source/FilteringFunctions/arm_fir_lattice_f32.c ****     /* Initialize state pointer */
 156:../Dave/Generated/CMSIS_DSP/Source/FilteringFunctions/arm_fir_lattice_f32.c ****     px = pState;
 157:../Dave/Generated/CMSIS_DSP/Source/FilteringFunctions/arm_fir_lattice_f32.c **** 
 158:../Dave/Generated/CMSIS_DSP/Source/FilteringFunctions/arm_fir_lattice_f32.c ****     /* Initialize coeff pointer */
 159:../Dave/Generated/CMSIS_DSP/Source/FilteringFunctions/arm_fir_lattice_f32.c ****     pk = pCoeffs;
 160:../Dave/Generated/CMSIS_DSP/Source/FilteringFunctions/arm_fir_lattice_f32.c **** 
 161:../Dave/Generated/CMSIS_DSP/Source/FilteringFunctions/arm_fir_lattice_f32.c ****     /* Read g0(n-1) from state buffer */
 162:../Dave/Generated/CMSIS_DSP/Source/FilteringFunctions/arm_fir_lattice_f32.c ****     gcurr0 = *px;
 163:../Dave/Generated/CMSIS_DSP/Source/FilteringFunctions/arm_fir_lattice_f32.c **** 
 164:../Dave/Generated/CMSIS_DSP/Source/FilteringFunctions/arm_fir_lattice_f32.c ****     /* Process first sample for first tap */
 165:../Dave/Generated/CMSIS_DSP/Source/FilteringFunctions/arm_fir_lattice_f32.c ****     /* f1(n) = f0(n) +  K1 * g0(n-1) */
 166:../Dave/Generated/CMSIS_DSP/Source/FilteringFunctions/arm_fir_lattice_f32.c ****     fnext0 = (gcurr0 * (*pk)) + fcurr0;
 167:../Dave/Generated/CMSIS_DSP/Source/FilteringFunctions/arm_fir_lattice_f32.c **** 
 168:../Dave/Generated/CMSIS_DSP/Source/FilteringFunctions/arm_fir_lattice_f32.c ****     /* g1(n) = f0(n) * K1  +  g0(n-1) */
 169:../Dave/Generated/CMSIS_DSP/Source/FilteringFunctions/arm_fir_lattice_f32.c ****     gnext0 = (fcurr0 * (*pk)) + gcurr0;
 170:../Dave/Generated/CMSIS_DSP/Source/FilteringFunctions/arm_fir_lattice_f32.c **** 
 171:../Dave/Generated/CMSIS_DSP/Source/FilteringFunctions/arm_fir_lattice_f32.c ****     /* Process second sample for first tap */
 172:../Dave/Generated/CMSIS_DSP/Source/FilteringFunctions/arm_fir_lattice_f32.c ****     fnext1 = (fcurr0 * (*pk)) + fcurr1;
 173:../Dave/Generated/CMSIS_DSP/Source/FilteringFunctions/arm_fir_lattice_f32.c ****     gnext1 = (fcurr1 * (*pk)) + fcurr0;
 174:../Dave/Generated/CMSIS_DSP/Source/FilteringFunctions/arm_fir_lattice_f32.c **** 
 175:../Dave/Generated/CMSIS_DSP/Source/FilteringFunctions/arm_fir_lattice_f32.c ****     /* Read next two samples from input buffer */
 176:../Dave/Generated/CMSIS_DSP/Source/FilteringFunctions/arm_fir_lattice_f32.c ****     /* f0(n+2) = x(n+2) */
 177:../Dave/Generated/CMSIS_DSP/Source/FilteringFunctions/arm_fir_lattice_f32.c ****     fcurr2 = *pSrc++;
 178:../Dave/Generated/CMSIS_DSP/Source/FilteringFunctions/arm_fir_lattice_f32.c ****     fcurr3 = *pSrc++;
 179:../Dave/Generated/CMSIS_DSP/Source/FilteringFunctions/arm_fir_lattice_f32.c **** 
 180:../Dave/Generated/CMSIS_DSP/Source/FilteringFunctions/arm_fir_lattice_f32.c ****     /* Process third sample for first tap */
 181:../Dave/Generated/CMSIS_DSP/Source/FilteringFunctions/arm_fir_lattice_f32.c ****     fnext2 = (fcurr1 * (*pk)) + fcurr2;
 182:../Dave/Generated/CMSIS_DSP/Source/FilteringFunctions/arm_fir_lattice_f32.c ****     gnext2 = (fcurr2 * (*pk)) + fcurr1;
 183:../Dave/Generated/CMSIS_DSP/Source/FilteringFunctions/arm_fir_lattice_f32.c **** 
 184:../Dave/Generated/CMSIS_DSP/Source/FilteringFunctions/arm_fir_lattice_f32.c ****     /* Process fourth sample for first tap */
 185:../Dave/Generated/CMSIS_DSP/Source/FilteringFunctions/arm_fir_lattice_f32.c ****     fnext3 = (fcurr2 * (*pk  )) + fcurr3;
 186:../Dave/Generated/CMSIS_DSP/Source/FilteringFunctions/arm_fir_lattice_f32.c ****     gnext3 = (fcurr3 * (*pk++)) + fcurr2;
 187:../Dave/Generated/CMSIS_DSP/Source/FilteringFunctions/arm_fir_lattice_f32.c **** 
 188:../Dave/Generated/CMSIS_DSP/Source/FilteringFunctions/arm_fir_lattice_f32.c ****     /* Copy only last input sample into the state buffer
 189:../Dave/Generated/CMSIS_DSP/Source/FilteringFunctions/arm_fir_lattice_f32.c ****        which will be used for next samples processing */
 190:../Dave/Generated/CMSIS_DSP/Source/FilteringFunctions/arm_fir_lattice_f32.c ****     *px++ = fcurr3;
 191:../Dave/Generated/CMSIS_DSP/Source/FilteringFunctions/arm_fir_lattice_f32.c **** 
 192:../Dave/Generated/CMSIS_DSP/Source/FilteringFunctions/arm_fir_lattice_f32.c ****     /* Update of f values for next coefficient set processing */
 193:../Dave/Generated/CMSIS_DSP/Source/FilteringFunctions/arm_fir_lattice_f32.c ****     fcurr0 = fnext0;
 194:../Dave/Generated/CMSIS_DSP/Source/FilteringFunctions/arm_fir_lattice_f32.c ****     fcurr1 = fnext1;
 195:../Dave/Generated/CMSIS_DSP/Source/FilteringFunctions/arm_fir_lattice_f32.c ****     fcurr2 = fnext2;
 196:../Dave/Generated/CMSIS_DSP/Source/FilteringFunctions/arm_fir_lattice_f32.c ****     fcurr3 = fnext3;
 197:../Dave/Generated/CMSIS_DSP/Source/FilteringFunctions/arm_fir_lattice_f32.c **** 
 198:../Dave/Generated/CMSIS_DSP/Source/FilteringFunctions/arm_fir_lattice_f32.c ****     /* Loop unrolling.  Process 4 taps at a time . */
 199:../Dave/Generated/CMSIS_DSP/Source/FilteringFunctions/arm_fir_lattice_f32.c ****     stageCnt = (numStages - 1U) >> 2U;
 200:../Dave/Generated/CMSIS_DSP/Source/FilteringFunctions/arm_fir_lattice_f32.c **** 
 201:../Dave/Generated/CMSIS_DSP/Source/FilteringFunctions/arm_fir_lattice_f32.c ****     /* Loop over the number of taps.  Unroll by a factor of 4.
 202:../Dave/Generated/CMSIS_DSP/Source/FilteringFunctions/arm_fir_lattice_f32.c ****        Repeat until we've computed numStages-3 coefficients. */
 203:../Dave/Generated/CMSIS_DSP/Source/FilteringFunctions/arm_fir_lattice_f32.c **** 
 204:../Dave/Generated/CMSIS_DSP/Source/FilteringFunctions/arm_fir_lattice_f32.c ****     /* Process 2nd, 3rd, 4th and 5th taps ... here */
 205:../Dave/Generated/CMSIS_DSP/Source/FilteringFunctions/arm_fir_lattice_f32.c ****     while (stageCnt > 0U)
 206:../Dave/Generated/CMSIS_DSP/Source/FilteringFunctions/arm_fir_lattice_f32.c ****     {
 207:../Dave/Generated/CMSIS_DSP/Source/FilteringFunctions/arm_fir_lattice_f32.c ****       /* Read g1(n-1), g3(n-1) .... from state */
 208:../Dave/Generated/CMSIS_DSP/Source/FilteringFunctions/arm_fir_lattice_f32.c ****       gcurr0 = *px;
 209:../Dave/Generated/CMSIS_DSP/Source/FilteringFunctions/arm_fir_lattice_f32.c **** 
 210:../Dave/Generated/CMSIS_DSP/Source/FilteringFunctions/arm_fir_lattice_f32.c ****       /* save g1(n) in state buffer */
 211:../Dave/Generated/CMSIS_DSP/Source/FilteringFunctions/arm_fir_lattice_f32.c ****       *px++ = gnext3;
 212:../Dave/Generated/CMSIS_DSP/Source/FilteringFunctions/arm_fir_lattice_f32.c **** 
 213:../Dave/Generated/CMSIS_DSP/Source/FilteringFunctions/arm_fir_lattice_f32.c ****       /* Process first sample for 2nd, 6th .. tap */
 214:../Dave/Generated/CMSIS_DSP/Source/FilteringFunctions/arm_fir_lattice_f32.c ****       /* Sample processing for K2, K6.... */
 215:../Dave/Generated/CMSIS_DSP/Source/FilteringFunctions/arm_fir_lattice_f32.c ****       /* f2(n) = f1(n) +  K2 * g1(n-1) */
 216:../Dave/Generated/CMSIS_DSP/Source/FilteringFunctions/arm_fir_lattice_f32.c ****       fnext0 = (gcurr0 * (*pk)) + fcurr0;
 217:../Dave/Generated/CMSIS_DSP/Source/FilteringFunctions/arm_fir_lattice_f32.c **** 
 218:../Dave/Generated/CMSIS_DSP/Source/FilteringFunctions/arm_fir_lattice_f32.c ****       /* Process second sample for 2nd, 6th .. tap */
 219:../Dave/Generated/CMSIS_DSP/Source/FilteringFunctions/arm_fir_lattice_f32.c ****       /* for sample 2 processing */
 220:../Dave/Generated/CMSIS_DSP/Source/FilteringFunctions/arm_fir_lattice_f32.c ****       fnext1 = (gnext0 * (*pk)) + fcurr1;
 221:../Dave/Generated/CMSIS_DSP/Source/FilteringFunctions/arm_fir_lattice_f32.c **** 
 222:../Dave/Generated/CMSIS_DSP/Source/FilteringFunctions/arm_fir_lattice_f32.c ****       /* Process third sample for 2nd, 6th .. tap */
 223:../Dave/Generated/CMSIS_DSP/Source/FilteringFunctions/arm_fir_lattice_f32.c ****       fnext2 = (gnext1 * (*pk)) + fcurr2;
 224:../Dave/Generated/CMSIS_DSP/Source/FilteringFunctions/arm_fir_lattice_f32.c **** 
 225:../Dave/Generated/CMSIS_DSP/Source/FilteringFunctions/arm_fir_lattice_f32.c ****       /* Process fourth sample for 2nd, 6th .. tap */
 226:../Dave/Generated/CMSIS_DSP/Source/FilteringFunctions/arm_fir_lattice_f32.c ****       fnext3 = (gnext2 * (*pk)) + fcurr3;
 227:../Dave/Generated/CMSIS_DSP/Source/FilteringFunctions/arm_fir_lattice_f32.c **** 
 228:../Dave/Generated/CMSIS_DSP/Source/FilteringFunctions/arm_fir_lattice_f32.c ****       /* g2(n) = f1(n) * K2  +  g1(n-1) */
 229:../Dave/Generated/CMSIS_DSP/Source/FilteringFunctions/arm_fir_lattice_f32.c ****       /* Calculation of state values for next stage */
 230:../Dave/Generated/CMSIS_DSP/Source/FilteringFunctions/arm_fir_lattice_f32.c ****       gnext3 = (fcurr3 * (*pk)) + gnext2;
 231:../Dave/Generated/CMSIS_DSP/Source/FilteringFunctions/arm_fir_lattice_f32.c **** 
 232:../Dave/Generated/CMSIS_DSP/Source/FilteringFunctions/arm_fir_lattice_f32.c ****       gnext2 = (fcurr2 * (*pk)) + gnext1;
 233:../Dave/Generated/CMSIS_DSP/Source/FilteringFunctions/arm_fir_lattice_f32.c **** 
 234:../Dave/Generated/CMSIS_DSP/Source/FilteringFunctions/arm_fir_lattice_f32.c ****       gnext1 = (fcurr1 * (*pk)) + gnext0;
 235:../Dave/Generated/CMSIS_DSP/Source/FilteringFunctions/arm_fir_lattice_f32.c **** 
 236:../Dave/Generated/CMSIS_DSP/Source/FilteringFunctions/arm_fir_lattice_f32.c ****       gnext0 = (fcurr0 * (*pk++)) + gcurr0;
 237:../Dave/Generated/CMSIS_DSP/Source/FilteringFunctions/arm_fir_lattice_f32.c **** 
 238:../Dave/Generated/CMSIS_DSP/Source/FilteringFunctions/arm_fir_lattice_f32.c **** 
 239:../Dave/Generated/CMSIS_DSP/Source/FilteringFunctions/arm_fir_lattice_f32.c ****       /* Read g2(n-1), g4(n-1) .... from state */
 240:../Dave/Generated/CMSIS_DSP/Source/FilteringFunctions/arm_fir_lattice_f32.c ****       gcurr0 = *px;
 241:../Dave/Generated/CMSIS_DSP/Source/FilteringFunctions/arm_fir_lattice_f32.c **** 
 242:../Dave/Generated/CMSIS_DSP/Source/FilteringFunctions/arm_fir_lattice_f32.c ****       /* save g2(n) in state buffer */
 243:../Dave/Generated/CMSIS_DSP/Source/FilteringFunctions/arm_fir_lattice_f32.c ****       *px++ = gnext3;
 244:../Dave/Generated/CMSIS_DSP/Source/FilteringFunctions/arm_fir_lattice_f32.c **** 
 245:../Dave/Generated/CMSIS_DSP/Source/FilteringFunctions/arm_fir_lattice_f32.c ****       /* Sample processing for K3, K7.... */
 246:../Dave/Generated/CMSIS_DSP/Source/FilteringFunctions/arm_fir_lattice_f32.c ****       /* Process first sample for 3rd, 7th .. tap */
 247:../Dave/Generated/CMSIS_DSP/Source/FilteringFunctions/arm_fir_lattice_f32.c ****       /* f3(n) = f2(n) +  K3 * g2(n-1) */
 248:../Dave/Generated/CMSIS_DSP/Source/FilteringFunctions/arm_fir_lattice_f32.c ****       fcurr0 = (gcurr0 * (*pk)) + fnext0;
 249:../Dave/Generated/CMSIS_DSP/Source/FilteringFunctions/arm_fir_lattice_f32.c **** 
 250:../Dave/Generated/CMSIS_DSP/Source/FilteringFunctions/arm_fir_lattice_f32.c ****       /* Process second sample for 3rd, 7th .. tap */
 251:../Dave/Generated/CMSIS_DSP/Source/FilteringFunctions/arm_fir_lattice_f32.c ****       fcurr1 = (gnext0 * (*pk)) + fnext1;
 252:../Dave/Generated/CMSIS_DSP/Source/FilteringFunctions/arm_fir_lattice_f32.c **** 
 253:../Dave/Generated/CMSIS_DSP/Source/FilteringFunctions/arm_fir_lattice_f32.c ****       /* Process third sample for 3rd, 7th .. tap */
 254:../Dave/Generated/CMSIS_DSP/Source/FilteringFunctions/arm_fir_lattice_f32.c ****       fcurr2 = (gnext1 * (*pk)) + fnext2;
 255:../Dave/Generated/CMSIS_DSP/Source/FilteringFunctions/arm_fir_lattice_f32.c **** 
 256:../Dave/Generated/CMSIS_DSP/Source/FilteringFunctions/arm_fir_lattice_f32.c ****       /* Process fourth sample for 3rd, 7th .. tap */
 257:../Dave/Generated/CMSIS_DSP/Source/FilteringFunctions/arm_fir_lattice_f32.c ****       fcurr3 = (gnext2 * (*pk)) + fnext3;
 258:../Dave/Generated/CMSIS_DSP/Source/FilteringFunctions/arm_fir_lattice_f32.c **** 
 259:../Dave/Generated/CMSIS_DSP/Source/FilteringFunctions/arm_fir_lattice_f32.c ****       /* Calculation of state values for next stage */
 260:../Dave/Generated/CMSIS_DSP/Source/FilteringFunctions/arm_fir_lattice_f32.c ****       /* g3(n) = f2(n) * K3  +  g2(n-1) */
 261:../Dave/Generated/CMSIS_DSP/Source/FilteringFunctions/arm_fir_lattice_f32.c ****       gnext3 = (fnext3 * (*pk)) + gnext2;
 262:../Dave/Generated/CMSIS_DSP/Source/FilteringFunctions/arm_fir_lattice_f32.c **** 
 263:../Dave/Generated/CMSIS_DSP/Source/FilteringFunctions/arm_fir_lattice_f32.c ****       gnext2 = (fnext2 * (*pk)) + gnext1;
 264:../Dave/Generated/CMSIS_DSP/Source/FilteringFunctions/arm_fir_lattice_f32.c **** 
 265:../Dave/Generated/CMSIS_DSP/Source/FilteringFunctions/arm_fir_lattice_f32.c ****       gnext1 = (fnext1 * (*pk)) + gnext0;
 266:../Dave/Generated/CMSIS_DSP/Source/FilteringFunctions/arm_fir_lattice_f32.c **** 
 267:../Dave/Generated/CMSIS_DSP/Source/FilteringFunctions/arm_fir_lattice_f32.c ****       gnext0 = (fnext0 * (*pk++)) + gcurr0;
 268:../Dave/Generated/CMSIS_DSP/Source/FilteringFunctions/arm_fir_lattice_f32.c **** 
 269:../Dave/Generated/CMSIS_DSP/Source/FilteringFunctions/arm_fir_lattice_f32.c **** 
 270:../Dave/Generated/CMSIS_DSP/Source/FilteringFunctions/arm_fir_lattice_f32.c ****       /* Read g1(n-1), g3(n-1) .... from state */
 271:../Dave/Generated/CMSIS_DSP/Source/FilteringFunctions/arm_fir_lattice_f32.c ****       gcurr0 = *px;
 272:../Dave/Generated/CMSIS_DSP/Source/FilteringFunctions/arm_fir_lattice_f32.c **** 
 273:../Dave/Generated/CMSIS_DSP/Source/FilteringFunctions/arm_fir_lattice_f32.c ****       /* save g3(n) in state buffer */
 274:../Dave/Generated/CMSIS_DSP/Source/FilteringFunctions/arm_fir_lattice_f32.c ****       *px++ = gnext3;
 275:../Dave/Generated/CMSIS_DSP/Source/FilteringFunctions/arm_fir_lattice_f32.c **** 
 276:../Dave/Generated/CMSIS_DSP/Source/FilteringFunctions/arm_fir_lattice_f32.c ****       /* Sample processing for K4, K8.... */
 277:../Dave/Generated/CMSIS_DSP/Source/FilteringFunctions/arm_fir_lattice_f32.c ****       /* Process first sample for 4th, 8th .. tap */
 278:../Dave/Generated/CMSIS_DSP/Source/FilteringFunctions/arm_fir_lattice_f32.c ****       /* f4(n) = f3(n) +  K4 * g3(n-1) */
 279:../Dave/Generated/CMSIS_DSP/Source/FilteringFunctions/arm_fir_lattice_f32.c ****       fnext0 = (gcurr0 * (*pk)) + fcurr0;
 280:../Dave/Generated/CMSIS_DSP/Source/FilteringFunctions/arm_fir_lattice_f32.c **** 
 281:../Dave/Generated/CMSIS_DSP/Source/FilteringFunctions/arm_fir_lattice_f32.c ****       /* Process second sample for 4th, 8th .. tap */
 282:../Dave/Generated/CMSIS_DSP/Source/FilteringFunctions/arm_fir_lattice_f32.c ****       /* for sample 2 processing */
 283:../Dave/Generated/CMSIS_DSP/Source/FilteringFunctions/arm_fir_lattice_f32.c ****       fnext1 = (gnext0 * (*pk)) + fcurr1;
 284:../Dave/Generated/CMSIS_DSP/Source/FilteringFunctions/arm_fir_lattice_f32.c **** 
 285:../Dave/Generated/CMSIS_DSP/Source/FilteringFunctions/arm_fir_lattice_f32.c ****       /* Process third sample for 4th, 8th .. tap */
 286:../Dave/Generated/CMSIS_DSP/Source/FilteringFunctions/arm_fir_lattice_f32.c ****       fnext2 = (gnext1 * (*pk)) + fcurr2;
 287:../Dave/Generated/CMSIS_DSP/Source/FilteringFunctions/arm_fir_lattice_f32.c **** 
 288:../Dave/Generated/CMSIS_DSP/Source/FilteringFunctions/arm_fir_lattice_f32.c ****       /* Process fourth sample for 4th, 8th .. tap */
 289:../Dave/Generated/CMSIS_DSP/Source/FilteringFunctions/arm_fir_lattice_f32.c ****       fnext3 = (gnext2 * (*pk)) + fcurr3;
 290:../Dave/Generated/CMSIS_DSP/Source/FilteringFunctions/arm_fir_lattice_f32.c **** 
 291:../Dave/Generated/CMSIS_DSP/Source/FilteringFunctions/arm_fir_lattice_f32.c ****       /* g4(n) = f3(n) * K4  +  g3(n-1) */
 292:../Dave/Generated/CMSIS_DSP/Source/FilteringFunctions/arm_fir_lattice_f32.c ****       /* Calculation of state values for next stage */
 293:../Dave/Generated/CMSIS_DSP/Source/FilteringFunctions/arm_fir_lattice_f32.c ****       gnext3 = (fcurr3 * (*pk)) + gnext2;
 294:../Dave/Generated/CMSIS_DSP/Source/FilteringFunctions/arm_fir_lattice_f32.c **** 
 295:../Dave/Generated/CMSIS_DSP/Source/FilteringFunctions/arm_fir_lattice_f32.c ****       gnext2 = (fcurr2 * (*pk)) + gnext1;
 296:../Dave/Generated/CMSIS_DSP/Source/FilteringFunctions/arm_fir_lattice_f32.c **** 
 297:../Dave/Generated/CMSIS_DSP/Source/FilteringFunctions/arm_fir_lattice_f32.c ****       gnext1 = (fcurr1 * (*pk)) + gnext0;
 298:../Dave/Generated/CMSIS_DSP/Source/FilteringFunctions/arm_fir_lattice_f32.c **** 
 299:../Dave/Generated/CMSIS_DSP/Source/FilteringFunctions/arm_fir_lattice_f32.c ****       gnext0 = (fcurr0 * (*pk++)) + gcurr0;
 300:../Dave/Generated/CMSIS_DSP/Source/FilteringFunctions/arm_fir_lattice_f32.c **** 
 301:../Dave/Generated/CMSIS_DSP/Source/FilteringFunctions/arm_fir_lattice_f32.c **** 
 302:../Dave/Generated/CMSIS_DSP/Source/FilteringFunctions/arm_fir_lattice_f32.c ****       /* Read g2(n-1), g4(n-1) .... from state */
 303:../Dave/Generated/CMSIS_DSP/Source/FilteringFunctions/arm_fir_lattice_f32.c ****       gcurr0 = *px;
 304:../Dave/Generated/CMSIS_DSP/Source/FilteringFunctions/arm_fir_lattice_f32.c **** 
 305:../Dave/Generated/CMSIS_DSP/Source/FilteringFunctions/arm_fir_lattice_f32.c ****       /* save g4(n) in state buffer */
 306:../Dave/Generated/CMSIS_DSP/Source/FilteringFunctions/arm_fir_lattice_f32.c ****       *px++ = gnext3;
 307:../Dave/Generated/CMSIS_DSP/Source/FilteringFunctions/arm_fir_lattice_f32.c **** 
 308:../Dave/Generated/CMSIS_DSP/Source/FilteringFunctions/arm_fir_lattice_f32.c ****       /* Sample processing for K5, K9.... */
 309:../Dave/Generated/CMSIS_DSP/Source/FilteringFunctions/arm_fir_lattice_f32.c ****       /* Process first sample for 5th, 9th .. tap */
 310:../Dave/Generated/CMSIS_DSP/Source/FilteringFunctions/arm_fir_lattice_f32.c ****       /* f5(n) = f4(n) +  K5 * g4(n-1) */
 311:../Dave/Generated/CMSIS_DSP/Source/FilteringFunctions/arm_fir_lattice_f32.c ****       fcurr0 = (gcurr0 * (*pk)) + fnext0;
 312:../Dave/Generated/CMSIS_DSP/Source/FilteringFunctions/arm_fir_lattice_f32.c **** 
 313:../Dave/Generated/CMSIS_DSP/Source/FilteringFunctions/arm_fir_lattice_f32.c ****       /* Process second sample for 5th, 9th .. tap */
 314:../Dave/Generated/CMSIS_DSP/Source/FilteringFunctions/arm_fir_lattice_f32.c ****       fcurr1 = (gnext0 * (*pk)) + fnext1;
 315:../Dave/Generated/CMSIS_DSP/Source/FilteringFunctions/arm_fir_lattice_f32.c **** 
 316:../Dave/Generated/CMSIS_DSP/Source/FilteringFunctions/arm_fir_lattice_f32.c ****       /* Process third sample for 5th, 9th .. tap */
 317:../Dave/Generated/CMSIS_DSP/Source/FilteringFunctions/arm_fir_lattice_f32.c ****       fcurr2 = (gnext1 * (*pk)) + fnext2;
 318:../Dave/Generated/CMSIS_DSP/Source/FilteringFunctions/arm_fir_lattice_f32.c **** 
 319:../Dave/Generated/CMSIS_DSP/Source/FilteringFunctions/arm_fir_lattice_f32.c ****       /* Process fourth sample for 5th, 9th .. tap */
 320:../Dave/Generated/CMSIS_DSP/Source/FilteringFunctions/arm_fir_lattice_f32.c ****       fcurr3 = (gnext2 * (*pk)) + fnext3;
 321:../Dave/Generated/CMSIS_DSP/Source/FilteringFunctions/arm_fir_lattice_f32.c **** 
 322:../Dave/Generated/CMSIS_DSP/Source/FilteringFunctions/arm_fir_lattice_f32.c ****       /* Calculation of state values for next stage */
 323:../Dave/Generated/CMSIS_DSP/Source/FilteringFunctions/arm_fir_lattice_f32.c ****       /* g5(n) = f4(n) * K5  +  g4(n-1) */
 324:../Dave/Generated/CMSIS_DSP/Source/FilteringFunctions/arm_fir_lattice_f32.c ****       gnext3 = (fnext3 * (*pk)) + gnext2;
 325:../Dave/Generated/CMSIS_DSP/Source/FilteringFunctions/arm_fir_lattice_f32.c **** 
 326:../Dave/Generated/CMSIS_DSP/Source/FilteringFunctions/arm_fir_lattice_f32.c ****       gnext2 = (fnext2 * (*pk)) + gnext1;
 327:../Dave/Generated/CMSIS_DSP/Source/FilteringFunctions/arm_fir_lattice_f32.c **** 
 328:../Dave/Generated/CMSIS_DSP/Source/FilteringFunctions/arm_fir_lattice_f32.c ****       gnext1 = (fnext1 * (*pk)) + gnext0;
 329:../Dave/Generated/CMSIS_DSP/Source/FilteringFunctions/arm_fir_lattice_f32.c **** 
 330:../Dave/Generated/CMSIS_DSP/Source/FilteringFunctions/arm_fir_lattice_f32.c ****       gnext0 = (fnext0 * (*pk++)) + gcurr0;
 331:../Dave/Generated/CMSIS_DSP/Source/FilteringFunctions/arm_fir_lattice_f32.c **** 
 332:../Dave/Generated/CMSIS_DSP/Source/FilteringFunctions/arm_fir_lattice_f32.c ****       stageCnt--;
 333:../Dave/Generated/CMSIS_DSP/Source/FilteringFunctions/arm_fir_lattice_f32.c ****     }
 334:../Dave/Generated/CMSIS_DSP/Source/FilteringFunctions/arm_fir_lattice_f32.c **** 
 335:../Dave/Generated/CMSIS_DSP/Source/FilteringFunctions/arm_fir_lattice_f32.c ****     /* If the (filter length -1) is not a multiple of 4, compute the remaining filter taps */
 336:../Dave/Generated/CMSIS_DSP/Source/FilteringFunctions/arm_fir_lattice_f32.c ****     stageCnt = (numStages - 1U) % 0x4U;
 337:../Dave/Generated/CMSIS_DSP/Source/FilteringFunctions/arm_fir_lattice_f32.c **** 
 338:../Dave/Generated/CMSIS_DSP/Source/FilteringFunctions/arm_fir_lattice_f32.c ****     while (stageCnt > 0U)
 339:../Dave/Generated/CMSIS_DSP/Source/FilteringFunctions/arm_fir_lattice_f32.c ****     {
 340:../Dave/Generated/CMSIS_DSP/Source/FilteringFunctions/arm_fir_lattice_f32.c ****       gcurr0 = *px;
 341:../Dave/Generated/CMSIS_DSP/Source/FilteringFunctions/arm_fir_lattice_f32.c **** 
 342:../Dave/Generated/CMSIS_DSP/Source/FilteringFunctions/arm_fir_lattice_f32.c ****       /* save g value in state buffer */
 343:../Dave/Generated/CMSIS_DSP/Source/FilteringFunctions/arm_fir_lattice_f32.c ****       *px++ = gnext3;
 344:../Dave/Generated/CMSIS_DSP/Source/FilteringFunctions/arm_fir_lattice_f32.c **** 
 345:../Dave/Generated/CMSIS_DSP/Source/FilteringFunctions/arm_fir_lattice_f32.c ****       /* Process four samples for last three taps here */
 346:../Dave/Generated/CMSIS_DSP/Source/FilteringFunctions/arm_fir_lattice_f32.c ****       fnext0 = (gcurr0 * (*pk)) + fcurr0;
 347:../Dave/Generated/CMSIS_DSP/Source/FilteringFunctions/arm_fir_lattice_f32.c **** 
 348:../Dave/Generated/CMSIS_DSP/Source/FilteringFunctions/arm_fir_lattice_f32.c ****       fnext1 = (gnext0 * (*pk)) + fcurr1;
 349:../Dave/Generated/CMSIS_DSP/Source/FilteringFunctions/arm_fir_lattice_f32.c **** 
 350:../Dave/Generated/CMSIS_DSP/Source/FilteringFunctions/arm_fir_lattice_f32.c ****       fnext2 = (gnext1 * (*pk)) + fcurr2;
 351:../Dave/Generated/CMSIS_DSP/Source/FilteringFunctions/arm_fir_lattice_f32.c **** 
 352:../Dave/Generated/CMSIS_DSP/Source/FilteringFunctions/arm_fir_lattice_f32.c ****       fnext3 = (gnext2 * (*pk)) + fcurr3;
 353:../Dave/Generated/CMSIS_DSP/Source/FilteringFunctions/arm_fir_lattice_f32.c **** 
 354:../Dave/Generated/CMSIS_DSP/Source/FilteringFunctions/arm_fir_lattice_f32.c ****       /* g1(n) = f0(n) * K1  +  g0(n-1) */
 355:../Dave/Generated/CMSIS_DSP/Source/FilteringFunctions/arm_fir_lattice_f32.c ****       gnext3 = (fcurr3 * (*pk)) + gnext2;
 356:../Dave/Generated/CMSIS_DSP/Source/FilteringFunctions/arm_fir_lattice_f32.c **** 
 357:../Dave/Generated/CMSIS_DSP/Source/FilteringFunctions/arm_fir_lattice_f32.c ****       gnext2 = (fcurr2 * (*pk)) + gnext1;
 358:../Dave/Generated/CMSIS_DSP/Source/FilteringFunctions/arm_fir_lattice_f32.c **** 
 359:../Dave/Generated/CMSIS_DSP/Source/FilteringFunctions/arm_fir_lattice_f32.c ****       gnext1 = (fcurr1 * (*pk)) + gnext0;
 360:../Dave/Generated/CMSIS_DSP/Source/FilteringFunctions/arm_fir_lattice_f32.c **** 
 361:../Dave/Generated/CMSIS_DSP/Source/FilteringFunctions/arm_fir_lattice_f32.c ****       gnext0 = (fcurr0 * (*pk++)) + gcurr0;
 362:../Dave/Generated/CMSIS_DSP/Source/FilteringFunctions/arm_fir_lattice_f32.c **** 
 363:../Dave/Generated/CMSIS_DSP/Source/FilteringFunctions/arm_fir_lattice_f32.c ****       /* Update of f values for next coefficient set processing */
 364:../Dave/Generated/CMSIS_DSP/Source/FilteringFunctions/arm_fir_lattice_f32.c ****       fcurr0 = fnext0;
 365:../Dave/Generated/CMSIS_DSP/Source/FilteringFunctions/arm_fir_lattice_f32.c ****       fcurr1 = fnext1;
 366:../Dave/Generated/CMSIS_DSP/Source/FilteringFunctions/arm_fir_lattice_f32.c ****       fcurr2 = fnext2;
 367:../Dave/Generated/CMSIS_DSP/Source/FilteringFunctions/arm_fir_lattice_f32.c ****       fcurr3 = fnext3;
 368:../Dave/Generated/CMSIS_DSP/Source/FilteringFunctions/arm_fir_lattice_f32.c **** 
 369:../Dave/Generated/CMSIS_DSP/Source/FilteringFunctions/arm_fir_lattice_f32.c ****       stageCnt--;
 370:../Dave/Generated/CMSIS_DSP/Source/FilteringFunctions/arm_fir_lattice_f32.c ****     }
 371:../Dave/Generated/CMSIS_DSP/Source/FilteringFunctions/arm_fir_lattice_f32.c **** 
 372:../Dave/Generated/CMSIS_DSP/Source/FilteringFunctions/arm_fir_lattice_f32.c ****     /* The results in the 4 accumulators, store in the destination buffer. */
 373:../Dave/Generated/CMSIS_DSP/Source/FilteringFunctions/arm_fir_lattice_f32.c ****     /* y(n) = fN(n) */
 374:../Dave/Generated/CMSIS_DSP/Source/FilteringFunctions/arm_fir_lattice_f32.c ****     *pDst++ = fcurr0;
 375:../Dave/Generated/CMSIS_DSP/Source/FilteringFunctions/arm_fir_lattice_f32.c ****     *pDst++ = fcurr1;
 376:../Dave/Generated/CMSIS_DSP/Source/FilteringFunctions/arm_fir_lattice_f32.c ****     *pDst++ = fcurr2;
 377:../Dave/Generated/CMSIS_DSP/Source/FilteringFunctions/arm_fir_lattice_f32.c ****     *pDst++ = fcurr3;
 378:../Dave/Generated/CMSIS_DSP/Source/FilteringFunctions/arm_fir_lattice_f32.c **** 
 379:../Dave/Generated/CMSIS_DSP/Source/FilteringFunctions/arm_fir_lattice_f32.c ****     blkCnt--;
 380:../Dave/Generated/CMSIS_DSP/Source/FilteringFunctions/arm_fir_lattice_f32.c ****   }
 381:../Dave/Generated/CMSIS_DSP/Source/FilteringFunctions/arm_fir_lattice_f32.c **** 
 382:../Dave/Generated/CMSIS_DSP/Source/FilteringFunctions/arm_fir_lattice_f32.c ****   /* Loop unrolling: Compute remaining outputs */
 383:../Dave/Generated/CMSIS_DSP/Source/FilteringFunctions/arm_fir_lattice_f32.c ****   blkCnt = blockSize % 0x4U;
 384:../Dave/Generated/CMSIS_DSP/Source/FilteringFunctions/arm_fir_lattice_f32.c **** 
 385:../Dave/Generated/CMSIS_DSP/Source/FilteringFunctions/arm_fir_lattice_f32.c **** #else
 386:../Dave/Generated/CMSIS_DSP/Source/FilteringFunctions/arm_fir_lattice_f32.c **** 
 387:../Dave/Generated/CMSIS_DSP/Source/FilteringFunctions/arm_fir_lattice_f32.c ****   /* Initialize blkCnt with number of samples */
 388:../Dave/Generated/CMSIS_DSP/Source/FilteringFunctions/arm_fir_lattice_f32.c ****   blkCnt = blockSize;
  62              	 .loc 1 388 0
  63 0026 3B68     	 ldr r3,[r7]
  64 0028 7B63     	 str r3,[r7,#52]
 389:../Dave/Generated/CMSIS_DSP/Source/FilteringFunctions/arm_fir_lattice_f32.c **** 
 390:../Dave/Generated/CMSIS_DSP/Source/FilteringFunctions/arm_fir_lattice_f32.c **** #endif /* #if defined (ARM_MATH_LOOPUNROLL) */
 391:../Dave/Generated/CMSIS_DSP/Source/FilteringFunctions/arm_fir_lattice_f32.c **** 
 392:../Dave/Generated/CMSIS_DSP/Source/FilteringFunctions/arm_fir_lattice_f32.c ****   while (blkCnt > 0U)
  65              	 .loc 1 392 0
  66 002a 66E0     	 b .L2
  67              	.L5:
 393:../Dave/Generated/CMSIS_DSP/Source/FilteringFunctions/arm_fir_lattice_f32.c ****   {
 394:../Dave/Generated/CMSIS_DSP/Source/FilteringFunctions/arm_fir_lattice_f32.c ****     /* f0(n) = x(n) */
 395:../Dave/Generated/CMSIS_DSP/Source/FilteringFunctions/arm_fir_lattice_f32.c ****     fcurr0 = *pSrc++;
  68              	 .loc 1 395 0
  69 002c BB68     	 ldr r3,[r7,#8]
  70 002e 1A1D     	 adds r2,r3,#4
  71 0030 BA60     	 str r2,[r7,#8]
  72 0032 1B68     	 ldr r3,[r3]
  73 0034 FB62     	 str r3,[r7,#44]
 396:../Dave/Generated/CMSIS_DSP/Source/FilteringFunctions/arm_fir_lattice_f32.c **** 
 397:../Dave/Generated/CMSIS_DSP/Source/FilteringFunctions/arm_fir_lattice_f32.c ****     /* Initialize state pointer */
 398:../Dave/Generated/CMSIS_DSP/Source/FilteringFunctions/arm_fir_lattice_f32.c ****     px = pState;
  74              	 .loc 1 398 0
  75 0036 7B6A     	 ldr r3,[r7,#36]
  76 0038 FB63     	 str r3,[r7,#60]
 399:../Dave/Generated/CMSIS_DSP/Source/FilteringFunctions/arm_fir_lattice_f32.c **** 
 400:../Dave/Generated/CMSIS_DSP/Source/FilteringFunctions/arm_fir_lattice_f32.c ****     /* Initialize coeff pointer */
 401:../Dave/Generated/CMSIS_DSP/Source/FilteringFunctions/arm_fir_lattice_f32.c ****     pk = pCoeffs;
  77              	 .loc 1 401 0
  78 003a 3B6A     	 ldr r3,[r7,#32]
  79 003c BB63     	 str r3,[r7,#56]
 402:../Dave/Generated/CMSIS_DSP/Source/FilteringFunctions/arm_fir_lattice_f32.c **** 
 403:../Dave/Generated/CMSIS_DSP/Source/FilteringFunctions/arm_fir_lattice_f32.c ****     /* read g2(n) from state buffer */
 404:../Dave/Generated/CMSIS_DSP/Source/FilteringFunctions/arm_fir_lattice_f32.c ****     gcurr0 = *px;
  80              	 .loc 1 404 0
  81 003e FB6B     	 ldr r3,[r7,#60]
  82 0040 1B68     	 ldr r3,[r3]
  83 0042 BB61     	 str r3,[r7,#24]
 405:../Dave/Generated/CMSIS_DSP/Source/FilteringFunctions/arm_fir_lattice_f32.c **** 
 406:../Dave/Generated/CMSIS_DSP/Source/FilteringFunctions/arm_fir_lattice_f32.c ****     /* for sample 1 processing */
 407:../Dave/Generated/CMSIS_DSP/Source/FilteringFunctions/arm_fir_lattice_f32.c ****     /* f1(n) = f0(n) +  K1 * g0(n-1) */
 408:../Dave/Generated/CMSIS_DSP/Source/FilteringFunctions/arm_fir_lattice_f32.c ****     fnext0 = (gcurr0 * (*pk)) + fcurr0;
  84              	 .loc 1 408 0
  85 0044 BB6B     	 ldr r3,[r7,#56]
  86 0046 93ED007A 	 flds s14,[r3]
  87 004a D7ED067A 	 flds s15,[r7,#24]
  88 004e 27EE277A 	 fmuls s14,s14,s15
  89 0052 D7ED0B7A 	 flds s15,[r7,#44]
  90 0056 77EE277A 	 fadds s15,s14,s15
  91 005a C7ED057A 	 fsts s15,[r7,#20]
 409:../Dave/Generated/CMSIS_DSP/Source/FilteringFunctions/arm_fir_lattice_f32.c **** 
 410:../Dave/Generated/CMSIS_DSP/Source/FilteringFunctions/arm_fir_lattice_f32.c ****     /* g1(n) = f0(n) * K1  +  g0(n-1) */
 411:../Dave/Generated/CMSIS_DSP/Source/FilteringFunctions/arm_fir_lattice_f32.c ****     gnext0 = (fcurr0 * (*pk++)) + gcurr0;
  92              	 .loc 1 411 0
  93 005e BB6B     	 ldr r3,[r7,#56]
  94 0060 1A1D     	 adds r2,r3,#4
  95 0062 BA63     	 str r2,[r7,#56]
  96 0064 93ED007A 	 flds s14,[r3]
  97 0068 D7ED0B7A 	 flds s15,[r7,#44]
  98 006c 27EE277A 	 fmuls s14,s14,s15
  99 0070 D7ED067A 	 flds s15,[r7,#24]
 100 0074 77EE277A 	 fadds s15,s14,s15
 101 0078 C7ED0A7A 	 fsts s15,[r7,#40]
 412:../Dave/Generated/CMSIS_DSP/Source/FilteringFunctions/arm_fir_lattice_f32.c **** 
 413:../Dave/Generated/CMSIS_DSP/Source/FilteringFunctions/arm_fir_lattice_f32.c ****     /* save g1(n) in state buffer */
 414:../Dave/Generated/CMSIS_DSP/Source/FilteringFunctions/arm_fir_lattice_f32.c ****     *px++ = fcurr0;
 102              	 .loc 1 414 0
 103 007c FB6B     	 ldr r3,[r7,#60]
 104 007e 1A1D     	 adds r2,r3,#4
 105 0080 FA63     	 str r2,[r7,#60]
 106 0082 FA6A     	 ldr r2,[r7,#44]
 107 0084 1A60     	 str r2,[r3]
 415:../Dave/Generated/CMSIS_DSP/Source/FilteringFunctions/arm_fir_lattice_f32.c **** 
 416:../Dave/Generated/CMSIS_DSP/Source/FilteringFunctions/arm_fir_lattice_f32.c ****     /* f1(n) is saved in fcurr0 for next stage processing */
 417:../Dave/Generated/CMSIS_DSP/Source/FilteringFunctions/arm_fir_lattice_f32.c ****     fcurr0 = fnext0;
 108              	 .loc 1 417 0
 109 0086 7B69     	 ldr r3,[r7,#20]
 110 0088 FB62     	 str r3,[r7,#44]
 418:../Dave/Generated/CMSIS_DSP/Source/FilteringFunctions/arm_fir_lattice_f32.c **** 
 419:../Dave/Generated/CMSIS_DSP/Source/FilteringFunctions/arm_fir_lattice_f32.c ****     stageCnt = (numStages - 1U);
 111              	 .loc 1 419 0
 112 008a FB69     	 ldr r3,[r7,#28]
 113 008c 013B     	 subs r3,r3,#1
 114 008e 3B63     	 str r3,[r7,#48]
 420:../Dave/Generated/CMSIS_DSP/Source/FilteringFunctions/arm_fir_lattice_f32.c **** 
 421:../Dave/Generated/CMSIS_DSP/Source/FilteringFunctions/arm_fir_lattice_f32.c ****     /* stage loop */
 422:../Dave/Generated/CMSIS_DSP/Source/FilteringFunctions/arm_fir_lattice_f32.c ****     while (stageCnt > 0U)
 115              	 .loc 1 422 0
 116 0090 28E0     	 b .L3
 117              	.L4:
 423:../Dave/Generated/CMSIS_DSP/Source/FilteringFunctions/arm_fir_lattice_f32.c ****     {
 424:../Dave/Generated/CMSIS_DSP/Source/FilteringFunctions/arm_fir_lattice_f32.c ****       /* read g2(n) from state buffer */
 425:../Dave/Generated/CMSIS_DSP/Source/FilteringFunctions/arm_fir_lattice_f32.c ****       gcurr0 = *px;
 118              	 .loc 1 425 0
 119 0092 FB6B     	 ldr r3,[r7,#60]
 120 0094 1B68     	 ldr r3,[r3]
 121 0096 BB61     	 str r3,[r7,#24]
 426:../Dave/Generated/CMSIS_DSP/Source/FilteringFunctions/arm_fir_lattice_f32.c **** 
 427:../Dave/Generated/CMSIS_DSP/Source/FilteringFunctions/arm_fir_lattice_f32.c ****       /* save g1(n) in state buffer */
 428:../Dave/Generated/CMSIS_DSP/Source/FilteringFunctions/arm_fir_lattice_f32.c ****       *px++ = gnext0;
 122              	 .loc 1 428 0
 123 0098 FB6B     	 ldr r3,[r7,#60]
 124 009a 1A1D     	 adds r2,r3,#4
 125 009c FA63     	 str r2,[r7,#60]
 126 009e BA6A     	 ldr r2,[r7,#40]
 127 00a0 1A60     	 str r2,[r3]
 429:../Dave/Generated/CMSIS_DSP/Source/FilteringFunctions/arm_fir_lattice_f32.c **** 
 430:../Dave/Generated/CMSIS_DSP/Source/FilteringFunctions/arm_fir_lattice_f32.c ****       /* Sample processing for K2, K3.... */
 431:../Dave/Generated/CMSIS_DSP/Source/FilteringFunctions/arm_fir_lattice_f32.c ****       /* f2(n) = f1(n) +  K2 * g1(n-1) */
 432:../Dave/Generated/CMSIS_DSP/Source/FilteringFunctions/arm_fir_lattice_f32.c ****       fnext0 = (gcurr0 * (*pk)) + fcurr0;
 128              	 .loc 1 432 0
 129 00a2 BB6B     	 ldr r3,[r7,#56]
 130 00a4 93ED007A 	 flds s14,[r3]
 131 00a8 D7ED067A 	 flds s15,[r7,#24]
 132 00ac 27EE277A 	 fmuls s14,s14,s15
 133 00b0 D7ED0B7A 	 flds s15,[r7,#44]
 134 00b4 77EE277A 	 fadds s15,s14,s15
 135 00b8 C7ED057A 	 fsts s15,[r7,#20]
 433:../Dave/Generated/CMSIS_DSP/Source/FilteringFunctions/arm_fir_lattice_f32.c **** 
 434:../Dave/Generated/CMSIS_DSP/Source/FilteringFunctions/arm_fir_lattice_f32.c ****       /* g2(n) = f1(n) * K2  +  g1(n-1) */
 435:../Dave/Generated/CMSIS_DSP/Source/FilteringFunctions/arm_fir_lattice_f32.c ****       gnext0 = (fcurr0 * (*pk++)) + gcurr0;
 136              	 .loc 1 435 0
 137 00bc BB6B     	 ldr r3,[r7,#56]
 138 00be 1A1D     	 adds r2,r3,#4
 139 00c0 BA63     	 str r2,[r7,#56]
 140 00c2 93ED007A 	 flds s14,[r3]
 141 00c6 D7ED0B7A 	 flds s15,[r7,#44]
 142 00ca 27EE277A 	 fmuls s14,s14,s15
 143 00ce D7ED067A 	 flds s15,[r7,#24]
 144 00d2 77EE277A 	 fadds s15,s14,s15
 145 00d6 C7ED0A7A 	 fsts s15,[r7,#40]
 436:../Dave/Generated/CMSIS_DSP/Source/FilteringFunctions/arm_fir_lattice_f32.c **** 
 437:../Dave/Generated/CMSIS_DSP/Source/FilteringFunctions/arm_fir_lattice_f32.c ****       /* f1(n) is saved in fcurr0 for next stage processing */
 438:../Dave/Generated/CMSIS_DSP/Source/FilteringFunctions/arm_fir_lattice_f32.c ****       fcurr0 = fnext0;
 146              	 .loc 1 438 0
 147 00da 7B69     	 ldr r3,[r7,#20]
 148 00dc FB62     	 str r3,[r7,#44]
 439:../Dave/Generated/CMSIS_DSP/Source/FilteringFunctions/arm_fir_lattice_f32.c **** 
 440:../Dave/Generated/CMSIS_DSP/Source/FilteringFunctions/arm_fir_lattice_f32.c ****       stageCnt--;
 149              	 .loc 1 440 0
 150 00de 3B6B     	 ldr r3,[r7,#48]
 151 00e0 013B     	 subs r3,r3,#1
 152 00e2 3B63     	 str r3,[r7,#48]
 153              	.L3:
 422:../Dave/Generated/CMSIS_DSP/Source/FilteringFunctions/arm_fir_lattice_f32.c ****     {
 154              	 .loc 1 422 0
 155 00e4 3B6B     	 ldr r3,[r7,#48]
 156 00e6 002B     	 cmp r3,#0
 157 00e8 D3D1     	 bne .L4
 441:../Dave/Generated/CMSIS_DSP/Source/FilteringFunctions/arm_fir_lattice_f32.c ****     }
 442:../Dave/Generated/CMSIS_DSP/Source/FilteringFunctions/arm_fir_lattice_f32.c **** 
 443:../Dave/Generated/CMSIS_DSP/Source/FilteringFunctions/arm_fir_lattice_f32.c ****     /* y(n) = fN(n) */
 444:../Dave/Generated/CMSIS_DSP/Source/FilteringFunctions/arm_fir_lattice_f32.c ****     *pDst++ = fcurr0;
 158              	 .loc 1 444 0
 159 00ea 7B68     	 ldr r3,[r7,#4]
 160 00ec 1A1D     	 adds r2,r3,#4
 161 00ee 7A60     	 str r2,[r7,#4]
 162 00f0 FA6A     	 ldr r2,[r7,#44]
 163 00f2 1A60     	 str r2,[r3]
 445:../Dave/Generated/CMSIS_DSP/Source/FilteringFunctions/arm_fir_lattice_f32.c **** 
 446:../Dave/Generated/CMSIS_DSP/Source/FilteringFunctions/arm_fir_lattice_f32.c ****     blkCnt--;
 164              	 .loc 1 446 0
 165 00f4 7B6B     	 ldr r3,[r7,#52]
 166 00f6 013B     	 subs r3,r3,#1
 167 00f8 7B63     	 str r3,[r7,#52]
 168              	.L2:
 392:../Dave/Generated/CMSIS_DSP/Source/FilteringFunctions/arm_fir_lattice_f32.c ****   {
 169              	 .loc 1 392 0
 170 00fa 7B6B     	 ldr r3,[r7,#52]
 171 00fc 002B     	 cmp r3,#0
 172 00fe 95D1     	 bne .L5
 447:../Dave/Generated/CMSIS_DSP/Source/FilteringFunctions/arm_fir_lattice_f32.c ****   }
 448:../Dave/Generated/CMSIS_DSP/Source/FilteringFunctions/arm_fir_lattice_f32.c **** 
 449:../Dave/Generated/CMSIS_DSP/Source/FilteringFunctions/arm_fir_lattice_f32.c **** }
 173              	 .loc 1 449 0
 174 0100 4437     	 adds r7,r7,#68
 175              	.LCFI3:
 176              	 .cfi_def_cfa_offset 4
 177 0102 BD46     	 mov sp,r7
 178              	.LCFI4:
 179              	 .cfi_def_cfa_register 13
 180              	 
 181 0104 5DF8047B 	 ldr r7,[sp],#4
 182              	.LCFI5:
 183              	 .cfi_restore 7
 184              	 .cfi_def_cfa_offset 0
 185 0108 7047     	 bx lr
 186              	 .cfi_endproc
 187              	.LFE149:
 189 010a 00BF     	 .text
 190              	.Letext0:
 191              	 .file 2 "c:\\infineon\\tools\\dave ide\\4.5.0.202105191637\\eclipse\\arm-gcc-49\\arm-none-eabi\\include\\machine\\_default_types.h"
 192              	 .file 3 "c:\\infineon\\tools\\dave ide\\4.5.0.202105191637\\eclipse\\arm-gcc-49\\arm-none-eabi\\include\\stdint.h"
 193              	 .file 4 "C:/Users/Rui Mendes/Desktop/DAVE/_Naive/_ForTesting/Dave/Generated/CMSIS_DSP/Include/arm_math.h"
 194              	 .file 5 "C:/Users/Rui Mendes/Desktop/DAVE/_Naive/_ForTesting/Libraries/CMSIS/Include/cmsis_gcc.h"