   1              	 .syntax unified
   2              	 .cpu cortex-m4
   3              	 .eabi_attribute 27,3
   4              	 .fpu fpv4-sp-d16
   5              	 .eabi_attribute 20,1
   6              	 .eabi_attribute 21,1
   7              	 .eabi_attribute 23,3
   8              	 .eabi_attribute 24,1
   9              	 .eabi_attribute 25,1
  10              	 .eabi_attribute 26,1
  11              	 .eabi_attribute 30,6
  12              	 .eabi_attribute 34,1
  13              	 .eabi_attribute 18,4
  14              	 .thumb
  15              	 .file "arm_fir_lattice_q15.c"
  16              	 .text
  17              	.Ltext0:
  18              	 .cfi_sections .debug_frame
  19              	 .section .text.arm_fir_lattice_q15,"ax",%progbits
  20              	 .align 2
  21              	 .global arm_fir_lattice_q15
  22              	 .thumb
  23              	 .thumb_func
  25              	arm_fir_lattice_q15:
  26              	.LFB149:
  27              	 .file 1 "../Dave/Generated/CMSIS_DSP/Source/FilteringFunctions/arm_fir_lattice_q15.c"
   1:../Dave/Generated/CMSIS_DSP/Source/FilteringFunctions/arm_fir_lattice_q15.c **** /* ----------------------------------------------------------------------
   2:../Dave/Generated/CMSIS_DSP/Source/FilteringFunctions/arm_fir_lattice_q15.c ****  * Project:      CMSIS DSP Library
   3:../Dave/Generated/CMSIS_DSP/Source/FilteringFunctions/arm_fir_lattice_q15.c ****  * Title:        arm_fir_lattice_q15.c
   4:../Dave/Generated/CMSIS_DSP/Source/FilteringFunctions/arm_fir_lattice_q15.c ****  * Description:  Q15 FIR lattice filter processing function
   5:../Dave/Generated/CMSIS_DSP/Source/FilteringFunctions/arm_fir_lattice_q15.c ****  *
   6:../Dave/Generated/CMSIS_DSP/Source/FilteringFunctions/arm_fir_lattice_q15.c ****  * $Date:        18. March 2019
   7:../Dave/Generated/CMSIS_DSP/Source/FilteringFunctions/arm_fir_lattice_q15.c ****  * $Revision:    V1.6.0
   8:../Dave/Generated/CMSIS_DSP/Source/FilteringFunctions/arm_fir_lattice_q15.c ****  *
   9:../Dave/Generated/CMSIS_DSP/Source/FilteringFunctions/arm_fir_lattice_q15.c ****  * Target Processor: Cortex-M cores
  10:../Dave/Generated/CMSIS_DSP/Source/FilteringFunctions/arm_fir_lattice_q15.c ****  * -------------------------------------------------------------------- */
  11:../Dave/Generated/CMSIS_DSP/Source/FilteringFunctions/arm_fir_lattice_q15.c **** /*
  12:../Dave/Generated/CMSIS_DSP/Source/FilteringFunctions/arm_fir_lattice_q15.c ****  * Copyright (C) 2010-2019 ARM Limited or its affiliates. All rights reserved.
  13:../Dave/Generated/CMSIS_DSP/Source/FilteringFunctions/arm_fir_lattice_q15.c ****  *
  14:../Dave/Generated/CMSIS_DSP/Source/FilteringFunctions/arm_fir_lattice_q15.c ****  * SPDX-License-Identifier: Apache-2.0
  15:../Dave/Generated/CMSIS_DSP/Source/FilteringFunctions/arm_fir_lattice_q15.c ****  *
  16:../Dave/Generated/CMSIS_DSP/Source/FilteringFunctions/arm_fir_lattice_q15.c ****  * Licensed under the Apache License, Version 2.0 (the License); you may
  17:../Dave/Generated/CMSIS_DSP/Source/FilteringFunctions/arm_fir_lattice_q15.c ****  * not use this file except in compliance with the License.
  18:../Dave/Generated/CMSIS_DSP/Source/FilteringFunctions/arm_fir_lattice_q15.c ****  * You may obtain a copy of the License at
  19:../Dave/Generated/CMSIS_DSP/Source/FilteringFunctions/arm_fir_lattice_q15.c ****  *
  20:../Dave/Generated/CMSIS_DSP/Source/FilteringFunctions/arm_fir_lattice_q15.c ****  * www.apache.org/licenses/LICENSE-2.0
  21:../Dave/Generated/CMSIS_DSP/Source/FilteringFunctions/arm_fir_lattice_q15.c ****  *
  22:../Dave/Generated/CMSIS_DSP/Source/FilteringFunctions/arm_fir_lattice_q15.c ****  * Unless required by applicable law or agreed to in writing, software
  23:../Dave/Generated/CMSIS_DSP/Source/FilteringFunctions/arm_fir_lattice_q15.c ****  * distributed under the License is distributed on an AS IS BASIS, WITHOUT
  24:../Dave/Generated/CMSIS_DSP/Source/FilteringFunctions/arm_fir_lattice_q15.c ****  * WARRANTIES OR CONDITIONS OF ANY KIND, either express or implied.
  25:../Dave/Generated/CMSIS_DSP/Source/FilteringFunctions/arm_fir_lattice_q15.c ****  * See the License for the specific language governing permissions and
  26:../Dave/Generated/CMSIS_DSP/Source/FilteringFunctions/arm_fir_lattice_q15.c ****  * limitations under the License.
  27:../Dave/Generated/CMSIS_DSP/Source/FilteringFunctions/arm_fir_lattice_q15.c ****  */
  28:../Dave/Generated/CMSIS_DSP/Source/FilteringFunctions/arm_fir_lattice_q15.c **** 
  29:../Dave/Generated/CMSIS_DSP/Source/FilteringFunctions/arm_fir_lattice_q15.c **** #include "CMSIS_DSP/cmsis_dsp.h"
  30:../Dave/Generated/CMSIS_DSP/Source/FilteringFunctions/arm_fir_lattice_q15.c **** 
  31:../Dave/Generated/CMSIS_DSP/Source/FilteringFunctions/arm_fir_lattice_q15.c **** /**
  32:../Dave/Generated/CMSIS_DSP/Source/FilteringFunctions/arm_fir_lattice_q15.c ****   @ingroup groupFilters
  33:../Dave/Generated/CMSIS_DSP/Source/FilteringFunctions/arm_fir_lattice_q15.c ****  */
  34:../Dave/Generated/CMSIS_DSP/Source/FilteringFunctions/arm_fir_lattice_q15.c **** 
  35:../Dave/Generated/CMSIS_DSP/Source/FilteringFunctions/arm_fir_lattice_q15.c **** /**
  36:../Dave/Generated/CMSIS_DSP/Source/FilteringFunctions/arm_fir_lattice_q15.c ****   @addtogroup FIR_Lattice
  37:../Dave/Generated/CMSIS_DSP/Source/FilteringFunctions/arm_fir_lattice_q15.c ****   @{
  38:../Dave/Generated/CMSIS_DSP/Source/FilteringFunctions/arm_fir_lattice_q15.c ****  */
  39:../Dave/Generated/CMSIS_DSP/Source/FilteringFunctions/arm_fir_lattice_q15.c **** 
  40:../Dave/Generated/CMSIS_DSP/Source/FilteringFunctions/arm_fir_lattice_q15.c **** /**
  41:../Dave/Generated/CMSIS_DSP/Source/FilteringFunctions/arm_fir_lattice_q15.c ****   @brief         Processing function for Q15 FIR lattice filter.
  42:../Dave/Generated/CMSIS_DSP/Source/FilteringFunctions/arm_fir_lattice_q15.c ****   @param[in]     S          points to an instance of the Q15 FIR lattice structure
  43:../Dave/Generated/CMSIS_DSP/Source/FilteringFunctions/arm_fir_lattice_q15.c ****   @param[in]     pSrc       points to the block of input data
  44:../Dave/Generated/CMSIS_DSP/Source/FilteringFunctions/arm_fir_lattice_q15.c ****   @param[out]    pDst       points to the block of output data
  45:../Dave/Generated/CMSIS_DSP/Source/FilteringFunctions/arm_fir_lattice_q15.c ****   @param[in]     blockSize  number of samples to process
  46:../Dave/Generated/CMSIS_DSP/Source/FilteringFunctions/arm_fir_lattice_q15.c ****   @return        none
  47:../Dave/Generated/CMSIS_DSP/Source/FilteringFunctions/arm_fir_lattice_q15.c ****  */
  48:../Dave/Generated/CMSIS_DSP/Source/FilteringFunctions/arm_fir_lattice_q15.c **** 
  49:../Dave/Generated/CMSIS_DSP/Source/FilteringFunctions/arm_fir_lattice_q15.c **** void arm_fir_lattice_q15(
  50:../Dave/Generated/CMSIS_DSP/Source/FilteringFunctions/arm_fir_lattice_q15.c ****   const arm_fir_lattice_instance_q15 * S,
  51:../Dave/Generated/CMSIS_DSP/Source/FilteringFunctions/arm_fir_lattice_q15.c ****   const q15_t * pSrc,
  52:../Dave/Generated/CMSIS_DSP/Source/FilteringFunctions/arm_fir_lattice_q15.c ****         q15_t * pDst,
  53:../Dave/Generated/CMSIS_DSP/Source/FilteringFunctions/arm_fir_lattice_q15.c ****         uint32_t blockSize)
  54:../Dave/Generated/CMSIS_DSP/Source/FilteringFunctions/arm_fir_lattice_q15.c **** {
  28              	 .loc 1 54 0
  29              	 .cfi_startproc
  30              	 
  31              	 
  32              	 
  33 0000 80B4     	 push {r7}
  34              	.LCFI0:
  35              	 .cfi_def_cfa_offset 4
  36              	 .cfi_offset 7,-4
  37 0002 9BB0     	 sub sp,sp,#108
  38              	.LCFI1:
  39              	 .cfi_def_cfa_offset 112
  40 0004 00AF     	 add r7,sp,#0
  41              	.LCFI2:
  42              	 .cfi_def_cfa_register 7
  43 0006 F860     	 str r0,[r7,#12]
  44 0008 B960     	 str r1,[r7,#8]
  45 000a 7A60     	 str r2,[r7,#4]
  46 000c 3B60     	 str r3,[r7]
  55:../Dave/Generated/CMSIS_DSP/Source/FilteringFunctions/arm_fir_lattice_q15.c ****         q15_t *pState = S->pState;                     /* State pointer */
  47              	 .loc 1 55 0
  48 000e FB68     	 ldr r3,[r7,#12]
  49 0010 5B68     	 ldr r3,[r3,#4]
  50 0012 FB64     	 str r3,[r7,#76]
  56:../Dave/Generated/CMSIS_DSP/Source/FilteringFunctions/arm_fir_lattice_q15.c ****   const q15_t *pCoeffs = S->pCoeffs;                   /* Coefficient pointer */
  51              	 .loc 1 56 0
  52 0014 FB68     	 ldr r3,[r7,#12]
  53 0016 9B68     	 ldr r3,[r3,#8]
  54 0018 BB64     	 str r3,[r7,#72]
  57:../Dave/Generated/CMSIS_DSP/Source/FilteringFunctions/arm_fir_lattice_q15.c ****         q15_t *px;                                     /* Temporary state pointer */
  58:../Dave/Generated/CMSIS_DSP/Source/FilteringFunctions/arm_fir_lattice_q15.c ****   const q15_t *pk;                                     /* Temporary coefficient pointer */
  59:../Dave/Generated/CMSIS_DSP/Source/FilteringFunctions/arm_fir_lattice_q15.c ****         uint32_t numStages = S->numStages;             /* Number of stages in the filter */
  55              	 .loc 1 59 0
  56 001a FB68     	 ldr r3,[r7,#12]
  57 001c 1B88     	 ldrh r3,[r3]
  58 001e 7B64     	 str r3,[r7,#68]
  60:../Dave/Generated/CMSIS_DSP/Source/FilteringFunctions/arm_fir_lattice_q15.c ****         uint32_t blkCnt, stageCnt;                     /* Loop counters */
  61:../Dave/Generated/CMSIS_DSP/Source/FilteringFunctions/arm_fir_lattice_q15.c ****         q31_t fcurr0, fnext0, gnext0, gcurr0;          /* Temporary variables */
  62:../Dave/Generated/CMSIS_DSP/Source/FilteringFunctions/arm_fir_lattice_q15.c **** 
  63:../Dave/Generated/CMSIS_DSP/Source/FilteringFunctions/arm_fir_lattice_q15.c **** #if (1)
  64:../Dave/Generated/CMSIS_DSP/Source/FilteringFunctions/arm_fir_lattice_q15.c **** //#if !defined(ARM_MATH_CM0_FAMILY)
  65:../Dave/Generated/CMSIS_DSP/Source/FilteringFunctions/arm_fir_lattice_q15.c **** 
  66:../Dave/Generated/CMSIS_DSP/Source/FilteringFunctions/arm_fir_lattice_q15.c **** #if defined (ARM_MATH_LOOPUNROLL)
  67:../Dave/Generated/CMSIS_DSP/Source/FilteringFunctions/arm_fir_lattice_q15.c ****   q31_t fcurr1, fnext1, gnext1;                  /* Temporary variables for second sample in loop u
  68:../Dave/Generated/CMSIS_DSP/Source/FilteringFunctions/arm_fir_lattice_q15.c ****   q31_t fcurr2, fnext2, gnext2;                  /* Temporary variables for third sample in loop un
  69:../Dave/Generated/CMSIS_DSP/Source/FilteringFunctions/arm_fir_lattice_q15.c ****   q31_t fcurr3, fnext3, gnext3;                  /* Temporary variables for fourth sample in loop u
  70:../Dave/Generated/CMSIS_DSP/Source/FilteringFunctions/arm_fir_lattice_q15.c **** #endif
  71:../Dave/Generated/CMSIS_DSP/Source/FilteringFunctions/arm_fir_lattice_q15.c **** 
  72:../Dave/Generated/CMSIS_DSP/Source/FilteringFunctions/arm_fir_lattice_q15.c ****   gcurr0 = 0;
  59              	 .loc 1 72 0
  60 0020 0023     	 movs r3,#0
  61 0022 3B64     	 str r3,[r7,#64]
  73:../Dave/Generated/CMSIS_DSP/Source/FilteringFunctions/arm_fir_lattice_q15.c **** 
  74:../Dave/Generated/CMSIS_DSP/Source/FilteringFunctions/arm_fir_lattice_q15.c **** #if defined (ARM_MATH_LOOPUNROLL)
  75:../Dave/Generated/CMSIS_DSP/Source/FilteringFunctions/arm_fir_lattice_q15.c **** 
  76:../Dave/Generated/CMSIS_DSP/Source/FilteringFunctions/arm_fir_lattice_q15.c ****   /* Loop unrolling: Compute 4 outputs at a time */
  77:../Dave/Generated/CMSIS_DSP/Source/FilteringFunctions/arm_fir_lattice_q15.c ****   blkCnt = blockSize >> 2U;
  78:../Dave/Generated/CMSIS_DSP/Source/FilteringFunctions/arm_fir_lattice_q15.c **** 
  79:../Dave/Generated/CMSIS_DSP/Source/FilteringFunctions/arm_fir_lattice_q15.c ****   while (blkCnt > 0U)
  80:../Dave/Generated/CMSIS_DSP/Source/FilteringFunctions/arm_fir_lattice_q15.c ****   {
  81:../Dave/Generated/CMSIS_DSP/Source/FilteringFunctions/arm_fir_lattice_q15.c ****     /* Read two samples from input buffer */
  82:../Dave/Generated/CMSIS_DSP/Source/FilteringFunctions/arm_fir_lattice_q15.c ****     /* f0(n) = x(n) */
  83:../Dave/Generated/CMSIS_DSP/Source/FilteringFunctions/arm_fir_lattice_q15.c ****     fcurr0 = *pSrc++;
  84:../Dave/Generated/CMSIS_DSP/Source/FilteringFunctions/arm_fir_lattice_q15.c ****     fcurr1 = *pSrc++;
  85:../Dave/Generated/CMSIS_DSP/Source/FilteringFunctions/arm_fir_lattice_q15.c **** 
  86:../Dave/Generated/CMSIS_DSP/Source/FilteringFunctions/arm_fir_lattice_q15.c ****     /* Initialize state pointer */
  87:../Dave/Generated/CMSIS_DSP/Source/FilteringFunctions/arm_fir_lattice_q15.c ****     px = pState;
  88:../Dave/Generated/CMSIS_DSP/Source/FilteringFunctions/arm_fir_lattice_q15.c **** 
  89:../Dave/Generated/CMSIS_DSP/Source/FilteringFunctions/arm_fir_lattice_q15.c ****     /* Initialize coeff pointer */
  90:../Dave/Generated/CMSIS_DSP/Source/FilteringFunctions/arm_fir_lattice_q15.c ****     pk = pCoeffs;
  91:../Dave/Generated/CMSIS_DSP/Source/FilteringFunctions/arm_fir_lattice_q15.c **** 
  92:../Dave/Generated/CMSIS_DSP/Source/FilteringFunctions/arm_fir_lattice_q15.c ****     /* Read g0(n-1) from state buffer */
  93:../Dave/Generated/CMSIS_DSP/Source/FilteringFunctions/arm_fir_lattice_q15.c ****     gcurr0 = *px;
  94:../Dave/Generated/CMSIS_DSP/Source/FilteringFunctions/arm_fir_lattice_q15.c **** 
  95:../Dave/Generated/CMSIS_DSP/Source/FilteringFunctions/arm_fir_lattice_q15.c ****     /* Process first sample for first tap */
  96:../Dave/Generated/CMSIS_DSP/Source/FilteringFunctions/arm_fir_lattice_q15.c ****     /* f1(n) = f0(n) +  K1 * g0(n-1) */
  97:../Dave/Generated/CMSIS_DSP/Source/FilteringFunctions/arm_fir_lattice_q15.c ****     fnext0 = (q31_t) ((gcurr0 * (*pk)) >> 15U) + fcurr0;
  98:../Dave/Generated/CMSIS_DSP/Source/FilteringFunctions/arm_fir_lattice_q15.c ****     fnext0 = __SSAT(fnext0, 16);
  99:../Dave/Generated/CMSIS_DSP/Source/FilteringFunctions/arm_fir_lattice_q15.c **** 
 100:../Dave/Generated/CMSIS_DSP/Source/FilteringFunctions/arm_fir_lattice_q15.c ****     /* g1(n) = f0(n) * K1  +  g0(n-1) */
 101:../Dave/Generated/CMSIS_DSP/Source/FilteringFunctions/arm_fir_lattice_q15.c ****     gnext0 = (q31_t) ((fcurr0 * (*pk)) >> 15U) + gcurr0;
 102:../Dave/Generated/CMSIS_DSP/Source/FilteringFunctions/arm_fir_lattice_q15.c ****     gnext0 = __SSAT(gnext0, 16);
 103:../Dave/Generated/CMSIS_DSP/Source/FilteringFunctions/arm_fir_lattice_q15.c **** 
 104:../Dave/Generated/CMSIS_DSP/Source/FilteringFunctions/arm_fir_lattice_q15.c ****     /* Process second sample for first tap */
 105:../Dave/Generated/CMSIS_DSP/Source/FilteringFunctions/arm_fir_lattice_q15.c ****     fnext1 = (q31_t) ((fcurr0 * (*pk)) >> 15U) + fcurr1;
 106:../Dave/Generated/CMSIS_DSP/Source/FilteringFunctions/arm_fir_lattice_q15.c ****     fnext1 = __SSAT(fnext1, 16);
 107:../Dave/Generated/CMSIS_DSP/Source/FilteringFunctions/arm_fir_lattice_q15.c ****     gnext1 = (q31_t) ((fcurr1 * (*pk)) >> 15U) + fcurr0;
 108:../Dave/Generated/CMSIS_DSP/Source/FilteringFunctions/arm_fir_lattice_q15.c ****     gnext1 = __SSAT(gnext1, 16);
 109:../Dave/Generated/CMSIS_DSP/Source/FilteringFunctions/arm_fir_lattice_q15.c **** 
 110:../Dave/Generated/CMSIS_DSP/Source/FilteringFunctions/arm_fir_lattice_q15.c ****     /* Read next two samples from input buffer */
 111:../Dave/Generated/CMSIS_DSP/Source/FilteringFunctions/arm_fir_lattice_q15.c ****     /* f0(n+2) = x(n+2) */
 112:../Dave/Generated/CMSIS_DSP/Source/FilteringFunctions/arm_fir_lattice_q15.c ****     fcurr2 = *pSrc++;
 113:../Dave/Generated/CMSIS_DSP/Source/FilteringFunctions/arm_fir_lattice_q15.c ****     fcurr3 = *pSrc++;
 114:../Dave/Generated/CMSIS_DSP/Source/FilteringFunctions/arm_fir_lattice_q15.c **** 
 115:../Dave/Generated/CMSIS_DSP/Source/FilteringFunctions/arm_fir_lattice_q15.c ****     /* Process third sample for first tap */
 116:../Dave/Generated/CMSIS_DSP/Source/FilteringFunctions/arm_fir_lattice_q15.c ****     fnext2 = (q31_t) ((fcurr1 * (*pk)) >> 15U) + fcurr2;
 117:../Dave/Generated/CMSIS_DSP/Source/FilteringFunctions/arm_fir_lattice_q15.c ****     fnext2 = __SSAT(fnext2, 16);
 118:../Dave/Generated/CMSIS_DSP/Source/FilteringFunctions/arm_fir_lattice_q15.c ****     gnext2 = (q31_t) ((fcurr2 * (*pk)) >> 15U) + fcurr1;
 119:../Dave/Generated/CMSIS_DSP/Source/FilteringFunctions/arm_fir_lattice_q15.c ****     gnext2 = __SSAT(gnext2, 16);
 120:../Dave/Generated/CMSIS_DSP/Source/FilteringFunctions/arm_fir_lattice_q15.c **** 
 121:../Dave/Generated/CMSIS_DSP/Source/FilteringFunctions/arm_fir_lattice_q15.c ****     /* Process fourth sample for first tap */
 122:../Dave/Generated/CMSIS_DSP/Source/FilteringFunctions/arm_fir_lattice_q15.c ****     fnext3 = (q31_t) ((fcurr2 * (*pk  )) >> 15U) + fcurr3;
 123:../Dave/Generated/CMSIS_DSP/Source/FilteringFunctions/arm_fir_lattice_q15.c ****     fnext3 = __SSAT(fnext3, 16);
 124:../Dave/Generated/CMSIS_DSP/Source/FilteringFunctions/arm_fir_lattice_q15.c ****     gnext3 = (q31_t) ((fcurr3 * (*pk++)) >> 15U) + fcurr2;
 125:../Dave/Generated/CMSIS_DSP/Source/FilteringFunctions/arm_fir_lattice_q15.c ****     gnext3 = __SSAT(gnext3, 16);
 126:../Dave/Generated/CMSIS_DSP/Source/FilteringFunctions/arm_fir_lattice_q15.c **** 
 127:../Dave/Generated/CMSIS_DSP/Source/FilteringFunctions/arm_fir_lattice_q15.c ****     /* Copy only last input sample into the state buffer
 128:../Dave/Generated/CMSIS_DSP/Source/FilteringFunctions/arm_fir_lattice_q15.c ****        which will be used for next samples processing */
 129:../Dave/Generated/CMSIS_DSP/Source/FilteringFunctions/arm_fir_lattice_q15.c ****     *px++ = (q15_t) fcurr3;
 130:../Dave/Generated/CMSIS_DSP/Source/FilteringFunctions/arm_fir_lattice_q15.c **** 
 131:../Dave/Generated/CMSIS_DSP/Source/FilteringFunctions/arm_fir_lattice_q15.c ****     /* Update of f values for next coefficient set processing */
 132:../Dave/Generated/CMSIS_DSP/Source/FilteringFunctions/arm_fir_lattice_q15.c ****     fcurr0 = fnext0;
 133:../Dave/Generated/CMSIS_DSP/Source/FilteringFunctions/arm_fir_lattice_q15.c ****     fcurr1 = fnext1;
 134:../Dave/Generated/CMSIS_DSP/Source/FilteringFunctions/arm_fir_lattice_q15.c ****     fcurr2 = fnext2;
 135:../Dave/Generated/CMSIS_DSP/Source/FilteringFunctions/arm_fir_lattice_q15.c ****     fcurr3 = fnext3;
 136:../Dave/Generated/CMSIS_DSP/Source/FilteringFunctions/arm_fir_lattice_q15.c **** 
 137:../Dave/Generated/CMSIS_DSP/Source/FilteringFunctions/arm_fir_lattice_q15.c ****     /* Loop unrolling.  Process 4 taps at a time . */
 138:../Dave/Generated/CMSIS_DSP/Source/FilteringFunctions/arm_fir_lattice_q15.c ****     stageCnt = (numStages - 1U) >> 2U;
 139:../Dave/Generated/CMSIS_DSP/Source/FilteringFunctions/arm_fir_lattice_q15.c **** 
 140:../Dave/Generated/CMSIS_DSP/Source/FilteringFunctions/arm_fir_lattice_q15.c ****     /* Loop over the number of taps.  Unroll by a factor of 4.
 141:../Dave/Generated/CMSIS_DSP/Source/FilteringFunctions/arm_fir_lattice_q15.c ****        Repeat until we've computed numStages-3 coefficients. */
 142:../Dave/Generated/CMSIS_DSP/Source/FilteringFunctions/arm_fir_lattice_q15.c **** 
 143:../Dave/Generated/CMSIS_DSP/Source/FilteringFunctions/arm_fir_lattice_q15.c ****     /* Process 2nd, 3rd, 4th and 5th taps ... here */
 144:../Dave/Generated/CMSIS_DSP/Source/FilteringFunctions/arm_fir_lattice_q15.c ****     while (stageCnt > 0U)
 145:../Dave/Generated/CMSIS_DSP/Source/FilteringFunctions/arm_fir_lattice_q15.c ****     {
 146:../Dave/Generated/CMSIS_DSP/Source/FilteringFunctions/arm_fir_lattice_q15.c ****       /* Read g1(n-1), g3(n-1) .... from state */
 147:../Dave/Generated/CMSIS_DSP/Source/FilteringFunctions/arm_fir_lattice_q15.c ****       gcurr0 = *px;
 148:../Dave/Generated/CMSIS_DSP/Source/FilteringFunctions/arm_fir_lattice_q15.c **** 
 149:../Dave/Generated/CMSIS_DSP/Source/FilteringFunctions/arm_fir_lattice_q15.c ****       /* save g1(n) in state buffer */
 150:../Dave/Generated/CMSIS_DSP/Source/FilteringFunctions/arm_fir_lattice_q15.c ****       *px++ = (q15_t) gnext3;
 151:../Dave/Generated/CMSIS_DSP/Source/FilteringFunctions/arm_fir_lattice_q15.c **** 
 152:../Dave/Generated/CMSIS_DSP/Source/FilteringFunctions/arm_fir_lattice_q15.c ****       /* Process first sample for 2nd, 6th .. tap */
 153:../Dave/Generated/CMSIS_DSP/Source/FilteringFunctions/arm_fir_lattice_q15.c ****       /* Sample processing for K2, K6.... */
 154:../Dave/Generated/CMSIS_DSP/Source/FilteringFunctions/arm_fir_lattice_q15.c ****       /* f1(n) = f0(n) +  K1 * g0(n-1) */
 155:../Dave/Generated/CMSIS_DSP/Source/FilteringFunctions/arm_fir_lattice_q15.c ****       fnext0 = (q31_t) ((gcurr0 * (*pk)) >> 15U) + fcurr0;
 156:../Dave/Generated/CMSIS_DSP/Source/FilteringFunctions/arm_fir_lattice_q15.c ****       fnext0 = __SSAT(fnext0, 16);
 157:../Dave/Generated/CMSIS_DSP/Source/FilteringFunctions/arm_fir_lattice_q15.c **** 
 158:../Dave/Generated/CMSIS_DSP/Source/FilteringFunctions/arm_fir_lattice_q15.c ****       /* Process second sample for 2nd, 6th .. tap */
 159:../Dave/Generated/CMSIS_DSP/Source/FilteringFunctions/arm_fir_lattice_q15.c ****       /* for sample 2 processing */
 160:../Dave/Generated/CMSIS_DSP/Source/FilteringFunctions/arm_fir_lattice_q15.c ****       fnext1 = (q31_t) ((gnext0 * (*pk)) >> 15U) + fcurr1;
 161:../Dave/Generated/CMSIS_DSP/Source/FilteringFunctions/arm_fir_lattice_q15.c ****       fnext1 = __SSAT(fnext1, 16);
 162:../Dave/Generated/CMSIS_DSP/Source/FilteringFunctions/arm_fir_lattice_q15.c **** 
 163:../Dave/Generated/CMSIS_DSP/Source/FilteringFunctions/arm_fir_lattice_q15.c ****       /* Process third sample for 2nd, 6th .. tap */
 164:../Dave/Generated/CMSIS_DSP/Source/FilteringFunctions/arm_fir_lattice_q15.c ****       fnext2 = (q31_t) ((gnext1 * (*pk)) >> 15U) + fcurr2;
 165:../Dave/Generated/CMSIS_DSP/Source/FilteringFunctions/arm_fir_lattice_q15.c ****       fnext2 = __SSAT(fnext2, 16);
 166:../Dave/Generated/CMSIS_DSP/Source/FilteringFunctions/arm_fir_lattice_q15.c **** 
 167:../Dave/Generated/CMSIS_DSP/Source/FilteringFunctions/arm_fir_lattice_q15.c ****       /* Process fourth sample for 2nd, 6th .. tap */
 168:../Dave/Generated/CMSIS_DSP/Source/FilteringFunctions/arm_fir_lattice_q15.c ****       fnext3 = (q31_t) ((gnext2 * (*pk)) >> 15U) + fcurr3;
 169:../Dave/Generated/CMSIS_DSP/Source/FilteringFunctions/arm_fir_lattice_q15.c ****       fnext3 = __SSAT(fnext3, 16);
 170:../Dave/Generated/CMSIS_DSP/Source/FilteringFunctions/arm_fir_lattice_q15.c **** 
 171:../Dave/Generated/CMSIS_DSP/Source/FilteringFunctions/arm_fir_lattice_q15.c ****       /* g1(n) = f0(n) * K1  +  g0(n-1) */
 172:../Dave/Generated/CMSIS_DSP/Source/FilteringFunctions/arm_fir_lattice_q15.c ****       /* Calculation of state values for next stage */
 173:../Dave/Generated/CMSIS_DSP/Source/FilteringFunctions/arm_fir_lattice_q15.c ****       gnext3 = (q31_t) ((fcurr3 * (*pk)) >> 15U) + gnext2;
 174:../Dave/Generated/CMSIS_DSP/Source/FilteringFunctions/arm_fir_lattice_q15.c ****       gnext3 = __SSAT(gnext3, 16);
 175:../Dave/Generated/CMSIS_DSP/Source/FilteringFunctions/arm_fir_lattice_q15.c **** 
 176:../Dave/Generated/CMSIS_DSP/Source/FilteringFunctions/arm_fir_lattice_q15.c ****       gnext2 = (q31_t) ((fcurr2 * (*pk)) >> 15U) + gnext1;
 177:../Dave/Generated/CMSIS_DSP/Source/FilteringFunctions/arm_fir_lattice_q15.c ****       gnext2 = __SSAT(gnext2, 16);
 178:../Dave/Generated/CMSIS_DSP/Source/FilteringFunctions/arm_fir_lattice_q15.c **** 
 179:../Dave/Generated/CMSIS_DSP/Source/FilteringFunctions/arm_fir_lattice_q15.c ****       gnext1 = (q31_t) ((fcurr1 * (*pk)) >> 15U) + gnext0;
 180:../Dave/Generated/CMSIS_DSP/Source/FilteringFunctions/arm_fir_lattice_q15.c ****       gnext1 = __SSAT(gnext1, 16);
 181:../Dave/Generated/CMSIS_DSP/Source/FilteringFunctions/arm_fir_lattice_q15.c **** 
 182:../Dave/Generated/CMSIS_DSP/Source/FilteringFunctions/arm_fir_lattice_q15.c ****       gnext0 = (q31_t) ((fcurr0 * (*pk++)) >> 15U) + gcurr0;
 183:../Dave/Generated/CMSIS_DSP/Source/FilteringFunctions/arm_fir_lattice_q15.c ****       gnext0 = __SSAT(gnext0, 16);
 184:../Dave/Generated/CMSIS_DSP/Source/FilteringFunctions/arm_fir_lattice_q15.c **** 
 185:../Dave/Generated/CMSIS_DSP/Source/FilteringFunctions/arm_fir_lattice_q15.c **** 
 186:../Dave/Generated/CMSIS_DSP/Source/FilteringFunctions/arm_fir_lattice_q15.c ****       /* Read g2(n-1), g4(n-1) .... from state */
 187:../Dave/Generated/CMSIS_DSP/Source/FilteringFunctions/arm_fir_lattice_q15.c ****       gcurr0 = *px;
 188:../Dave/Generated/CMSIS_DSP/Source/FilteringFunctions/arm_fir_lattice_q15.c **** 
 189:../Dave/Generated/CMSIS_DSP/Source/FilteringFunctions/arm_fir_lattice_q15.c ****       /* save g1(n) in state buffer */
 190:../Dave/Generated/CMSIS_DSP/Source/FilteringFunctions/arm_fir_lattice_q15.c ****       *px++ = (q15_t) gnext3;
 191:../Dave/Generated/CMSIS_DSP/Source/FilteringFunctions/arm_fir_lattice_q15.c **** 
 192:../Dave/Generated/CMSIS_DSP/Source/FilteringFunctions/arm_fir_lattice_q15.c ****       /* Sample processing for K3, K7.... */
 193:../Dave/Generated/CMSIS_DSP/Source/FilteringFunctions/arm_fir_lattice_q15.c ****       /* Process first sample for 3rd, 7th .. tap */
 194:../Dave/Generated/CMSIS_DSP/Source/FilteringFunctions/arm_fir_lattice_q15.c ****       /* f3(n) = f2(n) +  K3 * g2(n-1) */
 195:../Dave/Generated/CMSIS_DSP/Source/FilteringFunctions/arm_fir_lattice_q15.c ****       fcurr0 = (q31_t) ((gcurr0 * (*pk)) >> 15U) + fnext0;
 196:../Dave/Generated/CMSIS_DSP/Source/FilteringFunctions/arm_fir_lattice_q15.c ****       fcurr0 = __SSAT(fcurr0, 16);
 197:../Dave/Generated/CMSIS_DSP/Source/FilteringFunctions/arm_fir_lattice_q15.c **** 
 198:../Dave/Generated/CMSIS_DSP/Source/FilteringFunctions/arm_fir_lattice_q15.c ****       /* Process second sample for 3rd, 7th .. tap */
 199:../Dave/Generated/CMSIS_DSP/Source/FilteringFunctions/arm_fir_lattice_q15.c ****       fcurr1 = (q31_t) ((gnext0 * (*pk)) >> 15U) + fnext1;
 200:../Dave/Generated/CMSIS_DSP/Source/FilteringFunctions/arm_fir_lattice_q15.c ****       fcurr1 = __SSAT(fcurr1, 16);
 201:../Dave/Generated/CMSIS_DSP/Source/FilteringFunctions/arm_fir_lattice_q15.c **** 
 202:../Dave/Generated/CMSIS_DSP/Source/FilteringFunctions/arm_fir_lattice_q15.c ****       /* Process third sample for 3rd, 7th .. tap */
 203:../Dave/Generated/CMSIS_DSP/Source/FilteringFunctions/arm_fir_lattice_q15.c ****       fcurr2 = (q31_t) ((gnext1 * (*pk)) >> 15U) + fnext2;
 204:../Dave/Generated/CMSIS_DSP/Source/FilteringFunctions/arm_fir_lattice_q15.c ****       fcurr2 = __SSAT(fcurr2, 16);
 205:../Dave/Generated/CMSIS_DSP/Source/FilteringFunctions/arm_fir_lattice_q15.c **** 
 206:../Dave/Generated/CMSIS_DSP/Source/FilteringFunctions/arm_fir_lattice_q15.c ****       /* Process fourth sample for 3rd, 7th .. tap */
 207:../Dave/Generated/CMSIS_DSP/Source/FilteringFunctions/arm_fir_lattice_q15.c ****       fcurr3 = (q31_t) ((gnext2 * (*pk)) >> 15U) + fnext3;
 208:../Dave/Generated/CMSIS_DSP/Source/FilteringFunctions/arm_fir_lattice_q15.c ****       fcurr3 = __SSAT(fcurr3, 16);
 209:../Dave/Generated/CMSIS_DSP/Source/FilteringFunctions/arm_fir_lattice_q15.c **** 
 210:../Dave/Generated/CMSIS_DSP/Source/FilteringFunctions/arm_fir_lattice_q15.c ****       /* Calculation of state values for next stage */
 211:../Dave/Generated/CMSIS_DSP/Source/FilteringFunctions/arm_fir_lattice_q15.c ****       /* g3(n) = f2(n) * K3  +  g2(n-1) */
 212:../Dave/Generated/CMSIS_DSP/Source/FilteringFunctions/arm_fir_lattice_q15.c ****       gnext3 = (q31_t) ((fnext3 * (*pk)) >> 15U) + gnext2;
 213:../Dave/Generated/CMSIS_DSP/Source/FilteringFunctions/arm_fir_lattice_q15.c ****       gnext3 = __SSAT(gnext3, 16);
 214:../Dave/Generated/CMSIS_DSP/Source/FilteringFunctions/arm_fir_lattice_q15.c **** 
 215:../Dave/Generated/CMSIS_DSP/Source/FilteringFunctions/arm_fir_lattice_q15.c ****       gnext2 = (q31_t) ((fnext2 * (*pk)) >> 15U) + gnext1;
 216:../Dave/Generated/CMSIS_DSP/Source/FilteringFunctions/arm_fir_lattice_q15.c ****       gnext2 = __SSAT(gnext2, 16);
 217:../Dave/Generated/CMSIS_DSP/Source/FilteringFunctions/arm_fir_lattice_q15.c **** 
 218:../Dave/Generated/CMSIS_DSP/Source/FilteringFunctions/arm_fir_lattice_q15.c ****       gnext1 = (q31_t) ((fnext1 * (*pk)) >> 15U) + gnext0;
 219:../Dave/Generated/CMSIS_DSP/Source/FilteringFunctions/arm_fir_lattice_q15.c ****       gnext1 = __SSAT(gnext1, 16);
 220:../Dave/Generated/CMSIS_DSP/Source/FilteringFunctions/arm_fir_lattice_q15.c **** 
 221:../Dave/Generated/CMSIS_DSP/Source/FilteringFunctions/arm_fir_lattice_q15.c ****       gnext0 = (q31_t) ((fnext0 * (*pk++)) >> 15U) + gcurr0;
 222:../Dave/Generated/CMSIS_DSP/Source/FilteringFunctions/arm_fir_lattice_q15.c ****       gnext0 = __SSAT(gnext0, 16);
 223:../Dave/Generated/CMSIS_DSP/Source/FilteringFunctions/arm_fir_lattice_q15.c **** 
 224:../Dave/Generated/CMSIS_DSP/Source/FilteringFunctions/arm_fir_lattice_q15.c ****       /* Read g1(n-1), g3(n-1) .... from state */
 225:../Dave/Generated/CMSIS_DSP/Source/FilteringFunctions/arm_fir_lattice_q15.c ****       gcurr0 = *px;
 226:../Dave/Generated/CMSIS_DSP/Source/FilteringFunctions/arm_fir_lattice_q15.c **** 
 227:../Dave/Generated/CMSIS_DSP/Source/FilteringFunctions/arm_fir_lattice_q15.c ****       /* save g1(n) in state buffer */
 228:../Dave/Generated/CMSIS_DSP/Source/FilteringFunctions/arm_fir_lattice_q15.c ****       *px++ = (q15_t) gnext3;
 229:../Dave/Generated/CMSIS_DSP/Source/FilteringFunctions/arm_fir_lattice_q15.c **** 
 230:../Dave/Generated/CMSIS_DSP/Source/FilteringFunctions/arm_fir_lattice_q15.c ****       /* Sample processing for K4, K8.... */
 231:../Dave/Generated/CMSIS_DSP/Source/FilteringFunctions/arm_fir_lattice_q15.c ****       /* Process first sample for 4th, 8th .. tap */
 232:../Dave/Generated/CMSIS_DSP/Source/FilteringFunctions/arm_fir_lattice_q15.c ****       /* f4(n) = f3(n) +  K4 * g3(n-1) */
 233:../Dave/Generated/CMSIS_DSP/Source/FilteringFunctions/arm_fir_lattice_q15.c ****       fnext0 = (q31_t) ((gcurr0 * (*pk)) >> 15U) + fcurr0;
 234:../Dave/Generated/CMSIS_DSP/Source/FilteringFunctions/arm_fir_lattice_q15.c ****       fnext0 = __SSAT(fnext0, 16);
 235:../Dave/Generated/CMSIS_DSP/Source/FilteringFunctions/arm_fir_lattice_q15.c **** 
 236:../Dave/Generated/CMSIS_DSP/Source/FilteringFunctions/arm_fir_lattice_q15.c ****       /* Process second sample for 4th, 8th .. tap */
 237:../Dave/Generated/CMSIS_DSP/Source/FilteringFunctions/arm_fir_lattice_q15.c ****       /* for sample 2 processing */
 238:../Dave/Generated/CMSIS_DSP/Source/FilteringFunctions/arm_fir_lattice_q15.c ****       fnext1 = (q31_t) ((gnext0 * (*pk)) >> 15U) + fcurr1;
 239:../Dave/Generated/CMSIS_DSP/Source/FilteringFunctions/arm_fir_lattice_q15.c ****       fnext1 = __SSAT(fnext1, 16);
 240:../Dave/Generated/CMSIS_DSP/Source/FilteringFunctions/arm_fir_lattice_q15.c **** 
 241:../Dave/Generated/CMSIS_DSP/Source/FilteringFunctions/arm_fir_lattice_q15.c ****       /* Process third sample for 4th, 8th .. tap */
 242:../Dave/Generated/CMSIS_DSP/Source/FilteringFunctions/arm_fir_lattice_q15.c ****       fnext2 = (q31_t) ((gnext1 * (*pk)) >> 15U) + fcurr2;
 243:../Dave/Generated/CMSIS_DSP/Source/FilteringFunctions/arm_fir_lattice_q15.c ****       fnext2 = __SSAT(fnext2, 16);
 244:../Dave/Generated/CMSIS_DSP/Source/FilteringFunctions/arm_fir_lattice_q15.c **** 
 245:../Dave/Generated/CMSIS_DSP/Source/FilteringFunctions/arm_fir_lattice_q15.c ****       /* Process fourth sample for 4th, 8th .. tap */
 246:../Dave/Generated/CMSIS_DSP/Source/FilteringFunctions/arm_fir_lattice_q15.c ****       fnext3 = (q31_t) ((gnext2 * (*pk)) >> 15U) + fcurr3;
 247:../Dave/Generated/CMSIS_DSP/Source/FilteringFunctions/arm_fir_lattice_q15.c ****       fnext3 = __SSAT(fnext3, 16);
 248:../Dave/Generated/CMSIS_DSP/Source/FilteringFunctions/arm_fir_lattice_q15.c **** 
 249:../Dave/Generated/CMSIS_DSP/Source/FilteringFunctions/arm_fir_lattice_q15.c ****       /* g4(n) = f3(n) * K4  +  g3(n-1) */
 250:../Dave/Generated/CMSIS_DSP/Source/FilteringFunctions/arm_fir_lattice_q15.c ****       /* Calculation of state values for next stage */
 251:../Dave/Generated/CMSIS_DSP/Source/FilteringFunctions/arm_fir_lattice_q15.c ****       gnext3 = (q31_t) ((fcurr3 * (*pk)) >> 15U) + gnext2;
 252:../Dave/Generated/CMSIS_DSP/Source/FilteringFunctions/arm_fir_lattice_q15.c ****       gnext3 = __SSAT(gnext3, 16);
 253:../Dave/Generated/CMSIS_DSP/Source/FilteringFunctions/arm_fir_lattice_q15.c **** 
 254:../Dave/Generated/CMSIS_DSP/Source/FilteringFunctions/arm_fir_lattice_q15.c ****       gnext2 = (q31_t) ((fcurr2 * (*pk)) >> 15U) + gnext1;
 255:../Dave/Generated/CMSIS_DSP/Source/FilteringFunctions/arm_fir_lattice_q15.c ****       gnext2 = __SSAT(gnext2, 16);
 256:../Dave/Generated/CMSIS_DSP/Source/FilteringFunctions/arm_fir_lattice_q15.c **** 
 257:../Dave/Generated/CMSIS_DSP/Source/FilteringFunctions/arm_fir_lattice_q15.c ****       gnext1 = (q31_t) ((fcurr1 * (*pk)) >> 15U) + gnext0;
 258:../Dave/Generated/CMSIS_DSP/Source/FilteringFunctions/arm_fir_lattice_q15.c ****       gnext1 = __SSAT(gnext1, 16);
 259:../Dave/Generated/CMSIS_DSP/Source/FilteringFunctions/arm_fir_lattice_q15.c **** 
 260:../Dave/Generated/CMSIS_DSP/Source/FilteringFunctions/arm_fir_lattice_q15.c ****       gnext0 = (q31_t) ((fcurr0 * (*pk++)) >> 15U) + gcurr0;
 261:../Dave/Generated/CMSIS_DSP/Source/FilteringFunctions/arm_fir_lattice_q15.c ****       gnext0 = __SSAT(gnext0, 16);
 262:../Dave/Generated/CMSIS_DSP/Source/FilteringFunctions/arm_fir_lattice_q15.c **** 
 263:../Dave/Generated/CMSIS_DSP/Source/FilteringFunctions/arm_fir_lattice_q15.c ****       /* Read g2(n-1), g4(n-1) .... from state */
 264:../Dave/Generated/CMSIS_DSP/Source/FilteringFunctions/arm_fir_lattice_q15.c ****       gcurr0 = *px;
 265:../Dave/Generated/CMSIS_DSP/Source/FilteringFunctions/arm_fir_lattice_q15.c **** 
 266:../Dave/Generated/CMSIS_DSP/Source/FilteringFunctions/arm_fir_lattice_q15.c ****       /* save g4(n) in state buffer */
 267:../Dave/Generated/CMSIS_DSP/Source/FilteringFunctions/arm_fir_lattice_q15.c ****       *px++ = (q15_t) gnext3;
 268:../Dave/Generated/CMSIS_DSP/Source/FilteringFunctions/arm_fir_lattice_q15.c **** 
 269:../Dave/Generated/CMSIS_DSP/Source/FilteringFunctions/arm_fir_lattice_q15.c ****       /* Sample processing for K5, K9.... */
 270:../Dave/Generated/CMSIS_DSP/Source/FilteringFunctions/arm_fir_lattice_q15.c ****       /* Process first sample for 5th, 9th .. tap */
 271:../Dave/Generated/CMSIS_DSP/Source/FilteringFunctions/arm_fir_lattice_q15.c ****       /* f5(n) = f4(n) +  K5 * g4(n-1) */
 272:../Dave/Generated/CMSIS_DSP/Source/FilteringFunctions/arm_fir_lattice_q15.c ****       fcurr0 = (q31_t) ((gcurr0 * (*pk)) >> 15U) + fnext0;
 273:../Dave/Generated/CMSIS_DSP/Source/FilteringFunctions/arm_fir_lattice_q15.c ****       fcurr0 = __SSAT(fcurr0, 16);
 274:../Dave/Generated/CMSIS_DSP/Source/FilteringFunctions/arm_fir_lattice_q15.c **** 
 275:../Dave/Generated/CMSIS_DSP/Source/FilteringFunctions/arm_fir_lattice_q15.c ****       /* Process second sample for 5th, 9th .. tap */
 276:../Dave/Generated/CMSIS_DSP/Source/FilteringFunctions/arm_fir_lattice_q15.c ****       fcurr1 = (q31_t) ((gnext0 * (*pk)) >> 15U) + fnext1;
 277:../Dave/Generated/CMSIS_DSP/Source/FilteringFunctions/arm_fir_lattice_q15.c ****       fcurr1 = __SSAT(fcurr1, 16);
 278:../Dave/Generated/CMSIS_DSP/Source/FilteringFunctions/arm_fir_lattice_q15.c **** 
 279:../Dave/Generated/CMSIS_DSP/Source/FilteringFunctions/arm_fir_lattice_q15.c ****       /* Process third sample for 5th, 9th .. tap */
 280:../Dave/Generated/CMSIS_DSP/Source/FilteringFunctions/arm_fir_lattice_q15.c ****       fcurr2 = (q31_t) ((gnext1 * (*pk)) >> 15U) + fnext2;
 281:../Dave/Generated/CMSIS_DSP/Source/FilteringFunctions/arm_fir_lattice_q15.c ****       fcurr2 = __SSAT(fcurr2, 16);
 282:../Dave/Generated/CMSIS_DSP/Source/FilteringFunctions/arm_fir_lattice_q15.c **** 
 283:../Dave/Generated/CMSIS_DSP/Source/FilteringFunctions/arm_fir_lattice_q15.c ****       /* Process fourth sample for 5th, 9th .. tap */
 284:../Dave/Generated/CMSIS_DSP/Source/FilteringFunctions/arm_fir_lattice_q15.c ****       fcurr3 = (q31_t) ((gnext2 * (*pk)) >> 15U) + fnext3;
 285:../Dave/Generated/CMSIS_DSP/Source/FilteringFunctions/arm_fir_lattice_q15.c ****       fcurr3 = __SSAT(fcurr3, 16);
 286:../Dave/Generated/CMSIS_DSP/Source/FilteringFunctions/arm_fir_lattice_q15.c **** 
 287:../Dave/Generated/CMSIS_DSP/Source/FilteringFunctions/arm_fir_lattice_q15.c ****       /* Calculation of state values for next stage */
 288:../Dave/Generated/CMSIS_DSP/Source/FilteringFunctions/arm_fir_lattice_q15.c ****       /* g5(n) = f4(n) * K5  +  g4(n-1) */
 289:../Dave/Generated/CMSIS_DSP/Source/FilteringFunctions/arm_fir_lattice_q15.c ****       gnext3 = (q31_t) ((fnext3 * (*pk)) >> 15U) + gnext2;
 290:../Dave/Generated/CMSIS_DSP/Source/FilteringFunctions/arm_fir_lattice_q15.c ****       gnext3 = __SSAT(gnext3, 16);
 291:../Dave/Generated/CMSIS_DSP/Source/FilteringFunctions/arm_fir_lattice_q15.c **** 
 292:../Dave/Generated/CMSIS_DSP/Source/FilteringFunctions/arm_fir_lattice_q15.c ****       gnext2 = (q31_t) ((fnext2 * (*pk)) >> 15U) + gnext1;
 293:../Dave/Generated/CMSIS_DSP/Source/FilteringFunctions/arm_fir_lattice_q15.c ****       gnext2 = __SSAT(gnext2, 16);
 294:../Dave/Generated/CMSIS_DSP/Source/FilteringFunctions/arm_fir_lattice_q15.c **** 
 295:../Dave/Generated/CMSIS_DSP/Source/FilteringFunctions/arm_fir_lattice_q15.c ****       gnext1 = (q31_t) ((fnext1 * (*pk)) >> 15U) + gnext0;
 296:../Dave/Generated/CMSIS_DSP/Source/FilteringFunctions/arm_fir_lattice_q15.c ****       gnext1 = __SSAT(gnext1, 16);
 297:../Dave/Generated/CMSIS_DSP/Source/FilteringFunctions/arm_fir_lattice_q15.c **** 
 298:../Dave/Generated/CMSIS_DSP/Source/FilteringFunctions/arm_fir_lattice_q15.c ****       gnext0 = (q31_t) ((fnext0 * (*pk++)) >> 15U) + gcurr0;
 299:../Dave/Generated/CMSIS_DSP/Source/FilteringFunctions/arm_fir_lattice_q15.c ****       gnext0 = __SSAT(gnext0, 16);
 300:../Dave/Generated/CMSIS_DSP/Source/FilteringFunctions/arm_fir_lattice_q15.c **** 
 301:../Dave/Generated/CMSIS_DSP/Source/FilteringFunctions/arm_fir_lattice_q15.c ****       stageCnt--;
 302:../Dave/Generated/CMSIS_DSP/Source/FilteringFunctions/arm_fir_lattice_q15.c ****     }
 303:../Dave/Generated/CMSIS_DSP/Source/FilteringFunctions/arm_fir_lattice_q15.c **** 
 304:../Dave/Generated/CMSIS_DSP/Source/FilteringFunctions/arm_fir_lattice_q15.c ****     /* If the (filter length -1) is not a multiple of 4, compute the remaining filter taps */
 305:../Dave/Generated/CMSIS_DSP/Source/FilteringFunctions/arm_fir_lattice_q15.c ****     stageCnt = (numStages - 1U) % 0x4U;
 306:../Dave/Generated/CMSIS_DSP/Source/FilteringFunctions/arm_fir_lattice_q15.c **** 
 307:../Dave/Generated/CMSIS_DSP/Source/FilteringFunctions/arm_fir_lattice_q15.c ****     while (stageCnt > 0U)
 308:../Dave/Generated/CMSIS_DSP/Source/FilteringFunctions/arm_fir_lattice_q15.c ****     {
 309:../Dave/Generated/CMSIS_DSP/Source/FilteringFunctions/arm_fir_lattice_q15.c ****       gcurr0 = *px;
 310:../Dave/Generated/CMSIS_DSP/Source/FilteringFunctions/arm_fir_lattice_q15.c **** 
 311:../Dave/Generated/CMSIS_DSP/Source/FilteringFunctions/arm_fir_lattice_q15.c ****       /* save g value in state buffer */
 312:../Dave/Generated/CMSIS_DSP/Source/FilteringFunctions/arm_fir_lattice_q15.c ****       *px++ = (q15_t) gnext3;
 313:../Dave/Generated/CMSIS_DSP/Source/FilteringFunctions/arm_fir_lattice_q15.c **** 
 314:../Dave/Generated/CMSIS_DSP/Source/FilteringFunctions/arm_fir_lattice_q15.c ****       /* Process four samples for last three taps here */
 315:../Dave/Generated/CMSIS_DSP/Source/FilteringFunctions/arm_fir_lattice_q15.c ****       fnext0 = (q31_t) ((gcurr0 * (*pk)) >> 15U) + fcurr0;
 316:../Dave/Generated/CMSIS_DSP/Source/FilteringFunctions/arm_fir_lattice_q15.c ****       fnext0 = __SSAT(fnext0, 16);
 317:../Dave/Generated/CMSIS_DSP/Source/FilteringFunctions/arm_fir_lattice_q15.c **** 
 318:../Dave/Generated/CMSIS_DSP/Source/FilteringFunctions/arm_fir_lattice_q15.c ****       fnext1 = (q31_t) ((gnext0 * (*pk)) >> 15U) + fcurr1;
 319:../Dave/Generated/CMSIS_DSP/Source/FilteringFunctions/arm_fir_lattice_q15.c ****       fnext1 = __SSAT(fnext1, 16);
 320:../Dave/Generated/CMSIS_DSP/Source/FilteringFunctions/arm_fir_lattice_q15.c **** 
 321:../Dave/Generated/CMSIS_DSP/Source/FilteringFunctions/arm_fir_lattice_q15.c ****       fnext2 = (q31_t) ((gnext1 * (*pk)) >> 15U) + fcurr2;
 322:../Dave/Generated/CMSIS_DSP/Source/FilteringFunctions/arm_fir_lattice_q15.c ****       fnext2 = __SSAT(fnext2, 16);
 323:../Dave/Generated/CMSIS_DSP/Source/FilteringFunctions/arm_fir_lattice_q15.c **** 
 324:../Dave/Generated/CMSIS_DSP/Source/FilteringFunctions/arm_fir_lattice_q15.c ****       fnext3 = (q31_t) ((gnext2 * (*pk)) >> 15U) + fcurr3;
 325:../Dave/Generated/CMSIS_DSP/Source/FilteringFunctions/arm_fir_lattice_q15.c ****       fnext3 = __SSAT(fnext3, 16);
 326:../Dave/Generated/CMSIS_DSP/Source/FilteringFunctions/arm_fir_lattice_q15.c **** 
 327:../Dave/Generated/CMSIS_DSP/Source/FilteringFunctions/arm_fir_lattice_q15.c ****       /* g1(n) = f0(n) * K1  +  g0(n-1) */
 328:../Dave/Generated/CMSIS_DSP/Source/FilteringFunctions/arm_fir_lattice_q15.c ****       gnext3 = (q31_t) ((fcurr3 * (*pk)) >> 15U) + gnext2;
 329:../Dave/Generated/CMSIS_DSP/Source/FilteringFunctions/arm_fir_lattice_q15.c ****       gnext3 = __SSAT(gnext3, 16);
 330:../Dave/Generated/CMSIS_DSP/Source/FilteringFunctions/arm_fir_lattice_q15.c **** 
 331:../Dave/Generated/CMSIS_DSP/Source/FilteringFunctions/arm_fir_lattice_q15.c ****       gnext2 = (q31_t) ((fcurr2 * (*pk)) >> 15U) + gnext1;
 332:../Dave/Generated/CMSIS_DSP/Source/FilteringFunctions/arm_fir_lattice_q15.c ****       gnext2 = __SSAT(gnext2, 16);
 333:../Dave/Generated/CMSIS_DSP/Source/FilteringFunctions/arm_fir_lattice_q15.c **** 
 334:../Dave/Generated/CMSIS_DSP/Source/FilteringFunctions/arm_fir_lattice_q15.c ****       gnext1 = (q31_t) ((fcurr1 * (*pk)) >> 15U) + gnext0;
 335:../Dave/Generated/CMSIS_DSP/Source/FilteringFunctions/arm_fir_lattice_q15.c ****       gnext1 = __SSAT(gnext1, 16);
 336:../Dave/Generated/CMSIS_DSP/Source/FilteringFunctions/arm_fir_lattice_q15.c **** 
 337:../Dave/Generated/CMSIS_DSP/Source/FilteringFunctions/arm_fir_lattice_q15.c ****       gnext0 = (q31_t) ((fcurr0 * (*pk++)) >> 15U) + gcurr0;
 338:../Dave/Generated/CMSIS_DSP/Source/FilteringFunctions/arm_fir_lattice_q15.c ****       gnext0 = __SSAT(gnext0, 16);
 339:../Dave/Generated/CMSIS_DSP/Source/FilteringFunctions/arm_fir_lattice_q15.c **** 
 340:../Dave/Generated/CMSIS_DSP/Source/FilteringFunctions/arm_fir_lattice_q15.c ****       /* Update of f values for next coefficient set processing */
 341:../Dave/Generated/CMSIS_DSP/Source/FilteringFunctions/arm_fir_lattice_q15.c ****       fcurr0 = fnext0;
 342:../Dave/Generated/CMSIS_DSP/Source/FilteringFunctions/arm_fir_lattice_q15.c ****       fcurr1 = fnext1;
 343:../Dave/Generated/CMSIS_DSP/Source/FilteringFunctions/arm_fir_lattice_q15.c ****       fcurr2 = fnext2;
 344:../Dave/Generated/CMSIS_DSP/Source/FilteringFunctions/arm_fir_lattice_q15.c ****       fcurr3 = fnext3;
 345:../Dave/Generated/CMSIS_DSP/Source/FilteringFunctions/arm_fir_lattice_q15.c **** 
 346:../Dave/Generated/CMSIS_DSP/Source/FilteringFunctions/arm_fir_lattice_q15.c ****       stageCnt--;
 347:../Dave/Generated/CMSIS_DSP/Source/FilteringFunctions/arm_fir_lattice_q15.c ****     }
 348:../Dave/Generated/CMSIS_DSP/Source/FilteringFunctions/arm_fir_lattice_q15.c **** 
 349:../Dave/Generated/CMSIS_DSP/Source/FilteringFunctions/arm_fir_lattice_q15.c ****     /* The results in the 4 accumulators, store in the destination buffer. */
 350:../Dave/Generated/CMSIS_DSP/Source/FilteringFunctions/arm_fir_lattice_q15.c ****     /* y(n) = fN(n) */
 351:../Dave/Generated/CMSIS_DSP/Source/FilteringFunctions/arm_fir_lattice_q15.c **** 
 352:../Dave/Generated/CMSIS_DSP/Source/FilteringFunctions/arm_fir_lattice_q15.c **** #ifndef  ARM_MATH_BIG_ENDIAN
 353:../Dave/Generated/CMSIS_DSP/Source/FilteringFunctions/arm_fir_lattice_q15.c ****     write_q15x2_ia (&pDst, __PKHBT(fcurr0, fcurr1, 16));
 354:../Dave/Generated/CMSIS_DSP/Source/FilteringFunctions/arm_fir_lattice_q15.c ****     write_q15x2_ia (&pDst, __PKHBT(fcurr2, fcurr3, 16));
 355:../Dave/Generated/CMSIS_DSP/Source/FilteringFunctions/arm_fir_lattice_q15.c **** #else
 356:../Dave/Generated/CMSIS_DSP/Source/FilteringFunctions/arm_fir_lattice_q15.c ****     write_q15x2_ia (&pDst, __PKHBT(fcurr1, fcurr0, 16));
 357:../Dave/Generated/CMSIS_DSP/Source/FilteringFunctions/arm_fir_lattice_q15.c ****     write_q15x2_ia (&pDst, __PKHBT(fcurr3, fcurr2, 16));
 358:../Dave/Generated/CMSIS_DSP/Source/FilteringFunctions/arm_fir_lattice_q15.c **** #endif /* #ifndef  ARM_MATH_BIG_ENDIAN */
 359:../Dave/Generated/CMSIS_DSP/Source/FilteringFunctions/arm_fir_lattice_q15.c **** 
 360:../Dave/Generated/CMSIS_DSP/Source/FilteringFunctions/arm_fir_lattice_q15.c ****     blkCnt--;
 361:../Dave/Generated/CMSIS_DSP/Source/FilteringFunctions/arm_fir_lattice_q15.c ****   }
 362:../Dave/Generated/CMSIS_DSP/Source/FilteringFunctions/arm_fir_lattice_q15.c **** 
 363:../Dave/Generated/CMSIS_DSP/Source/FilteringFunctions/arm_fir_lattice_q15.c ****   /* Loop unrolling: Compute remaining outputs */
 364:../Dave/Generated/CMSIS_DSP/Source/FilteringFunctions/arm_fir_lattice_q15.c ****   blkCnt = blockSize % 0x4U;
 365:../Dave/Generated/CMSIS_DSP/Source/FilteringFunctions/arm_fir_lattice_q15.c **** 
 366:../Dave/Generated/CMSIS_DSP/Source/FilteringFunctions/arm_fir_lattice_q15.c **** #else
 367:../Dave/Generated/CMSIS_DSP/Source/FilteringFunctions/arm_fir_lattice_q15.c **** 
 368:../Dave/Generated/CMSIS_DSP/Source/FilteringFunctions/arm_fir_lattice_q15.c ****   /* Initialize blkCnt with number of samples */
 369:../Dave/Generated/CMSIS_DSP/Source/FilteringFunctions/arm_fir_lattice_q15.c ****   blkCnt = blockSize;
  62              	 .loc 1 369 0
  63 0024 3B68     	 ldr r3,[r7]
  64 0026 FB65     	 str r3,[r7,#92]
 370:../Dave/Generated/CMSIS_DSP/Source/FilteringFunctions/arm_fir_lattice_q15.c **** 
 371:../Dave/Generated/CMSIS_DSP/Source/FilteringFunctions/arm_fir_lattice_q15.c **** #endif /* #if defined (ARM_MATH_LOOPUNROLL) */
 372:../Dave/Generated/CMSIS_DSP/Source/FilteringFunctions/arm_fir_lattice_q15.c **** 
 373:../Dave/Generated/CMSIS_DSP/Source/FilteringFunctions/arm_fir_lattice_q15.c ****   while (blkCnt > 0U)
  65              	 .loc 1 373 0
  66 0028 86E0     	 b .L2
  67              	.L5:
 374:../Dave/Generated/CMSIS_DSP/Source/FilteringFunctions/arm_fir_lattice_q15.c ****   {
 375:../Dave/Generated/CMSIS_DSP/Source/FilteringFunctions/arm_fir_lattice_q15.c ****     /* f0(n) = x(n) */
 376:../Dave/Generated/CMSIS_DSP/Source/FilteringFunctions/arm_fir_lattice_q15.c ****     fcurr0 = *pSrc++;
  68              	 .loc 1 376 0
  69 002a BB68     	 ldr r3,[r7,#8]
  70 002c 9A1C     	 adds r2,r3,#2
  71 002e BA60     	 str r2,[r7,#8]
  72 0030 1B88     	 ldrh r3,[r3]
  73 0032 1BB2     	 sxth r3,r3
  74 0034 7B65     	 str r3,[r7,#84]
 377:../Dave/Generated/CMSIS_DSP/Source/FilteringFunctions/arm_fir_lattice_q15.c **** 
 378:../Dave/Generated/CMSIS_DSP/Source/FilteringFunctions/arm_fir_lattice_q15.c ****     /* Initialize state pointer */
 379:../Dave/Generated/CMSIS_DSP/Source/FilteringFunctions/arm_fir_lattice_q15.c ****     px = pState;
  75              	 .loc 1 379 0
  76 0036 FB6C     	 ldr r3,[r7,#76]
  77 0038 7B66     	 str r3,[r7,#100]
 380:../Dave/Generated/CMSIS_DSP/Source/FilteringFunctions/arm_fir_lattice_q15.c **** 
 381:../Dave/Generated/CMSIS_DSP/Source/FilteringFunctions/arm_fir_lattice_q15.c ****     /* Initialize coeff pointer */
 382:../Dave/Generated/CMSIS_DSP/Source/FilteringFunctions/arm_fir_lattice_q15.c ****     pk = pCoeffs;
  78              	 .loc 1 382 0
  79 003a BB6C     	 ldr r3,[r7,#72]
  80 003c 3B66     	 str r3,[r7,#96]
 383:../Dave/Generated/CMSIS_DSP/Source/FilteringFunctions/arm_fir_lattice_q15.c **** 
 384:../Dave/Generated/CMSIS_DSP/Source/FilteringFunctions/arm_fir_lattice_q15.c ****     /* read g2(n) from state buffer */
 385:../Dave/Generated/CMSIS_DSP/Source/FilteringFunctions/arm_fir_lattice_q15.c ****     gcurr0 = *px;
  81              	 .loc 1 385 0
  82 003e 7B6E     	 ldr r3,[r7,#100]
  83 0040 1B88     	 ldrh r3,[r3]
  84 0042 1BB2     	 sxth r3,r3
  85 0044 3B64     	 str r3,[r7,#64]
 386:../Dave/Generated/CMSIS_DSP/Source/FilteringFunctions/arm_fir_lattice_q15.c **** 
 387:../Dave/Generated/CMSIS_DSP/Source/FilteringFunctions/arm_fir_lattice_q15.c ****     /* for sample 1 processing */
 388:../Dave/Generated/CMSIS_DSP/Source/FilteringFunctions/arm_fir_lattice_q15.c ****     /* f1(n) = f0(n) +  K1 * g0(n-1) */
 389:../Dave/Generated/CMSIS_DSP/Source/FilteringFunctions/arm_fir_lattice_q15.c ****     fnext0 = (((q31_t) gcurr0 * (*pk)) >> 15U) + fcurr0;
  86              	 .loc 1 389 0
  87 0046 3B6E     	 ldr r3,[r7,#96]
  88 0048 1B88     	 ldrh r3,[r3]
  89 004a 1BB2     	 sxth r3,r3
  90 004c 3A6C     	 ldr r2,[r7,#64]
  91 004e 02FB03F3 	 mul r3,r2,r3
  92 0052 DA13     	 asrs r2,r3,#15
  93 0054 7B6D     	 ldr r3,[r7,#84]
  94 0056 1344     	 add r3,r3,r2
  95 0058 FB63     	 str r3,[r7,#60]
  96              	.LBB2:
 390:../Dave/Generated/CMSIS_DSP/Source/FilteringFunctions/arm_fir_lattice_q15.c ****     fnext0 = __SSAT(fnext0, 16);
  97              	 .loc 1 390 0
  98 005a FB6B     	 ldr r3,[r7,#60]
  99 005c BB63     	 str r3,[r7,#56]
 100 005e BB6B     	 ldr r3,[r7,#56]
 101              	
 102 0060 03F30F03 	 ssat r3,#16,r3
 103              	
 104              	 .thumb
 105 0064 7B63     	 str r3,[r7,#52]
 106 0066 7B6B     	 ldr r3,[r7,#52]
 107              	.LBE2:
 108 0068 FB63     	 str r3,[r7,#60]
 391:../Dave/Generated/CMSIS_DSP/Source/FilteringFunctions/arm_fir_lattice_q15.c **** 
 392:../Dave/Generated/CMSIS_DSP/Source/FilteringFunctions/arm_fir_lattice_q15.c ****     /* g1(n) = f0(n) * K1  +  g0(n-1) */
 393:../Dave/Generated/CMSIS_DSP/Source/FilteringFunctions/arm_fir_lattice_q15.c ****     gnext0 = (((q31_t) fcurr0 * (*pk++)) >> 15U) + gcurr0;
 109              	 .loc 1 393 0
 110 006a 3B6E     	 ldr r3,[r7,#96]
 111 006c 9A1C     	 adds r2,r3,#2
 112 006e 3A66     	 str r2,[r7,#96]
 113 0070 1B88     	 ldrh r3,[r3]
 114 0072 1BB2     	 sxth r3,r3
 115 0074 7A6D     	 ldr r2,[r7,#84]
 116 0076 02FB03F3 	 mul r3,r2,r3
 117 007a DA13     	 asrs r2,r3,#15
 118 007c 3B6C     	 ldr r3,[r7,#64]
 119 007e 1344     	 add r3,r3,r2
 120 0080 3B65     	 str r3,[r7,#80]
 121              	.LBB3:
 394:../Dave/Generated/CMSIS_DSP/Source/FilteringFunctions/arm_fir_lattice_q15.c ****     gnext0 = __SSAT(gnext0, 16);
 122              	 .loc 1 394 0
 123 0082 3B6D     	 ldr r3,[r7,#80]
 124 0084 3B63     	 str r3,[r7,#48]
 125 0086 3B6B     	 ldr r3,[r7,#48]
 126              	
 127 0088 03F30F03 	 ssat r3,#16,r3
 128              	
 129              	 .thumb
 130 008c FB62     	 str r3,[r7,#44]
 131 008e FB6A     	 ldr r3,[r7,#44]
 132              	.LBE3:
 133 0090 3B65     	 str r3,[r7,#80]
 395:../Dave/Generated/CMSIS_DSP/Source/FilteringFunctions/arm_fir_lattice_q15.c **** 
 396:../Dave/Generated/CMSIS_DSP/Source/FilteringFunctions/arm_fir_lattice_q15.c ****     /* save g1(n) in state buffer */
 397:../Dave/Generated/CMSIS_DSP/Source/FilteringFunctions/arm_fir_lattice_q15.c ****     *px++ = (q15_t) fcurr0;
 134              	 .loc 1 397 0
 135 0092 7B6E     	 ldr r3,[r7,#100]
 136 0094 9A1C     	 adds r2,r3,#2
 137 0096 7A66     	 str r2,[r7,#100]
 138 0098 7A6D     	 ldr r2,[r7,#84]
 139 009a 92B2     	 uxth r2,r2
 140 009c 1A80     	 strh r2,[r3]
 398:../Dave/Generated/CMSIS_DSP/Source/FilteringFunctions/arm_fir_lattice_q15.c **** 
 399:../Dave/Generated/CMSIS_DSP/Source/FilteringFunctions/arm_fir_lattice_q15.c ****     /* f1(n) is saved in fcurr0 for next stage processing */
 400:../Dave/Generated/CMSIS_DSP/Source/FilteringFunctions/arm_fir_lattice_q15.c ****     fcurr0 = fnext0;
 141              	 .loc 1 400 0
 142 009e FB6B     	 ldr r3,[r7,#60]
 143 00a0 7B65     	 str r3,[r7,#84]
 401:../Dave/Generated/CMSIS_DSP/Source/FilteringFunctions/arm_fir_lattice_q15.c **** 
 402:../Dave/Generated/CMSIS_DSP/Source/FilteringFunctions/arm_fir_lattice_q15.c ****     stageCnt = (numStages - 1U);
 144              	 .loc 1 402 0
 145 00a2 7B6C     	 ldr r3,[r7,#68]
 146 00a4 013B     	 subs r3,r3,#1
 147 00a6 BB65     	 str r3,[r7,#88]
 403:../Dave/Generated/CMSIS_DSP/Source/FilteringFunctions/arm_fir_lattice_q15.c **** 
 404:../Dave/Generated/CMSIS_DSP/Source/FilteringFunctions/arm_fir_lattice_q15.c ****     /* stage loop */
 405:../Dave/Generated/CMSIS_DSP/Source/FilteringFunctions/arm_fir_lattice_q15.c ****     while (stageCnt > 0U)
 148              	 .loc 1 405 0
 149 00a8 34E0     	 b .L3
 150              	.L4:
 406:../Dave/Generated/CMSIS_DSP/Source/FilteringFunctions/arm_fir_lattice_q15.c ****     {
 407:../Dave/Generated/CMSIS_DSP/Source/FilteringFunctions/arm_fir_lattice_q15.c ****       /* read g2(n) from state buffer */
 408:../Dave/Generated/CMSIS_DSP/Source/FilteringFunctions/arm_fir_lattice_q15.c ****       gcurr0 = *px;
 151              	 .loc 1 408 0
 152 00aa 7B6E     	 ldr r3,[r7,#100]
 153 00ac 1B88     	 ldrh r3,[r3]
 154 00ae 1BB2     	 sxth r3,r3
 155 00b0 3B64     	 str r3,[r7,#64]
 409:../Dave/Generated/CMSIS_DSP/Source/FilteringFunctions/arm_fir_lattice_q15.c **** 
 410:../Dave/Generated/CMSIS_DSP/Source/FilteringFunctions/arm_fir_lattice_q15.c ****       /* save g1(n) in state buffer */
 411:../Dave/Generated/CMSIS_DSP/Source/FilteringFunctions/arm_fir_lattice_q15.c ****       *px++ = (q15_t) gnext0;
 156              	 .loc 1 411 0
 157 00b2 7B6E     	 ldr r3,[r7,#100]
 158 00b4 9A1C     	 adds r2,r3,#2
 159 00b6 7A66     	 str r2,[r7,#100]
 160 00b8 3A6D     	 ldr r2,[r7,#80]
 161 00ba 92B2     	 uxth r2,r2
 162 00bc 1A80     	 strh r2,[r3]
 412:../Dave/Generated/CMSIS_DSP/Source/FilteringFunctions/arm_fir_lattice_q15.c **** 
 413:../Dave/Generated/CMSIS_DSP/Source/FilteringFunctions/arm_fir_lattice_q15.c ****       /* Sample processing for K2, K3.... */
 414:../Dave/Generated/CMSIS_DSP/Source/FilteringFunctions/arm_fir_lattice_q15.c ****       /* f2(n) = f1(n) +  K2 * g1(n-1) */
 415:../Dave/Generated/CMSIS_DSP/Source/FilteringFunctions/arm_fir_lattice_q15.c ****       fnext0 = (((q31_t) gcurr0 * (*pk)) >> 15U) + fcurr0;
 163              	 .loc 1 415 0
 164 00be 3B6E     	 ldr r3,[r7,#96]
 165 00c0 1B88     	 ldrh r3,[r3]
 166 00c2 1BB2     	 sxth r3,r3
 167 00c4 3A6C     	 ldr r2,[r7,#64]
 168 00c6 02FB03F3 	 mul r3,r2,r3
 169 00ca DA13     	 asrs r2,r3,#15
 170 00cc 7B6D     	 ldr r3,[r7,#84]
 171 00ce 1344     	 add r3,r3,r2
 172 00d0 FB63     	 str r3,[r7,#60]
 173              	.LBB4:
 416:../Dave/Generated/CMSIS_DSP/Source/FilteringFunctions/arm_fir_lattice_q15.c ****       fnext0 = __SSAT(fnext0, 16);
 174              	 .loc 1 416 0
 175 00d2 FB6B     	 ldr r3,[r7,#60]
 176 00d4 BB62     	 str r3,[r7,#40]
 177 00d6 BB6A     	 ldr r3,[r7,#40]
 178              	
 179 00d8 03F30F03 	 ssat r3,#16,r3
 180              	
 181              	 .thumb
 182 00dc 7B62     	 str r3,[r7,#36]
 183 00de 7B6A     	 ldr r3,[r7,#36]
 184              	.LBE4:
 185 00e0 FB63     	 str r3,[r7,#60]
 417:../Dave/Generated/CMSIS_DSP/Source/FilteringFunctions/arm_fir_lattice_q15.c **** 
 418:../Dave/Generated/CMSIS_DSP/Source/FilteringFunctions/arm_fir_lattice_q15.c ****       /* g2(n) = f1(n) * K2  +  g1(n-1) */
 419:../Dave/Generated/CMSIS_DSP/Source/FilteringFunctions/arm_fir_lattice_q15.c ****       gnext0 = (((q31_t) fcurr0 * (*pk++)) >> 15U) + gcurr0;
 186              	 .loc 1 419 0
 187 00e2 3B6E     	 ldr r3,[r7,#96]
 188 00e4 9A1C     	 adds r2,r3,#2
 189 00e6 3A66     	 str r2,[r7,#96]
 190 00e8 1B88     	 ldrh r3,[r3]
 191 00ea 1BB2     	 sxth r3,r3
 192 00ec 7A6D     	 ldr r2,[r7,#84]
 193 00ee 02FB03F3 	 mul r3,r2,r3
 194 00f2 DA13     	 asrs r2,r3,#15
 195 00f4 3B6C     	 ldr r3,[r7,#64]
 196 00f6 1344     	 add r3,r3,r2
 197 00f8 3B65     	 str r3,[r7,#80]
 198              	.LBB5:
 420:../Dave/Generated/CMSIS_DSP/Source/FilteringFunctions/arm_fir_lattice_q15.c ****       gnext0 = __SSAT(gnext0, 16);
 199              	 .loc 1 420 0
 200 00fa 3B6D     	 ldr r3,[r7,#80]
 201 00fc 3B62     	 str r3,[r7,#32]
 202 00fe 3B6A     	 ldr r3,[r7,#32]
 203              	
 204 0100 03F30F03 	 ssat r3,#16,r3
 205              	
 206              	 .thumb
 207 0104 FB61     	 str r3,[r7,#28]
 208 0106 FB69     	 ldr r3,[r7,#28]
 209              	.LBE5:
 210 0108 3B65     	 str r3,[r7,#80]
 421:../Dave/Generated/CMSIS_DSP/Source/FilteringFunctions/arm_fir_lattice_q15.c **** 
 422:../Dave/Generated/CMSIS_DSP/Source/FilteringFunctions/arm_fir_lattice_q15.c ****       /* f1(n) is saved in fcurr0 for next stage processing */
 423:../Dave/Generated/CMSIS_DSP/Source/FilteringFunctions/arm_fir_lattice_q15.c ****       fcurr0 = fnext0;
 211              	 .loc 1 423 0
 212 010a FB6B     	 ldr r3,[r7,#60]
 213 010c 7B65     	 str r3,[r7,#84]
 424:../Dave/Generated/CMSIS_DSP/Source/FilteringFunctions/arm_fir_lattice_q15.c **** 
 425:../Dave/Generated/CMSIS_DSP/Source/FilteringFunctions/arm_fir_lattice_q15.c ****       stageCnt--;
 214              	 .loc 1 425 0
 215 010e BB6D     	 ldr r3,[r7,#88]
 216 0110 013B     	 subs r3,r3,#1
 217 0112 BB65     	 str r3,[r7,#88]
 218              	.L3:
 405:../Dave/Generated/CMSIS_DSP/Source/FilteringFunctions/arm_fir_lattice_q15.c ****     {
 219              	 .loc 1 405 0
 220 0114 BB6D     	 ldr r3,[r7,#88]
 221 0116 002B     	 cmp r3,#0
 222 0118 C7D1     	 bne .L4
 426:../Dave/Generated/CMSIS_DSP/Source/FilteringFunctions/arm_fir_lattice_q15.c ****     }
 427:../Dave/Generated/CMSIS_DSP/Source/FilteringFunctions/arm_fir_lattice_q15.c **** 
 428:../Dave/Generated/CMSIS_DSP/Source/FilteringFunctions/arm_fir_lattice_q15.c ****     /* y(n) = fN(n) */
 429:../Dave/Generated/CMSIS_DSP/Source/FilteringFunctions/arm_fir_lattice_q15.c ****     *pDst++ = __SSAT(fcurr0, 16);
 223              	 .loc 1 429 0
 224 011a 7B68     	 ldr r3,[r7,#4]
 225 011c 9A1C     	 adds r2,r3,#2
 226 011e 7A60     	 str r2,[r7,#4]
 227              	.LBB6:
 228 0120 7A6D     	 ldr r2,[r7,#84]
 229 0122 BA61     	 str r2,[r7,#24]
 230 0124 BA69     	 ldr r2,[r7,#24]
 231              	
 232 0126 02F30F02 	 ssat r2,#16,r2
 233              	
 234              	 .thumb
 235 012a 7A61     	 str r2,[r7,#20]
 236 012c 7A69     	 ldr r2,[r7,#20]
 237              	.LBE6:
 238 012e 92B2     	 uxth r2,r2
 239 0130 1A80     	 strh r2,[r3]
 430:../Dave/Generated/CMSIS_DSP/Source/FilteringFunctions/arm_fir_lattice_q15.c **** 
 431:../Dave/Generated/CMSIS_DSP/Source/FilteringFunctions/arm_fir_lattice_q15.c ****     blkCnt--;
 240              	 .loc 1 431 0
 241 0132 FB6D     	 ldr r3,[r7,#92]
 242 0134 013B     	 subs r3,r3,#1
 243 0136 FB65     	 str r3,[r7,#92]
 244              	.L2:
 373:../Dave/Generated/CMSIS_DSP/Source/FilteringFunctions/arm_fir_lattice_q15.c ****   {
 245              	 .loc 1 373 0
 246 0138 FB6D     	 ldr r3,[r7,#92]
 247 013a 002B     	 cmp r3,#0
 248 013c 7FF475AF 	 bne .L5
 432:../Dave/Generated/CMSIS_DSP/Source/FilteringFunctions/arm_fir_lattice_q15.c ****   }
 433:../Dave/Generated/CMSIS_DSP/Source/FilteringFunctions/arm_fir_lattice_q15.c **** 
 434:../Dave/Generated/CMSIS_DSP/Source/FilteringFunctions/arm_fir_lattice_q15.c **** #else
 435:../Dave/Generated/CMSIS_DSP/Source/FilteringFunctions/arm_fir_lattice_q15.c **** /* alternate version for CM0_FAMILY */
 436:../Dave/Generated/CMSIS_DSP/Source/FilteringFunctions/arm_fir_lattice_q15.c **** 
 437:../Dave/Generated/CMSIS_DSP/Source/FilteringFunctions/arm_fir_lattice_q15.c ****   blkCnt = blockSize;
 438:../Dave/Generated/CMSIS_DSP/Source/FilteringFunctions/arm_fir_lattice_q15.c **** 
 439:../Dave/Generated/CMSIS_DSP/Source/FilteringFunctions/arm_fir_lattice_q15.c ****   while (blkCnt > 0U)
 440:../Dave/Generated/CMSIS_DSP/Source/FilteringFunctions/arm_fir_lattice_q15.c ****   {
 441:../Dave/Generated/CMSIS_DSP/Source/FilteringFunctions/arm_fir_lattice_q15.c ****     /* f0(n) = x(n) */
 442:../Dave/Generated/CMSIS_DSP/Source/FilteringFunctions/arm_fir_lattice_q15.c ****     fcurr0 = *pSrc++;
 443:../Dave/Generated/CMSIS_DSP/Source/FilteringFunctions/arm_fir_lattice_q15.c **** 
 444:../Dave/Generated/CMSIS_DSP/Source/FilteringFunctions/arm_fir_lattice_q15.c ****     /* Initialize state pointer */
 445:../Dave/Generated/CMSIS_DSP/Source/FilteringFunctions/arm_fir_lattice_q15.c ****     px = pState;
 446:../Dave/Generated/CMSIS_DSP/Source/FilteringFunctions/arm_fir_lattice_q15.c **** 
 447:../Dave/Generated/CMSIS_DSP/Source/FilteringFunctions/arm_fir_lattice_q15.c ****     /* Initialize coeff pointer */
 448:../Dave/Generated/CMSIS_DSP/Source/FilteringFunctions/arm_fir_lattice_q15.c ****     pk = pCoeffs;
 449:../Dave/Generated/CMSIS_DSP/Source/FilteringFunctions/arm_fir_lattice_q15.c **** 
 450:../Dave/Generated/CMSIS_DSP/Source/FilteringFunctions/arm_fir_lattice_q15.c ****     /* read g0(n-1) from state buffer */
 451:../Dave/Generated/CMSIS_DSP/Source/FilteringFunctions/arm_fir_lattice_q15.c ****     gcurr0 = *px;
 452:../Dave/Generated/CMSIS_DSP/Source/FilteringFunctions/arm_fir_lattice_q15.c **** 
 453:../Dave/Generated/CMSIS_DSP/Source/FilteringFunctions/arm_fir_lattice_q15.c ****     /* for sample 1 processing */
 454:../Dave/Generated/CMSIS_DSP/Source/FilteringFunctions/arm_fir_lattice_q15.c ****     /* f1(n) = f0(n) +  K1 * g0(n-1) */
 455:../Dave/Generated/CMSIS_DSP/Source/FilteringFunctions/arm_fir_lattice_q15.c ****     fnext0 = ((gcurr0 * (*pk)) >> 15U) + fcurr0;
 456:../Dave/Generated/CMSIS_DSP/Source/FilteringFunctions/arm_fir_lattice_q15.c ****     fnext0 = __SSAT(fnext, 16);
 457:../Dave/Generated/CMSIS_DSP/Source/FilteringFunctions/arm_fir_lattice_q15.c **** 
 458:../Dave/Generated/CMSIS_DSP/Source/FilteringFunctions/arm_fir_lattice_q15.c ****     /* g1(n) = f0(n) * K1  +  g0(n-1) */
 459:../Dave/Generated/CMSIS_DSP/Source/FilteringFunctions/arm_fir_lattice_q15.c ****     gnext0 = ((fcurr0 * (*pk++)) >> 15U) + gcurr0;
 460:../Dave/Generated/CMSIS_DSP/Source/FilteringFunctions/arm_fir_lattice_q15.c ****     gnext0 = __SSAT(gnext0, 16);
 461:../Dave/Generated/CMSIS_DSP/Source/FilteringFunctions/arm_fir_lattice_q15.c **** 
 462:../Dave/Generated/CMSIS_DSP/Source/FilteringFunctions/arm_fir_lattice_q15.c ****     /* save f0(n) in state buffer */
 463:../Dave/Generated/CMSIS_DSP/Source/FilteringFunctions/arm_fir_lattice_q15.c ****     *px++ = (q15_t) fcurr0;
 464:../Dave/Generated/CMSIS_DSP/Source/FilteringFunctions/arm_fir_lattice_q15.c **** 
 465:../Dave/Generated/CMSIS_DSP/Source/FilteringFunctions/arm_fir_lattice_q15.c ****     /* f1(n) is saved in fcurr for next stage processing */
 466:../Dave/Generated/CMSIS_DSP/Source/FilteringFunctions/arm_fir_lattice_q15.c ****     fcurr0 = fnext0;
 467:../Dave/Generated/CMSIS_DSP/Source/FilteringFunctions/arm_fir_lattice_q15.c **** 
 468:../Dave/Generated/CMSIS_DSP/Source/FilteringFunctions/arm_fir_lattice_q15.c ****     stageCnt = (numStages - 1U);
 469:../Dave/Generated/CMSIS_DSP/Source/FilteringFunctions/arm_fir_lattice_q15.c **** 
 470:../Dave/Generated/CMSIS_DSP/Source/FilteringFunctions/arm_fir_lattice_q15.c ****     /* stage loop */
 471:../Dave/Generated/CMSIS_DSP/Source/FilteringFunctions/arm_fir_lattice_q15.c ****     while (stageCnt > 0U)
 472:../Dave/Generated/CMSIS_DSP/Source/FilteringFunctions/arm_fir_lattice_q15.c ****     {
 473:../Dave/Generated/CMSIS_DSP/Source/FilteringFunctions/arm_fir_lattice_q15.c ****       /* read g1(n-1) from state buffer */
 474:../Dave/Generated/CMSIS_DSP/Source/FilteringFunctions/arm_fir_lattice_q15.c ****       gcurr0 = *px;
 475:../Dave/Generated/CMSIS_DSP/Source/FilteringFunctions/arm_fir_lattice_q15.c **** 
 476:../Dave/Generated/CMSIS_DSP/Source/FilteringFunctions/arm_fir_lattice_q15.c ****       /* save g0(n-1) in state buffer */
 477:../Dave/Generated/CMSIS_DSP/Source/FilteringFunctions/arm_fir_lattice_q15.c ****       *px++ = (q15_t) gnext0;
 478:../Dave/Generated/CMSIS_DSP/Source/FilteringFunctions/arm_fir_lattice_q15.c **** 
 479:../Dave/Generated/CMSIS_DSP/Source/FilteringFunctions/arm_fir_lattice_q15.c ****       /* Sample processing for K2, K3.... */
 480:../Dave/Generated/CMSIS_DSP/Source/FilteringFunctions/arm_fir_lattice_q15.c ****       /* f2(n) = f1(n) +  K2 * g1(n-1) */
 481:../Dave/Generated/CMSIS_DSP/Source/FilteringFunctions/arm_fir_lattice_q15.c ****       fnext0 = ((gcurr0 * (*pk)) >> 15U) + fcurr0;
 482:../Dave/Generated/CMSIS_DSP/Source/FilteringFunctions/arm_fir_lattice_q15.c ****       fnext0 = __SSAT(fnext0, 16);
 483:../Dave/Generated/CMSIS_DSP/Source/FilteringFunctions/arm_fir_lattice_q15.c **** 
 484:../Dave/Generated/CMSIS_DSP/Source/FilteringFunctions/arm_fir_lattice_q15.c ****       /* g2(n) = f1(n) * K2  +  g1(n-1) */
 485:../Dave/Generated/CMSIS_DSP/Source/FilteringFunctions/arm_fir_lattice_q15.c ****       gnext0 = ((fcurr0 * (*pk++)) >> 15U) + gcurr0;
 486:../Dave/Generated/CMSIS_DSP/Source/FilteringFunctions/arm_fir_lattice_q15.c ****       gnext0 = __SSAT(gnext0, 16);
 487:../Dave/Generated/CMSIS_DSP/Source/FilteringFunctions/arm_fir_lattice_q15.c **** 
 488:../Dave/Generated/CMSIS_DSP/Source/FilteringFunctions/arm_fir_lattice_q15.c ****       /* f1(n) is saved in fcurr0 for next stage processing */
 489:../Dave/Generated/CMSIS_DSP/Source/FilteringFunctions/arm_fir_lattice_q15.c ****       fcurr0 = fnext0;
 490:../Dave/Generated/CMSIS_DSP/Source/FilteringFunctions/arm_fir_lattice_q15.c **** 
 491:../Dave/Generated/CMSIS_DSP/Source/FilteringFunctions/arm_fir_lattice_q15.c ****       stageCnt--;
 492:../Dave/Generated/CMSIS_DSP/Source/FilteringFunctions/arm_fir_lattice_q15.c ****     }
 493:../Dave/Generated/CMSIS_DSP/Source/FilteringFunctions/arm_fir_lattice_q15.c **** 
 494:../Dave/Generated/CMSIS_DSP/Source/FilteringFunctions/arm_fir_lattice_q15.c ****     /* y(n) = fN(n) */
 495:../Dave/Generated/CMSIS_DSP/Source/FilteringFunctions/arm_fir_lattice_q15.c ****     *pDst++ = __SSAT(fcurr0, 16);
 496:../Dave/Generated/CMSIS_DSP/Source/FilteringFunctions/arm_fir_lattice_q15.c **** 
 497:../Dave/Generated/CMSIS_DSP/Source/FilteringFunctions/arm_fir_lattice_q15.c ****     blkCnt--;
 498:../Dave/Generated/CMSIS_DSP/Source/FilteringFunctions/arm_fir_lattice_q15.c ****   }
 499:../Dave/Generated/CMSIS_DSP/Source/FilteringFunctions/arm_fir_lattice_q15.c **** 
 500:../Dave/Generated/CMSIS_DSP/Source/FilteringFunctions/arm_fir_lattice_q15.c **** #endif /* #if !defined(ARM_MATH_CM0_FAMILY) */
 501:../Dave/Generated/CMSIS_DSP/Source/FilteringFunctions/arm_fir_lattice_q15.c **** 
 502:../Dave/Generated/CMSIS_DSP/Source/FilteringFunctions/arm_fir_lattice_q15.c **** }
 249              	 .loc 1 502 0
 250 0140 6C37     	 adds r7,r7,#108
 251              	.LCFI3:
 252              	 .cfi_def_cfa_offset 4
 253 0142 BD46     	 mov sp,r7
 254              	.LCFI4:
 255              	 .cfi_def_cfa_register 13
 256              	 
 257 0144 5DF8047B 	 ldr r7,[sp],#4
 258              	.LCFI5:
 259              	 .cfi_restore 7
 260              	 .cfi_def_cfa_offset 0
 261 0148 7047     	 bx lr
 262              	 .cfi_endproc
 263              	.LFE149:
 265 014a 00BF     	 .text
 266              	.Letext0:
 267              	 .file 2 "c:\\infineon\\tools\\dave ide\\4.5.0.202105191637\\eclipse\\arm-gcc-49\\arm-none-eabi\\include\\machine\\_default_types.h"
 268              	 .file 3 "c:\\infineon\\tools\\dave ide\\4.5.0.202105191637\\eclipse\\arm-gcc-49\\arm-none-eabi\\include\\stdint.h"
 269              	 .file 4 "C:/Users/Rui Mendes/Desktop/DAVE/_Naive/_ForTesting/Dave/Generated/CMSIS_DSP/Include/arm_math.h"
 270              	 .file 5 "C:/Users/Rui Mendes/Desktop/DAVE/_Naive/_ForTesting/Libraries/CMSIS/Include/cmsis_gcc.h"