   1              	 .syntax unified
   2              	 .cpu cortex-m4
   3              	 .eabi_attribute 27,3
   4              	 .fpu fpv4-sp-d16
   5              	 .eabi_attribute 20,1
   6              	 .eabi_attribute 21,1
   7              	 .eabi_attribute 23,3
   8              	 .eabi_attribute 24,1
   9              	 .eabi_attribute 25,1
  10              	 .eabi_attribute 26,1
  11              	 .eabi_attribute 30,6
  12              	 .eabi_attribute 34,1
  13              	 .eabi_attribute 18,4
  14              	 .thumb
  15              	 .file "arm_conv_fast_opt_q15.c"
  16              	 .text
  17              	.Ltext0:
  18              	 .cfi_sections .debug_frame
  19              	 .section .text.arm_conv_fast_opt_q15,"ax",%progbits
  20              	 .align 2
  21              	 .global arm_conv_fast_opt_q15
  22              	 .thumb
  23              	 .thumb_func
  25              	arm_conv_fast_opt_q15:
  26              	.LFB149:
  27              	 .file 1 "../Dave/Generated/CMSIS_DSP/Source/FilteringFunctions/arm_conv_fast_opt_q15.c"
   1:../Dave/Generated/CMSIS_DSP/Source/FilteringFunctions/arm_conv_fast_opt_q15.c **** /* ----------------------------------------------------------------------
   2:../Dave/Generated/CMSIS_DSP/Source/FilteringFunctions/arm_conv_fast_opt_q15.c ****  * Project:      CMSIS DSP Library
   3:../Dave/Generated/CMSIS_DSP/Source/FilteringFunctions/arm_conv_fast_opt_q15.c ****  * Title:        arm_conv_fast_opt_q15.c
   4:../Dave/Generated/CMSIS_DSP/Source/FilteringFunctions/arm_conv_fast_opt_q15.c ****  * Description:  Fast Q15 Convolution
   5:../Dave/Generated/CMSIS_DSP/Source/FilteringFunctions/arm_conv_fast_opt_q15.c ****  *
   6:../Dave/Generated/CMSIS_DSP/Source/FilteringFunctions/arm_conv_fast_opt_q15.c ****  * $Date:        18. March 2019
   7:../Dave/Generated/CMSIS_DSP/Source/FilteringFunctions/arm_conv_fast_opt_q15.c ****  * $Revision:    V1.6.0
   8:../Dave/Generated/CMSIS_DSP/Source/FilteringFunctions/arm_conv_fast_opt_q15.c ****  *
   9:../Dave/Generated/CMSIS_DSP/Source/FilteringFunctions/arm_conv_fast_opt_q15.c ****  * Target Processor: Cortex-M cores
  10:../Dave/Generated/CMSIS_DSP/Source/FilteringFunctions/arm_conv_fast_opt_q15.c ****  * -------------------------------------------------------------------- */
  11:../Dave/Generated/CMSIS_DSP/Source/FilteringFunctions/arm_conv_fast_opt_q15.c **** /*
  12:../Dave/Generated/CMSIS_DSP/Source/FilteringFunctions/arm_conv_fast_opt_q15.c ****  * Copyright (C) 2010-2019 ARM Limited or its affiliates. All rights reserved.
  13:../Dave/Generated/CMSIS_DSP/Source/FilteringFunctions/arm_conv_fast_opt_q15.c ****  *
  14:../Dave/Generated/CMSIS_DSP/Source/FilteringFunctions/arm_conv_fast_opt_q15.c ****  * SPDX-License-Identifier: Apache-2.0
  15:../Dave/Generated/CMSIS_DSP/Source/FilteringFunctions/arm_conv_fast_opt_q15.c ****  *
  16:../Dave/Generated/CMSIS_DSP/Source/FilteringFunctions/arm_conv_fast_opt_q15.c ****  * Licensed under the Apache License, Version 2.0 (the License); you may
  17:../Dave/Generated/CMSIS_DSP/Source/FilteringFunctions/arm_conv_fast_opt_q15.c ****  * not use this file except in compliance with the License.
  18:../Dave/Generated/CMSIS_DSP/Source/FilteringFunctions/arm_conv_fast_opt_q15.c ****  * You may obtain a copy of the License at
  19:../Dave/Generated/CMSIS_DSP/Source/FilteringFunctions/arm_conv_fast_opt_q15.c ****  *
  20:../Dave/Generated/CMSIS_DSP/Source/FilteringFunctions/arm_conv_fast_opt_q15.c ****  * www.apache.org/licenses/LICENSE-2.0
  21:../Dave/Generated/CMSIS_DSP/Source/FilteringFunctions/arm_conv_fast_opt_q15.c ****  *
  22:../Dave/Generated/CMSIS_DSP/Source/FilteringFunctions/arm_conv_fast_opt_q15.c ****  * Unless required by applicable law or agreed to in writing, software
  23:../Dave/Generated/CMSIS_DSP/Source/FilteringFunctions/arm_conv_fast_opt_q15.c ****  * distributed under the License is distributed on an AS IS BASIS, WITHOUT
  24:../Dave/Generated/CMSIS_DSP/Source/FilteringFunctions/arm_conv_fast_opt_q15.c ****  * WARRANTIES OR CONDITIONS OF ANY KIND, either express or implied.
  25:../Dave/Generated/CMSIS_DSP/Source/FilteringFunctions/arm_conv_fast_opt_q15.c ****  * See the License for the specific language governing permissions and
  26:../Dave/Generated/CMSIS_DSP/Source/FilteringFunctions/arm_conv_fast_opt_q15.c ****  * limitations under the License.
  27:../Dave/Generated/CMSIS_DSP/Source/FilteringFunctions/arm_conv_fast_opt_q15.c ****  */
  28:../Dave/Generated/CMSIS_DSP/Source/FilteringFunctions/arm_conv_fast_opt_q15.c **** 
  29:../Dave/Generated/CMSIS_DSP/Source/FilteringFunctions/arm_conv_fast_opt_q15.c **** #include "CMSIS_DSP/cmsis_dsp.h"
  30:../Dave/Generated/CMSIS_DSP/Source/FilteringFunctions/arm_conv_fast_opt_q15.c **** 
  31:../Dave/Generated/CMSIS_DSP/Source/FilteringFunctions/arm_conv_fast_opt_q15.c **** /**
  32:../Dave/Generated/CMSIS_DSP/Source/FilteringFunctions/arm_conv_fast_opt_q15.c ****   @ingroup groupFilters
  33:../Dave/Generated/CMSIS_DSP/Source/FilteringFunctions/arm_conv_fast_opt_q15.c ****  */
  34:../Dave/Generated/CMSIS_DSP/Source/FilteringFunctions/arm_conv_fast_opt_q15.c **** 
  35:../Dave/Generated/CMSIS_DSP/Source/FilteringFunctions/arm_conv_fast_opt_q15.c **** /**
  36:../Dave/Generated/CMSIS_DSP/Source/FilteringFunctions/arm_conv_fast_opt_q15.c ****   @addtogroup Conv
  37:../Dave/Generated/CMSIS_DSP/Source/FilteringFunctions/arm_conv_fast_opt_q15.c ****   @{
  38:../Dave/Generated/CMSIS_DSP/Source/FilteringFunctions/arm_conv_fast_opt_q15.c ****  */
  39:../Dave/Generated/CMSIS_DSP/Source/FilteringFunctions/arm_conv_fast_opt_q15.c **** 
  40:../Dave/Generated/CMSIS_DSP/Source/FilteringFunctions/arm_conv_fast_opt_q15.c **** /**
  41:../Dave/Generated/CMSIS_DSP/Source/FilteringFunctions/arm_conv_fast_opt_q15.c ****   @brief         Convolution of Q15 sequences (fast version).
  42:../Dave/Generated/CMSIS_DSP/Source/FilteringFunctions/arm_conv_fast_opt_q15.c ****   @param[in]     pSrcA      points to the first input sequence
  43:../Dave/Generated/CMSIS_DSP/Source/FilteringFunctions/arm_conv_fast_opt_q15.c ****   @param[in]     srcALen    length of the first input sequence
  44:../Dave/Generated/CMSIS_DSP/Source/FilteringFunctions/arm_conv_fast_opt_q15.c ****   @param[in]     pSrcB      points to the second input sequence
  45:../Dave/Generated/CMSIS_DSP/Source/FilteringFunctions/arm_conv_fast_opt_q15.c ****   @param[in]     srcBLen    length of the second input sequence
  46:../Dave/Generated/CMSIS_DSP/Source/FilteringFunctions/arm_conv_fast_opt_q15.c ****   @param[out]    pDst       points to the location where the output result is written.  Length srcA
  47:../Dave/Generated/CMSIS_DSP/Source/FilteringFunctions/arm_conv_fast_opt_q15.c ****   @param[in]     pScratch1  points to scratch buffer of size max(srcALen, srcBLen) + 2*min(srcALen,
  48:../Dave/Generated/CMSIS_DSP/Source/FilteringFunctions/arm_conv_fast_opt_q15.c ****   @param[in]     pScratch2  points to scratch buffer of size min(srcALen, srcBLen
  49:../Dave/Generated/CMSIS_DSP/Source/FilteringFunctions/arm_conv_fast_opt_q15.c ****   @return        none
  50:../Dave/Generated/CMSIS_DSP/Source/FilteringFunctions/arm_conv_fast_opt_q15.c **** 
  51:../Dave/Generated/CMSIS_DSP/Source/FilteringFunctions/arm_conv_fast_opt_q15.c ****   @par           Scaling and Overflow Behavior
  52:../Dave/Generated/CMSIS_DSP/Source/FilteringFunctions/arm_conv_fast_opt_q15.c ****                    This fast version uses a 32-bit accumulator with 2.30 format.
  53:../Dave/Generated/CMSIS_DSP/Source/FilteringFunctions/arm_conv_fast_opt_q15.c ****                    The accumulator maintains full precision of the intermediate multiplication resu
  54:../Dave/Generated/CMSIS_DSP/Source/FilteringFunctions/arm_conv_fast_opt_q15.c ****                    but provides only a single guard bit. There is no saturation on intermediate add
  55:../Dave/Generated/CMSIS_DSP/Source/FilteringFunctions/arm_conv_fast_opt_q15.c ****                    Thus, if the accumulator overflows it wraps around and distorts the result.
  56:../Dave/Generated/CMSIS_DSP/Source/FilteringFunctions/arm_conv_fast_opt_q15.c ****                    The input signals should be scaled down to avoid intermediate overflows.
  57:../Dave/Generated/CMSIS_DSP/Source/FilteringFunctions/arm_conv_fast_opt_q15.c ****                    Scale down the inputs by log2(min(srcALen, srcBLen)) (log2 is read as log to the
  58:../Dave/Generated/CMSIS_DSP/Source/FilteringFunctions/arm_conv_fast_opt_q15.c ****                    as maximum of min(srcALen, srcBLen) number of additions are carried internally.
  59:../Dave/Generated/CMSIS_DSP/Source/FilteringFunctions/arm_conv_fast_opt_q15.c ****                    The 2.30 accumulator is right shifted by 15 bits and then saturated to 1.15 form
  60:../Dave/Generated/CMSIS_DSP/Source/FilteringFunctions/arm_conv_fast_opt_q15.c **** 
  61:../Dave/Generated/CMSIS_DSP/Source/FilteringFunctions/arm_conv_fast_opt_q15.c ****   @remark
  62:../Dave/Generated/CMSIS_DSP/Source/FilteringFunctions/arm_conv_fast_opt_q15.c ****                    Refer to \ref arm_conv_q15() for a slower implementation of this function which 
  63:../Dave/Generated/CMSIS_DSP/Source/FilteringFunctions/arm_conv_fast_opt_q15.c ****  */
  64:../Dave/Generated/CMSIS_DSP/Source/FilteringFunctions/arm_conv_fast_opt_q15.c **** 
  65:../Dave/Generated/CMSIS_DSP/Source/FilteringFunctions/arm_conv_fast_opt_q15.c **** void arm_conv_fast_opt_q15(
  66:../Dave/Generated/CMSIS_DSP/Source/FilteringFunctions/arm_conv_fast_opt_q15.c ****   const q15_t * pSrcA,
  67:../Dave/Generated/CMSIS_DSP/Source/FilteringFunctions/arm_conv_fast_opt_q15.c ****         uint32_t srcALen,
  68:../Dave/Generated/CMSIS_DSP/Source/FilteringFunctions/arm_conv_fast_opt_q15.c ****   const q15_t * pSrcB,
  69:../Dave/Generated/CMSIS_DSP/Source/FilteringFunctions/arm_conv_fast_opt_q15.c ****         uint32_t srcBLen,
  70:../Dave/Generated/CMSIS_DSP/Source/FilteringFunctions/arm_conv_fast_opt_q15.c ****         q15_t * pDst,
  71:../Dave/Generated/CMSIS_DSP/Source/FilteringFunctions/arm_conv_fast_opt_q15.c ****         q15_t * pScratch1,
  72:../Dave/Generated/CMSIS_DSP/Source/FilteringFunctions/arm_conv_fast_opt_q15.c ****         q15_t * pScratch2)
  73:../Dave/Generated/CMSIS_DSP/Source/FilteringFunctions/arm_conv_fast_opt_q15.c **** {
  28              	 .loc 1 73 0
  29              	 .cfi_startproc
  30              	 
  31              	 
  32 0000 80B5     	 push {r7,lr}
  33              	.LCFI0:
  34              	 .cfi_def_cfa_offset 8
  35              	 .cfi_offset 7,-8
  36              	 .cfi_offset 14,-4
  37 0002 92B0     	 sub sp,sp,#72
  38              	.LCFI1:
  39              	 .cfi_def_cfa_offset 80
  40 0004 00AF     	 add r7,sp,#0
  41              	.LCFI2:
  42              	 .cfi_def_cfa_register 7
  43 0006 F860     	 str r0,[r7,#12]
  44 0008 B960     	 str r1,[r7,#8]
  45 000a 7A60     	 str r2,[r7,#4]
  46 000c 3B60     	 str r3,[r7]
  74:../Dave/Generated/CMSIS_DSP/Source/FilteringFunctions/arm_conv_fast_opt_q15.c ****         q31_t acc0;                                    /* Accumulators */
  75:../Dave/Generated/CMSIS_DSP/Source/FilteringFunctions/arm_conv_fast_opt_q15.c ****   const q15_t *pIn1;                                   /* InputA pointer */
  76:../Dave/Generated/CMSIS_DSP/Source/FilteringFunctions/arm_conv_fast_opt_q15.c ****   const q15_t *pIn2;                                   /* InputB pointer */
  77:../Dave/Generated/CMSIS_DSP/Source/FilteringFunctions/arm_conv_fast_opt_q15.c ****         q15_t *pOut = pDst;                            /* Output pointer */
  47              	 .loc 1 77 0
  48 000e 3B6D     	 ldr r3,[r7,#80]
  49 0010 BB63     	 str r3,[r7,#56]
  78:../Dave/Generated/CMSIS_DSP/Source/FilteringFunctions/arm_conv_fast_opt_q15.c ****         q15_t *pScr1 = pScratch1;                      /* Temporary pointer for scratch1 */
  50              	 .loc 1 78 0
  51 0012 7B6D     	 ldr r3,[r7,#84]
  52 0014 7B63     	 str r3,[r7,#52]
  79:../Dave/Generated/CMSIS_DSP/Source/FilteringFunctions/arm_conv_fast_opt_q15.c ****         q15_t *pScr2 = pScratch2;                      /* Temporary pointer for scratch1 */
  53              	 .loc 1 79 0
  54 0016 BB6D     	 ldr r3,[r7,#88]
  55 0018 3B63     	 str r3,[r7,#48]
  80:../Dave/Generated/CMSIS_DSP/Source/FilteringFunctions/arm_conv_fast_opt_q15.c ****   const q15_t *px;                                     /* Intermediate inputA pointer */
  81:../Dave/Generated/CMSIS_DSP/Source/FilteringFunctions/arm_conv_fast_opt_q15.c ****         q15_t *py;                                     /* Intermediate inputB pointer */
  82:../Dave/Generated/CMSIS_DSP/Source/FilteringFunctions/arm_conv_fast_opt_q15.c ****         uint32_t j, k, blkCnt;                         /* Loop counter */
  83:../Dave/Generated/CMSIS_DSP/Source/FilteringFunctions/arm_conv_fast_opt_q15.c ****         uint32_t tapCnt;                               /* Loop count */
  84:../Dave/Generated/CMSIS_DSP/Source/FilteringFunctions/arm_conv_fast_opt_q15.c **** 
  85:../Dave/Generated/CMSIS_DSP/Source/FilteringFunctions/arm_conv_fast_opt_q15.c **** #if defined (ARM_MATH_LOOPUNROLL)
  86:../Dave/Generated/CMSIS_DSP/Source/FilteringFunctions/arm_conv_fast_opt_q15.c ****         q31_t acc1, acc2, acc3;                        /* Accumulators */
  87:../Dave/Generated/CMSIS_DSP/Source/FilteringFunctions/arm_conv_fast_opt_q15.c ****         q31_t x1, x2, x3;                              /* Temporary variables to hold state and coe
  88:../Dave/Generated/CMSIS_DSP/Source/FilteringFunctions/arm_conv_fast_opt_q15.c ****         q31_t y1, y2;                                  /* State variables */
  89:../Dave/Generated/CMSIS_DSP/Source/FilteringFunctions/arm_conv_fast_opt_q15.c **** #endif
  90:../Dave/Generated/CMSIS_DSP/Source/FilteringFunctions/arm_conv_fast_opt_q15.c **** 
  91:../Dave/Generated/CMSIS_DSP/Source/FilteringFunctions/arm_conv_fast_opt_q15.c **** 
  92:../Dave/Generated/CMSIS_DSP/Source/FilteringFunctions/arm_conv_fast_opt_q15.c ****   /* The algorithm implementation is based on the lengths of the inputs. */
  93:../Dave/Generated/CMSIS_DSP/Source/FilteringFunctions/arm_conv_fast_opt_q15.c ****   /* srcB is always made to slide across srcA. */
  94:../Dave/Generated/CMSIS_DSP/Source/FilteringFunctions/arm_conv_fast_opt_q15.c ****   /* So srcBLen is always considered as shorter or equal to srcALen */
  95:../Dave/Generated/CMSIS_DSP/Source/FilteringFunctions/arm_conv_fast_opt_q15.c ****   if (srcALen >= srcBLen)
  56              	 .loc 1 95 0
  57 001a BA68     	 ldr r2,[r7,#8]
  58 001c 3B68     	 ldr r3,[r7]
  59 001e 9A42     	 cmp r2,r3
  60 0020 04D3     	 bcc .L2
  96:../Dave/Generated/CMSIS_DSP/Source/FilteringFunctions/arm_conv_fast_opt_q15.c ****   {
  97:../Dave/Generated/CMSIS_DSP/Source/FilteringFunctions/arm_conv_fast_opt_q15.c ****     /* Initialization of inputA pointer */
  98:../Dave/Generated/CMSIS_DSP/Source/FilteringFunctions/arm_conv_fast_opt_q15.c ****     pIn1 = pSrcA;
  61              	 .loc 1 98 0
  62 0022 FB68     	 ldr r3,[r7,#12]
  63 0024 3B64     	 str r3,[r7,#64]
  99:../Dave/Generated/CMSIS_DSP/Source/FilteringFunctions/arm_conv_fast_opt_q15.c **** 
 100:../Dave/Generated/CMSIS_DSP/Source/FilteringFunctions/arm_conv_fast_opt_q15.c ****     /* Initialization of inputB pointer */
 101:../Dave/Generated/CMSIS_DSP/Source/FilteringFunctions/arm_conv_fast_opt_q15.c ****     pIn2 = pSrcB;
  64              	 .loc 1 101 0
  65 0026 7B68     	 ldr r3,[r7,#4]
  66 0028 FB63     	 str r3,[r7,#60]
  67 002a 09E0     	 b .L3
  68              	.L2:
 102:../Dave/Generated/CMSIS_DSP/Source/FilteringFunctions/arm_conv_fast_opt_q15.c ****   }
 103:../Dave/Generated/CMSIS_DSP/Source/FilteringFunctions/arm_conv_fast_opt_q15.c ****   else
 104:../Dave/Generated/CMSIS_DSP/Source/FilteringFunctions/arm_conv_fast_opt_q15.c ****   {
 105:../Dave/Generated/CMSIS_DSP/Source/FilteringFunctions/arm_conv_fast_opt_q15.c ****     /* Initialization of inputA pointer */
 106:../Dave/Generated/CMSIS_DSP/Source/FilteringFunctions/arm_conv_fast_opt_q15.c ****     pIn1 = pSrcB;
  69              	 .loc 1 106 0
  70 002c 7B68     	 ldr r3,[r7,#4]
  71 002e 3B64     	 str r3,[r7,#64]
 107:../Dave/Generated/CMSIS_DSP/Source/FilteringFunctions/arm_conv_fast_opt_q15.c **** 
 108:../Dave/Generated/CMSIS_DSP/Source/FilteringFunctions/arm_conv_fast_opt_q15.c ****     /* Initialization of inputB pointer */
 109:../Dave/Generated/CMSIS_DSP/Source/FilteringFunctions/arm_conv_fast_opt_q15.c ****     pIn2 = pSrcA;
  72              	 .loc 1 109 0
  73 0030 FB68     	 ldr r3,[r7,#12]
  74 0032 FB63     	 str r3,[r7,#60]
 110:../Dave/Generated/CMSIS_DSP/Source/FilteringFunctions/arm_conv_fast_opt_q15.c **** 
 111:../Dave/Generated/CMSIS_DSP/Source/FilteringFunctions/arm_conv_fast_opt_q15.c ****     /* srcBLen is always considered as shorter or equal to srcALen */
 112:../Dave/Generated/CMSIS_DSP/Source/FilteringFunctions/arm_conv_fast_opt_q15.c ****     j = srcBLen;
  75              	 .loc 1 112 0
  76 0034 3B68     	 ldr r3,[r7]
  77 0036 FB61     	 str r3,[r7,#28]
 113:../Dave/Generated/CMSIS_DSP/Source/FilteringFunctions/arm_conv_fast_opt_q15.c ****     srcBLen = srcALen;
  78              	 .loc 1 113 0
  79 0038 BB68     	 ldr r3,[r7,#8]
  80 003a 3B60     	 str r3,[r7]
 114:../Dave/Generated/CMSIS_DSP/Source/FilteringFunctions/arm_conv_fast_opt_q15.c ****     srcALen = j;
  81              	 .loc 1 114 0
  82 003c FB69     	 ldr r3,[r7,#28]
  83 003e BB60     	 str r3,[r7,#8]
  84              	.L3:
 115:../Dave/Generated/CMSIS_DSP/Source/FilteringFunctions/arm_conv_fast_opt_q15.c ****   }
 116:../Dave/Generated/CMSIS_DSP/Source/FilteringFunctions/arm_conv_fast_opt_q15.c **** 
 117:../Dave/Generated/CMSIS_DSP/Source/FilteringFunctions/arm_conv_fast_opt_q15.c ****   /* Pointer to take end of scratch2 buffer */
 118:../Dave/Generated/CMSIS_DSP/Source/FilteringFunctions/arm_conv_fast_opt_q15.c ****   pScr2 = pScratch2 + srcBLen - 1;
  85              	 .loc 1 118 0
  86 0040 3B68     	 ldr r3,[r7]
  87 0042 03F10043 	 add r3,r3,#-2147483648
  88 0046 013B     	 subs r3,r3,#1
  89 0048 5B00     	 lsls r3,r3,#1
  90 004a BA6D     	 ldr r2,[r7,#88]
  91 004c 1344     	 add r3,r3,r2
  92 004e 3B63     	 str r3,[r7,#48]
 119:../Dave/Generated/CMSIS_DSP/Source/FilteringFunctions/arm_conv_fast_opt_q15.c **** 
 120:../Dave/Generated/CMSIS_DSP/Source/FilteringFunctions/arm_conv_fast_opt_q15.c ****   /* points to smaller length sequence */
 121:../Dave/Generated/CMSIS_DSP/Source/FilteringFunctions/arm_conv_fast_opt_q15.c ****   px = pIn2;
  93              	 .loc 1 121 0
  94 0050 FB6B     	 ldr r3,[r7,#60]
  95 0052 FB62     	 str r3,[r7,#44]
 122:../Dave/Generated/CMSIS_DSP/Source/FilteringFunctions/arm_conv_fast_opt_q15.c **** 
 123:../Dave/Generated/CMSIS_DSP/Source/FilteringFunctions/arm_conv_fast_opt_q15.c **** #if defined (ARM_MATH_LOOPUNROLL)
 124:../Dave/Generated/CMSIS_DSP/Source/FilteringFunctions/arm_conv_fast_opt_q15.c **** 
 125:../Dave/Generated/CMSIS_DSP/Source/FilteringFunctions/arm_conv_fast_opt_q15.c ****   /* Loop unrolling: Compute 4 outputs at a time */
 126:../Dave/Generated/CMSIS_DSP/Source/FilteringFunctions/arm_conv_fast_opt_q15.c ****   k = srcBLen >> 2U;
 127:../Dave/Generated/CMSIS_DSP/Source/FilteringFunctions/arm_conv_fast_opt_q15.c **** 
 128:../Dave/Generated/CMSIS_DSP/Source/FilteringFunctions/arm_conv_fast_opt_q15.c ****   /* Copy smaller length input sequence in reverse order into second scratch buffer */
 129:../Dave/Generated/CMSIS_DSP/Source/FilteringFunctions/arm_conv_fast_opt_q15.c ****   while (k > 0U)
 130:../Dave/Generated/CMSIS_DSP/Source/FilteringFunctions/arm_conv_fast_opt_q15.c ****   {
 131:../Dave/Generated/CMSIS_DSP/Source/FilteringFunctions/arm_conv_fast_opt_q15.c ****     /* copy second buffer in reversal manner */
 132:../Dave/Generated/CMSIS_DSP/Source/FilteringFunctions/arm_conv_fast_opt_q15.c ****     *pScr2-- = *px++;
 133:../Dave/Generated/CMSIS_DSP/Source/FilteringFunctions/arm_conv_fast_opt_q15.c ****     *pScr2-- = *px++;
 134:../Dave/Generated/CMSIS_DSP/Source/FilteringFunctions/arm_conv_fast_opt_q15.c ****     *pScr2-- = *px++;
 135:../Dave/Generated/CMSIS_DSP/Source/FilteringFunctions/arm_conv_fast_opt_q15.c ****     *pScr2-- = *px++;
 136:../Dave/Generated/CMSIS_DSP/Source/FilteringFunctions/arm_conv_fast_opt_q15.c **** 
 137:../Dave/Generated/CMSIS_DSP/Source/FilteringFunctions/arm_conv_fast_opt_q15.c ****     /* Decrement loop counter */
 138:../Dave/Generated/CMSIS_DSP/Source/FilteringFunctions/arm_conv_fast_opt_q15.c ****     k--;
 139:../Dave/Generated/CMSIS_DSP/Source/FilteringFunctions/arm_conv_fast_opt_q15.c ****   }
 140:../Dave/Generated/CMSIS_DSP/Source/FilteringFunctions/arm_conv_fast_opt_q15.c **** 
 141:../Dave/Generated/CMSIS_DSP/Source/FilteringFunctions/arm_conv_fast_opt_q15.c ****   /* Loop unrolling: Compute remaining outputs */
 142:../Dave/Generated/CMSIS_DSP/Source/FilteringFunctions/arm_conv_fast_opt_q15.c ****   k = srcBLen % 0x4U;
 143:../Dave/Generated/CMSIS_DSP/Source/FilteringFunctions/arm_conv_fast_opt_q15.c **** 
 144:../Dave/Generated/CMSIS_DSP/Source/FilteringFunctions/arm_conv_fast_opt_q15.c **** #else
 145:../Dave/Generated/CMSIS_DSP/Source/FilteringFunctions/arm_conv_fast_opt_q15.c **** 
 146:../Dave/Generated/CMSIS_DSP/Source/FilteringFunctions/arm_conv_fast_opt_q15.c ****   /* Initialize k with number of samples */
 147:../Dave/Generated/CMSIS_DSP/Source/FilteringFunctions/arm_conv_fast_opt_q15.c ****   k = srcBLen;
  96              	 .loc 1 147 0
  97 0054 3B68     	 ldr r3,[r7]
  98 0056 BB62     	 str r3,[r7,#40]
 148:../Dave/Generated/CMSIS_DSP/Source/FilteringFunctions/arm_conv_fast_opt_q15.c **** 
 149:../Dave/Generated/CMSIS_DSP/Source/FilteringFunctions/arm_conv_fast_opt_q15.c **** #endif /* #if defined (ARM_MATH_LOOPUNROLL) */
 150:../Dave/Generated/CMSIS_DSP/Source/FilteringFunctions/arm_conv_fast_opt_q15.c **** 
 151:../Dave/Generated/CMSIS_DSP/Source/FilteringFunctions/arm_conv_fast_opt_q15.c ****   while (k > 0U)
  99              	 .loc 1 151 0
 100 0058 0AE0     	 b .L4
 101              	.L5:
 152:../Dave/Generated/CMSIS_DSP/Source/FilteringFunctions/arm_conv_fast_opt_q15.c ****   {
 153:../Dave/Generated/CMSIS_DSP/Source/FilteringFunctions/arm_conv_fast_opt_q15.c ****     /* copy second buffer in reversal manner for remaining samples */
 154:../Dave/Generated/CMSIS_DSP/Source/FilteringFunctions/arm_conv_fast_opt_q15.c ****     *pScr2-- = *px++;
 102              	 .loc 1 154 0
 103 005a 3B6B     	 ldr r3,[r7,#48]
 104 005c 9A1E     	 subs r2,r3,#2
 105 005e 3A63     	 str r2,[r7,#48]
 106 0060 FA6A     	 ldr r2,[r7,#44]
 107 0062 911C     	 adds r1,r2,#2
 108 0064 F962     	 str r1,[r7,#44]
 109 0066 1288     	 ldrh r2,[r2]
 110 0068 1A80     	 strh r2,[r3]
 155:../Dave/Generated/CMSIS_DSP/Source/FilteringFunctions/arm_conv_fast_opt_q15.c **** 
 156:../Dave/Generated/CMSIS_DSP/Source/FilteringFunctions/arm_conv_fast_opt_q15.c ****     /* Decrement loop counter */
 157:../Dave/Generated/CMSIS_DSP/Source/FilteringFunctions/arm_conv_fast_opt_q15.c ****     k--;
 111              	 .loc 1 157 0
 112 006a BB6A     	 ldr r3,[r7,#40]
 113 006c 013B     	 subs r3,r3,#1
 114 006e BB62     	 str r3,[r7,#40]
 115              	.L4:
 151:../Dave/Generated/CMSIS_DSP/Source/FilteringFunctions/arm_conv_fast_opt_q15.c ****   {
 116              	 .loc 1 151 0
 117 0070 BB6A     	 ldr r3,[r7,#40]
 118 0072 002B     	 cmp r3,#0
 119 0074 F1D1     	 bne .L5
 158:../Dave/Generated/CMSIS_DSP/Source/FilteringFunctions/arm_conv_fast_opt_q15.c ****   }
 159:../Dave/Generated/CMSIS_DSP/Source/FilteringFunctions/arm_conv_fast_opt_q15.c **** 
 160:../Dave/Generated/CMSIS_DSP/Source/FilteringFunctions/arm_conv_fast_opt_q15.c ****   /* Initialze temporary scratch pointer */
 161:../Dave/Generated/CMSIS_DSP/Source/FilteringFunctions/arm_conv_fast_opt_q15.c ****   pScr1 = pScratch1;
 120              	 .loc 1 161 0
 121 0076 7B6D     	 ldr r3,[r7,#84]
 122 0078 7B63     	 str r3,[r7,#52]
 162:../Dave/Generated/CMSIS_DSP/Source/FilteringFunctions/arm_conv_fast_opt_q15.c **** 
 163:../Dave/Generated/CMSIS_DSP/Source/FilteringFunctions/arm_conv_fast_opt_q15.c ****   /* Assuming scratch1 buffer is aligned by 32-bit */
 164:../Dave/Generated/CMSIS_DSP/Source/FilteringFunctions/arm_conv_fast_opt_q15.c ****   /* Fill (srcBLen - 1U) zeros in scratch1 buffer */
 165:../Dave/Generated/CMSIS_DSP/Source/FilteringFunctions/arm_conv_fast_opt_q15.c ****   arm_fill_q15(0, pScr1, (srcBLen - 1U));
 123              	 .loc 1 165 0
 124 007a 3B68     	 ldr r3,[r7]
 125 007c 013B     	 subs r3,r3,#1
 126 007e 0020     	 movs r0,#0
 127 0080 796B     	 ldr r1,[r7,#52]
 128 0082 1A46     	 mov r2,r3
 129 0084 FFF7FEFF 	 bl arm_fill_q15
 166:../Dave/Generated/CMSIS_DSP/Source/FilteringFunctions/arm_conv_fast_opt_q15.c **** 
 167:../Dave/Generated/CMSIS_DSP/Source/FilteringFunctions/arm_conv_fast_opt_q15.c ****   /* Update temporary scratch pointer */
 168:../Dave/Generated/CMSIS_DSP/Source/FilteringFunctions/arm_conv_fast_opt_q15.c ****   pScr1 += (srcBLen - 1U);
 130              	 .loc 1 168 0
 131 0088 3B68     	 ldr r3,[r7]
 132 008a 03F10043 	 add r3,r3,#-2147483648
 133 008e 013B     	 subs r3,r3,#1
 134 0090 5B00     	 lsls r3,r3,#1
 135 0092 7A6B     	 ldr r2,[r7,#52]
 136 0094 1344     	 add r3,r3,r2
 137 0096 7B63     	 str r3,[r7,#52]
 169:../Dave/Generated/CMSIS_DSP/Source/FilteringFunctions/arm_conv_fast_opt_q15.c **** 
 170:../Dave/Generated/CMSIS_DSP/Source/FilteringFunctions/arm_conv_fast_opt_q15.c ****   /* Copy bigger length sequence(srcALen) samples in scratch1 buffer */
 171:../Dave/Generated/CMSIS_DSP/Source/FilteringFunctions/arm_conv_fast_opt_q15.c **** 
 172:../Dave/Generated/CMSIS_DSP/Source/FilteringFunctions/arm_conv_fast_opt_q15.c ****   /* Copy (srcALen) samples in scratch buffer */
 173:../Dave/Generated/CMSIS_DSP/Source/FilteringFunctions/arm_conv_fast_opt_q15.c ****   arm_copy_q15(pIn1, pScr1, srcALen);
 138              	 .loc 1 173 0
 139 0098 386C     	 ldr r0,[r7,#64]
 140 009a 796B     	 ldr r1,[r7,#52]
 141 009c BA68     	 ldr r2,[r7,#8]
 142 009e FFF7FEFF 	 bl arm_copy_q15
 174:../Dave/Generated/CMSIS_DSP/Source/FilteringFunctions/arm_conv_fast_opt_q15.c **** 
 175:../Dave/Generated/CMSIS_DSP/Source/FilteringFunctions/arm_conv_fast_opt_q15.c ****   /* Update pointers */
 176:../Dave/Generated/CMSIS_DSP/Source/FilteringFunctions/arm_conv_fast_opt_q15.c ****   pScr1 += srcALen;
 143              	 .loc 1 176 0
 144 00a2 BB68     	 ldr r3,[r7,#8]
 145 00a4 5B00     	 lsls r3,r3,#1
 146 00a6 7A6B     	 ldr r2,[r7,#52]
 147 00a8 1344     	 add r3,r3,r2
 148 00aa 7B63     	 str r3,[r7,#52]
 177:../Dave/Generated/CMSIS_DSP/Source/FilteringFunctions/arm_conv_fast_opt_q15.c **** 
 178:../Dave/Generated/CMSIS_DSP/Source/FilteringFunctions/arm_conv_fast_opt_q15.c **** 
 179:../Dave/Generated/CMSIS_DSP/Source/FilteringFunctions/arm_conv_fast_opt_q15.c ****   /* Fill (srcBLen - 1U) zeros at end of scratch buffer */
 180:../Dave/Generated/CMSIS_DSP/Source/FilteringFunctions/arm_conv_fast_opt_q15.c ****   arm_fill_q15(0, pScr1, (srcBLen - 1U));
 149              	 .loc 1 180 0
 150 00ac 3B68     	 ldr r3,[r7]
 151 00ae 013B     	 subs r3,r3,#1
 152 00b0 0020     	 movs r0,#0
 153 00b2 796B     	 ldr r1,[r7,#52]
 154 00b4 1A46     	 mov r2,r3
 155 00b6 FFF7FEFF 	 bl arm_fill_q15
 181:../Dave/Generated/CMSIS_DSP/Source/FilteringFunctions/arm_conv_fast_opt_q15.c **** 
 182:../Dave/Generated/CMSIS_DSP/Source/FilteringFunctions/arm_conv_fast_opt_q15.c ****   /* Update pointer */
 183:../Dave/Generated/CMSIS_DSP/Source/FilteringFunctions/arm_conv_fast_opt_q15.c ****   pScr1 += (srcBLen - 1U);
 156              	 .loc 1 183 0
 157 00ba 3B68     	 ldr r3,[r7]
 158 00bc 03F10043 	 add r3,r3,#-2147483648
 159 00c0 013B     	 subs r3,r3,#1
 160 00c2 5B00     	 lsls r3,r3,#1
 161 00c4 7A6B     	 ldr r2,[r7,#52]
 162 00c6 1344     	 add r3,r3,r2
 163 00c8 7B63     	 str r3,[r7,#52]
 184:../Dave/Generated/CMSIS_DSP/Source/FilteringFunctions/arm_conv_fast_opt_q15.c **** 
 185:../Dave/Generated/CMSIS_DSP/Source/FilteringFunctions/arm_conv_fast_opt_q15.c ****   /* Temporary pointer for scratch2 */
 186:../Dave/Generated/CMSIS_DSP/Source/FilteringFunctions/arm_conv_fast_opt_q15.c ****   py = pScratch2;
 164              	 .loc 1 186 0
 165 00ca BB6D     	 ldr r3,[r7,#88]
 166 00cc BB61     	 str r3,[r7,#24]
 187:../Dave/Generated/CMSIS_DSP/Source/FilteringFunctions/arm_conv_fast_opt_q15.c **** 
 188:../Dave/Generated/CMSIS_DSP/Source/FilteringFunctions/arm_conv_fast_opt_q15.c **** 
 189:../Dave/Generated/CMSIS_DSP/Source/FilteringFunctions/arm_conv_fast_opt_q15.c ****   /* Initialization of pIn2 pointer */
 190:../Dave/Generated/CMSIS_DSP/Source/FilteringFunctions/arm_conv_fast_opt_q15.c ****   pIn2 = py;
 167              	 .loc 1 190 0
 168 00ce BB69     	 ldr r3,[r7,#24]
 169 00d0 FB63     	 str r3,[r7,#60]
 191:../Dave/Generated/CMSIS_DSP/Source/FilteringFunctions/arm_conv_fast_opt_q15.c **** 
 192:../Dave/Generated/CMSIS_DSP/Source/FilteringFunctions/arm_conv_fast_opt_q15.c **** #if defined (ARM_MATH_LOOPUNROLL)
 193:../Dave/Generated/CMSIS_DSP/Source/FilteringFunctions/arm_conv_fast_opt_q15.c **** 
 194:../Dave/Generated/CMSIS_DSP/Source/FilteringFunctions/arm_conv_fast_opt_q15.c ****   /* Loop unrolling: Compute 4 outputs at a time */
 195:../Dave/Generated/CMSIS_DSP/Source/FilteringFunctions/arm_conv_fast_opt_q15.c ****   blkCnt = (srcALen + srcBLen - 1U) >> 2;
 196:../Dave/Generated/CMSIS_DSP/Source/FilteringFunctions/arm_conv_fast_opt_q15.c **** 
 197:../Dave/Generated/CMSIS_DSP/Source/FilteringFunctions/arm_conv_fast_opt_q15.c ****   while (blkCnt > 0)
 198:../Dave/Generated/CMSIS_DSP/Source/FilteringFunctions/arm_conv_fast_opt_q15.c ****   {
 199:../Dave/Generated/CMSIS_DSP/Source/FilteringFunctions/arm_conv_fast_opt_q15.c ****     /* Initialze temporary scratch pointer as scratch1 */
 200:../Dave/Generated/CMSIS_DSP/Source/FilteringFunctions/arm_conv_fast_opt_q15.c ****     pScr1 = pScratch1;
 201:../Dave/Generated/CMSIS_DSP/Source/FilteringFunctions/arm_conv_fast_opt_q15.c **** 
 202:../Dave/Generated/CMSIS_DSP/Source/FilteringFunctions/arm_conv_fast_opt_q15.c ****     /* Clear Accumlators */
 203:../Dave/Generated/CMSIS_DSP/Source/FilteringFunctions/arm_conv_fast_opt_q15.c ****     acc0 = 0;
 204:../Dave/Generated/CMSIS_DSP/Source/FilteringFunctions/arm_conv_fast_opt_q15.c ****     acc1 = 0;
 205:../Dave/Generated/CMSIS_DSP/Source/FilteringFunctions/arm_conv_fast_opt_q15.c ****     acc2 = 0;
 206:../Dave/Generated/CMSIS_DSP/Source/FilteringFunctions/arm_conv_fast_opt_q15.c ****     acc3 = 0;
 207:../Dave/Generated/CMSIS_DSP/Source/FilteringFunctions/arm_conv_fast_opt_q15.c **** 
 208:../Dave/Generated/CMSIS_DSP/Source/FilteringFunctions/arm_conv_fast_opt_q15.c ****     /* Read two samples from scratch1 buffer */
 209:../Dave/Generated/CMSIS_DSP/Source/FilteringFunctions/arm_conv_fast_opt_q15.c ****     x1 = read_q15x2_ia (&pScr1);
 210:../Dave/Generated/CMSIS_DSP/Source/FilteringFunctions/arm_conv_fast_opt_q15.c **** 
 211:../Dave/Generated/CMSIS_DSP/Source/FilteringFunctions/arm_conv_fast_opt_q15.c ****     /* Read next two samples from scratch1 buffer */
 212:../Dave/Generated/CMSIS_DSP/Source/FilteringFunctions/arm_conv_fast_opt_q15.c ****     x2 = read_q15x2_ia (&pScr1);
 213:../Dave/Generated/CMSIS_DSP/Source/FilteringFunctions/arm_conv_fast_opt_q15.c **** 
 214:../Dave/Generated/CMSIS_DSP/Source/FilteringFunctions/arm_conv_fast_opt_q15.c ****     tapCnt = (srcBLen) >> 2U;
 215:../Dave/Generated/CMSIS_DSP/Source/FilteringFunctions/arm_conv_fast_opt_q15.c **** 
 216:../Dave/Generated/CMSIS_DSP/Source/FilteringFunctions/arm_conv_fast_opt_q15.c ****     while (tapCnt > 0U)
 217:../Dave/Generated/CMSIS_DSP/Source/FilteringFunctions/arm_conv_fast_opt_q15.c ****     {
 218:../Dave/Generated/CMSIS_DSP/Source/FilteringFunctions/arm_conv_fast_opt_q15.c **** 
 219:../Dave/Generated/CMSIS_DSP/Source/FilteringFunctions/arm_conv_fast_opt_q15.c ****       /* Read four samples from smaller buffer */
 220:../Dave/Generated/CMSIS_DSP/Source/FilteringFunctions/arm_conv_fast_opt_q15.c ****       y1 = read_q15x2_ia ((q15_t **) &pIn2);
 221:../Dave/Generated/CMSIS_DSP/Source/FilteringFunctions/arm_conv_fast_opt_q15.c ****       y2 = read_q15x2_ia ((q15_t **) &pIn2);
 222:../Dave/Generated/CMSIS_DSP/Source/FilteringFunctions/arm_conv_fast_opt_q15.c **** 
 223:../Dave/Generated/CMSIS_DSP/Source/FilteringFunctions/arm_conv_fast_opt_q15.c ****       /* multiply and accumlate */
 224:../Dave/Generated/CMSIS_DSP/Source/FilteringFunctions/arm_conv_fast_opt_q15.c ****       acc0 = __SMLAD(x1, y1, acc0);
 225:../Dave/Generated/CMSIS_DSP/Source/FilteringFunctions/arm_conv_fast_opt_q15.c ****       acc2 = __SMLAD(x2, y1, acc2);
 226:../Dave/Generated/CMSIS_DSP/Source/FilteringFunctions/arm_conv_fast_opt_q15.c **** 
 227:../Dave/Generated/CMSIS_DSP/Source/FilteringFunctions/arm_conv_fast_opt_q15.c ****       /* pack input data */
 228:../Dave/Generated/CMSIS_DSP/Source/FilteringFunctions/arm_conv_fast_opt_q15.c **** #ifndef ARM_MATH_BIG_ENDIAN
 229:../Dave/Generated/CMSIS_DSP/Source/FilteringFunctions/arm_conv_fast_opt_q15.c ****       x3 = __PKHBT(x2, x1, 0);
 230:../Dave/Generated/CMSIS_DSP/Source/FilteringFunctions/arm_conv_fast_opt_q15.c **** #else
 231:../Dave/Generated/CMSIS_DSP/Source/FilteringFunctions/arm_conv_fast_opt_q15.c ****       x3 = __PKHBT(x1, x2, 0);
 232:../Dave/Generated/CMSIS_DSP/Source/FilteringFunctions/arm_conv_fast_opt_q15.c **** #endif
 233:../Dave/Generated/CMSIS_DSP/Source/FilteringFunctions/arm_conv_fast_opt_q15.c **** 
 234:../Dave/Generated/CMSIS_DSP/Source/FilteringFunctions/arm_conv_fast_opt_q15.c ****       /* multiply and accumlate */
 235:../Dave/Generated/CMSIS_DSP/Source/FilteringFunctions/arm_conv_fast_opt_q15.c ****       acc1 = __SMLADX(x3, y1, acc1);
 236:../Dave/Generated/CMSIS_DSP/Source/FilteringFunctions/arm_conv_fast_opt_q15.c **** 
 237:../Dave/Generated/CMSIS_DSP/Source/FilteringFunctions/arm_conv_fast_opt_q15.c ****       /* Read next two samples from scratch1 buffer */
 238:../Dave/Generated/CMSIS_DSP/Source/FilteringFunctions/arm_conv_fast_opt_q15.c ****       x1 = read_q15x2_ia (&pScr1);
 239:../Dave/Generated/CMSIS_DSP/Source/FilteringFunctions/arm_conv_fast_opt_q15.c **** 
 240:../Dave/Generated/CMSIS_DSP/Source/FilteringFunctions/arm_conv_fast_opt_q15.c ****       /* multiply and accumlate */
 241:../Dave/Generated/CMSIS_DSP/Source/FilteringFunctions/arm_conv_fast_opt_q15.c ****       acc0 = __SMLAD(x2, y2, acc0);
 242:../Dave/Generated/CMSIS_DSP/Source/FilteringFunctions/arm_conv_fast_opt_q15.c ****       acc2 = __SMLAD(x1, y2, acc2);
 243:../Dave/Generated/CMSIS_DSP/Source/FilteringFunctions/arm_conv_fast_opt_q15.c **** 
 244:../Dave/Generated/CMSIS_DSP/Source/FilteringFunctions/arm_conv_fast_opt_q15.c ****       /* pack input data */
 245:../Dave/Generated/CMSIS_DSP/Source/FilteringFunctions/arm_conv_fast_opt_q15.c **** #ifndef ARM_MATH_BIG_ENDIAN
 246:../Dave/Generated/CMSIS_DSP/Source/FilteringFunctions/arm_conv_fast_opt_q15.c ****       x3 = __PKHBT(x1, x2, 0);
 247:../Dave/Generated/CMSIS_DSP/Source/FilteringFunctions/arm_conv_fast_opt_q15.c **** #else
 248:../Dave/Generated/CMSIS_DSP/Source/FilteringFunctions/arm_conv_fast_opt_q15.c ****       x3 = __PKHBT(x2, x1, 0);
 249:../Dave/Generated/CMSIS_DSP/Source/FilteringFunctions/arm_conv_fast_opt_q15.c **** #endif
 250:../Dave/Generated/CMSIS_DSP/Source/FilteringFunctions/arm_conv_fast_opt_q15.c **** 
 251:../Dave/Generated/CMSIS_DSP/Source/FilteringFunctions/arm_conv_fast_opt_q15.c ****       acc3 = __SMLADX(x3, y1, acc3);
 252:../Dave/Generated/CMSIS_DSP/Source/FilteringFunctions/arm_conv_fast_opt_q15.c ****       acc1 = __SMLADX(x3, y2, acc1);
 253:../Dave/Generated/CMSIS_DSP/Source/FilteringFunctions/arm_conv_fast_opt_q15.c **** 
 254:../Dave/Generated/CMSIS_DSP/Source/FilteringFunctions/arm_conv_fast_opt_q15.c ****       x2 = read_q15x2_ia (&pScr1);
 255:../Dave/Generated/CMSIS_DSP/Source/FilteringFunctions/arm_conv_fast_opt_q15.c **** 
 256:../Dave/Generated/CMSIS_DSP/Source/FilteringFunctions/arm_conv_fast_opt_q15.c **** #ifndef ARM_MATH_BIG_ENDIAN
 257:../Dave/Generated/CMSIS_DSP/Source/FilteringFunctions/arm_conv_fast_opt_q15.c ****       x3 = __PKHBT(x2, x1, 0);
 258:../Dave/Generated/CMSIS_DSP/Source/FilteringFunctions/arm_conv_fast_opt_q15.c **** #else
 259:../Dave/Generated/CMSIS_DSP/Source/FilteringFunctions/arm_conv_fast_opt_q15.c ****       x3 = __PKHBT(x1, x2, 0);
 260:../Dave/Generated/CMSIS_DSP/Source/FilteringFunctions/arm_conv_fast_opt_q15.c **** #endif
 261:../Dave/Generated/CMSIS_DSP/Source/FilteringFunctions/arm_conv_fast_opt_q15.c **** 
 262:../Dave/Generated/CMSIS_DSP/Source/FilteringFunctions/arm_conv_fast_opt_q15.c ****       acc3 = __SMLADX(x3, y2, acc3);
 263:../Dave/Generated/CMSIS_DSP/Source/FilteringFunctions/arm_conv_fast_opt_q15.c **** 
 264:../Dave/Generated/CMSIS_DSP/Source/FilteringFunctions/arm_conv_fast_opt_q15.c ****       /* Decrement loop counter */
 265:../Dave/Generated/CMSIS_DSP/Source/FilteringFunctions/arm_conv_fast_opt_q15.c ****       tapCnt--;
 266:../Dave/Generated/CMSIS_DSP/Source/FilteringFunctions/arm_conv_fast_opt_q15.c ****     }
 267:../Dave/Generated/CMSIS_DSP/Source/FilteringFunctions/arm_conv_fast_opt_q15.c **** 
 268:../Dave/Generated/CMSIS_DSP/Source/FilteringFunctions/arm_conv_fast_opt_q15.c ****     /* Update scratch pointer for remaining samples of smaller length sequence */
 269:../Dave/Generated/CMSIS_DSP/Source/FilteringFunctions/arm_conv_fast_opt_q15.c ****     pScr1 -= 4U;
 270:../Dave/Generated/CMSIS_DSP/Source/FilteringFunctions/arm_conv_fast_opt_q15.c **** 
 271:../Dave/Generated/CMSIS_DSP/Source/FilteringFunctions/arm_conv_fast_opt_q15.c ****     /* apply same above for remaining samples of smaller length sequence */
 272:../Dave/Generated/CMSIS_DSP/Source/FilteringFunctions/arm_conv_fast_opt_q15.c ****     tapCnt = (srcBLen) & 3U;
 273:../Dave/Generated/CMSIS_DSP/Source/FilteringFunctions/arm_conv_fast_opt_q15.c **** 
 274:../Dave/Generated/CMSIS_DSP/Source/FilteringFunctions/arm_conv_fast_opt_q15.c ****     while (tapCnt > 0U)
 275:../Dave/Generated/CMSIS_DSP/Source/FilteringFunctions/arm_conv_fast_opt_q15.c ****     {
 276:../Dave/Generated/CMSIS_DSP/Source/FilteringFunctions/arm_conv_fast_opt_q15.c ****       /* accumlate the results */
 277:../Dave/Generated/CMSIS_DSP/Source/FilteringFunctions/arm_conv_fast_opt_q15.c ****       acc0 += (*pScr1++ * *pIn2);
 278:../Dave/Generated/CMSIS_DSP/Source/FilteringFunctions/arm_conv_fast_opt_q15.c ****       acc1 += (*pScr1++ * *pIn2);
 279:../Dave/Generated/CMSIS_DSP/Source/FilteringFunctions/arm_conv_fast_opt_q15.c ****       acc2 += (*pScr1++ * *pIn2);
 280:../Dave/Generated/CMSIS_DSP/Source/FilteringFunctions/arm_conv_fast_opt_q15.c ****       acc3 += (*pScr1++ * *pIn2++);
 281:../Dave/Generated/CMSIS_DSP/Source/FilteringFunctions/arm_conv_fast_opt_q15.c **** 
 282:../Dave/Generated/CMSIS_DSP/Source/FilteringFunctions/arm_conv_fast_opt_q15.c ****       pScr1 -= 3U;
 283:../Dave/Generated/CMSIS_DSP/Source/FilteringFunctions/arm_conv_fast_opt_q15.c **** 
 284:../Dave/Generated/CMSIS_DSP/Source/FilteringFunctions/arm_conv_fast_opt_q15.c ****       /* Decrement loop counter */
 285:../Dave/Generated/CMSIS_DSP/Source/FilteringFunctions/arm_conv_fast_opt_q15.c ****       tapCnt--;
 286:../Dave/Generated/CMSIS_DSP/Source/FilteringFunctions/arm_conv_fast_opt_q15.c ****     }
 287:../Dave/Generated/CMSIS_DSP/Source/FilteringFunctions/arm_conv_fast_opt_q15.c **** 
 288:../Dave/Generated/CMSIS_DSP/Source/FilteringFunctions/arm_conv_fast_opt_q15.c ****     blkCnt--;
 289:../Dave/Generated/CMSIS_DSP/Source/FilteringFunctions/arm_conv_fast_opt_q15.c **** 
 290:../Dave/Generated/CMSIS_DSP/Source/FilteringFunctions/arm_conv_fast_opt_q15.c ****     /* Store the results in the accumulators in the destination buffer. */
 291:../Dave/Generated/CMSIS_DSP/Source/FilteringFunctions/arm_conv_fast_opt_q15.c **** #ifndef ARM_MATH_BIG_ENDIAN
 292:../Dave/Generated/CMSIS_DSP/Source/FilteringFunctions/arm_conv_fast_opt_q15.c ****     write_q15x2_ia (&pOut, __PKHBT(__SSAT((acc0 >> 15), 16), __SSAT((acc1 >> 15), 16), 16));
 293:../Dave/Generated/CMSIS_DSP/Source/FilteringFunctions/arm_conv_fast_opt_q15.c ****     write_q15x2_ia (&pOut, __PKHBT(__SSAT((acc2 >> 15), 16), __SSAT((acc3 >> 15), 16), 16));
 294:../Dave/Generated/CMSIS_DSP/Source/FilteringFunctions/arm_conv_fast_opt_q15.c **** #else
 295:../Dave/Generated/CMSIS_DSP/Source/FilteringFunctions/arm_conv_fast_opt_q15.c ****     write_q15x2_ia (&pOut, __PKHBT(__SSAT((acc1 >> 15), 16), __SSAT((acc0 >> 15), 16), 16));
 296:../Dave/Generated/CMSIS_DSP/Source/FilteringFunctions/arm_conv_fast_opt_q15.c ****     write_q15x2_ia (&pOut, __PKHBT(__SSAT((acc3 >> 15), 16), __SSAT((acc2 >> 15), 16), 16));
 297:../Dave/Generated/CMSIS_DSP/Source/FilteringFunctions/arm_conv_fast_opt_q15.c **** #endif /* #ifndef ARM_MATH_BIG_ENDIAN */
 298:../Dave/Generated/CMSIS_DSP/Source/FilteringFunctions/arm_conv_fast_opt_q15.c **** 
 299:../Dave/Generated/CMSIS_DSP/Source/FilteringFunctions/arm_conv_fast_opt_q15.c ****     /* Initialization of inputB pointer */
 300:../Dave/Generated/CMSIS_DSP/Source/FilteringFunctions/arm_conv_fast_opt_q15.c ****     pIn2 = py;
 301:../Dave/Generated/CMSIS_DSP/Source/FilteringFunctions/arm_conv_fast_opt_q15.c **** 
 302:../Dave/Generated/CMSIS_DSP/Source/FilteringFunctions/arm_conv_fast_opt_q15.c ****     pScratch1 += 4U;
 303:../Dave/Generated/CMSIS_DSP/Source/FilteringFunctions/arm_conv_fast_opt_q15.c ****   }
 304:../Dave/Generated/CMSIS_DSP/Source/FilteringFunctions/arm_conv_fast_opt_q15.c **** 
 305:../Dave/Generated/CMSIS_DSP/Source/FilteringFunctions/arm_conv_fast_opt_q15.c ****   /* Loop unrolling: Compute remaining outputs */
 306:../Dave/Generated/CMSIS_DSP/Source/FilteringFunctions/arm_conv_fast_opt_q15.c ****   blkCnt = (srcALen + srcBLen - 1U) & 0x3;
 307:../Dave/Generated/CMSIS_DSP/Source/FilteringFunctions/arm_conv_fast_opt_q15.c **** 
 308:../Dave/Generated/CMSIS_DSP/Source/FilteringFunctions/arm_conv_fast_opt_q15.c **** #else
 309:../Dave/Generated/CMSIS_DSP/Source/FilteringFunctions/arm_conv_fast_opt_q15.c **** 
 310:../Dave/Generated/CMSIS_DSP/Source/FilteringFunctions/arm_conv_fast_opt_q15.c ****   /* Initialize blkCnt with number of samples */
 311:../Dave/Generated/CMSIS_DSP/Source/FilteringFunctions/arm_conv_fast_opt_q15.c ****   blkCnt = (srcALen + srcBLen - 1U);
 170              	 .loc 1 311 0
 171 00d2 BA68     	 ldr r2,[r7,#8]
 172 00d4 3B68     	 ldr r3,[r7]
 173 00d6 1344     	 add r3,r3,r2
 174 00d8 013B     	 subs r3,r3,#1
 175 00da 7B62     	 str r3,[r7,#36]
 312:../Dave/Generated/CMSIS_DSP/Source/FilteringFunctions/arm_conv_fast_opt_q15.c **** 
 313:../Dave/Generated/CMSIS_DSP/Source/FilteringFunctions/arm_conv_fast_opt_q15.c **** #endif /* #if defined (ARM_MATH_LOOPUNROLL) */
 314:../Dave/Generated/CMSIS_DSP/Source/FilteringFunctions/arm_conv_fast_opt_q15.c **** 
 315:../Dave/Generated/CMSIS_DSP/Source/FilteringFunctions/arm_conv_fast_opt_q15.c ****   /* Calculate convolution for remaining samples of Bigger length sequence */
 316:../Dave/Generated/CMSIS_DSP/Source/FilteringFunctions/arm_conv_fast_opt_q15.c ****   while (blkCnt > 0)
 176              	 .loc 1 316 0
 177 00dc 5AE0     	 b .L6
 178              	.L11:
 317:../Dave/Generated/CMSIS_DSP/Source/FilteringFunctions/arm_conv_fast_opt_q15.c ****   {
 318:../Dave/Generated/CMSIS_DSP/Source/FilteringFunctions/arm_conv_fast_opt_q15.c ****     /* Initialze temporary scratch pointer as scratch1 */
 319:../Dave/Generated/CMSIS_DSP/Source/FilteringFunctions/arm_conv_fast_opt_q15.c ****     pScr1 = pScratch1;
 179              	 .loc 1 319 0
 180 00de 7B6D     	 ldr r3,[r7,#84]
 181 00e0 7B63     	 str r3,[r7,#52]
 320:../Dave/Generated/CMSIS_DSP/Source/FilteringFunctions/arm_conv_fast_opt_q15.c **** 
 321:../Dave/Generated/CMSIS_DSP/Source/FilteringFunctions/arm_conv_fast_opt_q15.c ****     /* Clear Accumlators */
 322:../Dave/Generated/CMSIS_DSP/Source/FilteringFunctions/arm_conv_fast_opt_q15.c ****     acc0 = 0;
 182              	 .loc 1 322 0
 183 00e2 0023     	 movs r3,#0
 184 00e4 7B64     	 str r3,[r7,#68]
 323:../Dave/Generated/CMSIS_DSP/Source/FilteringFunctions/arm_conv_fast_opt_q15.c **** 
 324:../Dave/Generated/CMSIS_DSP/Source/FilteringFunctions/arm_conv_fast_opt_q15.c ****     tapCnt = (srcBLen) >> 1U;
 185              	 .loc 1 324 0
 186 00e6 3B68     	 ldr r3,[r7]
 187 00e8 5B08     	 lsrs r3,r3,#1
 188 00ea 3B62     	 str r3,[r7,#32]
 325:../Dave/Generated/CMSIS_DSP/Source/FilteringFunctions/arm_conv_fast_opt_q15.c **** 
 326:../Dave/Generated/CMSIS_DSP/Source/FilteringFunctions/arm_conv_fast_opt_q15.c ****     while (tapCnt > 0U)
 189              	 .loc 1 326 0
 190 00ec 20E0     	 b .L7
 191              	.L8:
 327:../Dave/Generated/CMSIS_DSP/Source/FilteringFunctions/arm_conv_fast_opt_q15.c ****     {
 328:../Dave/Generated/CMSIS_DSP/Source/FilteringFunctions/arm_conv_fast_opt_q15.c **** 
 329:../Dave/Generated/CMSIS_DSP/Source/FilteringFunctions/arm_conv_fast_opt_q15.c ****       /* Read next two samples from scratch1 buffer */
 330:../Dave/Generated/CMSIS_DSP/Source/FilteringFunctions/arm_conv_fast_opt_q15.c ****       acc0 += (*pScr1++ * *pIn2++);
 192              	 .loc 1 330 0
 193 00ee 7B6B     	 ldr r3,[r7,#52]
 194 00f0 9A1C     	 adds r2,r3,#2
 195 00f2 7A63     	 str r2,[r7,#52]
 196 00f4 1B88     	 ldrh r3,[r3]
 197 00f6 1AB2     	 sxth r2,r3
 198 00f8 FB6B     	 ldr r3,[r7,#60]
 199 00fa 991C     	 adds r1,r3,#2
 200 00fc F963     	 str r1,[r7,#60]
 201 00fe 1B88     	 ldrh r3,[r3]
 202 0100 1BB2     	 sxth r3,r3
 203 0102 03FB02F3 	 mul r3,r3,r2
 204 0106 7A6C     	 ldr r2,[r7,#68]
 205 0108 1344     	 add r3,r3,r2
 206 010a 7B64     	 str r3,[r7,#68]
 331:../Dave/Generated/CMSIS_DSP/Source/FilteringFunctions/arm_conv_fast_opt_q15.c ****       acc0 += (*pScr1++ * *pIn2++);
 207              	 .loc 1 331 0
 208 010c 7B6B     	 ldr r3,[r7,#52]
 209 010e 9A1C     	 adds r2,r3,#2
 210 0110 7A63     	 str r2,[r7,#52]
 211 0112 1B88     	 ldrh r3,[r3]
 212 0114 1AB2     	 sxth r2,r3
 213 0116 FB6B     	 ldr r3,[r7,#60]
 214 0118 991C     	 adds r1,r3,#2
 215 011a F963     	 str r1,[r7,#60]
 216 011c 1B88     	 ldrh r3,[r3]
 217 011e 1BB2     	 sxth r3,r3
 218 0120 03FB02F3 	 mul r3,r3,r2
 219 0124 7A6C     	 ldr r2,[r7,#68]
 220 0126 1344     	 add r3,r3,r2
 221 0128 7B64     	 str r3,[r7,#68]
 332:../Dave/Generated/CMSIS_DSP/Source/FilteringFunctions/arm_conv_fast_opt_q15.c **** 
 333:../Dave/Generated/CMSIS_DSP/Source/FilteringFunctions/arm_conv_fast_opt_q15.c ****       /* Decrement loop counter */
 334:../Dave/Generated/CMSIS_DSP/Source/FilteringFunctions/arm_conv_fast_opt_q15.c ****       tapCnt--;
 222              	 .loc 1 334 0
 223 012a 3B6A     	 ldr r3,[r7,#32]
 224 012c 013B     	 subs r3,r3,#1
 225 012e 3B62     	 str r3,[r7,#32]
 226              	.L7:
 326:../Dave/Generated/CMSIS_DSP/Source/FilteringFunctions/arm_conv_fast_opt_q15.c ****     {
 227              	 .loc 1 326 0
 228 0130 3B6A     	 ldr r3,[r7,#32]
 229 0132 002B     	 cmp r3,#0
 230 0134 DBD1     	 bne .L8
 335:../Dave/Generated/CMSIS_DSP/Source/FilteringFunctions/arm_conv_fast_opt_q15.c ****     }
 336:../Dave/Generated/CMSIS_DSP/Source/FilteringFunctions/arm_conv_fast_opt_q15.c **** 
 337:../Dave/Generated/CMSIS_DSP/Source/FilteringFunctions/arm_conv_fast_opt_q15.c ****     tapCnt = (srcBLen) & 1U;
 231              	 .loc 1 337 0
 232 0136 3B68     	 ldr r3,[r7]
 233 0138 03F00103 	 and r3,r3,#1
 234 013c 3B62     	 str r3,[r7,#32]
 338:../Dave/Generated/CMSIS_DSP/Source/FilteringFunctions/arm_conv_fast_opt_q15.c **** 
 339:../Dave/Generated/CMSIS_DSP/Source/FilteringFunctions/arm_conv_fast_opt_q15.c ****     /* apply same above for remaining samples of smaller length sequence */
 340:../Dave/Generated/CMSIS_DSP/Source/FilteringFunctions/arm_conv_fast_opt_q15.c ****     while (tapCnt > 0U)
 235              	 .loc 1 340 0
 236 013e 11E0     	 b .L9
 237              	.L10:
 341:../Dave/Generated/CMSIS_DSP/Source/FilteringFunctions/arm_conv_fast_opt_q15.c ****     {
 342:../Dave/Generated/CMSIS_DSP/Source/FilteringFunctions/arm_conv_fast_opt_q15.c **** 
 343:../Dave/Generated/CMSIS_DSP/Source/FilteringFunctions/arm_conv_fast_opt_q15.c ****       /* accumlate the results */
 344:../Dave/Generated/CMSIS_DSP/Source/FilteringFunctions/arm_conv_fast_opt_q15.c ****       acc0 += (*pScr1++ * *pIn2++);
 238              	 .loc 1 344 0
 239 0140 7B6B     	 ldr r3,[r7,#52]
 240 0142 9A1C     	 adds r2,r3,#2
 241 0144 7A63     	 str r2,[r7,#52]
 242 0146 1B88     	 ldrh r3,[r3]
 243 0148 1AB2     	 sxth r2,r3
 244 014a FB6B     	 ldr r3,[r7,#60]
 245 014c 991C     	 adds r1,r3,#2
 246 014e F963     	 str r1,[r7,#60]
 247 0150 1B88     	 ldrh r3,[r3]
 248 0152 1BB2     	 sxth r3,r3
 249 0154 03FB02F3 	 mul r3,r3,r2
 250 0158 7A6C     	 ldr r2,[r7,#68]
 251 015a 1344     	 add r3,r3,r2
 252 015c 7B64     	 str r3,[r7,#68]
 345:../Dave/Generated/CMSIS_DSP/Source/FilteringFunctions/arm_conv_fast_opt_q15.c **** 
 346:../Dave/Generated/CMSIS_DSP/Source/FilteringFunctions/arm_conv_fast_opt_q15.c ****       /* Decrement loop counter */
 347:../Dave/Generated/CMSIS_DSP/Source/FilteringFunctions/arm_conv_fast_opt_q15.c ****       tapCnt--;
 253              	 .loc 1 347 0
 254 015e 3B6A     	 ldr r3,[r7,#32]
 255 0160 013B     	 subs r3,r3,#1
 256 0162 3B62     	 str r3,[r7,#32]
 257              	.L9:
 340:../Dave/Generated/CMSIS_DSP/Source/FilteringFunctions/arm_conv_fast_opt_q15.c ****     {
 258              	 .loc 1 340 0
 259 0164 3B6A     	 ldr r3,[r7,#32]
 260 0166 002B     	 cmp r3,#0
 261 0168 EAD1     	 bne .L10
 348:../Dave/Generated/CMSIS_DSP/Source/FilteringFunctions/arm_conv_fast_opt_q15.c ****     }
 349:../Dave/Generated/CMSIS_DSP/Source/FilteringFunctions/arm_conv_fast_opt_q15.c **** 
 350:../Dave/Generated/CMSIS_DSP/Source/FilteringFunctions/arm_conv_fast_opt_q15.c ****     blkCnt--;
 262              	 .loc 1 350 0
 263 016a 7B6A     	 ldr r3,[r7,#36]
 264 016c 013B     	 subs r3,r3,#1
 265 016e 7B62     	 str r3,[r7,#36]
 351:../Dave/Generated/CMSIS_DSP/Source/FilteringFunctions/arm_conv_fast_opt_q15.c **** 
 352:../Dave/Generated/CMSIS_DSP/Source/FilteringFunctions/arm_conv_fast_opt_q15.c ****     /* The result is in 2.30 format.  Convert to 1.15 with saturation.
 353:../Dave/Generated/CMSIS_DSP/Source/FilteringFunctions/arm_conv_fast_opt_q15.c ****        Then store the output in the destination buffer. */
 354:../Dave/Generated/CMSIS_DSP/Source/FilteringFunctions/arm_conv_fast_opt_q15.c ****     *pOut++ = (q15_t) (__SSAT((acc0 >> 15), 16));
 266              	 .loc 1 354 0
 267 0170 BB6B     	 ldr r3,[r7,#56]
 268 0172 9A1C     	 adds r2,r3,#2
 269 0174 BA63     	 str r2,[r7,#56]
 270              	.LBB2:
 271 0176 7A6C     	 ldr r2,[r7,#68]
 272 0178 D213     	 asrs r2,r2,#15
 273 017a 7A61     	 str r2,[r7,#20]
 274 017c 7A69     	 ldr r2,[r7,#20]
 275              	
 276 017e 02F30F02 	 ssat r2,#16,r2
 277              	
 278              	 .thumb
 279 0182 3A61     	 str r2,[r7,#16]
 280 0184 3A69     	 ldr r2,[r7,#16]
 281              	.LBE2:
 282 0186 92B2     	 uxth r2,r2
 283 0188 1A80     	 strh r2,[r3]
 355:../Dave/Generated/CMSIS_DSP/Source/FilteringFunctions/arm_conv_fast_opt_q15.c **** 
 356:../Dave/Generated/CMSIS_DSP/Source/FilteringFunctions/arm_conv_fast_opt_q15.c ****     /* Initialization of inputB pointer */
 357:../Dave/Generated/CMSIS_DSP/Source/FilteringFunctions/arm_conv_fast_opt_q15.c ****     pIn2 = py;
 284              	 .loc 1 357 0
 285 018a BB69     	 ldr r3,[r7,#24]
 286 018c FB63     	 str r3,[r7,#60]
 358:../Dave/Generated/CMSIS_DSP/Source/FilteringFunctions/arm_conv_fast_opt_q15.c **** 
 359:../Dave/Generated/CMSIS_DSP/Source/FilteringFunctions/arm_conv_fast_opt_q15.c ****     pScratch1 += 1U;
 287              	 .loc 1 359 0
 288 018e 7B6D     	 ldr r3,[r7,#84]
 289 0190 0233     	 adds r3,r3,#2
 290 0192 7B65     	 str r3,[r7,#84]
 291              	.L6:
 316:../Dave/Generated/CMSIS_DSP/Source/FilteringFunctions/arm_conv_fast_opt_q15.c ****   {
 292              	 .loc 1 316 0
 293 0194 7B6A     	 ldr r3,[r7,#36]
 294 0196 002B     	 cmp r3,#0
 295 0198 A1D1     	 bne .L11
 360:../Dave/Generated/CMSIS_DSP/Source/FilteringFunctions/arm_conv_fast_opt_q15.c ****   }
 361:../Dave/Generated/CMSIS_DSP/Source/FilteringFunctions/arm_conv_fast_opt_q15.c **** 
 362:../Dave/Generated/CMSIS_DSP/Source/FilteringFunctions/arm_conv_fast_opt_q15.c **** }
 296              	 .loc 1 362 0
 297 019a 4837     	 adds r7,r7,#72
 298              	.LCFI3:
 299              	 .cfi_def_cfa_offset 8
 300 019c BD46     	 mov sp,r7
 301              	.LCFI4:
 302              	 .cfi_def_cfa_register 13
 303              	 
 304 019e 80BD     	 pop {r7,pc}
 305              	 .cfi_endproc
 306              	.LFE149:
 308              	 .text
 309              	.Letext0:
 310              	 .file 2 "c:\\infineon\\tools\\dave ide\\4.5.0.202105191637\\eclipse\\arm-gcc-49\\arm-none-eabi\\include\\machine\\_default_types.h"
 311              	 .file 3 "c:\\infineon\\tools\\dave ide\\4.5.0.202105191637\\eclipse\\arm-gcc-49\\arm-none-eabi\\include\\stdint.h"
 312              	 .file 4 "C:/Users/Rui Mendes/Desktop/DAVE/_Naive/_ForTesting/Dave/Generated/CMSIS_DSP/Include/arm_math.h"
 313              	 .file 5 "C:/Users/Rui Mendes/Desktop/DAVE/_Naive/_ForTesting/Libraries/CMSIS/Include/cmsis_gcc.h"