   1              	 .syntax unified
   2              	 .cpu cortex-m4
   3              	 .eabi_attribute 27,3
   4              	 .fpu fpv4-sp-d16
   5              	 .eabi_attribute 20,1
   6              	 .eabi_attribute 21,1
   7              	 .eabi_attribute 23,3
   8              	 .eabi_attribute 24,1
   9              	 .eabi_attribute 25,1
  10              	 .eabi_attribute 26,1
  11              	 .eabi_attribute 30,6
  12              	 .eabi_attribute 34,1
  13              	 .eabi_attribute 18,4
  14              	 .thumb
  15              	 .file "arm_fir_interpolate_q15.c"
  16              	 .text
  17              	.Ltext0:
  18              	 .cfi_sections .debug_frame
  19              	 .section .text.arm_fir_interpolate_q15,"ax",%progbits
  20              	 .align 2
  21              	 .global arm_fir_interpolate_q15
  22              	 .thumb
  23              	 .thumb_func
  25              	arm_fir_interpolate_q15:
  26              	.LFB149:
  27              	 .file 1 "../Dave/Generated/CMSIS_DSP/Source/FilteringFunctions/arm_fir_interpolate_q15.c"
   1:../Dave/Generated/CMSIS_DSP/Source/FilteringFunctions/arm_fir_interpolate_q15.c **** /* ----------------------------------------------------------------------
   2:../Dave/Generated/CMSIS_DSP/Source/FilteringFunctions/arm_fir_interpolate_q15.c ****  * Project:      CMSIS DSP Library
   3:../Dave/Generated/CMSIS_DSP/Source/FilteringFunctions/arm_fir_interpolate_q15.c ****  * Title:        arm_fir_interpolate_q15.c
   4:../Dave/Generated/CMSIS_DSP/Source/FilteringFunctions/arm_fir_interpolate_q15.c ****  * Description:  Q15 FIR interpolation
   5:../Dave/Generated/CMSIS_DSP/Source/FilteringFunctions/arm_fir_interpolate_q15.c ****  *
   6:../Dave/Generated/CMSIS_DSP/Source/FilteringFunctions/arm_fir_interpolate_q15.c ****  * $Date:        18. March 2019
   7:../Dave/Generated/CMSIS_DSP/Source/FilteringFunctions/arm_fir_interpolate_q15.c ****  * $Revision:    V1.6.0
   8:../Dave/Generated/CMSIS_DSP/Source/FilteringFunctions/arm_fir_interpolate_q15.c ****  *
   9:../Dave/Generated/CMSIS_DSP/Source/FilteringFunctions/arm_fir_interpolate_q15.c ****  * Target Processor: Cortex-M cores
  10:../Dave/Generated/CMSIS_DSP/Source/FilteringFunctions/arm_fir_interpolate_q15.c ****  * -------------------------------------------------------------------- */
  11:../Dave/Generated/CMSIS_DSP/Source/FilteringFunctions/arm_fir_interpolate_q15.c **** /*
  12:../Dave/Generated/CMSIS_DSP/Source/FilteringFunctions/arm_fir_interpolate_q15.c ****  * Copyright (C) 2010-2019 ARM Limited or its affiliates. All rights reserved.
  13:../Dave/Generated/CMSIS_DSP/Source/FilteringFunctions/arm_fir_interpolate_q15.c ****  *
  14:../Dave/Generated/CMSIS_DSP/Source/FilteringFunctions/arm_fir_interpolate_q15.c ****  * SPDX-License-Identifier: Apache-2.0
  15:../Dave/Generated/CMSIS_DSP/Source/FilteringFunctions/arm_fir_interpolate_q15.c ****  *
  16:../Dave/Generated/CMSIS_DSP/Source/FilteringFunctions/arm_fir_interpolate_q15.c ****  * Licensed under the Apache License, Version 2.0 (the License); you may
  17:../Dave/Generated/CMSIS_DSP/Source/FilteringFunctions/arm_fir_interpolate_q15.c ****  * not use this file except in compliance with the License.
  18:../Dave/Generated/CMSIS_DSP/Source/FilteringFunctions/arm_fir_interpolate_q15.c ****  * You may obtain a copy of the License at
  19:../Dave/Generated/CMSIS_DSP/Source/FilteringFunctions/arm_fir_interpolate_q15.c ****  *
  20:../Dave/Generated/CMSIS_DSP/Source/FilteringFunctions/arm_fir_interpolate_q15.c ****  * www.apache.org/licenses/LICENSE-2.0
  21:../Dave/Generated/CMSIS_DSP/Source/FilteringFunctions/arm_fir_interpolate_q15.c ****  *
  22:../Dave/Generated/CMSIS_DSP/Source/FilteringFunctions/arm_fir_interpolate_q15.c ****  * Unless required by applicable law or agreed to in writing, software
  23:../Dave/Generated/CMSIS_DSP/Source/FilteringFunctions/arm_fir_interpolate_q15.c ****  * distributed under the License is distributed on an AS IS BASIS, WITHOUT
  24:../Dave/Generated/CMSIS_DSP/Source/FilteringFunctions/arm_fir_interpolate_q15.c ****  * WARRANTIES OR CONDITIONS OF ANY KIND, either express or implied.
  25:../Dave/Generated/CMSIS_DSP/Source/FilteringFunctions/arm_fir_interpolate_q15.c ****  * See the License for the specific language governing permissions and
  26:../Dave/Generated/CMSIS_DSP/Source/FilteringFunctions/arm_fir_interpolate_q15.c ****  * limitations under the License.
  27:../Dave/Generated/CMSIS_DSP/Source/FilteringFunctions/arm_fir_interpolate_q15.c ****  */
  28:../Dave/Generated/CMSIS_DSP/Source/FilteringFunctions/arm_fir_interpolate_q15.c **** 
  29:../Dave/Generated/CMSIS_DSP/Source/FilteringFunctions/arm_fir_interpolate_q15.c **** #include "CMSIS_DSP/cmsis_dsp.h"
  30:../Dave/Generated/CMSIS_DSP/Source/FilteringFunctions/arm_fir_interpolate_q15.c **** 
  31:../Dave/Generated/CMSIS_DSP/Source/FilteringFunctions/arm_fir_interpolate_q15.c **** /**
  32:../Dave/Generated/CMSIS_DSP/Source/FilteringFunctions/arm_fir_interpolate_q15.c ****   @ingroup groupFilters
  33:../Dave/Generated/CMSIS_DSP/Source/FilteringFunctions/arm_fir_interpolate_q15.c ****  */
  34:../Dave/Generated/CMSIS_DSP/Source/FilteringFunctions/arm_fir_interpolate_q15.c **** 
  35:../Dave/Generated/CMSIS_DSP/Source/FilteringFunctions/arm_fir_interpolate_q15.c **** /**
  36:../Dave/Generated/CMSIS_DSP/Source/FilteringFunctions/arm_fir_interpolate_q15.c ****   @addtogroup FIR_Interpolate
  37:../Dave/Generated/CMSIS_DSP/Source/FilteringFunctions/arm_fir_interpolate_q15.c ****   @{
  38:../Dave/Generated/CMSIS_DSP/Source/FilteringFunctions/arm_fir_interpolate_q15.c ****  */
  39:../Dave/Generated/CMSIS_DSP/Source/FilteringFunctions/arm_fir_interpolate_q15.c **** 
  40:../Dave/Generated/CMSIS_DSP/Source/FilteringFunctions/arm_fir_interpolate_q15.c **** /**
  41:../Dave/Generated/CMSIS_DSP/Source/FilteringFunctions/arm_fir_interpolate_q15.c ****   @brief         Processing function for the Q15 FIR interpolator.
  42:../Dave/Generated/CMSIS_DSP/Source/FilteringFunctions/arm_fir_interpolate_q15.c ****   @param[in]     S          points to an instance of the Q15 FIR interpolator structure
  43:../Dave/Generated/CMSIS_DSP/Source/FilteringFunctions/arm_fir_interpolate_q15.c ****   @param[in]     pSrc       points to the block of input data
  44:../Dave/Generated/CMSIS_DSP/Source/FilteringFunctions/arm_fir_interpolate_q15.c ****   @param[out]    pDst       points to the block of output data
  45:../Dave/Generated/CMSIS_DSP/Source/FilteringFunctions/arm_fir_interpolate_q15.c ****   @param[in]     blockSize  number of samples to process
  46:../Dave/Generated/CMSIS_DSP/Source/FilteringFunctions/arm_fir_interpolate_q15.c ****   @return        none
  47:../Dave/Generated/CMSIS_DSP/Source/FilteringFunctions/arm_fir_interpolate_q15.c **** 
  48:../Dave/Generated/CMSIS_DSP/Source/FilteringFunctions/arm_fir_interpolate_q15.c ****   @par           Scaling and Overflow Behavior
  49:../Dave/Generated/CMSIS_DSP/Source/FilteringFunctions/arm_fir_interpolate_q15.c ****                    The function is implemented using a 64-bit internal accumulator.
  50:../Dave/Generated/CMSIS_DSP/Source/FilteringFunctions/arm_fir_interpolate_q15.c ****                    Both coefficients and state variables are represented in 1.15 format and multipl
  51:../Dave/Generated/CMSIS_DSP/Source/FilteringFunctions/arm_fir_interpolate_q15.c ****                    The 2.30 intermediate results are accumulated in a 64-bit accumulator in 34.30 f
  52:../Dave/Generated/CMSIS_DSP/Source/FilteringFunctions/arm_fir_interpolate_q15.c ****                    There is no risk of internal overflow with this approach and the full precision 
  53:../Dave/Generated/CMSIS_DSP/Source/FilteringFunctions/arm_fir_interpolate_q15.c ****                    After all additions have been performed, the accumulator is truncated to 34.15 f
  54:../Dave/Generated/CMSIS_DSP/Source/FilteringFunctions/arm_fir_interpolate_q15.c ****                    Lastly, the accumulator is saturated to yield a result in 1.15 format.
  55:../Dave/Generated/CMSIS_DSP/Source/FilteringFunctions/arm_fir_interpolate_q15.c ****  */
  56:../Dave/Generated/CMSIS_DSP/Source/FilteringFunctions/arm_fir_interpolate_q15.c **** 
  57:../Dave/Generated/CMSIS_DSP/Source/FilteringFunctions/arm_fir_interpolate_q15.c **** #if defined(ARM_MATH_MVEI)
  58:../Dave/Generated/CMSIS_DSP/Source/FilteringFunctions/arm_fir_interpolate_q15.c **** 
  59:../Dave/Generated/CMSIS_DSP/Source/FilteringFunctions/arm_fir_interpolate_q15.c **** #include "CMSIS_DSP/Include/arm_helium_utils.h"
  60:../Dave/Generated/CMSIS_DSP/Source/FilteringFunctions/arm_fir_interpolate_q15.c **** void arm_fir_interpolate_q15(
  61:../Dave/Generated/CMSIS_DSP/Source/FilteringFunctions/arm_fir_interpolate_q15.c ****   const arm_fir_interpolate_instance_q15 * S,
  62:../Dave/Generated/CMSIS_DSP/Source/FilteringFunctions/arm_fir_interpolate_q15.c ****   const q15_t * pSrc,
  63:../Dave/Generated/CMSIS_DSP/Source/FilteringFunctions/arm_fir_interpolate_q15.c ****         q15_t * pDst,
  64:../Dave/Generated/CMSIS_DSP/Source/FilteringFunctions/arm_fir_interpolate_q15.c ****         uint32_t blockSize)
  65:../Dave/Generated/CMSIS_DSP/Source/FilteringFunctions/arm_fir_interpolate_q15.c **** {
  66:../Dave/Generated/CMSIS_DSP/Source/FilteringFunctions/arm_fir_interpolate_q15.c ****     q15_t    *pState = S->pState;   /* State pointer */
  67:../Dave/Generated/CMSIS_DSP/Source/FilteringFunctions/arm_fir_interpolate_q15.c ****     const q15_t    *pCoeffs = S->pCoeffs; /* Coefficient pointer */
  68:../Dave/Generated/CMSIS_DSP/Source/FilteringFunctions/arm_fir_interpolate_q15.c ****     q15_t    *pStateCurnt;      /* Points to the current sample of the state */
  69:../Dave/Generated/CMSIS_DSP/Source/FilteringFunctions/arm_fir_interpolate_q15.c ****     const q15_t    *ptr1, *ptr2;      /* Temporary pointers for state and coefficient buffers */
  70:../Dave/Generated/CMSIS_DSP/Source/FilteringFunctions/arm_fir_interpolate_q15.c **** 
  71:../Dave/Generated/CMSIS_DSP/Source/FilteringFunctions/arm_fir_interpolate_q15.c ****     uint32_t  i, blkCnt;        /* Loop counters */
  72:../Dave/Generated/CMSIS_DSP/Source/FilteringFunctions/arm_fir_interpolate_q15.c ****     uint16_t  phaseLen = S->phaseLength;    /* Length of each polyphase filter component */
  73:../Dave/Generated/CMSIS_DSP/Source/FilteringFunctions/arm_fir_interpolate_q15.c ****     uint16_t  strides[8] = {
  74:../Dave/Generated/CMSIS_DSP/Source/FilteringFunctions/arm_fir_interpolate_q15.c ****         0, 1 * S->L, 2 * S->L, 3 * S->L,
  75:../Dave/Generated/CMSIS_DSP/Source/FilteringFunctions/arm_fir_interpolate_q15.c ****         4 * S->L, 5 * S->L, 6 * S->L, 7 * S->L
  76:../Dave/Generated/CMSIS_DSP/Source/FilteringFunctions/arm_fir_interpolate_q15.c ****         };
  77:../Dave/Generated/CMSIS_DSP/Source/FilteringFunctions/arm_fir_interpolate_q15.c ****     uint16x8_t vec_strides0 = *(uint16x8_t *) strides;
  78:../Dave/Generated/CMSIS_DSP/Source/FilteringFunctions/arm_fir_interpolate_q15.c ****     uint16x8_t vec_strides1 = vec_strides0 + 1;
  79:../Dave/Generated/CMSIS_DSP/Source/FilteringFunctions/arm_fir_interpolate_q15.c ****     uint16x8_t vec_strides2 = vec_strides0 + 2;
  80:../Dave/Generated/CMSIS_DSP/Source/FilteringFunctions/arm_fir_interpolate_q15.c ****     uint16x8_t vec_strides3 = vec_strides0 + 3;
  81:../Dave/Generated/CMSIS_DSP/Source/FilteringFunctions/arm_fir_interpolate_q15.c ****     q15x8_t vecState, vecCoef;
  82:../Dave/Generated/CMSIS_DSP/Source/FilteringFunctions/arm_fir_interpolate_q15.c **** 
  83:../Dave/Generated/CMSIS_DSP/Source/FilteringFunctions/arm_fir_interpolate_q15.c ****     /*
  84:../Dave/Generated/CMSIS_DSP/Source/FilteringFunctions/arm_fir_interpolate_q15.c ****      * S->pState buffer contains previous frame (phaseLen - 1) samples
  85:../Dave/Generated/CMSIS_DSP/Source/FilteringFunctions/arm_fir_interpolate_q15.c ****      * pStateCurnt points to the location where the new input data should be written
  86:../Dave/Generated/CMSIS_DSP/Source/FilteringFunctions/arm_fir_interpolate_q15.c ****      */
  87:../Dave/Generated/CMSIS_DSP/Source/FilteringFunctions/arm_fir_interpolate_q15.c ****     pStateCurnt = S->pState + ((q15_t) phaseLen - 1);
  88:../Dave/Generated/CMSIS_DSP/Source/FilteringFunctions/arm_fir_interpolate_q15.c ****     /*
  89:../Dave/Generated/CMSIS_DSP/Source/FilteringFunctions/arm_fir_interpolate_q15.c ****      * Total number of intput samples
  90:../Dave/Generated/CMSIS_DSP/Source/FilteringFunctions/arm_fir_interpolate_q15.c ****      */
  91:../Dave/Generated/CMSIS_DSP/Source/FilteringFunctions/arm_fir_interpolate_q15.c ****     blkCnt = blockSize;
  92:../Dave/Generated/CMSIS_DSP/Source/FilteringFunctions/arm_fir_interpolate_q15.c ****     /*
  93:../Dave/Generated/CMSIS_DSP/Source/FilteringFunctions/arm_fir_interpolate_q15.c ****      * Loop over the blockSize.
  94:../Dave/Generated/CMSIS_DSP/Source/FilteringFunctions/arm_fir_interpolate_q15.c ****      */
  95:../Dave/Generated/CMSIS_DSP/Source/FilteringFunctions/arm_fir_interpolate_q15.c ****     while (blkCnt > 0U)
  96:../Dave/Generated/CMSIS_DSP/Source/FilteringFunctions/arm_fir_interpolate_q15.c ****     {
  97:../Dave/Generated/CMSIS_DSP/Source/FilteringFunctions/arm_fir_interpolate_q15.c ****         /*
  98:../Dave/Generated/CMSIS_DSP/Source/FilteringFunctions/arm_fir_interpolate_q15.c ****          * Copy new input sample into the state buffer
  99:../Dave/Generated/CMSIS_DSP/Source/FilteringFunctions/arm_fir_interpolate_q15.c ****          */
 100:../Dave/Generated/CMSIS_DSP/Source/FilteringFunctions/arm_fir_interpolate_q15.c ****         *pStateCurnt++ = *pSrc++;
 101:../Dave/Generated/CMSIS_DSP/Source/FilteringFunctions/arm_fir_interpolate_q15.c ****         /*
 102:../Dave/Generated/CMSIS_DSP/Source/FilteringFunctions/arm_fir_interpolate_q15.c ****          * Loop over the Interpolation factor.
 103:../Dave/Generated/CMSIS_DSP/Source/FilteringFunctions/arm_fir_interpolate_q15.c ****          */
 104:../Dave/Generated/CMSIS_DSP/Source/FilteringFunctions/arm_fir_interpolate_q15.c ****         i = S->L;
 105:../Dave/Generated/CMSIS_DSP/Source/FilteringFunctions/arm_fir_interpolate_q15.c ****         while (i > 0U)
 106:../Dave/Generated/CMSIS_DSP/Source/FilteringFunctions/arm_fir_interpolate_q15.c ****         {
 107:../Dave/Generated/CMSIS_DSP/Source/FilteringFunctions/arm_fir_interpolate_q15.c ****             /*
 108:../Dave/Generated/CMSIS_DSP/Source/FilteringFunctions/arm_fir_interpolate_q15.c ****              * Initialize state pointer
 109:../Dave/Generated/CMSIS_DSP/Source/FilteringFunctions/arm_fir_interpolate_q15.c ****              */
 110:../Dave/Generated/CMSIS_DSP/Source/FilteringFunctions/arm_fir_interpolate_q15.c ****             ptr1 = pState;
 111:../Dave/Generated/CMSIS_DSP/Source/FilteringFunctions/arm_fir_interpolate_q15.c ****             if (i >= 4)
 112:../Dave/Generated/CMSIS_DSP/Source/FilteringFunctions/arm_fir_interpolate_q15.c ****             {
 113:../Dave/Generated/CMSIS_DSP/Source/FilteringFunctions/arm_fir_interpolate_q15.c ****                 /*
 114:../Dave/Generated/CMSIS_DSP/Source/FilteringFunctions/arm_fir_interpolate_q15.c ****                  * Initialize coefficient pointer
 115:../Dave/Generated/CMSIS_DSP/Source/FilteringFunctions/arm_fir_interpolate_q15.c ****                  */
 116:../Dave/Generated/CMSIS_DSP/Source/FilteringFunctions/arm_fir_interpolate_q15.c ****                 ptr2 = pCoeffs + (i - 1 - 3U);
 117:../Dave/Generated/CMSIS_DSP/Source/FilteringFunctions/arm_fir_interpolate_q15.c **** 
 118:../Dave/Generated/CMSIS_DSP/Source/FilteringFunctions/arm_fir_interpolate_q15.c ****                 q63_t     acc0 = 0LL;
 119:../Dave/Generated/CMSIS_DSP/Source/FilteringFunctions/arm_fir_interpolate_q15.c ****                 q63_t     acc1 = 0LL;
 120:../Dave/Generated/CMSIS_DSP/Source/FilteringFunctions/arm_fir_interpolate_q15.c ****                 q63_t     acc2 = 0LL;
 121:../Dave/Generated/CMSIS_DSP/Source/FilteringFunctions/arm_fir_interpolate_q15.c ****                 q63_t     acc3 = 0LL;
 122:../Dave/Generated/CMSIS_DSP/Source/FilteringFunctions/arm_fir_interpolate_q15.c **** 
 123:../Dave/Generated/CMSIS_DSP/Source/FilteringFunctions/arm_fir_interpolate_q15.c ****                 uint32_t  tapCnt = phaseLen >> 3;
 124:../Dave/Generated/CMSIS_DSP/Source/FilteringFunctions/arm_fir_interpolate_q15.c ****                 while (tapCnt > 0U)
 125:../Dave/Generated/CMSIS_DSP/Source/FilteringFunctions/arm_fir_interpolate_q15.c ****                 {
 126:../Dave/Generated/CMSIS_DSP/Source/FilteringFunctions/arm_fir_interpolate_q15.c ****                     vecState = vldrhq_s16(ptr1);
 127:../Dave/Generated/CMSIS_DSP/Source/FilteringFunctions/arm_fir_interpolate_q15.c **** 
 128:../Dave/Generated/CMSIS_DSP/Source/FilteringFunctions/arm_fir_interpolate_q15.c ****                     vecCoef = vldrhq_gather_shifted_offset_s16(ptr2, vec_strides3);
 129:../Dave/Generated/CMSIS_DSP/Source/FilteringFunctions/arm_fir_interpolate_q15.c ****                     acc0 = vmlaldavaq(acc0, vecState, vecCoef);
 130:../Dave/Generated/CMSIS_DSP/Source/FilteringFunctions/arm_fir_interpolate_q15.c **** 
 131:../Dave/Generated/CMSIS_DSP/Source/FilteringFunctions/arm_fir_interpolate_q15.c ****                     vecCoef = vldrhq_gather_shifted_offset_s16(ptr2, vec_strides2);
 132:../Dave/Generated/CMSIS_DSP/Source/FilteringFunctions/arm_fir_interpolate_q15.c ****                     acc1 = vmlaldavaq(acc1, vecState, vecCoef);
 133:../Dave/Generated/CMSIS_DSP/Source/FilteringFunctions/arm_fir_interpolate_q15.c **** 
 134:../Dave/Generated/CMSIS_DSP/Source/FilteringFunctions/arm_fir_interpolate_q15.c ****                     vecCoef = vldrhq_gather_shifted_offset_s16(ptr2, vec_strides1);
 135:../Dave/Generated/CMSIS_DSP/Source/FilteringFunctions/arm_fir_interpolate_q15.c ****                     acc2 = vmlaldavaq(acc2, vecState, vecCoef);
 136:../Dave/Generated/CMSIS_DSP/Source/FilteringFunctions/arm_fir_interpolate_q15.c **** 
 137:../Dave/Generated/CMSIS_DSP/Source/FilteringFunctions/arm_fir_interpolate_q15.c ****                     vecCoef = vldrhq_gather_shifted_offset_s16(ptr2, vec_strides0);
 138:../Dave/Generated/CMSIS_DSP/Source/FilteringFunctions/arm_fir_interpolate_q15.c ****                     acc3 = vmlaldavaq(acc3, vecState, vecCoef);
 139:../Dave/Generated/CMSIS_DSP/Source/FilteringFunctions/arm_fir_interpolate_q15.c **** 
 140:../Dave/Generated/CMSIS_DSP/Source/FilteringFunctions/arm_fir_interpolate_q15.c ****                     ptr1 += 8;
 141:../Dave/Generated/CMSIS_DSP/Source/FilteringFunctions/arm_fir_interpolate_q15.c ****                     ptr2 = ptr2 + S->L * 8;
 142:../Dave/Generated/CMSIS_DSP/Source/FilteringFunctions/arm_fir_interpolate_q15.c ****                     tapCnt--;
 143:../Dave/Generated/CMSIS_DSP/Source/FilteringFunctions/arm_fir_interpolate_q15.c ****                 }
 144:../Dave/Generated/CMSIS_DSP/Source/FilteringFunctions/arm_fir_interpolate_q15.c ****                 tapCnt = phaseLen & 7;
 145:../Dave/Generated/CMSIS_DSP/Source/FilteringFunctions/arm_fir_interpolate_q15.c ****                 if (tapCnt > 0U)
 146:../Dave/Generated/CMSIS_DSP/Source/FilteringFunctions/arm_fir_interpolate_q15.c ****                 {
 147:../Dave/Generated/CMSIS_DSP/Source/FilteringFunctions/arm_fir_interpolate_q15.c ****                     mve_pred16_t p0 = vctp16q(tapCnt);
 148:../Dave/Generated/CMSIS_DSP/Source/FilteringFunctions/arm_fir_interpolate_q15.c **** 
 149:../Dave/Generated/CMSIS_DSP/Source/FilteringFunctions/arm_fir_interpolate_q15.c ****                     vecState = vldrhq_z_s16(ptr1, p0);
 150:../Dave/Generated/CMSIS_DSP/Source/FilteringFunctions/arm_fir_interpolate_q15.c **** 
 151:../Dave/Generated/CMSIS_DSP/Source/FilteringFunctions/arm_fir_interpolate_q15.c ****                     vecCoef = vldrhq_gather_shifted_offset_z_s16(ptr2, vec_strides3, p0);
 152:../Dave/Generated/CMSIS_DSP/Source/FilteringFunctions/arm_fir_interpolate_q15.c ****                     acc0 = vmlaldavaq(acc0, vecState, vecCoef);
 153:../Dave/Generated/CMSIS_DSP/Source/FilteringFunctions/arm_fir_interpolate_q15.c **** 
 154:../Dave/Generated/CMSIS_DSP/Source/FilteringFunctions/arm_fir_interpolate_q15.c ****                     vecCoef = vldrhq_gather_shifted_offset_z_s16(ptr2, vec_strides2, p0);
 155:../Dave/Generated/CMSIS_DSP/Source/FilteringFunctions/arm_fir_interpolate_q15.c ****                     acc1 = vmlaldavaq(acc1, vecState, vecCoef);
 156:../Dave/Generated/CMSIS_DSP/Source/FilteringFunctions/arm_fir_interpolate_q15.c **** 
 157:../Dave/Generated/CMSIS_DSP/Source/FilteringFunctions/arm_fir_interpolate_q15.c ****                     vecCoef = vldrhq_gather_shifted_offset_z_s16(ptr2, vec_strides1, p0);
 158:../Dave/Generated/CMSIS_DSP/Source/FilteringFunctions/arm_fir_interpolate_q15.c ****                     acc2 = vmlaldavaq(acc2, vecState, vecCoef);
 159:../Dave/Generated/CMSIS_DSP/Source/FilteringFunctions/arm_fir_interpolate_q15.c **** 
 160:../Dave/Generated/CMSIS_DSP/Source/FilteringFunctions/arm_fir_interpolate_q15.c ****                     vecCoef = vldrhq_gather_shifted_offset_z_s16(ptr2, vec_strides0, p0);
 161:../Dave/Generated/CMSIS_DSP/Source/FilteringFunctions/arm_fir_interpolate_q15.c ****                     acc3 = vmlaldavaq(acc3, vecState, vecCoef);
 162:../Dave/Generated/CMSIS_DSP/Source/FilteringFunctions/arm_fir_interpolate_q15.c ****                 }
 163:../Dave/Generated/CMSIS_DSP/Source/FilteringFunctions/arm_fir_interpolate_q15.c **** 
 164:../Dave/Generated/CMSIS_DSP/Source/FilteringFunctions/arm_fir_interpolate_q15.c ****                 acc0 = asrl(acc0, 15);
 165:../Dave/Generated/CMSIS_DSP/Source/FilteringFunctions/arm_fir_interpolate_q15.c ****                 acc1 = asrl(acc1, 15);
 166:../Dave/Generated/CMSIS_DSP/Source/FilteringFunctions/arm_fir_interpolate_q15.c ****                 acc2 = asrl(acc2, 15);
 167:../Dave/Generated/CMSIS_DSP/Source/FilteringFunctions/arm_fir_interpolate_q15.c ****                 acc3 = asrl(acc3, 15);
 168:../Dave/Generated/CMSIS_DSP/Source/FilteringFunctions/arm_fir_interpolate_q15.c **** 
 169:../Dave/Generated/CMSIS_DSP/Source/FilteringFunctions/arm_fir_interpolate_q15.c ****                 *pDst++ = (q15_t) __SSAT(acc0, 16);
 170:../Dave/Generated/CMSIS_DSP/Source/FilteringFunctions/arm_fir_interpolate_q15.c ****                 *pDst++ = (q15_t) __SSAT(acc1, 16);
 171:../Dave/Generated/CMSIS_DSP/Source/FilteringFunctions/arm_fir_interpolate_q15.c ****                 *pDst++ = (q15_t) __SSAT(acc2, 16);
 172:../Dave/Generated/CMSIS_DSP/Source/FilteringFunctions/arm_fir_interpolate_q15.c ****                 *pDst++ = (q15_t) __SSAT(acc3, 16);
 173:../Dave/Generated/CMSIS_DSP/Source/FilteringFunctions/arm_fir_interpolate_q15.c ****                 i -= 4;
 174:../Dave/Generated/CMSIS_DSP/Source/FilteringFunctions/arm_fir_interpolate_q15.c ****             }
 175:../Dave/Generated/CMSIS_DSP/Source/FilteringFunctions/arm_fir_interpolate_q15.c ****             else if (i >= 3)
 176:../Dave/Generated/CMSIS_DSP/Source/FilteringFunctions/arm_fir_interpolate_q15.c ****             {
 177:../Dave/Generated/CMSIS_DSP/Source/FilteringFunctions/arm_fir_interpolate_q15.c ****                 /*
 178:../Dave/Generated/CMSIS_DSP/Source/FilteringFunctions/arm_fir_interpolate_q15.c ****                  * Initialize coefficient pointer
 179:../Dave/Generated/CMSIS_DSP/Source/FilteringFunctions/arm_fir_interpolate_q15.c ****                  */
 180:../Dave/Generated/CMSIS_DSP/Source/FilteringFunctions/arm_fir_interpolate_q15.c ****                 ptr2 = pCoeffs + (i - 1U - 2);
 181:../Dave/Generated/CMSIS_DSP/Source/FilteringFunctions/arm_fir_interpolate_q15.c **** 
 182:../Dave/Generated/CMSIS_DSP/Source/FilteringFunctions/arm_fir_interpolate_q15.c ****                 q63_t     acc0 = 0LL;
 183:../Dave/Generated/CMSIS_DSP/Source/FilteringFunctions/arm_fir_interpolate_q15.c ****                 q63_t     acc1 = 0LL;
 184:../Dave/Generated/CMSIS_DSP/Source/FilteringFunctions/arm_fir_interpolate_q15.c ****                 q63_t     acc2 = 0LL;
 185:../Dave/Generated/CMSIS_DSP/Source/FilteringFunctions/arm_fir_interpolate_q15.c **** 
 186:../Dave/Generated/CMSIS_DSP/Source/FilteringFunctions/arm_fir_interpolate_q15.c ****                 uint32_t  tapCnt = phaseLen >> 3;
 187:../Dave/Generated/CMSIS_DSP/Source/FilteringFunctions/arm_fir_interpolate_q15.c ****                 while (tapCnt > 0U)
 188:../Dave/Generated/CMSIS_DSP/Source/FilteringFunctions/arm_fir_interpolate_q15.c ****                 {
 189:../Dave/Generated/CMSIS_DSP/Source/FilteringFunctions/arm_fir_interpolate_q15.c ****                     vecState = vldrhq_s16(ptr1);
 190:../Dave/Generated/CMSIS_DSP/Source/FilteringFunctions/arm_fir_interpolate_q15.c **** 
 191:../Dave/Generated/CMSIS_DSP/Source/FilteringFunctions/arm_fir_interpolate_q15.c ****                     vecCoef = vldrhq_gather_shifted_offset_s16(ptr2, vec_strides2);
 192:../Dave/Generated/CMSIS_DSP/Source/FilteringFunctions/arm_fir_interpolate_q15.c ****                     acc0 = vmlaldavaq(acc0, vecState, vecCoef);
 193:../Dave/Generated/CMSIS_DSP/Source/FilteringFunctions/arm_fir_interpolate_q15.c **** 
 194:../Dave/Generated/CMSIS_DSP/Source/FilteringFunctions/arm_fir_interpolate_q15.c ****                     vecCoef = vldrhq_gather_shifted_offset_s16(ptr2, vec_strides1);
 195:../Dave/Generated/CMSIS_DSP/Source/FilteringFunctions/arm_fir_interpolate_q15.c ****                     acc1 = vmlaldavaq(acc1, vecState, vecCoef);
 196:../Dave/Generated/CMSIS_DSP/Source/FilteringFunctions/arm_fir_interpolate_q15.c **** 
 197:../Dave/Generated/CMSIS_DSP/Source/FilteringFunctions/arm_fir_interpolate_q15.c ****                     vecCoef = vldrhq_gather_shifted_offset_s16(ptr2, vec_strides0);
 198:../Dave/Generated/CMSIS_DSP/Source/FilteringFunctions/arm_fir_interpolate_q15.c ****                     acc2 = vmlaldavaq(acc2, vecState, vecCoef);
 199:../Dave/Generated/CMSIS_DSP/Source/FilteringFunctions/arm_fir_interpolate_q15.c **** 
 200:../Dave/Generated/CMSIS_DSP/Source/FilteringFunctions/arm_fir_interpolate_q15.c ****                     ptr1 += 8;
 201:../Dave/Generated/CMSIS_DSP/Source/FilteringFunctions/arm_fir_interpolate_q15.c ****                     ptr2 = ptr2 + S->L * 8;
 202:../Dave/Generated/CMSIS_DSP/Source/FilteringFunctions/arm_fir_interpolate_q15.c ****                     tapCnt--;
 203:../Dave/Generated/CMSIS_DSP/Source/FilteringFunctions/arm_fir_interpolate_q15.c ****                 }
 204:../Dave/Generated/CMSIS_DSP/Source/FilteringFunctions/arm_fir_interpolate_q15.c ****                 tapCnt = phaseLen & 7;
 205:../Dave/Generated/CMSIS_DSP/Source/FilteringFunctions/arm_fir_interpolate_q15.c ****                 if (tapCnt > 0U)
 206:../Dave/Generated/CMSIS_DSP/Source/FilteringFunctions/arm_fir_interpolate_q15.c ****                 {
 207:../Dave/Generated/CMSIS_DSP/Source/FilteringFunctions/arm_fir_interpolate_q15.c ****                     mve_pred16_t p0 = vctp16q(tapCnt);
 208:../Dave/Generated/CMSIS_DSP/Source/FilteringFunctions/arm_fir_interpolate_q15.c **** 
 209:../Dave/Generated/CMSIS_DSP/Source/FilteringFunctions/arm_fir_interpolate_q15.c ****                     vecState = vldrhq_z_s16(ptr1, p0);
 210:../Dave/Generated/CMSIS_DSP/Source/FilteringFunctions/arm_fir_interpolate_q15.c **** 
 211:../Dave/Generated/CMSIS_DSP/Source/FilteringFunctions/arm_fir_interpolate_q15.c ****                     vecCoef = vldrhq_gather_shifted_offset_z_s16(ptr2, vec_strides2, p0);
 212:../Dave/Generated/CMSIS_DSP/Source/FilteringFunctions/arm_fir_interpolate_q15.c ****                     acc0 = vmlaldavaq(acc0, vecState, vecCoef);
 213:../Dave/Generated/CMSIS_DSP/Source/FilteringFunctions/arm_fir_interpolate_q15.c **** 
 214:../Dave/Generated/CMSIS_DSP/Source/FilteringFunctions/arm_fir_interpolate_q15.c ****                     vecCoef = vldrhq_gather_shifted_offset_z_s16(ptr2, vec_strides1, p0);
 215:../Dave/Generated/CMSIS_DSP/Source/FilteringFunctions/arm_fir_interpolate_q15.c ****                     acc1 = vmlaldavaq(acc1, vecState, vecCoef);
 216:../Dave/Generated/CMSIS_DSP/Source/FilteringFunctions/arm_fir_interpolate_q15.c **** 
 217:../Dave/Generated/CMSIS_DSP/Source/FilteringFunctions/arm_fir_interpolate_q15.c ****                     vecCoef = vldrhq_gather_shifted_offset_z_s16(ptr2, vec_strides0, p0);
 218:../Dave/Generated/CMSIS_DSP/Source/FilteringFunctions/arm_fir_interpolate_q15.c ****                     acc2 = vmlaldavaq(acc2, vecState, vecCoef);
 219:../Dave/Generated/CMSIS_DSP/Source/FilteringFunctions/arm_fir_interpolate_q15.c ****                 }
 220:../Dave/Generated/CMSIS_DSP/Source/FilteringFunctions/arm_fir_interpolate_q15.c **** 
 221:../Dave/Generated/CMSIS_DSP/Source/FilteringFunctions/arm_fir_interpolate_q15.c ****                 acc0 = asrl(acc0, 15);
 222:../Dave/Generated/CMSIS_DSP/Source/FilteringFunctions/arm_fir_interpolate_q15.c ****                 acc1 = asrl(acc1, 15);
 223:../Dave/Generated/CMSIS_DSP/Source/FilteringFunctions/arm_fir_interpolate_q15.c ****                 acc2 = asrl(acc2, 15);
 224:../Dave/Generated/CMSIS_DSP/Source/FilteringFunctions/arm_fir_interpolate_q15.c **** 
 225:../Dave/Generated/CMSIS_DSP/Source/FilteringFunctions/arm_fir_interpolate_q15.c ****                 *pDst++ = (q15_t) __SSAT(acc0, 16);;
 226:../Dave/Generated/CMSIS_DSP/Source/FilteringFunctions/arm_fir_interpolate_q15.c ****                 *pDst++ = (q15_t) __SSAT(acc1, 16);;
 227:../Dave/Generated/CMSIS_DSP/Source/FilteringFunctions/arm_fir_interpolate_q15.c ****                 *pDst++ = (q15_t) __SSAT(acc2, 16);;
 228:../Dave/Generated/CMSIS_DSP/Source/FilteringFunctions/arm_fir_interpolate_q15.c ****                 i -= 3;
 229:../Dave/Generated/CMSIS_DSP/Source/FilteringFunctions/arm_fir_interpolate_q15.c ****             }
 230:../Dave/Generated/CMSIS_DSP/Source/FilteringFunctions/arm_fir_interpolate_q15.c ****             else if (i >= 2)
 231:../Dave/Generated/CMSIS_DSP/Source/FilteringFunctions/arm_fir_interpolate_q15.c ****             {
 232:../Dave/Generated/CMSIS_DSP/Source/FilteringFunctions/arm_fir_interpolate_q15.c ****                 /*
 233:../Dave/Generated/CMSIS_DSP/Source/FilteringFunctions/arm_fir_interpolate_q15.c ****                  * Initialize coefficient pointer
 234:../Dave/Generated/CMSIS_DSP/Source/FilteringFunctions/arm_fir_interpolate_q15.c ****                  */
 235:../Dave/Generated/CMSIS_DSP/Source/FilteringFunctions/arm_fir_interpolate_q15.c ****                 ptr2 = pCoeffs + (i - 1U - 1);
 236:../Dave/Generated/CMSIS_DSP/Source/FilteringFunctions/arm_fir_interpolate_q15.c **** 
 237:../Dave/Generated/CMSIS_DSP/Source/FilteringFunctions/arm_fir_interpolate_q15.c ****                 q63_t     acc0 = 0LL;
 238:../Dave/Generated/CMSIS_DSP/Source/FilteringFunctions/arm_fir_interpolate_q15.c ****                 q63_t     acc1 = 0LL;
 239:../Dave/Generated/CMSIS_DSP/Source/FilteringFunctions/arm_fir_interpolate_q15.c **** 
 240:../Dave/Generated/CMSIS_DSP/Source/FilteringFunctions/arm_fir_interpolate_q15.c ****                 uint32_t  tapCnt = phaseLen >> 3;
 241:../Dave/Generated/CMSIS_DSP/Source/FilteringFunctions/arm_fir_interpolate_q15.c ****                 while (tapCnt > 0U)
 242:../Dave/Generated/CMSIS_DSP/Source/FilteringFunctions/arm_fir_interpolate_q15.c ****                 {
 243:../Dave/Generated/CMSIS_DSP/Source/FilteringFunctions/arm_fir_interpolate_q15.c ****                     vecState = vldrhq_s16(ptr1);
 244:../Dave/Generated/CMSIS_DSP/Source/FilteringFunctions/arm_fir_interpolate_q15.c **** 
 245:../Dave/Generated/CMSIS_DSP/Source/FilteringFunctions/arm_fir_interpolate_q15.c ****                     vecCoef = vldrhq_gather_shifted_offset_s16(ptr2, vec_strides1);
 246:../Dave/Generated/CMSIS_DSP/Source/FilteringFunctions/arm_fir_interpolate_q15.c ****                     acc0 = vmlaldavaq(acc0, vecState, vecCoef);
 247:../Dave/Generated/CMSIS_DSP/Source/FilteringFunctions/arm_fir_interpolate_q15.c **** 
 248:../Dave/Generated/CMSIS_DSP/Source/FilteringFunctions/arm_fir_interpolate_q15.c ****                     vecCoef = vldrhq_gather_shifted_offset_s16(ptr2, vec_strides0);
 249:../Dave/Generated/CMSIS_DSP/Source/FilteringFunctions/arm_fir_interpolate_q15.c ****                     acc1 = vmlaldavaq(acc1, vecState, vecCoef);
 250:../Dave/Generated/CMSIS_DSP/Source/FilteringFunctions/arm_fir_interpolate_q15.c **** 
 251:../Dave/Generated/CMSIS_DSP/Source/FilteringFunctions/arm_fir_interpolate_q15.c ****                     ptr1 += 8;
 252:../Dave/Generated/CMSIS_DSP/Source/FilteringFunctions/arm_fir_interpolate_q15.c ****                     ptr2 = ptr2 + S->L * 8;
 253:../Dave/Generated/CMSIS_DSP/Source/FilteringFunctions/arm_fir_interpolate_q15.c ****                     tapCnt--;
 254:../Dave/Generated/CMSIS_DSP/Source/FilteringFunctions/arm_fir_interpolate_q15.c ****                 }
 255:../Dave/Generated/CMSIS_DSP/Source/FilteringFunctions/arm_fir_interpolate_q15.c ****                 tapCnt = phaseLen & 7;
 256:../Dave/Generated/CMSIS_DSP/Source/FilteringFunctions/arm_fir_interpolate_q15.c ****                 if (tapCnt > 0U)
 257:../Dave/Generated/CMSIS_DSP/Source/FilteringFunctions/arm_fir_interpolate_q15.c ****                 {
 258:../Dave/Generated/CMSIS_DSP/Source/FilteringFunctions/arm_fir_interpolate_q15.c ****                     mve_pred16_t p0 = vctp16q(tapCnt);
 259:../Dave/Generated/CMSIS_DSP/Source/FilteringFunctions/arm_fir_interpolate_q15.c **** 
 260:../Dave/Generated/CMSIS_DSP/Source/FilteringFunctions/arm_fir_interpolate_q15.c ****                     vecState = vldrhq_z_s16(ptr1, p0);
 261:../Dave/Generated/CMSIS_DSP/Source/FilteringFunctions/arm_fir_interpolate_q15.c **** 
 262:../Dave/Generated/CMSIS_DSP/Source/FilteringFunctions/arm_fir_interpolate_q15.c ****                     vecCoef = vldrhq_gather_shifted_offset_z_s16(ptr2, vec_strides1, p0);
 263:../Dave/Generated/CMSIS_DSP/Source/FilteringFunctions/arm_fir_interpolate_q15.c ****                     acc0 = vmlaldavaq(acc0, vecState, vecCoef);
 264:../Dave/Generated/CMSIS_DSP/Source/FilteringFunctions/arm_fir_interpolate_q15.c **** 
 265:../Dave/Generated/CMSIS_DSP/Source/FilteringFunctions/arm_fir_interpolate_q15.c ****                     vecCoef = vldrhq_gather_shifted_offset_z_s16(ptr2, vec_strides0, p0);
 266:../Dave/Generated/CMSIS_DSP/Source/FilteringFunctions/arm_fir_interpolate_q15.c ****                     acc1 = vmlaldavaq(acc1, vecState, vecCoef);
 267:../Dave/Generated/CMSIS_DSP/Source/FilteringFunctions/arm_fir_interpolate_q15.c ****                 }
 268:../Dave/Generated/CMSIS_DSP/Source/FilteringFunctions/arm_fir_interpolate_q15.c **** 
 269:../Dave/Generated/CMSIS_DSP/Source/FilteringFunctions/arm_fir_interpolate_q15.c ****                 acc0 = asrl(acc0, 15);
 270:../Dave/Generated/CMSIS_DSP/Source/FilteringFunctions/arm_fir_interpolate_q15.c ****                 acc1 = asrl(acc1, 15);
 271:../Dave/Generated/CMSIS_DSP/Source/FilteringFunctions/arm_fir_interpolate_q15.c **** 
 272:../Dave/Generated/CMSIS_DSP/Source/FilteringFunctions/arm_fir_interpolate_q15.c ****                 *pDst++ = (q15_t) __SSAT(acc0, 16);
 273:../Dave/Generated/CMSIS_DSP/Source/FilteringFunctions/arm_fir_interpolate_q15.c ****                 *pDst++ = (q15_t) __SSAT(acc1, 16);
 274:../Dave/Generated/CMSIS_DSP/Source/FilteringFunctions/arm_fir_interpolate_q15.c ****                 i -= 2;
 275:../Dave/Generated/CMSIS_DSP/Source/FilteringFunctions/arm_fir_interpolate_q15.c ****             }
 276:../Dave/Generated/CMSIS_DSP/Source/FilteringFunctions/arm_fir_interpolate_q15.c ****             else
 277:../Dave/Generated/CMSIS_DSP/Source/FilteringFunctions/arm_fir_interpolate_q15.c ****             {
 278:../Dave/Generated/CMSIS_DSP/Source/FilteringFunctions/arm_fir_interpolate_q15.c ****                 /*
 279:../Dave/Generated/CMSIS_DSP/Source/FilteringFunctions/arm_fir_interpolate_q15.c ****                  * Initialize coefficient pointer
 280:../Dave/Generated/CMSIS_DSP/Source/FilteringFunctions/arm_fir_interpolate_q15.c ****                  */
 281:../Dave/Generated/CMSIS_DSP/Source/FilteringFunctions/arm_fir_interpolate_q15.c ****                 ptr2 = pCoeffs + (i - 1U);
 282:../Dave/Generated/CMSIS_DSP/Source/FilteringFunctions/arm_fir_interpolate_q15.c **** 
 283:../Dave/Generated/CMSIS_DSP/Source/FilteringFunctions/arm_fir_interpolate_q15.c ****                 q63_t     acc0 = 0LL;
 284:../Dave/Generated/CMSIS_DSP/Source/FilteringFunctions/arm_fir_interpolate_q15.c **** 
 285:../Dave/Generated/CMSIS_DSP/Source/FilteringFunctions/arm_fir_interpolate_q15.c ****                 uint32_t  tapCnt = phaseLen >> 3;
 286:../Dave/Generated/CMSIS_DSP/Source/FilteringFunctions/arm_fir_interpolate_q15.c ****                 while (tapCnt > 0U)
 287:../Dave/Generated/CMSIS_DSP/Source/FilteringFunctions/arm_fir_interpolate_q15.c ****                 {
 288:../Dave/Generated/CMSIS_DSP/Source/FilteringFunctions/arm_fir_interpolate_q15.c ****                     vecState = vldrhq_s16(ptr1);
 289:../Dave/Generated/CMSIS_DSP/Source/FilteringFunctions/arm_fir_interpolate_q15.c ****                     vecCoef = vldrhq_gather_shifted_offset_s16(ptr2, vec_strides0);
 290:../Dave/Generated/CMSIS_DSP/Source/FilteringFunctions/arm_fir_interpolate_q15.c **** 
 291:../Dave/Generated/CMSIS_DSP/Source/FilteringFunctions/arm_fir_interpolate_q15.c ****                     acc0 = vmlaldavaq(acc0, vecState, vecCoef);
 292:../Dave/Generated/CMSIS_DSP/Source/FilteringFunctions/arm_fir_interpolate_q15.c **** 
 293:../Dave/Generated/CMSIS_DSP/Source/FilteringFunctions/arm_fir_interpolate_q15.c ****                     ptr1 += 8;
 294:../Dave/Generated/CMSIS_DSP/Source/FilteringFunctions/arm_fir_interpolate_q15.c ****                     ptr2 = ptr2 + S->L * 8;
 295:../Dave/Generated/CMSIS_DSP/Source/FilteringFunctions/arm_fir_interpolate_q15.c ****                     tapCnt--;
 296:../Dave/Generated/CMSIS_DSP/Source/FilteringFunctions/arm_fir_interpolate_q15.c ****                 }
 297:../Dave/Generated/CMSIS_DSP/Source/FilteringFunctions/arm_fir_interpolate_q15.c ****                 tapCnt = phaseLen & 7;
 298:../Dave/Generated/CMSIS_DSP/Source/FilteringFunctions/arm_fir_interpolate_q15.c ****                 if (tapCnt > 0U)
 299:../Dave/Generated/CMSIS_DSP/Source/FilteringFunctions/arm_fir_interpolate_q15.c ****                 {
 300:../Dave/Generated/CMSIS_DSP/Source/FilteringFunctions/arm_fir_interpolate_q15.c ****                     mve_pred16_t p0 = vctp16q(tapCnt);
 301:../Dave/Generated/CMSIS_DSP/Source/FilteringFunctions/arm_fir_interpolate_q15.c **** 
 302:../Dave/Generated/CMSIS_DSP/Source/FilteringFunctions/arm_fir_interpolate_q15.c ****                     vecState = vldrhq_z_s16(ptr1, p0);
 303:../Dave/Generated/CMSIS_DSP/Source/FilteringFunctions/arm_fir_interpolate_q15.c ****                     vecCoef = vldrhq_gather_shifted_offset_z_s16(ptr2, vec_strides0, p0);
 304:../Dave/Generated/CMSIS_DSP/Source/FilteringFunctions/arm_fir_interpolate_q15.c ****                     acc0 = vmlaldavaq(acc0, vecState, vecCoef);
 305:../Dave/Generated/CMSIS_DSP/Source/FilteringFunctions/arm_fir_interpolate_q15.c ****                 }
 306:../Dave/Generated/CMSIS_DSP/Source/FilteringFunctions/arm_fir_interpolate_q15.c **** 
 307:../Dave/Generated/CMSIS_DSP/Source/FilteringFunctions/arm_fir_interpolate_q15.c ****                 acc0 = asrl(acc0, 15);
 308:../Dave/Generated/CMSIS_DSP/Source/FilteringFunctions/arm_fir_interpolate_q15.c ****                 *pDst++ = (q15_t) __SSAT(acc0, 16);
 309:../Dave/Generated/CMSIS_DSP/Source/FilteringFunctions/arm_fir_interpolate_q15.c ****                 /*
 310:../Dave/Generated/CMSIS_DSP/Source/FilteringFunctions/arm_fir_interpolate_q15.c ****                  * Decrement the loop counter
 311:../Dave/Generated/CMSIS_DSP/Source/FilteringFunctions/arm_fir_interpolate_q15.c ****                  */
 312:../Dave/Generated/CMSIS_DSP/Source/FilteringFunctions/arm_fir_interpolate_q15.c ****                 i--;
 313:../Dave/Generated/CMSIS_DSP/Source/FilteringFunctions/arm_fir_interpolate_q15.c ****             }
 314:../Dave/Generated/CMSIS_DSP/Source/FilteringFunctions/arm_fir_interpolate_q15.c ****         }
 315:../Dave/Generated/CMSIS_DSP/Source/FilteringFunctions/arm_fir_interpolate_q15.c ****         /*
 316:../Dave/Generated/CMSIS_DSP/Source/FilteringFunctions/arm_fir_interpolate_q15.c ****          * Advance the state pointer by 1
 317:../Dave/Generated/CMSIS_DSP/Source/FilteringFunctions/arm_fir_interpolate_q15.c ****          * * to process the next group of interpolation factor number samples
 318:../Dave/Generated/CMSIS_DSP/Source/FilteringFunctions/arm_fir_interpolate_q15.c ****          */
 319:../Dave/Generated/CMSIS_DSP/Source/FilteringFunctions/arm_fir_interpolate_q15.c ****         pState = pState + 1;
 320:../Dave/Generated/CMSIS_DSP/Source/FilteringFunctions/arm_fir_interpolate_q15.c ****         /*
 321:../Dave/Generated/CMSIS_DSP/Source/FilteringFunctions/arm_fir_interpolate_q15.c ****          * Decrement the loop counter
 322:../Dave/Generated/CMSIS_DSP/Source/FilteringFunctions/arm_fir_interpolate_q15.c ****          */
 323:../Dave/Generated/CMSIS_DSP/Source/FilteringFunctions/arm_fir_interpolate_q15.c ****         blkCnt--;
 324:../Dave/Generated/CMSIS_DSP/Source/FilteringFunctions/arm_fir_interpolate_q15.c ****     }
 325:../Dave/Generated/CMSIS_DSP/Source/FilteringFunctions/arm_fir_interpolate_q15.c **** 
 326:../Dave/Generated/CMSIS_DSP/Source/FilteringFunctions/arm_fir_interpolate_q15.c ****     /*
 327:../Dave/Generated/CMSIS_DSP/Source/FilteringFunctions/arm_fir_interpolate_q15.c ****      * Processing is complete.
 328:../Dave/Generated/CMSIS_DSP/Source/FilteringFunctions/arm_fir_interpolate_q15.c ****      * Now copy the last phaseLen - 1 samples to the satrt of the state buffer.
 329:../Dave/Generated/CMSIS_DSP/Source/FilteringFunctions/arm_fir_interpolate_q15.c ****      * This prepares the state buffer for the next function call.
 330:../Dave/Generated/CMSIS_DSP/Source/FilteringFunctions/arm_fir_interpolate_q15.c ****      */
 331:../Dave/Generated/CMSIS_DSP/Source/FilteringFunctions/arm_fir_interpolate_q15.c **** 
 332:../Dave/Generated/CMSIS_DSP/Source/FilteringFunctions/arm_fir_interpolate_q15.c ****     /*
 333:../Dave/Generated/CMSIS_DSP/Source/FilteringFunctions/arm_fir_interpolate_q15.c ****      * Points to the start of the state buffer
 334:../Dave/Generated/CMSIS_DSP/Source/FilteringFunctions/arm_fir_interpolate_q15.c ****      */
 335:../Dave/Generated/CMSIS_DSP/Source/FilteringFunctions/arm_fir_interpolate_q15.c ****     pStateCurnt = S->pState;
 336:../Dave/Generated/CMSIS_DSP/Source/FilteringFunctions/arm_fir_interpolate_q15.c ****     blkCnt = (phaseLen - 1U) >> 3;
 337:../Dave/Generated/CMSIS_DSP/Source/FilteringFunctions/arm_fir_interpolate_q15.c ****     while (blkCnt > 0U)
 338:../Dave/Generated/CMSIS_DSP/Source/FilteringFunctions/arm_fir_interpolate_q15.c ****     {
 339:../Dave/Generated/CMSIS_DSP/Source/FilteringFunctions/arm_fir_interpolate_q15.c ****         vstrhq_s16(pStateCurnt, vldrhq_s16(pState));
 340:../Dave/Generated/CMSIS_DSP/Source/FilteringFunctions/arm_fir_interpolate_q15.c ****         pState += 8;
 341:../Dave/Generated/CMSIS_DSP/Source/FilteringFunctions/arm_fir_interpolate_q15.c ****         pStateCurnt += 8;
 342:../Dave/Generated/CMSIS_DSP/Source/FilteringFunctions/arm_fir_interpolate_q15.c ****         blkCnt--;
 343:../Dave/Generated/CMSIS_DSP/Source/FilteringFunctions/arm_fir_interpolate_q15.c ****     }
 344:../Dave/Generated/CMSIS_DSP/Source/FilteringFunctions/arm_fir_interpolate_q15.c ****     blkCnt = (phaseLen - 1U) & 7;
 345:../Dave/Generated/CMSIS_DSP/Source/FilteringFunctions/arm_fir_interpolate_q15.c ****     if (blkCnt > 0U)
 346:../Dave/Generated/CMSIS_DSP/Source/FilteringFunctions/arm_fir_interpolate_q15.c ****     {
 347:../Dave/Generated/CMSIS_DSP/Source/FilteringFunctions/arm_fir_interpolate_q15.c ****         mve_pred16_t p0 = vctp16q(blkCnt);
 348:../Dave/Generated/CMSIS_DSP/Source/FilteringFunctions/arm_fir_interpolate_q15.c ****         vstrhq_p_s16(pStateCurnt, vldrhq_s16(pState), p0);
 349:../Dave/Generated/CMSIS_DSP/Source/FilteringFunctions/arm_fir_interpolate_q15.c ****     }
 350:../Dave/Generated/CMSIS_DSP/Source/FilteringFunctions/arm_fir_interpolate_q15.c **** }
 351:../Dave/Generated/CMSIS_DSP/Source/FilteringFunctions/arm_fir_interpolate_q15.c **** #else
 352:../Dave/Generated/CMSIS_DSP/Source/FilteringFunctions/arm_fir_interpolate_q15.c **** void arm_fir_interpolate_q15(
 353:../Dave/Generated/CMSIS_DSP/Source/FilteringFunctions/arm_fir_interpolate_q15.c ****   const arm_fir_interpolate_instance_q15 * S,
 354:../Dave/Generated/CMSIS_DSP/Source/FilteringFunctions/arm_fir_interpolate_q15.c ****   const q15_t * pSrc,
 355:../Dave/Generated/CMSIS_DSP/Source/FilteringFunctions/arm_fir_interpolate_q15.c ****         q15_t * pDst,
 356:../Dave/Generated/CMSIS_DSP/Source/FilteringFunctions/arm_fir_interpolate_q15.c ****         uint32_t blockSize)
 357:../Dave/Generated/CMSIS_DSP/Source/FilteringFunctions/arm_fir_interpolate_q15.c **** {
  28              	 .loc 1 357 0
  29              	 .cfi_startproc
  30              	 
  31              	 
  32 0000 F0B5     	 push {r4,r5,r6,r7,lr}
  33              	.LCFI0:
  34              	 .cfi_def_cfa_offset 20
  35              	 .cfi_offset 4,-20
  36              	 .cfi_offset 5,-16
  37              	 .cfi_offset 6,-12
  38              	 .cfi_offset 7,-8
  39              	 .cfi_offset 14,-4
  40 0002 93B0     	 sub sp,sp,#76
  41              	.LCFI1:
  42              	 .cfi_def_cfa_offset 96
  43 0004 00AF     	 add r7,sp,#0
  44              	.LCFI2:
  45              	 .cfi_def_cfa_register 7
  46 0006 F860     	 str r0,[r7,#12]
  47 0008 B960     	 str r1,[r7,#8]
  48 000a 7A60     	 str r2,[r7,#4]
  49 000c 3B60     	 str r3,[r7]
 358:../Dave/Generated/CMSIS_DSP/Source/FilteringFunctions/arm_fir_interpolate_q15.c **** #if (1)
 359:../Dave/Generated/CMSIS_DSP/Source/FilteringFunctions/arm_fir_interpolate_q15.c **** //#if !defined(ARM_MATH_CM0_FAMILY)
 360:../Dave/Generated/CMSIS_DSP/Source/FilteringFunctions/arm_fir_interpolate_q15.c **** 
 361:../Dave/Generated/CMSIS_DSP/Source/FilteringFunctions/arm_fir_interpolate_q15.c ****         q15_t *pState = S->pState;                     /* State pointer */
  50              	 .loc 1 361 0
  51 000e FB68     	 ldr r3,[r7,#12]
  52 0010 9B68     	 ldr r3,[r3,#8]
  53 0012 7B64     	 str r3,[r7,#68]
 362:../Dave/Generated/CMSIS_DSP/Source/FilteringFunctions/arm_fir_interpolate_q15.c ****   const q15_t *pCoeffs = S->pCoeffs;                   /* Coefficient pointer */
  54              	 .loc 1 362 0
  55 0014 FB68     	 ldr r3,[r7,#12]
  56 0016 5B68     	 ldr r3,[r3,#4]
  57 0018 FB61     	 str r3,[r7,#28]
 363:../Dave/Generated/CMSIS_DSP/Source/FilteringFunctions/arm_fir_interpolate_q15.c ****         q15_t *pStateCur;                              /* Points to the current sample of the state
 364:../Dave/Generated/CMSIS_DSP/Source/FilteringFunctions/arm_fir_interpolate_q15.c ****         q15_t *ptr1;                                   /* Temporary pointer for state buffer */
 365:../Dave/Generated/CMSIS_DSP/Source/FilteringFunctions/arm_fir_interpolate_q15.c ****   const q15_t *ptr2;                                   /* Temporary pointer for coefficient buffer 
 366:../Dave/Generated/CMSIS_DSP/Source/FilteringFunctions/arm_fir_interpolate_q15.c ****         q63_t sum0;                                    /* Accumulators */
 367:../Dave/Generated/CMSIS_DSP/Source/FilteringFunctions/arm_fir_interpolate_q15.c ****         uint32_t i, blkCnt, tapCnt;                    /* Loop counters */
 368:../Dave/Generated/CMSIS_DSP/Source/FilteringFunctions/arm_fir_interpolate_q15.c ****         uint32_t phaseLen = S->phaseLength;            /* Length of each polyphase filter component
  58              	 .loc 1 368 0
  59 001a FB68     	 ldr r3,[r7,#12]
  60 001c 5B88     	 ldrh r3,[r3,#2]
  61 001e BB61     	 str r3,[r7,#24]
 369:../Dave/Generated/CMSIS_DSP/Source/FilteringFunctions/arm_fir_interpolate_q15.c ****         uint32_t j;
 370:../Dave/Generated/CMSIS_DSP/Source/FilteringFunctions/arm_fir_interpolate_q15.c **** 
 371:../Dave/Generated/CMSIS_DSP/Source/FilteringFunctions/arm_fir_interpolate_q15.c **** #if defined (ARM_MATH_LOOPUNROLL)
 372:../Dave/Generated/CMSIS_DSP/Source/FilteringFunctions/arm_fir_interpolate_q15.c ****         q63_t acc0, acc1, acc2, acc3;
 373:../Dave/Generated/CMSIS_DSP/Source/FilteringFunctions/arm_fir_interpolate_q15.c ****         q15_t x0, x1, x2, x3;
 374:../Dave/Generated/CMSIS_DSP/Source/FilteringFunctions/arm_fir_interpolate_q15.c ****         q15_t c0, c1, c2, c3;
 375:../Dave/Generated/CMSIS_DSP/Source/FilteringFunctions/arm_fir_interpolate_q15.c **** #endif
 376:../Dave/Generated/CMSIS_DSP/Source/FilteringFunctions/arm_fir_interpolate_q15.c **** 
 377:../Dave/Generated/CMSIS_DSP/Source/FilteringFunctions/arm_fir_interpolate_q15.c ****   /* S->pState buffer contains previous frame (phaseLen - 1) samples */
 378:../Dave/Generated/CMSIS_DSP/Source/FilteringFunctions/arm_fir_interpolate_q15.c ****   /* pStateCur points to the location where the new input data should be written */
 379:../Dave/Generated/CMSIS_DSP/Source/FilteringFunctions/arm_fir_interpolate_q15.c ****   pStateCur = S->pState + (phaseLen - 1U);
  62              	 .loc 1 379 0
  63 0020 FB68     	 ldr r3,[r7,#12]
  64 0022 9A68     	 ldr r2,[r3,#8]
  65 0024 BB69     	 ldr r3,[r7,#24]
  66 0026 03F10043 	 add r3,r3,#-2147483648
  67 002a 013B     	 subs r3,r3,#1
  68 002c 5B00     	 lsls r3,r3,#1
  69 002e 1344     	 add r3,r3,r2
  70 0030 3B64     	 str r3,[r7,#64]
 380:../Dave/Generated/CMSIS_DSP/Source/FilteringFunctions/arm_fir_interpolate_q15.c **** 
 381:../Dave/Generated/CMSIS_DSP/Source/FilteringFunctions/arm_fir_interpolate_q15.c **** #if defined (ARM_MATH_LOOPUNROLL)
 382:../Dave/Generated/CMSIS_DSP/Source/FilteringFunctions/arm_fir_interpolate_q15.c **** 
 383:../Dave/Generated/CMSIS_DSP/Source/FilteringFunctions/arm_fir_interpolate_q15.c ****   /* Loop unrolling: Compute 4 outputs at a time */
 384:../Dave/Generated/CMSIS_DSP/Source/FilteringFunctions/arm_fir_interpolate_q15.c ****   blkCnt = blockSize >> 2U;
 385:../Dave/Generated/CMSIS_DSP/Source/FilteringFunctions/arm_fir_interpolate_q15.c **** 
 386:../Dave/Generated/CMSIS_DSP/Source/FilteringFunctions/arm_fir_interpolate_q15.c ****   while (blkCnt > 0U)
 387:../Dave/Generated/CMSIS_DSP/Source/FilteringFunctions/arm_fir_interpolate_q15.c ****   {
 388:../Dave/Generated/CMSIS_DSP/Source/FilteringFunctions/arm_fir_interpolate_q15.c ****     /* Copy new input sample into the state buffer */
 389:../Dave/Generated/CMSIS_DSP/Source/FilteringFunctions/arm_fir_interpolate_q15.c ****     *pStateCur++ = *pSrc++;
 390:../Dave/Generated/CMSIS_DSP/Source/FilteringFunctions/arm_fir_interpolate_q15.c ****     *pStateCur++ = *pSrc++;
 391:../Dave/Generated/CMSIS_DSP/Source/FilteringFunctions/arm_fir_interpolate_q15.c ****     *pStateCur++ = *pSrc++;
 392:../Dave/Generated/CMSIS_DSP/Source/FilteringFunctions/arm_fir_interpolate_q15.c ****     *pStateCur++ = *pSrc++;
 393:../Dave/Generated/CMSIS_DSP/Source/FilteringFunctions/arm_fir_interpolate_q15.c **** 
 394:../Dave/Generated/CMSIS_DSP/Source/FilteringFunctions/arm_fir_interpolate_q15.c ****     /* Address modifier index of coefficient buffer */
 395:../Dave/Generated/CMSIS_DSP/Source/FilteringFunctions/arm_fir_interpolate_q15.c ****     j = 1U;
 396:../Dave/Generated/CMSIS_DSP/Source/FilteringFunctions/arm_fir_interpolate_q15.c **** 
 397:../Dave/Generated/CMSIS_DSP/Source/FilteringFunctions/arm_fir_interpolate_q15.c ****     /* Loop over the Interpolation factor. */
 398:../Dave/Generated/CMSIS_DSP/Source/FilteringFunctions/arm_fir_interpolate_q15.c ****     i = (S->L);
 399:../Dave/Generated/CMSIS_DSP/Source/FilteringFunctions/arm_fir_interpolate_q15.c **** 
 400:../Dave/Generated/CMSIS_DSP/Source/FilteringFunctions/arm_fir_interpolate_q15.c ****     while (i > 0U)
 401:../Dave/Generated/CMSIS_DSP/Source/FilteringFunctions/arm_fir_interpolate_q15.c ****     {
 402:../Dave/Generated/CMSIS_DSP/Source/FilteringFunctions/arm_fir_interpolate_q15.c ****       /* Set accumulator to zero */
 403:../Dave/Generated/CMSIS_DSP/Source/FilteringFunctions/arm_fir_interpolate_q15.c ****       acc0 = 0;
 404:../Dave/Generated/CMSIS_DSP/Source/FilteringFunctions/arm_fir_interpolate_q15.c ****       acc1 = 0;
 405:../Dave/Generated/CMSIS_DSP/Source/FilteringFunctions/arm_fir_interpolate_q15.c ****       acc2 = 0;
 406:../Dave/Generated/CMSIS_DSP/Source/FilteringFunctions/arm_fir_interpolate_q15.c ****       acc3 = 0;
 407:../Dave/Generated/CMSIS_DSP/Source/FilteringFunctions/arm_fir_interpolate_q15.c **** 
 408:../Dave/Generated/CMSIS_DSP/Source/FilteringFunctions/arm_fir_interpolate_q15.c ****       /* Initialize state pointer */
 409:../Dave/Generated/CMSIS_DSP/Source/FilteringFunctions/arm_fir_interpolate_q15.c ****       ptr1 = pState;
 410:../Dave/Generated/CMSIS_DSP/Source/FilteringFunctions/arm_fir_interpolate_q15.c **** 
 411:../Dave/Generated/CMSIS_DSP/Source/FilteringFunctions/arm_fir_interpolate_q15.c ****       /* Initialize coefficient pointer */
 412:../Dave/Generated/CMSIS_DSP/Source/FilteringFunctions/arm_fir_interpolate_q15.c ****       ptr2 = pCoeffs + (S->L - j);
 413:../Dave/Generated/CMSIS_DSP/Source/FilteringFunctions/arm_fir_interpolate_q15.c **** 
 414:../Dave/Generated/CMSIS_DSP/Source/FilteringFunctions/arm_fir_interpolate_q15.c ****       /* Loop over the polyPhase length. Unroll by a factor of 4.
 415:../Dave/Generated/CMSIS_DSP/Source/FilteringFunctions/arm_fir_interpolate_q15.c ****          Repeat until we've computed numTaps-(4*S->L) coefficients. */
 416:../Dave/Generated/CMSIS_DSP/Source/FilteringFunctions/arm_fir_interpolate_q15.c ****       tapCnt = phaseLen >> 2U;
 417:../Dave/Generated/CMSIS_DSP/Source/FilteringFunctions/arm_fir_interpolate_q15.c **** 
 418:../Dave/Generated/CMSIS_DSP/Source/FilteringFunctions/arm_fir_interpolate_q15.c ****       x0 = *(ptr1++);
 419:../Dave/Generated/CMSIS_DSP/Source/FilteringFunctions/arm_fir_interpolate_q15.c ****       x1 = *(ptr1++);
 420:../Dave/Generated/CMSIS_DSP/Source/FilteringFunctions/arm_fir_interpolate_q15.c ****       x2 = *(ptr1++);
 421:../Dave/Generated/CMSIS_DSP/Source/FilteringFunctions/arm_fir_interpolate_q15.c **** 
 422:../Dave/Generated/CMSIS_DSP/Source/FilteringFunctions/arm_fir_interpolate_q15.c ****       while (tapCnt > 0U)
 423:../Dave/Generated/CMSIS_DSP/Source/FilteringFunctions/arm_fir_interpolate_q15.c ****       {
 424:../Dave/Generated/CMSIS_DSP/Source/FilteringFunctions/arm_fir_interpolate_q15.c ****         /* Read the input sample */
 425:../Dave/Generated/CMSIS_DSP/Source/FilteringFunctions/arm_fir_interpolate_q15.c ****         x3 = *(ptr1++);
 426:../Dave/Generated/CMSIS_DSP/Source/FilteringFunctions/arm_fir_interpolate_q15.c **** 
 427:../Dave/Generated/CMSIS_DSP/Source/FilteringFunctions/arm_fir_interpolate_q15.c ****         /* Read the coefficient */
 428:../Dave/Generated/CMSIS_DSP/Source/FilteringFunctions/arm_fir_interpolate_q15.c ****         c0 = *(ptr2);
 429:../Dave/Generated/CMSIS_DSP/Source/FilteringFunctions/arm_fir_interpolate_q15.c **** 
 430:../Dave/Generated/CMSIS_DSP/Source/FilteringFunctions/arm_fir_interpolate_q15.c ****         /* Perform the multiply-accumulate */
 431:../Dave/Generated/CMSIS_DSP/Source/FilteringFunctions/arm_fir_interpolate_q15.c ****         acc0 += (q63_t) x0 * c0;
 432:../Dave/Generated/CMSIS_DSP/Source/FilteringFunctions/arm_fir_interpolate_q15.c ****         acc1 += (q63_t) x1 * c0;
 433:../Dave/Generated/CMSIS_DSP/Source/FilteringFunctions/arm_fir_interpolate_q15.c ****         acc2 += (q63_t) x2 * c0;
 434:../Dave/Generated/CMSIS_DSP/Source/FilteringFunctions/arm_fir_interpolate_q15.c ****         acc3 += (q63_t) x3 * c0;
 435:../Dave/Generated/CMSIS_DSP/Source/FilteringFunctions/arm_fir_interpolate_q15.c **** 
 436:../Dave/Generated/CMSIS_DSP/Source/FilteringFunctions/arm_fir_interpolate_q15.c ****         /* Read the coefficient */
 437:../Dave/Generated/CMSIS_DSP/Source/FilteringFunctions/arm_fir_interpolate_q15.c ****         c1 = *(ptr2 + S->L);
 438:../Dave/Generated/CMSIS_DSP/Source/FilteringFunctions/arm_fir_interpolate_q15.c **** 
 439:../Dave/Generated/CMSIS_DSP/Source/FilteringFunctions/arm_fir_interpolate_q15.c ****         /* Read the input sample */
 440:../Dave/Generated/CMSIS_DSP/Source/FilteringFunctions/arm_fir_interpolate_q15.c ****         x0 = *(ptr1++);
 441:../Dave/Generated/CMSIS_DSP/Source/FilteringFunctions/arm_fir_interpolate_q15.c **** 
 442:../Dave/Generated/CMSIS_DSP/Source/FilteringFunctions/arm_fir_interpolate_q15.c ****         /* Perform the multiply-accumulate */
 443:../Dave/Generated/CMSIS_DSP/Source/FilteringFunctions/arm_fir_interpolate_q15.c ****         acc0 += (q63_t) x1 * c1;
 444:../Dave/Generated/CMSIS_DSP/Source/FilteringFunctions/arm_fir_interpolate_q15.c ****         acc1 += (q63_t) x2 * c1;
 445:../Dave/Generated/CMSIS_DSP/Source/FilteringFunctions/arm_fir_interpolate_q15.c ****         acc2 += (q63_t) x3 * c1;
 446:../Dave/Generated/CMSIS_DSP/Source/FilteringFunctions/arm_fir_interpolate_q15.c ****         acc3 += (q63_t) x0 * c1;
 447:../Dave/Generated/CMSIS_DSP/Source/FilteringFunctions/arm_fir_interpolate_q15.c **** 
 448:../Dave/Generated/CMSIS_DSP/Source/FilteringFunctions/arm_fir_interpolate_q15.c ****         /* Read the coefficient */
 449:../Dave/Generated/CMSIS_DSP/Source/FilteringFunctions/arm_fir_interpolate_q15.c ****         c2 = *(ptr2 + S->L * 2);
 450:../Dave/Generated/CMSIS_DSP/Source/FilteringFunctions/arm_fir_interpolate_q15.c **** 
 451:../Dave/Generated/CMSIS_DSP/Source/FilteringFunctions/arm_fir_interpolate_q15.c ****         /* Read the input sample */
 452:../Dave/Generated/CMSIS_DSP/Source/FilteringFunctions/arm_fir_interpolate_q15.c ****         x1 = *(ptr1++);
 453:../Dave/Generated/CMSIS_DSP/Source/FilteringFunctions/arm_fir_interpolate_q15.c **** 
 454:../Dave/Generated/CMSIS_DSP/Source/FilteringFunctions/arm_fir_interpolate_q15.c ****         /* Perform the multiply-accumulate */
 455:../Dave/Generated/CMSIS_DSP/Source/FilteringFunctions/arm_fir_interpolate_q15.c ****         acc0 += (q63_t) x2 * c2;
 456:../Dave/Generated/CMSIS_DSP/Source/FilteringFunctions/arm_fir_interpolate_q15.c ****         acc1 += (q63_t) x3 * c2;
 457:../Dave/Generated/CMSIS_DSP/Source/FilteringFunctions/arm_fir_interpolate_q15.c ****         acc2 += (q63_t) x0 * c2;
 458:../Dave/Generated/CMSIS_DSP/Source/FilteringFunctions/arm_fir_interpolate_q15.c ****         acc3 += (q63_t) x1 * c2;
 459:../Dave/Generated/CMSIS_DSP/Source/FilteringFunctions/arm_fir_interpolate_q15.c **** 
 460:../Dave/Generated/CMSIS_DSP/Source/FilteringFunctions/arm_fir_interpolate_q15.c ****         /* Read the coefficient */
 461:../Dave/Generated/CMSIS_DSP/Source/FilteringFunctions/arm_fir_interpolate_q15.c ****         c3 = *(ptr2 + S->L * 3);
 462:../Dave/Generated/CMSIS_DSP/Source/FilteringFunctions/arm_fir_interpolate_q15.c **** 
 463:../Dave/Generated/CMSIS_DSP/Source/FilteringFunctions/arm_fir_interpolate_q15.c ****         /* Read the input sample */
 464:../Dave/Generated/CMSIS_DSP/Source/FilteringFunctions/arm_fir_interpolate_q15.c ****         x2 = *(ptr1++);
 465:../Dave/Generated/CMSIS_DSP/Source/FilteringFunctions/arm_fir_interpolate_q15.c **** 
 466:../Dave/Generated/CMSIS_DSP/Source/FilteringFunctions/arm_fir_interpolate_q15.c ****         /* Perform the multiply-accumulate */
 467:../Dave/Generated/CMSIS_DSP/Source/FilteringFunctions/arm_fir_interpolate_q15.c ****         acc0 += (q63_t) x3 * c3;
 468:../Dave/Generated/CMSIS_DSP/Source/FilteringFunctions/arm_fir_interpolate_q15.c ****         acc1 += (q63_t) x0 * c3;
 469:../Dave/Generated/CMSIS_DSP/Source/FilteringFunctions/arm_fir_interpolate_q15.c ****         acc2 += (q63_t) x1 * c3;
 470:../Dave/Generated/CMSIS_DSP/Source/FilteringFunctions/arm_fir_interpolate_q15.c ****         acc3 += (q63_t) x2 * c3;
 471:../Dave/Generated/CMSIS_DSP/Source/FilteringFunctions/arm_fir_interpolate_q15.c **** 
 472:../Dave/Generated/CMSIS_DSP/Source/FilteringFunctions/arm_fir_interpolate_q15.c **** 
 473:../Dave/Generated/CMSIS_DSP/Source/FilteringFunctions/arm_fir_interpolate_q15.c ****         /* Upsampling is done by stuffing L-1 zeros between each sample.
 474:../Dave/Generated/CMSIS_DSP/Source/FilteringFunctions/arm_fir_interpolate_q15.c ****          * So instead of multiplying zeros with coefficients,
 475:../Dave/Generated/CMSIS_DSP/Source/FilteringFunctions/arm_fir_interpolate_q15.c ****          * Increment the coefficient pointer by interpolation factor times. */
 476:../Dave/Generated/CMSIS_DSP/Source/FilteringFunctions/arm_fir_interpolate_q15.c ****         ptr2 += 4 * S->L;
 477:../Dave/Generated/CMSIS_DSP/Source/FilteringFunctions/arm_fir_interpolate_q15.c **** 
 478:../Dave/Generated/CMSIS_DSP/Source/FilteringFunctions/arm_fir_interpolate_q15.c ****         /* Decrement loop counter */
 479:../Dave/Generated/CMSIS_DSP/Source/FilteringFunctions/arm_fir_interpolate_q15.c ****         tapCnt--;
 480:../Dave/Generated/CMSIS_DSP/Source/FilteringFunctions/arm_fir_interpolate_q15.c ****       }
 481:../Dave/Generated/CMSIS_DSP/Source/FilteringFunctions/arm_fir_interpolate_q15.c **** 
 482:../Dave/Generated/CMSIS_DSP/Source/FilteringFunctions/arm_fir_interpolate_q15.c ****       /* If the polyPhase length is not a multiple of 4, compute the remaining filter taps */
 483:../Dave/Generated/CMSIS_DSP/Source/FilteringFunctions/arm_fir_interpolate_q15.c ****       tapCnt = phaseLen % 0x4U;
 484:../Dave/Generated/CMSIS_DSP/Source/FilteringFunctions/arm_fir_interpolate_q15.c **** 
 485:../Dave/Generated/CMSIS_DSP/Source/FilteringFunctions/arm_fir_interpolate_q15.c ****       while (tapCnt > 0U)
 486:../Dave/Generated/CMSIS_DSP/Source/FilteringFunctions/arm_fir_interpolate_q15.c ****       {
 487:../Dave/Generated/CMSIS_DSP/Source/FilteringFunctions/arm_fir_interpolate_q15.c ****         /* Read the input sample */
 488:../Dave/Generated/CMSIS_DSP/Source/FilteringFunctions/arm_fir_interpolate_q15.c ****         x3 = *(ptr1++);
 489:../Dave/Generated/CMSIS_DSP/Source/FilteringFunctions/arm_fir_interpolate_q15.c **** 
 490:../Dave/Generated/CMSIS_DSP/Source/FilteringFunctions/arm_fir_interpolate_q15.c ****         /* Read the coefficient */
 491:../Dave/Generated/CMSIS_DSP/Source/FilteringFunctions/arm_fir_interpolate_q15.c ****         c0 = *(ptr2);
 492:../Dave/Generated/CMSIS_DSP/Source/FilteringFunctions/arm_fir_interpolate_q15.c **** 
 493:../Dave/Generated/CMSIS_DSP/Source/FilteringFunctions/arm_fir_interpolate_q15.c ****         /* Perform the multiply-accumulate */
 494:../Dave/Generated/CMSIS_DSP/Source/FilteringFunctions/arm_fir_interpolate_q15.c ****         acc0 += (q63_t) x0 * c0;
 495:../Dave/Generated/CMSIS_DSP/Source/FilteringFunctions/arm_fir_interpolate_q15.c ****         acc1 += (q63_t) x1 * c0;
 496:../Dave/Generated/CMSIS_DSP/Source/FilteringFunctions/arm_fir_interpolate_q15.c ****         acc2 += (q63_t) x2 * c0;
 497:../Dave/Generated/CMSIS_DSP/Source/FilteringFunctions/arm_fir_interpolate_q15.c ****         acc3 += (q63_t) x3 * c0;
 498:../Dave/Generated/CMSIS_DSP/Source/FilteringFunctions/arm_fir_interpolate_q15.c **** 
 499:../Dave/Generated/CMSIS_DSP/Source/FilteringFunctions/arm_fir_interpolate_q15.c ****         /* Increment the coefficient pointer by interpolation factor times. */
 500:../Dave/Generated/CMSIS_DSP/Source/FilteringFunctions/arm_fir_interpolate_q15.c ****         ptr2 += S->L;
 501:../Dave/Generated/CMSIS_DSP/Source/FilteringFunctions/arm_fir_interpolate_q15.c **** 
 502:../Dave/Generated/CMSIS_DSP/Source/FilteringFunctions/arm_fir_interpolate_q15.c ****         /* update states for next sample processing */
 503:../Dave/Generated/CMSIS_DSP/Source/FilteringFunctions/arm_fir_interpolate_q15.c ****         x0 = x1;
 504:../Dave/Generated/CMSIS_DSP/Source/FilteringFunctions/arm_fir_interpolate_q15.c ****         x1 = x2;
 505:../Dave/Generated/CMSIS_DSP/Source/FilteringFunctions/arm_fir_interpolate_q15.c ****         x2 = x3;
 506:../Dave/Generated/CMSIS_DSP/Source/FilteringFunctions/arm_fir_interpolate_q15.c **** 
 507:../Dave/Generated/CMSIS_DSP/Source/FilteringFunctions/arm_fir_interpolate_q15.c ****         /* Decrement loop counter */
 508:../Dave/Generated/CMSIS_DSP/Source/FilteringFunctions/arm_fir_interpolate_q15.c ****         tapCnt--;
 509:../Dave/Generated/CMSIS_DSP/Source/FilteringFunctions/arm_fir_interpolate_q15.c ****       }
 510:../Dave/Generated/CMSIS_DSP/Source/FilteringFunctions/arm_fir_interpolate_q15.c **** 
 511:../Dave/Generated/CMSIS_DSP/Source/FilteringFunctions/arm_fir_interpolate_q15.c ****       /* The result is in the accumulator, store in the destination buffer. */
 512:../Dave/Generated/CMSIS_DSP/Source/FilteringFunctions/arm_fir_interpolate_q15.c ****       *(pDst           ) = (q15_t) (__SSAT((acc0 >> 15), 16));
 513:../Dave/Generated/CMSIS_DSP/Source/FilteringFunctions/arm_fir_interpolate_q15.c ****       *(pDst +     S->L) = (q15_t) (__SSAT((acc1 >> 15), 16));
 514:../Dave/Generated/CMSIS_DSP/Source/FilteringFunctions/arm_fir_interpolate_q15.c ****       *(pDst + 2 * S->L) = (q15_t) (__SSAT((acc2 >> 15), 16));
 515:../Dave/Generated/CMSIS_DSP/Source/FilteringFunctions/arm_fir_interpolate_q15.c ****       *(pDst + 3 * S->L) = (q15_t) (__SSAT((acc3 >> 15), 16));
 516:../Dave/Generated/CMSIS_DSP/Source/FilteringFunctions/arm_fir_interpolate_q15.c **** 
 517:../Dave/Generated/CMSIS_DSP/Source/FilteringFunctions/arm_fir_interpolate_q15.c ****       pDst++;
 518:../Dave/Generated/CMSIS_DSP/Source/FilteringFunctions/arm_fir_interpolate_q15.c **** 
 519:../Dave/Generated/CMSIS_DSP/Source/FilteringFunctions/arm_fir_interpolate_q15.c ****       /* Increment the address modifier index of coefficient buffer */
 520:../Dave/Generated/CMSIS_DSP/Source/FilteringFunctions/arm_fir_interpolate_q15.c ****       j++;
 521:../Dave/Generated/CMSIS_DSP/Source/FilteringFunctions/arm_fir_interpolate_q15.c **** 
 522:../Dave/Generated/CMSIS_DSP/Source/FilteringFunctions/arm_fir_interpolate_q15.c ****       /* Decrement loop counter */
 523:../Dave/Generated/CMSIS_DSP/Source/FilteringFunctions/arm_fir_interpolate_q15.c ****       i--;
 524:../Dave/Generated/CMSIS_DSP/Source/FilteringFunctions/arm_fir_interpolate_q15.c ****     }
 525:../Dave/Generated/CMSIS_DSP/Source/FilteringFunctions/arm_fir_interpolate_q15.c **** 
 526:../Dave/Generated/CMSIS_DSP/Source/FilteringFunctions/arm_fir_interpolate_q15.c ****     /* Advance the state pointer by 1
 527:../Dave/Generated/CMSIS_DSP/Source/FilteringFunctions/arm_fir_interpolate_q15.c ****      * to process the next group of interpolation factor number samples */
 528:../Dave/Generated/CMSIS_DSP/Source/FilteringFunctions/arm_fir_interpolate_q15.c ****     pState = pState + 4;
 529:../Dave/Generated/CMSIS_DSP/Source/FilteringFunctions/arm_fir_interpolate_q15.c **** 
 530:../Dave/Generated/CMSIS_DSP/Source/FilteringFunctions/arm_fir_interpolate_q15.c ****     pDst += S->L * 3;
 531:../Dave/Generated/CMSIS_DSP/Source/FilteringFunctions/arm_fir_interpolate_q15.c **** 
 532:../Dave/Generated/CMSIS_DSP/Source/FilteringFunctions/arm_fir_interpolate_q15.c ****     /* Decrement loop counter */
 533:../Dave/Generated/CMSIS_DSP/Source/FilteringFunctions/arm_fir_interpolate_q15.c ****     blkCnt--;
 534:../Dave/Generated/CMSIS_DSP/Source/FilteringFunctions/arm_fir_interpolate_q15.c ****   }
 535:../Dave/Generated/CMSIS_DSP/Source/FilteringFunctions/arm_fir_interpolate_q15.c **** 
 536:../Dave/Generated/CMSIS_DSP/Source/FilteringFunctions/arm_fir_interpolate_q15.c ****   /* Loop unrolling: Compute remaining outputs */
 537:../Dave/Generated/CMSIS_DSP/Source/FilteringFunctions/arm_fir_interpolate_q15.c ****   blkCnt = blockSize % 0x4U;
 538:../Dave/Generated/CMSIS_DSP/Source/FilteringFunctions/arm_fir_interpolate_q15.c **** 
 539:../Dave/Generated/CMSIS_DSP/Source/FilteringFunctions/arm_fir_interpolate_q15.c **** #else
 540:../Dave/Generated/CMSIS_DSP/Source/FilteringFunctions/arm_fir_interpolate_q15.c **** 
 541:../Dave/Generated/CMSIS_DSP/Source/FilteringFunctions/arm_fir_interpolate_q15.c ****   /* Initialize blkCnt with number of samples */
 542:../Dave/Generated/CMSIS_DSP/Source/FilteringFunctions/arm_fir_interpolate_q15.c ****   blkCnt = blockSize;
  71              	 .loc 1 542 0
  72 0032 3B68     	 ldr r3,[r7]
  73 0034 BB62     	 str r3,[r7,#40]
 543:../Dave/Generated/CMSIS_DSP/Source/FilteringFunctions/arm_fir_interpolate_q15.c **** 
 544:../Dave/Generated/CMSIS_DSP/Source/FilteringFunctions/arm_fir_interpolate_q15.c **** #endif /* #if defined (ARM_MATH_LOOPUNROLL) */
 545:../Dave/Generated/CMSIS_DSP/Source/FilteringFunctions/arm_fir_interpolate_q15.c **** 
 546:../Dave/Generated/CMSIS_DSP/Source/FilteringFunctions/arm_fir_interpolate_q15.c ****   while (blkCnt > 0U)
  74              	 .loc 1 546 0
  75 0036 6AE0     	 b .L2
  76              	.L7:
 547:../Dave/Generated/CMSIS_DSP/Source/FilteringFunctions/arm_fir_interpolate_q15.c ****   {
 548:../Dave/Generated/CMSIS_DSP/Source/FilteringFunctions/arm_fir_interpolate_q15.c ****     /* Copy new input sample into the state buffer */
 549:../Dave/Generated/CMSIS_DSP/Source/FilteringFunctions/arm_fir_interpolate_q15.c ****     *pStateCur++ = *pSrc++;
  77              	 .loc 1 549 0
  78 0038 3B6C     	 ldr r3,[r7,#64]
  79 003a 9A1C     	 adds r2,r3,#2
  80 003c 3A64     	 str r2,[r7,#64]
  81 003e BA68     	 ldr r2,[r7,#8]
  82 0040 911C     	 adds r1,r2,#2
  83 0042 B960     	 str r1,[r7,#8]
  84 0044 1288     	 ldrh r2,[r2]
  85 0046 1A80     	 strh r2,[r3]
 550:../Dave/Generated/CMSIS_DSP/Source/FilteringFunctions/arm_fir_interpolate_q15.c **** 
 551:../Dave/Generated/CMSIS_DSP/Source/FilteringFunctions/arm_fir_interpolate_q15.c ****     /* Address modifier index of coefficient buffer */
 552:../Dave/Generated/CMSIS_DSP/Source/FilteringFunctions/arm_fir_interpolate_q15.c ****     j = 1U;
  86              	 .loc 1 552 0
  87 0048 0123     	 movs r3,#1
  88 004a 3B62     	 str r3,[r7,#32]
 553:../Dave/Generated/CMSIS_DSP/Source/FilteringFunctions/arm_fir_interpolate_q15.c **** 
 554:../Dave/Generated/CMSIS_DSP/Source/FilteringFunctions/arm_fir_interpolate_q15.c ****     /* Loop over the Interpolation factor. */
 555:../Dave/Generated/CMSIS_DSP/Source/FilteringFunctions/arm_fir_interpolate_q15.c ****     i = S->L;
  89              	 .loc 1 555 0
  90 004c FB68     	 ldr r3,[r7,#12]
  91 004e 1B78     	 ldrb r3,[r3]
  92 0050 FB62     	 str r3,[r7,#44]
 556:../Dave/Generated/CMSIS_DSP/Source/FilteringFunctions/arm_fir_interpolate_q15.c ****     while (i > 0U)
  93              	 .loc 1 556 0
  94 0052 53E0     	 b .L3
  95              	.L6:
 557:../Dave/Generated/CMSIS_DSP/Source/FilteringFunctions/arm_fir_interpolate_q15.c ****     {
 558:../Dave/Generated/CMSIS_DSP/Source/FilteringFunctions/arm_fir_interpolate_q15.c ****       /* Set accumulator to zero */
 559:../Dave/Generated/CMSIS_DSP/Source/FilteringFunctions/arm_fir_interpolate_q15.c ****       sum0 = 0;
  96              	 .loc 1 559 0
  97 0054 4FF00002 	 mov r2,#0
  98 0058 4FF00003 	 mov r3,#0
  99 005c C7E90C23 	 strd r2,[r7,#48]
 560:../Dave/Generated/CMSIS_DSP/Source/FilteringFunctions/arm_fir_interpolate_q15.c **** 
 561:../Dave/Generated/CMSIS_DSP/Source/FilteringFunctions/arm_fir_interpolate_q15.c ****       /* Initialize state pointer */
 562:../Dave/Generated/CMSIS_DSP/Source/FilteringFunctions/arm_fir_interpolate_q15.c ****       ptr1 = pState;
 100              	 .loc 1 562 0
 101 0060 7B6C     	 ldr r3,[r7,#68]
 102 0062 FB63     	 str r3,[r7,#60]
 563:../Dave/Generated/CMSIS_DSP/Source/FilteringFunctions/arm_fir_interpolate_q15.c **** 
 564:../Dave/Generated/CMSIS_DSP/Source/FilteringFunctions/arm_fir_interpolate_q15.c ****       /* Initialize coefficient pointer */
 565:../Dave/Generated/CMSIS_DSP/Source/FilteringFunctions/arm_fir_interpolate_q15.c ****       ptr2 = pCoeffs + (S->L - j);
 103              	 .loc 1 565 0
 104 0064 FB68     	 ldr r3,[r7,#12]
 105 0066 1B78     	 ldrb r3,[r3]
 106 0068 1A46     	 mov r2,r3
 107 006a 3B6A     	 ldr r3,[r7,#32]
 108 006c D31A     	 subs r3,r2,r3
 109 006e 5B00     	 lsls r3,r3,#1
 110 0070 FA69     	 ldr r2,[r7,#28]
 111 0072 1344     	 add r3,r3,r2
 112 0074 BB63     	 str r3,[r7,#56]
 566:../Dave/Generated/CMSIS_DSP/Source/FilteringFunctions/arm_fir_interpolate_q15.c **** 
 567:../Dave/Generated/CMSIS_DSP/Source/FilteringFunctions/arm_fir_interpolate_q15.c ****       /* Loop over the polyPhase length.
 568:../Dave/Generated/CMSIS_DSP/Source/FilteringFunctions/arm_fir_interpolate_q15.c ****          Repeat until we've computed numTaps-(4*S->L) coefficients. */
 569:../Dave/Generated/CMSIS_DSP/Source/FilteringFunctions/arm_fir_interpolate_q15.c **** 
 570:../Dave/Generated/CMSIS_DSP/Source/FilteringFunctions/arm_fir_interpolate_q15.c **** #if defined (ARM_MATH_LOOPUNROLL)
 571:../Dave/Generated/CMSIS_DSP/Source/FilteringFunctions/arm_fir_interpolate_q15.c **** 
 572:../Dave/Generated/CMSIS_DSP/Source/FilteringFunctions/arm_fir_interpolate_q15.c ****      /* Loop unrolling: Compute 4 outputs at a time */
 573:../Dave/Generated/CMSIS_DSP/Source/FilteringFunctions/arm_fir_interpolate_q15.c ****       tapCnt = phaseLen >> 2U;
 574:../Dave/Generated/CMSIS_DSP/Source/FilteringFunctions/arm_fir_interpolate_q15.c **** 
 575:../Dave/Generated/CMSIS_DSP/Source/FilteringFunctions/arm_fir_interpolate_q15.c ****       while (tapCnt > 0U)
 576:../Dave/Generated/CMSIS_DSP/Source/FilteringFunctions/arm_fir_interpolate_q15.c ****       {
 577:../Dave/Generated/CMSIS_DSP/Source/FilteringFunctions/arm_fir_interpolate_q15.c ****         /* Perform the multiply-accumulate */
 578:../Dave/Generated/CMSIS_DSP/Source/FilteringFunctions/arm_fir_interpolate_q15.c ****         sum0 += (q63_t) *ptr1++ * *ptr2;
 579:../Dave/Generated/CMSIS_DSP/Source/FilteringFunctions/arm_fir_interpolate_q15.c **** 
 580:../Dave/Generated/CMSIS_DSP/Source/FilteringFunctions/arm_fir_interpolate_q15.c ****         /* Upsampling is done by stuffing L-1 zeros between each sample.
 581:../Dave/Generated/CMSIS_DSP/Source/FilteringFunctions/arm_fir_interpolate_q15.c ****          * So instead of multiplying zeros with coefficients,
 582:../Dave/Generated/CMSIS_DSP/Source/FilteringFunctions/arm_fir_interpolate_q15.c ****          * Increment the coefficient pointer by interpolation factor times. */
 583:../Dave/Generated/CMSIS_DSP/Source/FilteringFunctions/arm_fir_interpolate_q15.c ****         ptr2 += S->L;
 584:../Dave/Generated/CMSIS_DSP/Source/FilteringFunctions/arm_fir_interpolate_q15.c **** 
 585:../Dave/Generated/CMSIS_DSP/Source/FilteringFunctions/arm_fir_interpolate_q15.c ****         sum0 += (q63_t) *ptr1++ * *ptr2;
 586:../Dave/Generated/CMSIS_DSP/Source/FilteringFunctions/arm_fir_interpolate_q15.c ****         ptr2 += S->L;
 587:../Dave/Generated/CMSIS_DSP/Source/FilteringFunctions/arm_fir_interpolate_q15.c **** 
 588:../Dave/Generated/CMSIS_DSP/Source/FilteringFunctions/arm_fir_interpolate_q15.c ****         sum0 += (q63_t) *ptr1++ * *ptr2;
 589:../Dave/Generated/CMSIS_DSP/Source/FilteringFunctions/arm_fir_interpolate_q15.c ****         ptr2 += S->L;
 590:../Dave/Generated/CMSIS_DSP/Source/FilteringFunctions/arm_fir_interpolate_q15.c **** 
 591:../Dave/Generated/CMSIS_DSP/Source/FilteringFunctions/arm_fir_interpolate_q15.c ****         sum0 += (q63_t) *ptr1++ * *ptr2;
 592:../Dave/Generated/CMSIS_DSP/Source/FilteringFunctions/arm_fir_interpolate_q15.c ****         ptr2 += S->L;
 593:../Dave/Generated/CMSIS_DSP/Source/FilteringFunctions/arm_fir_interpolate_q15.c **** 
 594:../Dave/Generated/CMSIS_DSP/Source/FilteringFunctions/arm_fir_interpolate_q15.c ****         /* Decrement loop counter */
 595:../Dave/Generated/CMSIS_DSP/Source/FilteringFunctions/arm_fir_interpolate_q15.c ****         tapCnt--;
 596:../Dave/Generated/CMSIS_DSP/Source/FilteringFunctions/arm_fir_interpolate_q15.c ****       }
 597:../Dave/Generated/CMSIS_DSP/Source/FilteringFunctions/arm_fir_interpolate_q15.c **** 
 598:../Dave/Generated/CMSIS_DSP/Source/FilteringFunctions/arm_fir_interpolate_q15.c ****       /* Loop unrolling: Compute remaining outputs */
 599:../Dave/Generated/CMSIS_DSP/Source/FilteringFunctions/arm_fir_interpolate_q15.c ****       tapCnt = phaseLen % 0x4U;
 600:../Dave/Generated/CMSIS_DSP/Source/FilteringFunctions/arm_fir_interpolate_q15.c **** 
 601:../Dave/Generated/CMSIS_DSP/Source/FilteringFunctions/arm_fir_interpolate_q15.c **** #else
 602:../Dave/Generated/CMSIS_DSP/Source/FilteringFunctions/arm_fir_interpolate_q15.c **** 
 603:../Dave/Generated/CMSIS_DSP/Source/FilteringFunctions/arm_fir_interpolate_q15.c ****       /* Initialize tapCnt with number of samples */
 604:../Dave/Generated/CMSIS_DSP/Source/FilteringFunctions/arm_fir_interpolate_q15.c ****       tapCnt = phaseLen;
 113              	 .loc 1 604 0
 114 0076 BB69     	 ldr r3,[r7,#24]
 115 0078 7B62     	 str r3,[r7,#36]
 605:../Dave/Generated/CMSIS_DSP/Source/FilteringFunctions/arm_fir_interpolate_q15.c **** 
 606:../Dave/Generated/CMSIS_DSP/Source/FilteringFunctions/arm_fir_interpolate_q15.c **** #endif /* #if defined (ARM_MATH_LOOPUNROLL) */
 607:../Dave/Generated/CMSIS_DSP/Source/FilteringFunctions/arm_fir_interpolate_q15.c **** 
 608:../Dave/Generated/CMSIS_DSP/Source/FilteringFunctions/arm_fir_interpolate_q15.c ****       while (tapCnt > 0U)
 116              	 .loc 1 608 0
 117 007a 24E0     	 b .L4
 118              	.L5:
 609:../Dave/Generated/CMSIS_DSP/Source/FilteringFunctions/arm_fir_interpolate_q15.c ****       {
 610:../Dave/Generated/CMSIS_DSP/Source/FilteringFunctions/arm_fir_interpolate_q15.c ****         /* Perform the multiply-accumulate */
 611:../Dave/Generated/CMSIS_DSP/Source/FilteringFunctions/arm_fir_interpolate_q15.c ****         sum0 += (q63_t) *ptr1++ * *ptr2;
 119              	 .loc 1 611 0
 120 007c FB6B     	 ldr r3,[r7,#60]
 121 007e 9A1C     	 adds r2,r3,#2
 122 0080 FA63     	 str r2,[r7,#60]
 123 0082 1B88     	 ldrh r3,[r3]
 124 0084 18B2     	 sxth r0,r3
 125 0086 4FEAE071 	 asr r1,r0,#31
 126 008a BB6B     	 ldr r3,[r7,#56]
 127 008c 1B88     	 ldrh r3,[r3]
 128 008e 1AB2     	 sxth r2,r3
 129 0090 4FEAE273 	 asr r3,r2,#31
 130 0094 02FB01FE 	 mul lr,r2,r1
 131 0098 00FB03F6 	 mul r6,r0,r3
 132 009c 7644     	 add r6,r6,lr
 133 009e A0FB0223 	 umull r2,r3,r0,r2
 134 00a2 F118     	 adds r1,r6,r3
 135 00a4 0B46     	 mov r3,r1
 136 00a6 D7E90C01 	 ldrd r0,[r7,#48]
 137 00aa 1218     	 adds r2,r2,r0
 138 00ac 43EB0103 	 adc r3,r3,r1
 139 00b0 C7E90C23 	 strd r2,[r7,#48]
 612:../Dave/Generated/CMSIS_DSP/Source/FilteringFunctions/arm_fir_interpolate_q15.c **** 
 613:../Dave/Generated/CMSIS_DSP/Source/FilteringFunctions/arm_fir_interpolate_q15.c ****         /* Upsampling is done by stuffing L-1 zeros between each sample.
 614:../Dave/Generated/CMSIS_DSP/Source/FilteringFunctions/arm_fir_interpolate_q15.c ****          * So instead of multiplying zeros with coefficients,
 615:../Dave/Generated/CMSIS_DSP/Source/FilteringFunctions/arm_fir_interpolate_q15.c ****          * Increment the coefficient pointer by interpolation factor times. */
 616:../Dave/Generated/CMSIS_DSP/Source/FilteringFunctions/arm_fir_interpolate_q15.c ****         ptr2 += S->L;
 140              	 .loc 1 616 0
 141 00b4 FB68     	 ldr r3,[r7,#12]
 142 00b6 1B78     	 ldrb r3,[r3]
 143 00b8 5B00     	 lsls r3,r3,#1
 144 00ba BA6B     	 ldr r2,[r7,#56]
 145 00bc 1344     	 add r3,r3,r2
 146 00be BB63     	 str r3,[r7,#56]
 617:../Dave/Generated/CMSIS_DSP/Source/FilteringFunctions/arm_fir_interpolate_q15.c **** 
 618:../Dave/Generated/CMSIS_DSP/Source/FilteringFunctions/arm_fir_interpolate_q15.c ****         /* Decrement loop counter */
 619:../Dave/Generated/CMSIS_DSP/Source/FilteringFunctions/arm_fir_interpolate_q15.c ****         tapCnt--;
 147              	 .loc 1 619 0
 148 00c0 7B6A     	 ldr r3,[r7,#36]
 149 00c2 013B     	 subs r3,r3,#1
 150 00c4 7B62     	 str r3,[r7,#36]
 151              	.L4:
 608:../Dave/Generated/CMSIS_DSP/Source/FilteringFunctions/arm_fir_interpolate_q15.c ****       {
 152              	 .loc 1 608 0
 153 00c6 7B6A     	 ldr r3,[r7,#36]
 154 00c8 002B     	 cmp r3,#0
 155 00ca D7D1     	 bne .L5
 620:../Dave/Generated/CMSIS_DSP/Source/FilteringFunctions/arm_fir_interpolate_q15.c ****       }
 621:../Dave/Generated/CMSIS_DSP/Source/FilteringFunctions/arm_fir_interpolate_q15.c **** 
 622:../Dave/Generated/CMSIS_DSP/Source/FilteringFunctions/arm_fir_interpolate_q15.c ****       /* The result is in the accumulator, store in the destination buffer. */
 623:../Dave/Generated/CMSIS_DSP/Source/FilteringFunctions/arm_fir_interpolate_q15.c ****       *pDst++ = (q15_t) (__SSAT((sum0 >> 15), 16));
 156              	 .loc 1 623 0
 157 00cc 7968     	 ldr r1,[r7,#4]
 158 00ce 8B1C     	 adds r3,r1,#2
 159 00d0 7B60     	 str r3,[r7,#4]
 160              	.LBB2:
 161 00d2 D7E90C23 	 ldrd r2,[r7,#48]
 162 00d6 D40B     	 lsrs r4,r2,#15
 163 00d8 44EA4344 	 orr r4,r4,r3,lsl#17
 164 00dc DD13     	 asrs r5,r3,#15
 165 00de 2346     	 mov r3,r4
 166 00e0 7B61     	 str r3,[r7,#20]
 167 00e2 7B69     	 ldr r3,[r7,#20]
 168              	
 169 00e4 03F30F03 	 ssat r3,#16,r3
 170              	
 171              	 .thumb
 172 00e8 3B61     	 str r3,[r7,#16]
 173 00ea 3B69     	 ldr r3,[r7,#16]
 174              	.LBE2:
 175 00ec 9BB2     	 uxth r3,r3
 176 00ee 0B80     	 strh r3,[r1]
 624:../Dave/Generated/CMSIS_DSP/Source/FilteringFunctions/arm_fir_interpolate_q15.c **** 
 625:../Dave/Generated/CMSIS_DSP/Source/FilteringFunctions/arm_fir_interpolate_q15.c ****       /* Increment the address modifier index of coefficient buffer */
 626:../Dave/Generated/CMSIS_DSP/Source/FilteringFunctions/arm_fir_interpolate_q15.c ****       j++;
 177              	 .loc 1 626 0
 178 00f0 3B6A     	 ldr r3,[r7,#32]
 179 00f2 0133     	 adds r3,r3,#1
 180 00f4 3B62     	 str r3,[r7,#32]
 627:../Dave/Generated/CMSIS_DSP/Source/FilteringFunctions/arm_fir_interpolate_q15.c **** 
 628:../Dave/Generated/CMSIS_DSP/Source/FilteringFunctions/arm_fir_interpolate_q15.c ****       /* Decrement the loop counter */
 629:../Dave/Generated/CMSIS_DSP/Source/FilteringFunctions/arm_fir_interpolate_q15.c ****       i--;
 181              	 .loc 1 629 0
 182 00f6 FB6A     	 ldr r3,[r7,#44]
 183 00f8 013B     	 subs r3,r3,#1
 184 00fa FB62     	 str r3,[r7,#44]
 185              	.L3:
 556:../Dave/Generated/CMSIS_DSP/Source/FilteringFunctions/arm_fir_interpolate_q15.c ****     {
 186              	 .loc 1 556 0
 187 00fc FB6A     	 ldr r3,[r7,#44]
 188 00fe 002B     	 cmp r3,#0
 189 0100 A8D1     	 bne .L6
 630:../Dave/Generated/CMSIS_DSP/Source/FilteringFunctions/arm_fir_interpolate_q15.c ****     }
 631:../Dave/Generated/CMSIS_DSP/Source/FilteringFunctions/arm_fir_interpolate_q15.c **** 
 632:../Dave/Generated/CMSIS_DSP/Source/FilteringFunctions/arm_fir_interpolate_q15.c ****     /* Advance the state pointer by 1
 633:../Dave/Generated/CMSIS_DSP/Source/FilteringFunctions/arm_fir_interpolate_q15.c ****      * to process the next group of interpolation factor number samples */
 634:../Dave/Generated/CMSIS_DSP/Source/FilteringFunctions/arm_fir_interpolate_q15.c ****     pState = pState + 1;
 190              	 .loc 1 634 0
 191 0102 7B6C     	 ldr r3,[r7,#68]
 192 0104 0233     	 adds r3,r3,#2
 193 0106 7B64     	 str r3,[r7,#68]
 635:../Dave/Generated/CMSIS_DSP/Source/FilteringFunctions/arm_fir_interpolate_q15.c **** 
 636:../Dave/Generated/CMSIS_DSP/Source/FilteringFunctions/arm_fir_interpolate_q15.c ****     /* Decrement the loop counter */
 637:../Dave/Generated/CMSIS_DSP/Source/FilteringFunctions/arm_fir_interpolate_q15.c ****     blkCnt--;
 194              	 .loc 1 637 0
 195 0108 BB6A     	 ldr r3,[r7,#40]
 196 010a 013B     	 subs r3,r3,#1
 197 010c BB62     	 str r3,[r7,#40]
 198              	.L2:
 546:../Dave/Generated/CMSIS_DSP/Source/FilteringFunctions/arm_fir_interpolate_q15.c ****   {
 199              	 .loc 1 546 0
 200 010e BB6A     	 ldr r3,[r7,#40]
 201 0110 002B     	 cmp r3,#0
 202 0112 91D1     	 bne .L7
 638:../Dave/Generated/CMSIS_DSP/Source/FilteringFunctions/arm_fir_interpolate_q15.c ****   }
 639:../Dave/Generated/CMSIS_DSP/Source/FilteringFunctions/arm_fir_interpolate_q15.c **** 
 640:../Dave/Generated/CMSIS_DSP/Source/FilteringFunctions/arm_fir_interpolate_q15.c ****   /* Processing is complete.
 641:../Dave/Generated/CMSIS_DSP/Source/FilteringFunctions/arm_fir_interpolate_q15.c ****      Now copy the last phaseLen - 1 samples to the satrt of the state buffer.
 642:../Dave/Generated/CMSIS_DSP/Source/FilteringFunctions/arm_fir_interpolate_q15.c ****      This prepares the state buffer for the next function call. */
 643:../Dave/Generated/CMSIS_DSP/Source/FilteringFunctions/arm_fir_interpolate_q15.c **** 
 644:../Dave/Generated/CMSIS_DSP/Source/FilteringFunctions/arm_fir_interpolate_q15.c ****   /* Points to the start of the state buffer */
 645:../Dave/Generated/CMSIS_DSP/Source/FilteringFunctions/arm_fir_interpolate_q15.c ****   pStateCur = S->pState;
 203              	 .loc 1 645 0
 204 0114 FB68     	 ldr r3,[r7,#12]
 205 0116 9B68     	 ldr r3,[r3,#8]
 206 0118 3B64     	 str r3,[r7,#64]
 646:../Dave/Generated/CMSIS_DSP/Source/FilteringFunctions/arm_fir_interpolate_q15.c **** 
 647:../Dave/Generated/CMSIS_DSP/Source/FilteringFunctions/arm_fir_interpolate_q15.c **** #if defined (ARM_MATH_LOOPUNROLL)
 648:../Dave/Generated/CMSIS_DSP/Source/FilteringFunctions/arm_fir_interpolate_q15.c **** 
 649:../Dave/Generated/CMSIS_DSP/Source/FilteringFunctions/arm_fir_interpolate_q15.c ****   /* Loop unrolling: Compute 4 outputs at a time */
 650:../Dave/Generated/CMSIS_DSP/Source/FilteringFunctions/arm_fir_interpolate_q15.c ****   tapCnt = (phaseLen - 1U) >> 2U;
 651:../Dave/Generated/CMSIS_DSP/Source/FilteringFunctions/arm_fir_interpolate_q15.c **** 
 652:../Dave/Generated/CMSIS_DSP/Source/FilteringFunctions/arm_fir_interpolate_q15.c ****   /* copy data */
 653:../Dave/Generated/CMSIS_DSP/Source/FilteringFunctions/arm_fir_interpolate_q15.c ****   while (tapCnt > 0U)
 654:../Dave/Generated/CMSIS_DSP/Source/FilteringFunctions/arm_fir_interpolate_q15.c ****   {
 655:../Dave/Generated/CMSIS_DSP/Source/FilteringFunctions/arm_fir_interpolate_q15.c ****     write_q15x2_ia (&pStateCur, read_q15x2_ia (&pState));
 656:../Dave/Generated/CMSIS_DSP/Source/FilteringFunctions/arm_fir_interpolate_q15.c ****     write_q15x2_ia (&pStateCur, read_q15x2_ia (&pState));
 657:../Dave/Generated/CMSIS_DSP/Source/FilteringFunctions/arm_fir_interpolate_q15.c **** 
 658:../Dave/Generated/CMSIS_DSP/Source/FilteringFunctions/arm_fir_interpolate_q15.c ****     /* Decrement loop counter */
 659:../Dave/Generated/CMSIS_DSP/Source/FilteringFunctions/arm_fir_interpolate_q15.c ****     tapCnt--;
 660:../Dave/Generated/CMSIS_DSP/Source/FilteringFunctions/arm_fir_interpolate_q15.c ****   }
 661:../Dave/Generated/CMSIS_DSP/Source/FilteringFunctions/arm_fir_interpolate_q15.c **** 
 662:../Dave/Generated/CMSIS_DSP/Source/FilteringFunctions/arm_fir_interpolate_q15.c ****   /* Loop unrolling: Compute remaining outputs */
 663:../Dave/Generated/CMSIS_DSP/Source/FilteringFunctions/arm_fir_interpolate_q15.c ****   tapCnt = (phaseLen - 1U) % 0x04U;
 664:../Dave/Generated/CMSIS_DSP/Source/FilteringFunctions/arm_fir_interpolate_q15.c **** 
 665:../Dave/Generated/CMSIS_DSP/Source/FilteringFunctions/arm_fir_interpolate_q15.c **** #else
 666:../Dave/Generated/CMSIS_DSP/Source/FilteringFunctions/arm_fir_interpolate_q15.c **** 
 667:../Dave/Generated/CMSIS_DSP/Source/FilteringFunctions/arm_fir_interpolate_q15.c ****     /* Initialize tapCnt with number of samples */
 668:../Dave/Generated/CMSIS_DSP/Source/FilteringFunctions/arm_fir_interpolate_q15.c ****     tapCnt = (phaseLen - 1U);
 207              	 .loc 1 668 0
 208 011a BB69     	 ldr r3,[r7,#24]
 209 011c 013B     	 subs r3,r3,#1
 210 011e 7B62     	 str r3,[r7,#36]
 669:../Dave/Generated/CMSIS_DSP/Source/FilteringFunctions/arm_fir_interpolate_q15.c **** 
 670:../Dave/Generated/CMSIS_DSP/Source/FilteringFunctions/arm_fir_interpolate_q15.c **** #endif /* #if defined (ARM_MATH_LOOPUNROLL) */
 671:../Dave/Generated/CMSIS_DSP/Source/FilteringFunctions/arm_fir_interpolate_q15.c **** 
 672:../Dave/Generated/CMSIS_DSP/Source/FilteringFunctions/arm_fir_interpolate_q15.c ****   /* Copy data */
 673:../Dave/Generated/CMSIS_DSP/Source/FilteringFunctions/arm_fir_interpolate_q15.c ****   while (tapCnt > 0U)
 211              	 .loc 1 673 0
 212 0120 0AE0     	 b .L8
 213              	.L9:
 674:../Dave/Generated/CMSIS_DSP/Source/FilteringFunctions/arm_fir_interpolate_q15.c ****   {
 675:../Dave/Generated/CMSIS_DSP/Source/FilteringFunctions/arm_fir_interpolate_q15.c ****     *pStateCur++ = *pState++;
 214              	 .loc 1 675 0
 215 0122 3B6C     	 ldr r3,[r7,#64]
 216 0124 9A1C     	 adds r2,r3,#2
 217 0126 3A64     	 str r2,[r7,#64]
 218 0128 7A6C     	 ldr r2,[r7,#68]
 219 012a 911C     	 adds r1,r2,#2
 220 012c 7964     	 str r1,[r7,#68]
 221 012e 1288     	 ldrh r2,[r2]
 222 0130 1A80     	 strh r2,[r3]
 676:../Dave/Generated/CMSIS_DSP/Source/FilteringFunctions/arm_fir_interpolate_q15.c **** 
 677:../Dave/Generated/CMSIS_DSP/Source/FilteringFunctions/arm_fir_interpolate_q15.c ****     /* Decrement loop counter */
 678:../Dave/Generated/CMSIS_DSP/Source/FilteringFunctions/arm_fir_interpolate_q15.c ****     tapCnt--;
 223              	 .loc 1 678 0
 224 0132 7B6A     	 ldr r3,[r7,#36]
 225 0134 013B     	 subs r3,r3,#1
 226 0136 7B62     	 str r3,[r7,#36]
 227              	.L8:
 673:../Dave/Generated/CMSIS_DSP/Source/FilteringFunctions/arm_fir_interpolate_q15.c ****   {
 228              	 .loc 1 673 0
 229 0138 7B6A     	 ldr r3,[r7,#36]
 230 013a 002B     	 cmp r3,#0
 231 013c F1D1     	 bne .L9
 679:../Dave/Generated/CMSIS_DSP/Source/FilteringFunctions/arm_fir_interpolate_q15.c ****   }
 680:../Dave/Generated/CMSIS_DSP/Source/FilteringFunctions/arm_fir_interpolate_q15.c **** 
 681:../Dave/Generated/CMSIS_DSP/Source/FilteringFunctions/arm_fir_interpolate_q15.c **** #else
 682:../Dave/Generated/CMSIS_DSP/Source/FilteringFunctions/arm_fir_interpolate_q15.c **** /* alternate version for CM0_FAMILY */
 683:../Dave/Generated/CMSIS_DSP/Source/FilteringFunctions/arm_fir_interpolate_q15.c **** 
 684:../Dave/Generated/CMSIS_DSP/Source/FilteringFunctions/arm_fir_interpolate_q15.c ****         q15_t *pState = S->pState;                     /* State pointer */
 685:../Dave/Generated/CMSIS_DSP/Source/FilteringFunctions/arm_fir_interpolate_q15.c ****   const q15_t *pCoeffs = S->pCoeffs;                   /* Coefficient pointer */
 686:../Dave/Generated/CMSIS_DSP/Source/FilteringFunctions/arm_fir_interpolate_q15.c ****         q15_t *pStateCur;                              /* Points to the current sample of the state
 687:../Dave/Generated/CMSIS_DSP/Source/FilteringFunctions/arm_fir_interpolate_q15.c ****         q15_t *ptr1;                                   /* Temporary pointer for state buffer */
 688:../Dave/Generated/CMSIS_DSP/Source/FilteringFunctions/arm_fir_interpolate_q15.c ****   const q15_t *ptr2;                                   /* Temporary pointer for coefficient buffer 
 689:../Dave/Generated/CMSIS_DSP/Source/FilteringFunctions/arm_fir_interpolate_q15.c ****         q63_t sum0;                                    /* Accumulators */
 690:../Dave/Generated/CMSIS_DSP/Source/FilteringFunctions/arm_fir_interpolate_q15.c ****         uint32_t i, blkCnt, tapCnt;                    /* Loop counters */
 691:../Dave/Generated/CMSIS_DSP/Source/FilteringFunctions/arm_fir_interpolate_q15.c ****         uint32_t phaseLen = S->phaseLength;            /* Length of each polyphase filter component
 692:../Dave/Generated/CMSIS_DSP/Source/FilteringFunctions/arm_fir_interpolate_q15.c **** 
 693:../Dave/Generated/CMSIS_DSP/Source/FilteringFunctions/arm_fir_interpolate_q15.c ****   /* S->pState buffer contains previous frame (phaseLen - 1) samples */
 694:../Dave/Generated/CMSIS_DSP/Source/FilteringFunctions/arm_fir_interpolate_q15.c ****   /* pStateCur points to the location where the new input data should be written */
 695:../Dave/Generated/CMSIS_DSP/Source/FilteringFunctions/arm_fir_interpolate_q15.c ****   pStateCur = S->pState + (phaseLen - 1U);
 696:../Dave/Generated/CMSIS_DSP/Source/FilteringFunctions/arm_fir_interpolate_q15.c **** 
 697:../Dave/Generated/CMSIS_DSP/Source/FilteringFunctions/arm_fir_interpolate_q15.c ****   /* Total number of intput samples */
 698:../Dave/Generated/CMSIS_DSP/Source/FilteringFunctions/arm_fir_interpolate_q15.c ****   blkCnt = blockSize;
 699:../Dave/Generated/CMSIS_DSP/Source/FilteringFunctions/arm_fir_interpolate_q15.c **** 
 700:../Dave/Generated/CMSIS_DSP/Source/FilteringFunctions/arm_fir_interpolate_q15.c ****   /* Loop over the blockSize. */
 701:../Dave/Generated/CMSIS_DSP/Source/FilteringFunctions/arm_fir_interpolate_q15.c ****   while (blkCnt > 0U)
 702:../Dave/Generated/CMSIS_DSP/Source/FilteringFunctions/arm_fir_interpolate_q15.c ****   {
 703:../Dave/Generated/CMSIS_DSP/Source/FilteringFunctions/arm_fir_interpolate_q15.c ****     /* Copy new input sample into the state buffer */
 704:../Dave/Generated/CMSIS_DSP/Source/FilteringFunctions/arm_fir_interpolate_q15.c ****     *pStateCur++ = *pSrc++;
 705:../Dave/Generated/CMSIS_DSP/Source/FilteringFunctions/arm_fir_interpolate_q15.c **** 
 706:../Dave/Generated/CMSIS_DSP/Source/FilteringFunctions/arm_fir_interpolate_q15.c ****     /* Loop over the Interpolation factor. */
 707:../Dave/Generated/CMSIS_DSP/Source/FilteringFunctions/arm_fir_interpolate_q15.c ****     i = S->L;
 708:../Dave/Generated/CMSIS_DSP/Source/FilteringFunctions/arm_fir_interpolate_q15.c **** 
 709:../Dave/Generated/CMSIS_DSP/Source/FilteringFunctions/arm_fir_interpolate_q15.c ****     while (i > 0U)
 710:../Dave/Generated/CMSIS_DSP/Source/FilteringFunctions/arm_fir_interpolate_q15.c ****     {
 711:../Dave/Generated/CMSIS_DSP/Source/FilteringFunctions/arm_fir_interpolate_q15.c ****       /* Set accumulator to zero */
 712:../Dave/Generated/CMSIS_DSP/Source/FilteringFunctions/arm_fir_interpolate_q15.c ****       sum0 = 0;
 713:../Dave/Generated/CMSIS_DSP/Source/FilteringFunctions/arm_fir_interpolate_q15.c **** 
 714:../Dave/Generated/CMSIS_DSP/Source/FilteringFunctions/arm_fir_interpolate_q15.c ****       /* Initialize state pointer */
 715:../Dave/Generated/CMSIS_DSP/Source/FilteringFunctions/arm_fir_interpolate_q15.c ****       ptr1 = pState;
 716:../Dave/Generated/CMSIS_DSP/Source/FilteringFunctions/arm_fir_interpolate_q15.c **** 
 717:../Dave/Generated/CMSIS_DSP/Source/FilteringFunctions/arm_fir_interpolate_q15.c ****       /* Initialize coefficient pointer */
 718:../Dave/Generated/CMSIS_DSP/Source/FilteringFunctions/arm_fir_interpolate_q15.c ****       ptr2 = pCoeffs + (i - 1U);
 719:../Dave/Generated/CMSIS_DSP/Source/FilteringFunctions/arm_fir_interpolate_q15.c **** 
 720:../Dave/Generated/CMSIS_DSP/Source/FilteringFunctions/arm_fir_interpolate_q15.c ****       /* Loop over the polyPhase length */
 721:../Dave/Generated/CMSIS_DSP/Source/FilteringFunctions/arm_fir_interpolate_q15.c ****       tapCnt = phaseLen;
 722:../Dave/Generated/CMSIS_DSP/Source/FilteringFunctions/arm_fir_interpolate_q15.c **** 
 723:../Dave/Generated/CMSIS_DSP/Source/FilteringFunctions/arm_fir_interpolate_q15.c ****       while (tapCnt > 0U)
 724:../Dave/Generated/CMSIS_DSP/Source/FilteringFunctions/arm_fir_interpolate_q15.c ****       {
 725:../Dave/Generated/CMSIS_DSP/Source/FilteringFunctions/arm_fir_interpolate_q15.c ****         /* Perform the multiply-accumulate */
 726:../Dave/Generated/CMSIS_DSP/Source/FilteringFunctions/arm_fir_interpolate_q15.c ****         sum0 += ((q63_t) *ptr1++ * *ptr2);
 727:../Dave/Generated/CMSIS_DSP/Source/FilteringFunctions/arm_fir_interpolate_q15.c **** 
 728:../Dave/Generated/CMSIS_DSP/Source/FilteringFunctions/arm_fir_interpolate_q15.c ****         /* Increment the coefficient pointer by interpolation factor times. */
 729:../Dave/Generated/CMSIS_DSP/Source/FilteringFunctions/arm_fir_interpolate_q15.c ****         ptr2 += S->L;
 730:../Dave/Generated/CMSIS_DSP/Source/FilteringFunctions/arm_fir_interpolate_q15.c **** 
 731:../Dave/Generated/CMSIS_DSP/Source/FilteringFunctions/arm_fir_interpolate_q15.c ****         /* Decrement the loop counter */
 732:../Dave/Generated/CMSIS_DSP/Source/FilteringFunctions/arm_fir_interpolate_q15.c ****         tapCnt--;
 733:../Dave/Generated/CMSIS_DSP/Source/FilteringFunctions/arm_fir_interpolate_q15.c ****       }
 734:../Dave/Generated/CMSIS_DSP/Source/FilteringFunctions/arm_fir_interpolate_q15.c **** 
 735:../Dave/Generated/CMSIS_DSP/Source/FilteringFunctions/arm_fir_interpolate_q15.c ****       /* Store the result after converting to 1.15 format in the destination buffer. */
 736:../Dave/Generated/CMSIS_DSP/Source/FilteringFunctions/arm_fir_interpolate_q15.c ****       *pDst++ = (q15_t) (__SSAT((sum0 >> 15), 16));
 737:../Dave/Generated/CMSIS_DSP/Source/FilteringFunctions/arm_fir_interpolate_q15.c **** 
 738:../Dave/Generated/CMSIS_DSP/Source/FilteringFunctions/arm_fir_interpolate_q15.c ****       /* Decrement loop counter */
 739:../Dave/Generated/CMSIS_DSP/Source/FilteringFunctions/arm_fir_interpolate_q15.c ****       i--;
 740:../Dave/Generated/CMSIS_DSP/Source/FilteringFunctions/arm_fir_interpolate_q15.c ****     }
 741:../Dave/Generated/CMSIS_DSP/Source/FilteringFunctions/arm_fir_interpolate_q15.c **** 
 742:../Dave/Generated/CMSIS_DSP/Source/FilteringFunctions/arm_fir_interpolate_q15.c ****     /* Advance the state pointer by 1
 743:../Dave/Generated/CMSIS_DSP/Source/FilteringFunctions/arm_fir_interpolate_q15.c ****      * to process the next group of interpolation factor number samples */
 744:../Dave/Generated/CMSIS_DSP/Source/FilteringFunctions/arm_fir_interpolate_q15.c ****     pState = pState + 1;
 745:../Dave/Generated/CMSIS_DSP/Source/FilteringFunctions/arm_fir_interpolate_q15.c **** 
 746:../Dave/Generated/CMSIS_DSP/Source/FilteringFunctions/arm_fir_interpolate_q15.c ****     /* Decrement loop counter */
 747:../Dave/Generated/CMSIS_DSP/Source/FilteringFunctions/arm_fir_interpolate_q15.c ****     blkCnt--;
 748:../Dave/Generated/CMSIS_DSP/Source/FilteringFunctions/arm_fir_interpolate_q15.c ****   }
 749:../Dave/Generated/CMSIS_DSP/Source/FilteringFunctions/arm_fir_interpolate_q15.c **** 
 750:../Dave/Generated/CMSIS_DSP/Source/FilteringFunctions/arm_fir_interpolate_q15.c ****   /* Processing is complete.
 751:../Dave/Generated/CMSIS_DSP/Source/FilteringFunctions/arm_fir_interpolate_q15.c ****    ** Now copy the last phaseLen - 1 samples to the start of the state buffer.
 752:../Dave/Generated/CMSIS_DSP/Source/FilteringFunctions/arm_fir_interpolate_q15.c ****    ** This prepares the state buffer for the next function call. */
 753:../Dave/Generated/CMSIS_DSP/Source/FilteringFunctions/arm_fir_interpolate_q15.c **** 
 754:../Dave/Generated/CMSIS_DSP/Source/FilteringFunctions/arm_fir_interpolate_q15.c ****   /* Points to the start of the state buffer */
 755:../Dave/Generated/CMSIS_DSP/Source/FilteringFunctions/arm_fir_interpolate_q15.c ****   pStateCur = S->pState;
 756:../Dave/Generated/CMSIS_DSP/Source/FilteringFunctions/arm_fir_interpolate_q15.c **** 
 757:../Dave/Generated/CMSIS_DSP/Source/FilteringFunctions/arm_fir_interpolate_q15.c ****   tapCnt = phaseLen - 1U;
 758:../Dave/Generated/CMSIS_DSP/Source/FilteringFunctions/arm_fir_interpolate_q15.c **** 
 759:../Dave/Generated/CMSIS_DSP/Source/FilteringFunctions/arm_fir_interpolate_q15.c ****   /* Copy data */
 760:../Dave/Generated/CMSIS_DSP/Source/FilteringFunctions/arm_fir_interpolate_q15.c ****   while (tapCnt > 0U)
 761:../Dave/Generated/CMSIS_DSP/Source/FilteringFunctions/arm_fir_interpolate_q15.c ****   {
 762:../Dave/Generated/CMSIS_DSP/Source/FilteringFunctions/arm_fir_interpolate_q15.c ****     *pStateCur++ = *pState++;
 763:../Dave/Generated/CMSIS_DSP/Source/FilteringFunctions/arm_fir_interpolate_q15.c **** 
 764:../Dave/Generated/CMSIS_DSP/Source/FilteringFunctions/arm_fir_interpolate_q15.c ****     /* Decrement loop counter */
 765:../Dave/Generated/CMSIS_DSP/Source/FilteringFunctions/arm_fir_interpolate_q15.c ****     tapCnt--;
 766:../Dave/Generated/CMSIS_DSP/Source/FilteringFunctions/arm_fir_interpolate_q15.c ****   }
 767:../Dave/Generated/CMSIS_DSP/Source/FilteringFunctions/arm_fir_interpolate_q15.c **** 
 768:../Dave/Generated/CMSIS_DSP/Source/FilteringFunctions/arm_fir_interpolate_q15.c **** #endif /* #if !defined(ARM_MATH_CM0_FAMILY) */
 769:../Dave/Generated/CMSIS_DSP/Source/FilteringFunctions/arm_fir_interpolate_q15.c **** 
 770:../Dave/Generated/CMSIS_DSP/Source/FilteringFunctions/arm_fir_interpolate_q15.c **** }
 232              	 .loc 1 770 0
 233 013e 4C37     	 adds r7,r7,#76
 234              	.LCFI3:
 235              	 .cfi_def_cfa_offset 20
 236 0140 BD46     	 mov sp,r7
 237              	.LCFI4:
 238              	 .cfi_def_cfa_register 13
 239              	 
 240 0142 F0BD     	 pop {r4,r5,r6,r7,pc}
 241              	 .cfi_endproc
 242              	.LFE149:
 244              	 .text
 245              	.Letext0:
 246              	 .file 2 "c:\\infineon\\tools\\dave ide\\4.5.0.202105191637\\eclipse\\arm-gcc-49\\arm-none-eabi\\include\\machine\\_default_types.h"
 247              	 .file 3 "c:\\infineon\\tools\\dave ide\\4.5.0.202105191637\\eclipse\\arm-gcc-49\\arm-none-eabi\\include\\stdint.h"
 248              	 .file 4 "C:/Users/Rui Mendes/Desktop/DAVE/_Naive/_ForTesting/Dave/Generated/CMSIS_DSP/Include/arm_math.h"
 249              	 .file 5 "C:/Users/Rui Mendes/Desktop/DAVE/_Naive/_ForTesting/Libraries/CMSIS/Include/cmsis_gcc.h"