   1              	 .syntax unified
   2              	 .cpu cortex-m4
   3              	 .eabi_attribute 27,3
   4              	 .fpu fpv4-sp-d16
   5              	 .eabi_attribute 20,1
   6              	 .eabi_attribute 21,1
   7              	 .eabi_attribute 23,3
   8              	 .eabi_attribute 24,1
   9              	 .eabi_attribute 25,1
  10              	 .eabi_attribute 26,1
  11              	 .eabi_attribute 30,6
  12              	 .eabi_attribute 34,1
  13              	 .eabi_attribute 18,4
  14              	 .thumb
  15              	 .file "arm_fir_q31.c"
  16              	 .text
  17              	.Ltext0:
  18              	 .cfi_sections .debug_frame
  19              	 .section .text.arm_fir_q31,"ax",%progbits
  20              	 .align 2
  21              	 .global arm_fir_q31
  22              	 .thumb
  23              	 .thumb_func
  25              	arm_fir_q31:
  26              	.LFB149:
  27              	 .file 1 "../Dave/Generated/CMSIS_DSP/Source/FilteringFunctions/arm_fir_q31.c"
   1:../Dave/Generated/CMSIS_DSP/Source/FilteringFunctions/arm_fir_q31.c **** /* ----------------------------------------------------------------------
   2:../Dave/Generated/CMSIS_DSP/Source/FilteringFunctions/arm_fir_q31.c ****  * Project:      CMSIS DSP Library
   3:../Dave/Generated/CMSIS_DSP/Source/FilteringFunctions/arm_fir_q31.c ****  * Title:        arm_fir_q31.c
   4:../Dave/Generated/CMSIS_DSP/Source/FilteringFunctions/arm_fir_q31.c ****  * Description:  Q31 FIR filter processing function
   5:../Dave/Generated/CMSIS_DSP/Source/FilteringFunctions/arm_fir_q31.c ****  *
   6:../Dave/Generated/CMSIS_DSP/Source/FilteringFunctions/arm_fir_q31.c ****  * $Date:        18. March 2019
   7:../Dave/Generated/CMSIS_DSP/Source/FilteringFunctions/arm_fir_q31.c ****  * $Revision:    V1.6.0
   8:../Dave/Generated/CMSIS_DSP/Source/FilteringFunctions/arm_fir_q31.c ****  *
   9:../Dave/Generated/CMSIS_DSP/Source/FilteringFunctions/arm_fir_q31.c ****  * Target Processor: Cortex-M cores
  10:../Dave/Generated/CMSIS_DSP/Source/FilteringFunctions/arm_fir_q31.c ****  * -------------------------------------------------------------------- */
  11:../Dave/Generated/CMSIS_DSP/Source/FilteringFunctions/arm_fir_q31.c **** /*
  12:../Dave/Generated/CMSIS_DSP/Source/FilteringFunctions/arm_fir_q31.c ****  * Copyright (C) 2010-2019 ARM Limited or its affiliates. All rights reserved.
  13:../Dave/Generated/CMSIS_DSP/Source/FilteringFunctions/arm_fir_q31.c ****  *
  14:../Dave/Generated/CMSIS_DSP/Source/FilteringFunctions/arm_fir_q31.c ****  * SPDX-License-Identifier: Apache-2.0
  15:../Dave/Generated/CMSIS_DSP/Source/FilteringFunctions/arm_fir_q31.c ****  *
  16:../Dave/Generated/CMSIS_DSP/Source/FilteringFunctions/arm_fir_q31.c ****  * Licensed under the Apache License, Version 2.0 (the License); you may
  17:../Dave/Generated/CMSIS_DSP/Source/FilteringFunctions/arm_fir_q31.c ****  * not use this file except in compliance with the License.
  18:../Dave/Generated/CMSIS_DSP/Source/FilteringFunctions/arm_fir_q31.c ****  * You may obtain a copy of the License at
  19:../Dave/Generated/CMSIS_DSP/Source/FilteringFunctions/arm_fir_q31.c ****  *
  20:../Dave/Generated/CMSIS_DSP/Source/FilteringFunctions/arm_fir_q31.c ****  * www.apache.org/licenses/LICENSE-2.0
  21:../Dave/Generated/CMSIS_DSP/Source/FilteringFunctions/arm_fir_q31.c ****  *
  22:../Dave/Generated/CMSIS_DSP/Source/FilteringFunctions/arm_fir_q31.c ****  * Unless required by applicable law or agreed to in writing, software
  23:../Dave/Generated/CMSIS_DSP/Source/FilteringFunctions/arm_fir_q31.c ****  * distributed under the License is distributed on an AS IS BASIS, WITHOUT
  24:../Dave/Generated/CMSIS_DSP/Source/FilteringFunctions/arm_fir_q31.c ****  * WARRANTIES OR CONDITIONS OF ANY KIND, either express or implied.
  25:../Dave/Generated/CMSIS_DSP/Source/FilteringFunctions/arm_fir_q31.c ****  * See the License for the specific language governing permissions and
  26:../Dave/Generated/CMSIS_DSP/Source/FilteringFunctions/arm_fir_q31.c ****  * limitations under the License.
  27:../Dave/Generated/CMSIS_DSP/Source/FilteringFunctions/arm_fir_q31.c ****  */
  28:../Dave/Generated/CMSIS_DSP/Source/FilteringFunctions/arm_fir_q31.c **** 
  29:../Dave/Generated/CMSIS_DSP/Source/FilteringFunctions/arm_fir_q31.c **** #include "CMSIS_DSP/cmsis_dsp.h"
  30:../Dave/Generated/CMSIS_DSP/Source/FilteringFunctions/arm_fir_q31.c **** 
  31:../Dave/Generated/CMSIS_DSP/Source/FilteringFunctions/arm_fir_q31.c **** /**
  32:../Dave/Generated/CMSIS_DSP/Source/FilteringFunctions/arm_fir_q31.c ****   @ingroup groupFilters
  33:../Dave/Generated/CMSIS_DSP/Source/FilteringFunctions/arm_fir_q31.c ****  */
  34:../Dave/Generated/CMSIS_DSP/Source/FilteringFunctions/arm_fir_q31.c **** 
  35:../Dave/Generated/CMSIS_DSP/Source/FilteringFunctions/arm_fir_q31.c **** /**
  36:../Dave/Generated/CMSIS_DSP/Source/FilteringFunctions/arm_fir_q31.c ****   @addtogroup FIR
  37:../Dave/Generated/CMSIS_DSP/Source/FilteringFunctions/arm_fir_q31.c ****   @{
  38:../Dave/Generated/CMSIS_DSP/Source/FilteringFunctions/arm_fir_q31.c ****  */
  39:../Dave/Generated/CMSIS_DSP/Source/FilteringFunctions/arm_fir_q31.c **** 
  40:../Dave/Generated/CMSIS_DSP/Source/FilteringFunctions/arm_fir_q31.c **** /**
  41:../Dave/Generated/CMSIS_DSP/Source/FilteringFunctions/arm_fir_q31.c ****   @brief         Processing function for Q31 FIR filter.
  42:../Dave/Generated/CMSIS_DSP/Source/FilteringFunctions/arm_fir_q31.c ****   @param[in]     S          points to an instance of the Q31 FIR filter structure
  43:../Dave/Generated/CMSIS_DSP/Source/FilteringFunctions/arm_fir_q31.c ****   @param[in]     pSrc       points to the block of input data
  44:../Dave/Generated/CMSIS_DSP/Source/FilteringFunctions/arm_fir_q31.c ****   @param[out]    pDst       points to the block of output data
  45:../Dave/Generated/CMSIS_DSP/Source/FilteringFunctions/arm_fir_q31.c ****   @param[in]     blockSize  number of samples to process
  46:../Dave/Generated/CMSIS_DSP/Source/FilteringFunctions/arm_fir_q31.c ****   @return        none
  47:../Dave/Generated/CMSIS_DSP/Source/FilteringFunctions/arm_fir_q31.c **** 
  48:../Dave/Generated/CMSIS_DSP/Source/FilteringFunctions/arm_fir_q31.c ****   @par           Scaling and Overflow Behavior
  49:../Dave/Generated/CMSIS_DSP/Source/FilteringFunctions/arm_fir_q31.c ****                    The function is implemented using an internal 64-bit accumulator.
  50:../Dave/Generated/CMSIS_DSP/Source/FilteringFunctions/arm_fir_q31.c ****                    The accumulator has a 2.62 format and maintains full precision of the intermedia
  51:../Dave/Generated/CMSIS_DSP/Source/FilteringFunctions/arm_fir_q31.c ****                    Thus, if the accumulator result overflows it wraps around rather than clip.
  52:../Dave/Generated/CMSIS_DSP/Source/FilteringFunctions/arm_fir_q31.c ****                    In order to avoid overflows completely the input signal must be scaled down by l
  53:../Dave/Generated/CMSIS_DSP/Source/FilteringFunctions/arm_fir_q31.c ****                    After all multiply-accumulates are performed, the 2.62 accumulator is right shif
  54:../Dave/Generated/CMSIS_DSP/Source/FilteringFunctions/arm_fir_q31.c **** 
  55:../Dave/Generated/CMSIS_DSP/Source/FilteringFunctions/arm_fir_q31.c ****  @remark
  56:../Dave/Generated/CMSIS_DSP/Source/FilteringFunctions/arm_fir_q31.c ****                    Refer to \ref arm_fir_fast_q31() for a faster but less precise implementation of
  57:../Dave/Generated/CMSIS_DSP/Source/FilteringFunctions/arm_fir_q31.c ****  */
  58:../Dave/Generated/CMSIS_DSP/Source/FilteringFunctions/arm_fir_q31.c **** #if defined(ARM_MATH_MVEI)
  59:../Dave/Generated/CMSIS_DSP/Source/FilteringFunctions/arm_fir_q31.c **** 
  60:../Dave/Generated/CMSIS_DSP/Source/FilteringFunctions/arm_fir_q31.c **** #include "CMSIS_DSP/Include/arm_helium_utils.h"
  61:../Dave/Generated/CMSIS_DSP/Source/FilteringFunctions/arm_fir_q31.c ****                                         
  62:../Dave/Generated/CMSIS_DSP/Source/FilteringFunctions/arm_fir_q31.c **** 
  63:../Dave/Generated/CMSIS_DSP/Source/FilteringFunctions/arm_fir_q31.c **** 
  64:../Dave/Generated/CMSIS_DSP/Source/FilteringFunctions/arm_fir_q31.c **** static void arm_fir_q31_1_4_mve(const arm_fir_instance_q31 * S, const q31_t * pSrc, q31_t * pDst, u
  65:../Dave/Generated/CMSIS_DSP/Source/FilteringFunctions/arm_fir_q31.c **** {
  66:../Dave/Generated/CMSIS_DSP/Source/FilteringFunctions/arm_fir_q31.c ****     q31_t    *pState = S->pState;   /* State pointer */
  67:../Dave/Generated/CMSIS_DSP/Source/FilteringFunctions/arm_fir_q31.c ****     const q31_t    *pCoeffs = S->pCoeffs; /* Coefficient pointer */
  68:../Dave/Generated/CMSIS_DSP/Source/FilteringFunctions/arm_fir_q31.c ****     q31_t    *pStateCur;        /* Points to the current sample of the state */
  69:../Dave/Generated/CMSIS_DSP/Source/FilteringFunctions/arm_fir_q31.c ****     const q31_t    *pSamples;         /* Temporary pointer to the sample buffer */
  70:../Dave/Generated/CMSIS_DSP/Source/FilteringFunctions/arm_fir_q31.c ****     q31_t    *pOutput;          /* Temporary pointer to the output buffer */
  71:../Dave/Generated/CMSIS_DSP/Source/FilteringFunctions/arm_fir_q31.c ****     const q31_t    *pTempSrc;         /* Temporary pointer to the source data */
  72:../Dave/Generated/CMSIS_DSP/Source/FilteringFunctions/arm_fir_q31.c ****     q31_t    *pTempDest;        /* Temporary pointer to the destination buffer */
  73:../Dave/Generated/CMSIS_DSP/Source/FilteringFunctions/arm_fir_q31.c ****     uint32_t  numTaps = S->numTaps; /* Number of filter coefficients in the filter */
  74:../Dave/Generated/CMSIS_DSP/Source/FilteringFunctions/arm_fir_q31.c ****     uint32_t  blkCnt;
  75:../Dave/Generated/CMSIS_DSP/Source/FilteringFunctions/arm_fir_q31.c ****     q31x4_t vecIn0;
  76:../Dave/Generated/CMSIS_DSP/Source/FilteringFunctions/arm_fir_q31.c **** 
  77:../Dave/Generated/CMSIS_DSP/Source/FilteringFunctions/arm_fir_q31.c ****     /*
  78:../Dave/Generated/CMSIS_DSP/Source/FilteringFunctions/arm_fir_q31.c ****      * pState points to state array which contains previous frame (numTaps - 1) samples
  79:../Dave/Generated/CMSIS_DSP/Source/FilteringFunctions/arm_fir_q31.c ****      * pStateCur points to the location where the new input data should be written
  80:../Dave/Generated/CMSIS_DSP/Source/FilteringFunctions/arm_fir_q31.c ****      */
  81:../Dave/Generated/CMSIS_DSP/Source/FilteringFunctions/arm_fir_q31.c ****     pStateCur = &(pState[(numTaps - 1u)]);
  82:../Dave/Generated/CMSIS_DSP/Source/FilteringFunctions/arm_fir_q31.c ****     pTempSrc = pSrc;
  83:../Dave/Generated/CMSIS_DSP/Source/FilteringFunctions/arm_fir_q31.c ****     pSamples = pState;
  84:../Dave/Generated/CMSIS_DSP/Source/FilteringFunctions/arm_fir_q31.c ****     pOutput = pDst;
  85:../Dave/Generated/CMSIS_DSP/Source/FilteringFunctions/arm_fir_q31.c **** 
  86:../Dave/Generated/CMSIS_DSP/Source/FilteringFunctions/arm_fir_q31.c ****     q63_t     acc0, acc1, acc2, acc3;
  87:../Dave/Generated/CMSIS_DSP/Source/FilteringFunctions/arm_fir_q31.c ****     /*
  88:../Dave/Generated/CMSIS_DSP/Source/FilteringFunctions/arm_fir_q31.c ****      * load 4 coefs
  89:../Dave/Generated/CMSIS_DSP/Source/FilteringFunctions/arm_fir_q31.c ****      */
  90:../Dave/Generated/CMSIS_DSP/Source/FilteringFunctions/arm_fir_q31.c ****     q31x4_t vecCoeffs = *(q31x4_t *) pCoeffs;
  91:../Dave/Generated/CMSIS_DSP/Source/FilteringFunctions/arm_fir_q31.c **** 
  92:../Dave/Generated/CMSIS_DSP/Source/FilteringFunctions/arm_fir_q31.c ****     blkCnt = blockSize >> 2;
  93:../Dave/Generated/CMSIS_DSP/Source/FilteringFunctions/arm_fir_q31.c ****     while (blkCnt > 0U)
  94:../Dave/Generated/CMSIS_DSP/Source/FilteringFunctions/arm_fir_q31.c ****     {
  95:../Dave/Generated/CMSIS_DSP/Source/FilteringFunctions/arm_fir_q31.c ****         const q31_t    *pSamplesTmp = pSamples;
  96:../Dave/Generated/CMSIS_DSP/Source/FilteringFunctions/arm_fir_q31.c **** 
  97:../Dave/Generated/CMSIS_DSP/Source/FilteringFunctions/arm_fir_q31.c ****         /*
  98:../Dave/Generated/CMSIS_DSP/Source/FilteringFunctions/arm_fir_q31.c ****          * Save 4 input samples in the history buffer
  99:../Dave/Generated/CMSIS_DSP/Source/FilteringFunctions/arm_fir_q31.c ****          */
 100:../Dave/Generated/CMSIS_DSP/Source/FilteringFunctions/arm_fir_q31.c ****         vst1q(pStateCur, vld1q(pTempSrc));
 101:../Dave/Generated/CMSIS_DSP/Source/FilteringFunctions/arm_fir_q31.c ****         pStateCur += 4;
 102:../Dave/Generated/CMSIS_DSP/Source/FilteringFunctions/arm_fir_q31.c ****         pTempSrc += 4;
 103:../Dave/Generated/CMSIS_DSP/Source/FilteringFunctions/arm_fir_q31.c **** 
 104:../Dave/Generated/CMSIS_DSP/Source/FilteringFunctions/arm_fir_q31.c ****         vecIn0 = vld1q(pSamplesTmp);
 105:../Dave/Generated/CMSIS_DSP/Source/FilteringFunctions/arm_fir_q31.c ****         acc0 = vrmlaldavhq(vecIn0, vecCoeffs);
 106:../Dave/Generated/CMSIS_DSP/Source/FilteringFunctions/arm_fir_q31.c **** 
 107:../Dave/Generated/CMSIS_DSP/Source/FilteringFunctions/arm_fir_q31.c ****         vecIn0 = vld1q(&pSamplesTmp[1]);
 108:../Dave/Generated/CMSIS_DSP/Source/FilteringFunctions/arm_fir_q31.c ****         acc1 = vrmlaldavhq(vecIn0, vecCoeffs);
 109:../Dave/Generated/CMSIS_DSP/Source/FilteringFunctions/arm_fir_q31.c **** 
 110:../Dave/Generated/CMSIS_DSP/Source/FilteringFunctions/arm_fir_q31.c ****         vecIn0 = vld1q(&pSamplesTmp[2]);
 111:../Dave/Generated/CMSIS_DSP/Source/FilteringFunctions/arm_fir_q31.c ****         acc2 = vrmlaldavhq(vecIn0, vecCoeffs);
 112:../Dave/Generated/CMSIS_DSP/Source/FilteringFunctions/arm_fir_q31.c **** 
 113:../Dave/Generated/CMSIS_DSP/Source/FilteringFunctions/arm_fir_q31.c ****         vecIn0 = vld1q(&pSamplesTmp[3]);
 114:../Dave/Generated/CMSIS_DSP/Source/FilteringFunctions/arm_fir_q31.c ****         acc3 = vrmlaldavhq(vecIn0, vecCoeffs);
 115:../Dave/Generated/CMSIS_DSP/Source/FilteringFunctions/arm_fir_q31.c **** 
 116:../Dave/Generated/CMSIS_DSP/Source/FilteringFunctions/arm_fir_q31.c ****         acc0 = asrl(acc0, 23);
 117:../Dave/Generated/CMSIS_DSP/Source/FilteringFunctions/arm_fir_q31.c ****         acc1 = asrl(acc1, 23);
 118:../Dave/Generated/CMSIS_DSP/Source/FilteringFunctions/arm_fir_q31.c ****         acc2 = asrl(acc2, 23);
 119:../Dave/Generated/CMSIS_DSP/Source/FilteringFunctions/arm_fir_q31.c ****         acc3 = asrl(acc3, 23);
 120:../Dave/Generated/CMSIS_DSP/Source/FilteringFunctions/arm_fir_q31.c **** 
 121:../Dave/Generated/CMSIS_DSP/Source/FilteringFunctions/arm_fir_q31.c ****         *pOutput++ = (q31_t) acc0;
 122:../Dave/Generated/CMSIS_DSP/Source/FilteringFunctions/arm_fir_q31.c ****         *pOutput++ = (q31_t) acc1;
 123:../Dave/Generated/CMSIS_DSP/Source/FilteringFunctions/arm_fir_q31.c ****         *pOutput++ = (q31_t) acc2;
 124:../Dave/Generated/CMSIS_DSP/Source/FilteringFunctions/arm_fir_q31.c ****         *pOutput++ = (q31_t) acc3;
 125:../Dave/Generated/CMSIS_DSP/Source/FilteringFunctions/arm_fir_q31.c **** 
 126:../Dave/Generated/CMSIS_DSP/Source/FilteringFunctions/arm_fir_q31.c ****         pSamples += 4;
 127:../Dave/Generated/CMSIS_DSP/Source/FilteringFunctions/arm_fir_q31.c ****         /*
 128:../Dave/Generated/CMSIS_DSP/Source/FilteringFunctions/arm_fir_q31.c ****          * Decrement the sample block loop counter
 129:../Dave/Generated/CMSIS_DSP/Source/FilteringFunctions/arm_fir_q31.c ****          */
 130:../Dave/Generated/CMSIS_DSP/Source/FilteringFunctions/arm_fir_q31.c ****         blkCnt--;
 131:../Dave/Generated/CMSIS_DSP/Source/FilteringFunctions/arm_fir_q31.c ****     }
 132:../Dave/Generated/CMSIS_DSP/Source/FilteringFunctions/arm_fir_q31.c **** 
 133:../Dave/Generated/CMSIS_DSP/Source/FilteringFunctions/arm_fir_q31.c ****     uint32_t  residual = blockSize & 3;
 134:../Dave/Generated/CMSIS_DSP/Source/FilteringFunctions/arm_fir_q31.c ****     
 135:../Dave/Generated/CMSIS_DSP/Source/FilteringFunctions/arm_fir_q31.c ****     switch (residual)
 136:../Dave/Generated/CMSIS_DSP/Source/FilteringFunctions/arm_fir_q31.c ****     {
 137:../Dave/Generated/CMSIS_DSP/Source/FilteringFunctions/arm_fir_q31.c ****     case 3:
 138:../Dave/Generated/CMSIS_DSP/Source/FilteringFunctions/arm_fir_q31.c ****         {
 139:../Dave/Generated/CMSIS_DSP/Source/FilteringFunctions/arm_fir_q31.c ****             /*
 140:../Dave/Generated/CMSIS_DSP/Source/FilteringFunctions/arm_fir_q31.c ****              * Save 4 input samples in the history buffer
 141:../Dave/Generated/CMSIS_DSP/Source/FilteringFunctions/arm_fir_q31.c ****              */
 142:../Dave/Generated/CMSIS_DSP/Source/FilteringFunctions/arm_fir_q31.c **** 
 143:../Dave/Generated/CMSIS_DSP/Source/FilteringFunctions/arm_fir_q31.c ****             *(q31x4_t *) pStateCur = *(q31x4_t *) pTempSrc;
 144:../Dave/Generated/CMSIS_DSP/Source/FilteringFunctions/arm_fir_q31.c ****             pStateCur += 4;
 145:../Dave/Generated/CMSIS_DSP/Source/FilteringFunctions/arm_fir_q31.c ****             pTempSrc += 4;
 146:../Dave/Generated/CMSIS_DSP/Source/FilteringFunctions/arm_fir_q31.c **** 
 147:../Dave/Generated/CMSIS_DSP/Source/FilteringFunctions/arm_fir_q31.c ****             vecIn0 = vld1q(pSamples);
 148:../Dave/Generated/CMSIS_DSP/Source/FilteringFunctions/arm_fir_q31.c ****             acc0 = vrmlaldavhq(vecIn0, vecCoeffs);
 149:../Dave/Generated/CMSIS_DSP/Source/FilteringFunctions/arm_fir_q31.c **** 
 150:../Dave/Generated/CMSIS_DSP/Source/FilteringFunctions/arm_fir_q31.c ****             vecIn0 = vld1q(&pSamples[1]);
 151:../Dave/Generated/CMSIS_DSP/Source/FilteringFunctions/arm_fir_q31.c ****             acc1 = vrmlaldavhq(vecIn0, vecCoeffs);
 152:../Dave/Generated/CMSIS_DSP/Source/FilteringFunctions/arm_fir_q31.c **** 
 153:../Dave/Generated/CMSIS_DSP/Source/FilteringFunctions/arm_fir_q31.c ****             vecIn0 = vld1q(&pSamples[2]);
 154:../Dave/Generated/CMSIS_DSP/Source/FilteringFunctions/arm_fir_q31.c ****             acc2 = vrmlaldavhq(vecIn0, vecCoeffs);
 155:../Dave/Generated/CMSIS_DSP/Source/FilteringFunctions/arm_fir_q31.c **** 
 156:../Dave/Generated/CMSIS_DSP/Source/FilteringFunctions/arm_fir_q31.c ****             acc0 = asrl(acc0, 23);
 157:../Dave/Generated/CMSIS_DSP/Source/FilteringFunctions/arm_fir_q31.c ****             acc1 = asrl(acc1, 23);
 158:../Dave/Generated/CMSIS_DSP/Source/FilteringFunctions/arm_fir_q31.c ****             acc2 = asrl(acc2, 23);
 159:../Dave/Generated/CMSIS_DSP/Source/FilteringFunctions/arm_fir_q31.c **** 
 160:../Dave/Generated/CMSIS_DSP/Source/FilteringFunctions/arm_fir_q31.c ****             *pOutput++ = (q31_t) acc0;
 161:../Dave/Generated/CMSIS_DSP/Source/FilteringFunctions/arm_fir_q31.c ****             *pOutput++ = (q31_t) acc1;
 162:../Dave/Generated/CMSIS_DSP/Source/FilteringFunctions/arm_fir_q31.c ****             *pOutput++ = (q31_t) acc2;
 163:../Dave/Generated/CMSIS_DSP/Source/FilteringFunctions/arm_fir_q31.c ****         }
 164:../Dave/Generated/CMSIS_DSP/Source/FilteringFunctions/arm_fir_q31.c ****         break;
 165:../Dave/Generated/CMSIS_DSP/Source/FilteringFunctions/arm_fir_q31.c **** 
 166:../Dave/Generated/CMSIS_DSP/Source/FilteringFunctions/arm_fir_q31.c ****     case 2:
 167:../Dave/Generated/CMSIS_DSP/Source/FilteringFunctions/arm_fir_q31.c ****         {
 168:../Dave/Generated/CMSIS_DSP/Source/FilteringFunctions/arm_fir_q31.c ****             /*
 169:../Dave/Generated/CMSIS_DSP/Source/FilteringFunctions/arm_fir_q31.c ****              * Save 4 input samples in the history buffer
 170:../Dave/Generated/CMSIS_DSP/Source/FilteringFunctions/arm_fir_q31.c ****              */
 171:../Dave/Generated/CMSIS_DSP/Source/FilteringFunctions/arm_fir_q31.c ****             vst1q(pStateCur, vld1q(pTempSrc));
 172:../Dave/Generated/CMSIS_DSP/Source/FilteringFunctions/arm_fir_q31.c ****             pStateCur += 4;
 173:../Dave/Generated/CMSIS_DSP/Source/FilteringFunctions/arm_fir_q31.c ****             pTempSrc += 4;
 174:../Dave/Generated/CMSIS_DSP/Source/FilteringFunctions/arm_fir_q31.c **** 
 175:../Dave/Generated/CMSIS_DSP/Source/FilteringFunctions/arm_fir_q31.c ****             vecIn0 = vld1q(pSamples);
 176:../Dave/Generated/CMSIS_DSP/Source/FilteringFunctions/arm_fir_q31.c ****             acc0 = vrmlaldavhq(vecIn0, vecCoeffs);
 177:../Dave/Generated/CMSIS_DSP/Source/FilteringFunctions/arm_fir_q31.c **** 
 178:../Dave/Generated/CMSIS_DSP/Source/FilteringFunctions/arm_fir_q31.c ****             vecIn0 = vld1q(&pSamples[1]);
 179:../Dave/Generated/CMSIS_DSP/Source/FilteringFunctions/arm_fir_q31.c ****             acc1 = vrmlaldavhq(vecIn0, vecCoeffs);
 180:../Dave/Generated/CMSIS_DSP/Source/FilteringFunctions/arm_fir_q31.c **** 
 181:../Dave/Generated/CMSIS_DSP/Source/FilteringFunctions/arm_fir_q31.c ****             acc0 = asrl(acc0, 23);
 182:../Dave/Generated/CMSIS_DSP/Source/FilteringFunctions/arm_fir_q31.c ****             acc1 = asrl(acc1, 23);
 183:../Dave/Generated/CMSIS_DSP/Source/FilteringFunctions/arm_fir_q31.c **** 
 184:../Dave/Generated/CMSIS_DSP/Source/FilteringFunctions/arm_fir_q31.c ****             *pOutput++ = (q31_t) acc0;
 185:../Dave/Generated/CMSIS_DSP/Source/FilteringFunctions/arm_fir_q31.c ****             *pOutput++ = (q31_t) acc1;
 186:../Dave/Generated/CMSIS_DSP/Source/FilteringFunctions/arm_fir_q31.c ****         }
 187:../Dave/Generated/CMSIS_DSP/Source/FilteringFunctions/arm_fir_q31.c ****         break;
 188:../Dave/Generated/CMSIS_DSP/Source/FilteringFunctions/arm_fir_q31.c **** 
 189:../Dave/Generated/CMSIS_DSP/Source/FilteringFunctions/arm_fir_q31.c ****     case 1:
 190:../Dave/Generated/CMSIS_DSP/Source/FilteringFunctions/arm_fir_q31.c ****         {
 191:../Dave/Generated/CMSIS_DSP/Source/FilteringFunctions/arm_fir_q31.c ****             /*
 192:../Dave/Generated/CMSIS_DSP/Source/FilteringFunctions/arm_fir_q31.c ****              * Save 4 input samples in the history buffer
 193:../Dave/Generated/CMSIS_DSP/Source/FilteringFunctions/arm_fir_q31.c ****              */
 194:../Dave/Generated/CMSIS_DSP/Source/FilteringFunctions/arm_fir_q31.c ****             vst1q(pStateCur, vld1q(pTempSrc));
 195:../Dave/Generated/CMSIS_DSP/Source/FilteringFunctions/arm_fir_q31.c ****             pStateCur += 4;
 196:../Dave/Generated/CMSIS_DSP/Source/FilteringFunctions/arm_fir_q31.c ****             pTempSrc += 4;
 197:../Dave/Generated/CMSIS_DSP/Source/FilteringFunctions/arm_fir_q31.c **** 
 198:../Dave/Generated/CMSIS_DSP/Source/FilteringFunctions/arm_fir_q31.c ****             vecIn0 = vld1q(pSamples);
 199:../Dave/Generated/CMSIS_DSP/Source/FilteringFunctions/arm_fir_q31.c ****             acc0 = vrmlaldavhq(vecIn0, vecCoeffs);
 200:../Dave/Generated/CMSIS_DSP/Source/FilteringFunctions/arm_fir_q31.c **** 
 201:../Dave/Generated/CMSIS_DSP/Source/FilteringFunctions/arm_fir_q31.c ****             acc0 = asrl(acc0, 23);
 202:../Dave/Generated/CMSIS_DSP/Source/FilteringFunctions/arm_fir_q31.c **** 
 203:../Dave/Generated/CMSIS_DSP/Source/FilteringFunctions/arm_fir_q31.c ****             *pOutput++ = (q31_t) acc0;
 204:../Dave/Generated/CMSIS_DSP/Source/FilteringFunctions/arm_fir_q31.c ****         }
 205:../Dave/Generated/CMSIS_DSP/Source/FilteringFunctions/arm_fir_q31.c ****         break;
 206:../Dave/Generated/CMSIS_DSP/Source/FilteringFunctions/arm_fir_q31.c ****     }
 207:../Dave/Generated/CMSIS_DSP/Source/FilteringFunctions/arm_fir_q31.c **** 
 208:../Dave/Generated/CMSIS_DSP/Source/FilteringFunctions/arm_fir_q31.c **** 
 209:../Dave/Generated/CMSIS_DSP/Source/FilteringFunctions/arm_fir_q31.c ****     /*
 210:../Dave/Generated/CMSIS_DSP/Source/FilteringFunctions/arm_fir_q31.c ****      * Copy the samples back into the history buffer start
 211:../Dave/Generated/CMSIS_DSP/Source/FilteringFunctions/arm_fir_q31.c ****      */
 212:../Dave/Generated/CMSIS_DSP/Source/FilteringFunctions/arm_fir_q31.c ****     pTempSrc = &S->pState[blockSize];
 213:../Dave/Generated/CMSIS_DSP/Source/FilteringFunctions/arm_fir_q31.c ****     pTempDest = S->pState;
 214:../Dave/Generated/CMSIS_DSP/Source/FilteringFunctions/arm_fir_q31.c **** 
 215:../Dave/Generated/CMSIS_DSP/Source/FilteringFunctions/arm_fir_q31.c ****     blkCnt = numTaps >> 2;
 216:../Dave/Generated/CMSIS_DSP/Source/FilteringFunctions/arm_fir_q31.c ****     while (blkCnt > 0U)
 217:../Dave/Generated/CMSIS_DSP/Source/FilteringFunctions/arm_fir_q31.c ****     {
 218:../Dave/Generated/CMSIS_DSP/Source/FilteringFunctions/arm_fir_q31.c ****         vst1q(pTempDest, vld1q(pTempSrc));
 219:../Dave/Generated/CMSIS_DSP/Source/FilteringFunctions/arm_fir_q31.c ****         pTempSrc += 4;
 220:../Dave/Generated/CMSIS_DSP/Source/FilteringFunctions/arm_fir_q31.c ****         pTempDest += 4;
 221:../Dave/Generated/CMSIS_DSP/Source/FilteringFunctions/arm_fir_q31.c ****         blkCnt--;
 222:../Dave/Generated/CMSIS_DSP/Source/FilteringFunctions/arm_fir_q31.c ****     }
 223:../Dave/Generated/CMSIS_DSP/Source/FilteringFunctions/arm_fir_q31.c ****     blkCnt = numTaps & 3;
 224:../Dave/Generated/CMSIS_DSP/Source/FilteringFunctions/arm_fir_q31.c ****     if (blkCnt > 0U)
 225:../Dave/Generated/CMSIS_DSP/Source/FilteringFunctions/arm_fir_q31.c ****     {
 226:../Dave/Generated/CMSIS_DSP/Source/FilteringFunctions/arm_fir_q31.c ****         mve_pred16_t p0 = vctp32q(blkCnt);
 227:../Dave/Generated/CMSIS_DSP/Source/FilteringFunctions/arm_fir_q31.c ****         vstrwq_p_s32(pTempDest, vld1q(pTempSrc), p0);
 228:../Dave/Generated/CMSIS_DSP/Source/FilteringFunctions/arm_fir_q31.c ****     }
 229:../Dave/Generated/CMSIS_DSP/Source/FilteringFunctions/arm_fir_q31.c **** }
 230:../Dave/Generated/CMSIS_DSP/Source/FilteringFunctions/arm_fir_q31.c **** 
 231:../Dave/Generated/CMSIS_DSP/Source/FilteringFunctions/arm_fir_q31.c **** static void arm_fir_q31_5_8_mve(const arm_fir_instance_q31 * S, const q31_t * pSrc, q31_t * pDst, u
 232:../Dave/Generated/CMSIS_DSP/Source/FilteringFunctions/arm_fir_q31.c **** {
 233:../Dave/Generated/CMSIS_DSP/Source/FilteringFunctions/arm_fir_q31.c ****     q31_t    *pState = S->pState;   /* State pointer */
 234:../Dave/Generated/CMSIS_DSP/Source/FilteringFunctions/arm_fir_q31.c ****     const q31_t    *pCoeffs = S->pCoeffs; /* Coefficient pointer */
 235:../Dave/Generated/CMSIS_DSP/Source/FilteringFunctions/arm_fir_q31.c ****     q31_t    *pStateCur;        /* Points to the current sample of the state */
 236:../Dave/Generated/CMSIS_DSP/Source/FilteringFunctions/arm_fir_q31.c ****     const q31_t    *pSamples;         /* Temporary pointer to the sample buffer */
 237:../Dave/Generated/CMSIS_DSP/Source/FilteringFunctions/arm_fir_q31.c ****     q31_t    *pOutput;          /* Temporary pointer to the output buffer */
 238:../Dave/Generated/CMSIS_DSP/Source/FilteringFunctions/arm_fir_q31.c ****     const q31_t    *pTempSrc;         /* Temporary pointer to the source data */
 239:../Dave/Generated/CMSIS_DSP/Source/FilteringFunctions/arm_fir_q31.c ****     q31_t    *pTempDest;        /* Temporary pointer to the destination buffer */
 240:../Dave/Generated/CMSIS_DSP/Source/FilteringFunctions/arm_fir_q31.c ****     uint32_t  numTaps = S->numTaps; /* Number of filter coefficients in the filter */
 241:../Dave/Generated/CMSIS_DSP/Source/FilteringFunctions/arm_fir_q31.c ****     uint32_t  blkCnt;
 242:../Dave/Generated/CMSIS_DSP/Source/FilteringFunctions/arm_fir_q31.c ****     q31x4_t vecIn0;
 243:../Dave/Generated/CMSIS_DSP/Source/FilteringFunctions/arm_fir_q31.c ****     q63_t     acc0, acc1, acc2, acc3;
 244:../Dave/Generated/CMSIS_DSP/Source/FilteringFunctions/arm_fir_q31.c ****     q31x4_t vecCoeffs1_4, vecCoeffs5_8;
 245:../Dave/Generated/CMSIS_DSP/Source/FilteringFunctions/arm_fir_q31.c **** 
 246:../Dave/Generated/CMSIS_DSP/Source/FilteringFunctions/arm_fir_q31.c ****     /*
 247:../Dave/Generated/CMSIS_DSP/Source/FilteringFunctions/arm_fir_q31.c ****      * pState points to state array which contains previous frame (numTaps - 1) samples
 248:../Dave/Generated/CMSIS_DSP/Source/FilteringFunctions/arm_fir_q31.c ****      * pStateCur points to the location where the new input data should be written
 249:../Dave/Generated/CMSIS_DSP/Source/FilteringFunctions/arm_fir_q31.c ****      */
 250:../Dave/Generated/CMSIS_DSP/Source/FilteringFunctions/arm_fir_q31.c ****     pStateCur = &(pState[(numTaps - 1u)]);
 251:../Dave/Generated/CMSIS_DSP/Source/FilteringFunctions/arm_fir_q31.c ****     pTempSrc = pSrc;
 252:../Dave/Generated/CMSIS_DSP/Source/FilteringFunctions/arm_fir_q31.c ****     pSamples = pState;
 253:../Dave/Generated/CMSIS_DSP/Source/FilteringFunctions/arm_fir_q31.c ****     pOutput = pDst;
 254:../Dave/Generated/CMSIS_DSP/Source/FilteringFunctions/arm_fir_q31.c **** 
 255:../Dave/Generated/CMSIS_DSP/Source/FilteringFunctions/arm_fir_q31.c **** 
 256:../Dave/Generated/CMSIS_DSP/Source/FilteringFunctions/arm_fir_q31.c ****     /*
 257:../Dave/Generated/CMSIS_DSP/Source/FilteringFunctions/arm_fir_q31.c ****      * load 8 coefs
 258:../Dave/Generated/CMSIS_DSP/Source/FilteringFunctions/arm_fir_q31.c ****      */
 259:../Dave/Generated/CMSIS_DSP/Source/FilteringFunctions/arm_fir_q31.c ****     vecCoeffs1_4 = *(q31x4_t *) pCoeffs;
 260:../Dave/Generated/CMSIS_DSP/Source/FilteringFunctions/arm_fir_q31.c ****     vecCoeffs5_8 = *(q31x4_t *) (pCoeffs + 4);
 261:../Dave/Generated/CMSIS_DSP/Source/FilteringFunctions/arm_fir_q31.c **** 
 262:../Dave/Generated/CMSIS_DSP/Source/FilteringFunctions/arm_fir_q31.c ****     blkCnt = blockSize >> 2;
 263:../Dave/Generated/CMSIS_DSP/Source/FilteringFunctions/arm_fir_q31.c ****     while (blkCnt > 0U)
 264:../Dave/Generated/CMSIS_DSP/Source/FilteringFunctions/arm_fir_q31.c ****     {
 265:../Dave/Generated/CMSIS_DSP/Source/FilteringFunctions/arm_fir_q31.c ****         const q31_t    *pSamplesTmp = pSamples;
 266:../Dave/Generated/CMSIS_DSP/Source/FilteringFunctions/arm_fir_q31.c **** 
 267:../Dave/Generated/CMSIS_DSP/Source/FilteringFunctions/arm_fir_q31.c ****         /*
 268:../Dave/Generated/CMSIS_DSP/Source/FilteringFunctions/arm_fir_q31.c ****          * Save 4 input samples in the history buffer
 269:../Dave/Generated/CMSIS_DSP/Source/FilteringFunctions/arm_fir_q31.c ****          */
 270:../Dave/Generated/CMSIS_DSP/Source/FilteringFunctions/arm_fir_q31.c ****         vst1q(pStateCur, vld1q(pTempSrc));
 271:../Dave/Generated/CMSIS_DSP/Source/FilteringFunctions/arm_fir_q31.c **** 
 272:../Dave/Generated/CMSIS_DSP/Source/FilteringFunctions/arm_fir_q31.c ****         vecIn0 = vld1q(pSamplesTmp);
 273:../Dave/Generated/CMSIS_DSP/Source/FilteringFunctions/arm_fir_q31.c ****         acc0 = vrmlaldavhq(vecIn0, vecCoeffs1_4);
 274:../Dave/Generated/CMSIS_DSP/Source/FilteringFunctions/arm_fir_q31.c **** 
 275:../Dave/Generated/CMSIS_DSP/Source/FilteringFunctions/arm_fir_q31.c ****         vecIn0 = vld1q(&pSamplesTmp[1]);
 276:../Dave/Generated/CMSIS_DSP/Source/FilteringFunctions/arm_fir_q31.c ****         acc1 = vrmlaldavhq(vecIn0, vecCoeffs1_4);
 277:../Dave/Generated/CMSIS_DSP/Source/FilteringFunctions/arm_fir_q31.c **** 
 278:../Dave/Generated/CMSIS_DSP/Source/FilteringFunctions/arm_fir_q31.c ****         vecIn0 = vld1q(&pSamplesTmp[2]);
 279:../Dave/Generated/CMSIS_DSP/Source/FilteringFunctions/arm_fir_q31.c ****         acc2 = vrmlaldavhq(vecIn0, vecCoeffs1_4);
 280:../Dave/Generated/CMSIS_DSP/Source/FilteringFunctions/arm_fir_q31.c **** 
 281:../Dave/Generated/CMSIS_DSP/Source/FilteringFunctions/arm_fir_q31.c ****         vecIn0 = vld1q(&pSamplesTmp[3]);
 282:../Dave/Generated/CMSIS_DSP/Source/FilteringFunctions/arm_fir_q31.c ****         acc3 = vrmlaldavhq(vecIn0, vecCoeffs1_4);
 283:../Dave/Generated/CMSIS_DSP/Source/FilteringFunctions/arm_fir_q31.c **** 
 284:../Dave/Generated/CMSIS_DSP/Source/FilteringFunctions/arm_fir_q31.c ****         vecIn0 = vld1q(&pSamplesTmp[4]);
 285:../Dave/Generated/CMSIS_DSP/Source/FilteringFunctions/arm_fir_q31.c ****         acc0 = vrmlaldavhaq(acc0, vecIn0, vecCoeffs5_8);
 286:../Dave/Generated/CMSIS_DSP/Source/FilteringFunctions/arm_fir_q31.c **** 
 287:../Dave/Generated/CMSIS_DSP/Source/FilteringFunctions/arm_fir_q31.c ****         vecIn0 = vld1q(&pSamplesTmp[5]);
 288:../Dave/Generated/CMSIS_DSP/Source/FilteringFunctions/arm_fir_q31.c ****         acc1 = vrmlaldavhaq(acc1, vecIn0, vecCoeffs5_8);
 289:../Dave/Generated/CMSIS_DSP/Source/FilteringFunctions/arm_fir_q31.c **** 
 290:../Dave/Generated/CMSIS_DSP/Source/FilteringFunctions/arm_fir_q31.c ****         vecIn0 = vld1q(&pSamplesTmp[6]);
 291:../Dave/Generated/CMSIS_DSP/Source/FilteringFunctions/arm_fir_q31.c ****         acc2 = vrmlaldavhaq(acc2, vecIn0, vecCoeffs5_8);
 292:../Dave/Generated/CMSIS_DSP/Source/FilteringFunctions/arm_fir_q31.c **** 
 293:../Dave/Generated/CMSIS_DSP/Source/FilteringFunctions/arm_fir_q31.c ****         vecIn0 = vld1q(&pSamplesTmp[7]);
 294:../Dave/Generated/CMSIS_DSP/Source/FilteringFunctions/arm_fir_q31.c ****         acc3 = vrmlaldavhaq(acc3, vecIn0, vecCoeffs5_8);
 295:../Dave/Generated/CMSIS_DSP/Source/FilteringFunctions/arm_fir_q31.c **** 
 296:../Dave/Generated/CMSIS_DSP/Source/FilteringFunctions/arm_fir_q31.c **** 
 297:../Dave/Generated/CMSIS_DSP/Source/FilteringFunctions/arm_fir_q31.c ****         acc0 = asrl(acc0, 23);
 298:../Dave/Generated/CMSIS_DSP/Source/FilteringFunctions/arm_fir_q31.c ****         acc1 = asrl(acc1, 23);
 299:../Dave/Generated/CMSIS_DSP/Source/FilteringFunctions/arm_fir_q31.c ****         acc2 = asrl(acc2, 23);
 300:../Dave/Generated/CMSIS_DSP/Source/FilteringFunctions/arm_fir_q31.c ****         acc3 = asrl(acc3, 23);
 301:../Dave/Generated/CMSIS_DSP/Source/FilteringFunctions/arm_fir_q31.c **** 
 302:../Dave/Generated/CMSIS_DSP/Source/FilteringFunctions/arm_fir_q31.c ****         *pOutput++ = (q31_t) acc0;
 303:../Dave/Generated/CMSIS_DSP/Source/FilteringFunctions/arm_fir_q31.c ****         *pOutput++ = (q31_t) acc1;
 304:../Dave/Generated/CMSIS_DSP/Source/FilteringFunctions/arm_fir_q31.c ****         *pOutput++ = (q31_t) acc2;
 305:../Dave/Generated/CMSIS_DSP/Source/FilteringFunctions/arm_fir_q31.c ****         *pOutput++ = (q31_t) acc3;
 306:../Dave/Generated/CMSIS_DSP/Source/FilteringFunctions/arm_fir_q31.c **** 
 307:../Dave/Generated/CMSIS_DSP/Source/FilteringFunctions/arm_fir_q31.c ****         pSamples += 4;
 308:../Dave/Generated/CMSIS_DSP/Source/FilteringFunctions/arm_fir_q31.c ****         pStateCur += 4;
 309:../Dave/Generated/CMSIS_DSP/Source/FilteringFunctions/arm_fir_q31.c ****         pTempSrc += 4;
 310:../Dave/Generated/CMSIS_DSP/Source/FilteringFunctions/arm_fir_q31.c **** 
 311:../Dave/Generated/CMSIS_DSP/Source/FilteringFunctions/arm_fir_q31.c ****         /*
 312:../Dave/Generated/CMSIS_DSP/Source/FilteringFunctions/arm_fir_q31.c ****          * Decrement the sample block loop counter
 313:../Dave/Generated/CMSIS_DSP/Source/FilteringFunctions/arm_fir_q31.c ****          */
 314:../Dave/Generated/CMSIS_DSP/Source/FilteringFunctions/arm_fir_q31.c ****         blkCnt--;
 315:../Dave/Generated/CMSIS_DSP/Source/FilteringFunctions/arm_fir_q31.c ****     }
 316:../Dave/Generated/CMSIS_DSP/Source/FilteringFunctions/arm_fir_q31.c **** 
 317:../Dave/Generated/CMSIS_DSP/Source/FilteringFunctions/arm_fir_q31.c ****     uint32_t  residual = blockSize & 3;
 318:../Dave/Generated/CMSIS_DSP/Source/FilteringFunctions/arm_fir_q31.c ****     switch (residual)
 319:../Dave/Generated/CMSIS_DSP/Source/FilteringFunctions/arm_fir_q31.c ****     {
 320:../Dave/Generated/CMSIS_DSP/Source/FilteringFunctions/arm_fir_q31.c ****     case 3:
 321:../Dave/Generated/CMSIS_DSP/Source/FilteringFunctions/arm_fir_q31.c ****         {
 322:../Dave/Generated/CMSIS_DSP/Source/FilteringFunctions/arm_fir_q31.c ****             /*
 323:../Dave/Generated/CMSIS_DSP/Source/FilteringFunctions/arm_fir_q31.c ****              * Save 4 input samples in the history buffer
 324:../Dave/Generated/CMSIS_DSP/Source/FilteringFunctions/arm_fir_q31.c ****              */
 325:../Dave/Generated/CMSIS_DSP/Source/FilteringFunctions/arm_fir_q31.c ****             *(q31x4_t *) pStateCur = *(q31x4_t *) pTempSrc;
 326:../Dave/Generated/CMSIS_DSP/Source/FilteringFunctions/arm_fir_q31.c ****             pStateCur += 4;
 327:../Dave/Generated/CMSIS_DSP/Source/FilteringFunctions/arm_fir_q31.c ****             pTempSrc += 4;
 328:../Dave/Generated/CMSIS_DSP/Source/FilteringFunctions/arm_fir_q31.c **** 
 329:../Dave/Generated/CMSIS_DSP/Source/FilteringFunctions/arm_fir_q31.c ****             vecIn0 = vld1q(pSamples);
 330:../Dave/Generated/CMSIS_DSP/Source/FilteringFunctions/arm_fir_q31.c ****             acc0 = vrmlaldavhq(vecIn0, vecCoeffs1_4);
 331:../Dave/Generated/CMSIS_DSP/Source/FilteringFunctions/arm_fir_q31.c **** 
 332:../Dave/Generated/CMSIS_DSP/Source/FilteringFunctions/arm_fir_q31.c ****             vecIn0 = vld1q(&pSamples[1]);
 333:../Dave/Generated/CMSIS_DSP/Source/FilteringFunctions/arm_fir_q31.c ****             acc1 = vrmlaldavhq(vecIn0, vecCoeffs1_4);
 334:../Dave/Generated/CMSIS_DSP/Source/FilteringFunctions/arm_fir_q31.c **** 
 335:../Dave/Generated/CMSIS_DSP/Source/FilteringFunctions/arm_fir_q31.c ****             vecIn0 = vld1q(&pSamples[2]);
 336:../Dave/Generated/CMSIS_DSP/Source/FilteringFunctions/arm_fir_q31.c ****             acc2 = vrmlaldavhq(vecIn0, vecCoeffs1_4);
 337:../Dave/Generated/CMSIS_DSP/Source/FilteringFunctions/arm_fir_q31.c **** 
 338:../Dave/Generated/CMSIS_DSP/Source/FilteringFunctions/arm_fir_q31.c ****             vecIn0 = vld1q(&pSamples[4]);
 339:../Dave/Generated/CMSIS_DSP/Source/FilteringFunctions/arm_fir_q31.c ****             acc0 = vrmlaldavhaq(acc0, vecIn0, vecCoeffs5_8);
 340:../Dave/Generated/CMSIS_DSP/Source/FilteringFunctions/arm_fir_q31.c **** 
 341:../Dave/Generated/CMSIS_DSP/Source/FilteringFunctions/arm_fir_q31.c ****             vecIn0 = vld1q(&pSamples[5]);
 342:../Dave/Generated/CMSIS_DSP/Source/FilteringFunctions/arm_fir_q31.c ****             acc1 = vrmlaldavhaq(acc1, vecIn0, vecCoeffs5_8);
 343:../Dave/Generated/CMSIS_DSP/Source/FilteringFunctions/arm_fir_q31.c **** 
 344:../Dave/Generated/CMSIS_DSP/Source/FilteringFunctions/arm_fir_q31.c ****             vecIn0 = vld1q(&pSamples[6]);
 345:../Dave/Generated/CMSIS_DSP/Source/FilteringFunctions/arm_fir_q31.c ****             acc2 = vrmlaldavhaq(acc2, vecIn0, vecCoeffs5_8);
 346:../Dave/Generated/CMSIS_DSP/Source/FilteringFunctions/arm_fir_q31.c **** 
 347:../Dave/Generated/CMSIS_DSP/Source/FilteringFunctions/arm_fir_q31.c ****             acc0 = asrl(acc0, 23);
 348:../Dave/Generated/CMSIS_DSP/Source/FilteringFunctions/arm_fir_q31.c ****             acc1 = asrl(acc1, 23);
 349:../Dave/Generated/CMSIS_DSP/Source/FilteringFunctions/arm_fir_q31.c ****             acc2 = asrl(acc2, 23);
 350:../Dave/Generated/CMSIS_DSP/Source/FilteringFunctions/arm_fir_q31.c **** 
 351:../Dave/Generated/CMSIS_DSP/Source/FilteringFunctions/arm_fir_q31.c ****             *pOutput++ = (q31_t) acc0;
 352:../Dave/Generated/CMSIS_DSP/Source/FilteringFunctions/arm_fir_q31.c ****             *pOutput++ = (q31_t) acc1;
 353:../Dave/Generated/CMSIS_DSP/Source/FilteringFunctions/arm_fir_q31.c ****             *pOutput++ = (q31_t) acc2;
 354:../Dave/Generated/CMSIS_DSP/Source/FilteringFunctions/arm_fir_q31.c ****         }
 355:../Dave/Generated/CMSIS_DSP/Source/FilteringFunctions/arm_fir_q31.c ****         break;
 356:../Dave/Generated/CMSIS_DSP/Source/FilteringFunctions/arm_fir_q31.c **** 
 357:../Dave/Generated/CMSIS_DSP/Source/FilteringFunctions/arm_fir_q31.c ****     case 2:
 358:../Dave/Generated/CMSIS_DSP/Source/FilteringFunctions/arm_fir_q31.c ****         {
 359:../Dave/Generated/CMSIS_DSP/Source/FilteringFunctions/arm_fir_q31.c ****             /*
 360:../Dave/Generated/CMSIS_DSP/Source/FilteringFunctions/arm_fir_q31.c ****              * Save 4 input samples in the history buffer
 361:../Dave/Generated/CMSIS_DSP/Source/FilteringFunctions/arm_fir_q31.c ****              */
 362:../Dave/Generated/CMSIS_DSP/Source/FilteringFunctions/arm_fir_q31.c ****             vst1q(pStateCur, vld1q(pTempSrc));
 363:../Dave/Generated/CMSIS_DSP/Source/FilteringFunctions/arm_fir_q31.c ****             pStateCur += 4;
 364:../Dave/Generated/CMSIS_DSP/Source/FilteringFunctions/arm_fir_q31.c ****             pTempSrc += 4;
 365:../Dave/Generated/CMSIS_DSP/Source/FilteringFunctions/arm_fir_q31.c **** 
 366:../Dave/Generated/CMSIS_DSP/Source/FilteringFunctions/arm_fir_q31.c ****             vecIn0 = vld1q(pSamples);
 367:../Dave/Generated/CMSIS_DSP/Source/FilteringFunctions/arm_fir_q31.c ****             acc0 = vrmlaldavhq(vecIn0, vecCoeffs1_4);
 368:../Dave/Generated/CMSIS_DSP/Source/FilteringFunctions/arm_fir_q31.c **** 
 369:../Dave/Generated/CMSIS_DSP/Source/FilteringFunctions/arm_fir_q31.c ****             vecIn0 = vld1q(&pSamples[1]);
 370:../Dave/Generated/CMSIS_DSP/Source/FilteringFunctions/arm_fir_q31.c ****             acc1 = vrmlaldavhq(vecIn0, vecCoeffs1_4);
 371:../Dave/Generated/CMSIS_DSP/Source/FilteringFunctions/arm_fir_q31.c **** 
 372:../Dave/Generated/CMSIS_DSP/Source/FilteringFunctions/arm_fir_q31.c ****             vecIn0 = vld1q(&pSamples[4]);
 373:../Dave/Generated/CMSIS_DSP/Source/FilteringFunctions/arm_fir_q31.c ****             acc0 = vrmlaldavhaq(acc0, vecIn0, vecCoeffs5_8);
 374:../Dave/Generated/CMSIS_DSP/Source/FilteringFunctions/arm_fir_q31.c **** 
 375:../Dave/Generated/CMSIS_DSP/Source/FilteringFunctions/arm_fir_q31.c ****             vecIn0 = vld1q(&pSamples[5]);
 376:../Dave/Generated/CMSIS_DSP/Source/FilteringFunctions/arm_fir_q31.c ****             acc1 = vrmlaldavhaq(acc1, vecIn0, vecCoeffs5_8);
 377:../Dave/Generated/CMSIS_DSP/Source/FilteringFunctions/arm_fir_q31.c **** 
 378:../Dave/Generated/CMSIS_DSP/Source/FilteringFunctions/arm_fir_q31.c ****             acc0 = asrl(acc0, 23);
 379:../Dave/Generated/CMSIS_DSP/Source/FilteringFunctions/arm_fir_q31.c ****             acc1 = asrl(acc1, 23);
 380:../Dave/Generated/CMSIS_DSP/Source/FilteringFunctions/arm_fir_q31.c **** 
 381:../Dave/Generated/CMSIS_DSP/Source/FilteringFunctions/arm_fir_q31.c ****             *pOutput++ = (q31_t) acc0;
 382:../Dave/Generated/CMSIS_DSP/Source/FilteringFunctions/arm_fir_q31.c ****             *pOutput++ = (q31_t) acc1;
 383:../Dave/Generated/CMSIS_DSP/Source/FilteringFunctions/arm_fir_q31.c ****         }
 384:../Dave/Generated/CMSIS_DSP/Source/FilteringFunctions/arm_fir_q31.c ****         break;
 385:../Dave/Generated/CMSIS_DSP/Source/FilteringFunctions/arm_fir_q31.c **** 
 386:../Dave/Generated/CMSIS_DSP/Source/FilteringFunctions/arm_fir_q31.c ****     case 1:
 387:../Dave/Generated/CMSIS_DSP/Source/FilteringFunctions/arm_fir_q31.c ****         {
 388:../Dave/Generated/CMSIS_DSP/Source/FilteringFunctions/arm_fir_q31.c ****             /*
 389:../Dave/Generated/CMSIS_DSP/Source/FilteringFunctions/arm_fir_q31.c ****              * Save 4 input samples in the history buffer
 390:../Dave/Generated/CMSIS_DSP/Source/FilteringFunctions/arm_fir_q31.c ****              */
 391:../Dave/Generated/CMSIS_DSP/Source/FilteringFunctions/arm_fir_q31.c ****             vst1q(pStateCur, vld1q(pTempSrc));
 392:../Dave/Generated/CMSIS_DSP/Source/FilteringFunctions/arm_fir_q31.c ****             pStateCur += 4;
 393:../Dave/Generated/CMSIS_DSP/Source/FilteringFunctions/arm_fir_q31.c ****             pTempSrc += 4;
 394:../Dave/Generated/CMSIS_DSP/Source/FilteringFunctions/arm_fir_q31.c **** 
 395:../Dave/Generated/CMSIS_DSP/Source/FilteringFunctions/arm_fir_q31.c ****             vecIn0 = vld1q(pSamples);
 396:../Dave/Generated/CMSIS_DSP/Source/FilteringFunctions/arm_fir_q31.c ****             acc0 = vrmlaldavhq(vecIn0, vecCoeffs1_4);
 397:../Dave/Generated/CMSIS_DSP/Source/FilteringFunctions/arm_fir_q31.c **** 
 398:../Dave/Generated/CMSIS_DSP/Source/FilteringFunctions/arm_fir_q31.c ****             vecIn0 = vld1q(&pSamples[4]);
 399:../Dave/Generated/CMSIS_DSP/Source/FilteringFunctions/arm_fir_q31.c ****             acc0 = vrmlaldavhaq(acc0, vecIn0, vecCoeffs5_8);
 400:../Dave/Generated/CMSIS_DSP/Source/FilteringFunctions/arm_fir_q31.c **** 
 401:../Dave/Generated/CMSIS_DSP/Source/FilteringFunctions/arm_fir_q31.c ****             acc0 = asrl(acc0, 23);
 402:../Dave/Generated/CMSIS_DSP/Source/FilteringFunctions/arm_fir_q31.c **** 
 403:../Dave/Generated/CMSIS_DSP/Source/FilteringFunctions/arm_fir_q31.c ****             *pOutput++ = (q31_t) acc0;
 404:../Dave/Generated/CMSIS_DSP/Source/FilteringFunctions/arm_fir_q31.c ****         }
 405:../Dave/Generated/CMSIS_DSP/Source/FilteringFunctions/arm_fir_q31.c ****         break;
 406:../Dave/Generated/CMSIS_DSP/Source/FilteringFunctions/arm_fir_q31.c ****     }
 407:../Dave/Generated/CMSIS_DSP/Source/FilteringFunctions/arm_fir_q31.c **** 
 408:../Dave/Generated/CMSIS_DSP/Source/FilteringFunctions/arm_fir_q31.c ****     /*
 409:../Dave/Generated/CMSIS_DSP/Source/FilteringFunctions/arm_fir_q31.c ****      * Copy the samples back into the history buffer start
 410:../Dave/Generated/CMSIS_DSP/Source/FilteringFunctions/arm_fir_q31.c ****      */
 411:../Dave/Generated/CMSIS_DSP/Source/FilteringFunctions/arm_fir_q31.c ****     pTempSrc = &S->pState[blockSize];
 412:../Dave/Generated/CMSIS_DSP/Source/FilteringFunctions/arm_fir_q31.c ****     pTempDest = S->pState;
 413:../Dave/Generated/CMSIS_DSP/Source/FilteringFunctions/arm_fir_q31.c **** 
 414:../Dave/Generated/CMSIS_DSP/Source/FilteringFunctions/arm_fir_q31.c ****     blkCnt = numTaps >> 2;
 415:../Dave/Generated/CMSIS_DSP/Source/FilteringFunctions/arm_fir_q31.c ****     while (blkCnt > 0U)
 416:../Dave/Generated/CMSIS_DSP/Source/FilteringFunctions/arm_fir_q31.c ****     {
 417:../Dave/Generated/CMSIS_DSP/Source/FilteringFunctions/arm_fir_q31.c ****         vst1q(pTempDest, vld1q(pTempSrc));
 418:../Dave/Generated/CMSIS_DSP/Source/FilteringFunctions/arm_fir_q31.c ****         pTempSrc += 4;
 419:../Dave/Generated/CMSIS_DSP/Source/FilteringFunctions/arm_fir_q31.c ****         pTempDest += 4;
 420:../Dave/Generated/CMSIS_DSP/Source/FilteringFunctions/arm_fir_q31.c ****         blkCnt--;
 421:../Dave/Generated/CMSIS_DSP/Source/FilteringFunctions/arm_fir_q31.c ****     }
 422:../Dave/Generated/CMSIS_DSP/Source/FilteringFunctions/arm_fir_q31.c ****     blkCnt = numTaps & 3;
 423:../Dave/Generated/CMSIS_DSP/Source/FilteringFunctions/arm_fir_q31.c ****     if (blkCnt > 0U)
 424:../Dave/Generated/CMSIS_DSP/Source/FilteringFunctions/arm_fir_q31.c ****     {
 425:../Dave/Generated/CMSIS_DSP/Source/FilteringFunctions/arm_fir_q31.c ****         mve_pred16_t p0 = vctp32q(blkCnt);
 426:../Dave/Generated/CMSIS_DSP/Source/FilteringFunctions/arm_fir_q31.c ****         vstrwq_p_s32(pTempDest, vld1q(pTempSrc), p0);
 427:../Dave/Generated/CMSIS_DSP/Source/FilteringFunctions/arm_fir_q31.c ****     }
 428:../Dave/Generated/CMSIS_DSP/Source/FilteringFunctions/arm_fir_q31.c **** }
 429:../Dave/Generated/CMSIS_DSP/Source/FilteringFunctions/arm_fir_q31.c **** 
 430:../Dave/Generated/CMSIS_DSP/Source/FilteringFunctions/arm_fir_q31.c **** void arm_fir_q31(
 431:../Dave/Generated/CMSIS_DSP/Source/FilteringFunctions/arm_fir_q31.c ****   const arm_fir_instance_q31 * S,
 432:../Dave/Generated/CMSIS_DSP/Source/FilteringFunctions/arm_fir_q31.c ****   const q31_t * pSrc,
 433:../Dave/Generated/CMSIS_DSP/Source/FilteringFunctions/arm_fir_q31.c ****         q31_t * pDst,
 434:../Dave/Generated/CMSIS_DSP/Source/FilteringFunctions/arm_fir_q31.c ****         uint32_t blockSize)
 435:../Dave/Generated/CMSIS_DSP/Source/FilteringFunctions/arm_fir_q31.c **** {
 436:../Dave/Generated/CMSIS_DSP/Source/FilteringFunctions/arm_fir_q31.c ****     q31_t    *pState = S->pState;   /* State pointer */
 437:../Dave/Generated/CMSIS_DSP/Source/FilteringFunctions/arm_fir_q31.c ****     const q31_t    *pCoeffs = S->pCoeffs; /* Coefficient pointer */
 438:../Dave/Generated/CMSIS_DSP/Source/FilteringFunctions/arm_fir_q31.c ****     q31_t    *pStateCur;        /* Points to the current sample of the state */
 439:../Dave/Generated/CMSIS_DSP/Source/FilteringFunctions/arm_fir_q31.c ****     const q31_t    *pSamples;         /* Temporary pointer to the sample buffer */
 440:../Dave/Generated/CMSIS_DSP/Source/FilteringFunctions/arm_fir_q31.c ****     q31_t    *pOutput;          /* Temporary pointer to the output buffer */
 441:../Dave/Generated/CMSIS_DSP/Source/FilteringFunctions/arm_fir_q31.c ****     const q31_t    *pTempSrc;         /* Temporary pointer to the source data */
 442:../Dave/Generated/CMSIS_DSP/Source/FilteringFunctions/arm_fir_q31.c ****     q31_t    *pTempDest;        /* Temporary pointer to the destination buffer */
 443:../Dave/Generated/CMSIS_DSP/Source/FilteringFunctions/arm_fir_q31.c ****     uint32_t  numTaps = S->numTaps; /* Number of filter coefficients in the filter */
 444:../Dave/Generated/CMSIS_DSP/Source/FilteringFunctions/arm_fir_q31.c ****     uint32_t  blkCnt;
 445:../Dave/Generated/CMSIS_DSP/Source/FilteringFunctions/arm_fir_q31.c ****     q31x4_t vecIn0;
 446:../Dave/Generated/CMSIS_DSP/Source/FilteringFunctions/arm_fir_q31.c ****     uint32_t  tapsBlkCnt = (numTaps + 3) / 4;
 447:../Dave/Generated/CMSIS_DSP/Source/FilteringFunctions/arm_fir_q31.c ****     q63_t     acc0, acc1, acc2, acc3;
 448:../Dave/Generated/CMSIS_DSP/Source/FilteringFunctions/arm_fir_q31.c ****     q31x4_t vecCoeffs;
 449:../Dave/Generated/CMSIS_DSP/Source/FilteringFunctions/arm_fir_q31.c **** 
 450:../Dave/Generated/CMSIS_DSP/Source/FilteringFunctions/arm_fir_q31.c ****     /*
 451:../Dave/Generated/CMSIS_DSP/Source/FilteringFunctions/arm_fir_q31.c ****      * [1 to 8 taps] specialized routines
 452:../Dave/Generated/CMSIS_DSP/Source/FilteringFunctions/arm_fir_q31.c ****      */
 453:../Dave/Generated/CMSIS_DSP/Source/FilteringFunctions/arm_fir_q31.c ****     
 454:../Dave/Generated/CMSIS_DSP/Source/FilteringFunctions/arm_fir_q31.c ****     if (blockSize >= 8)
 455:../Dave/Generated/CMSIS_DSP/Source/FilteringFunctions/arm_fir_q31.c ****     {
 456:../Dave/Generated/CMSIS_DSP/Source/FilteringFunctions/arm_fir_q31.c ****         if (numTaps <= 4)
 457:../Dave/Generated/CMSIS_DSP/Source/FilteringFunctions/arm_fir_q31.c ****         {
 458:../Dave/Generated/CMSIS_DSP/Source/FilteringFunctions/arm_fir_q31.c ****             arm_fir_q31_1_4_mve(S, pSrc, pDst, blockSize);
 459:../Dave/Generated/CMSIS_DSP/Source/FilteringFunctions/arm_fir_q31.c ****             return;
 460:../Dave/Generated/CMSIS_DSP/Source/FilteringFunctions/arm_fir_q31.c ****         }
 461:../Dave/Generated/CMSIS_DSP/Source/FilteringFunctions/arm_fir_q31.c ****         else if (numTaps <= 8)
 462:../Dave/Generated/CMSIS_DSP/Source/FilteringFunctions/arm_fir_q31.c ****         {
 463:../Dave/Generated/CMSIS_DSP/Source/FilteringFunctions/arm_fir_q31.c ****             arm_fir_q31_5_8_mve(S, pSrc, pDst, blockSize);
 464:../Dave/Generated/CMSIS_DSP/Source/FilteringFunctions/arm_fir_q31.c ****             return;
 465:../Dave/Generated/CMSIS_DSP/Source/FilteringFunctions/arm_fir_q31.c ****         }
 466:../Dave/Generated/CMSIS_DSP/Source/FilteringFunctions/arm_fir_q31.c ****     }
 467:../Dave/Generated/CMSIS_DSP/Source/FilteringFunctions/arm_fir_q31.c **** 
 468:../Dave/Generated/CMSIS_DSP/Source/FilteringFunctions/arm_fir_q31.c **** 
 469:../Dave/Generated/CMSIS_DSP/Source/FilteringFunctions/arm_fir_q31.c ****     /*
 470:../Dave/Generated/CMSIS_DSP/Source/FilteringFunctions/arm_fir_q31.c ****      * pState points to state array which contains previous frame (numTaps - 1) samples
 471:../Dave/Generated/CMSIS_DSP/Source/FilteringFunctions/arm_fir_q31.c ****      * pStateCur points to the location where the new input data should be written
 472:../Dave/Generated/CMSIS_DSP/Source/FilteringFunctions/arm_fir_q31.c ****      */
 473:../Dave/Generated/CMSIS_DSP/Source/FilteringFunctions/arm_fir_q31.c ****     if (blockSize >= 8)
 474:../Dave/Generated/CMSIS_DSP/Source/FilteringFunctions/arm_fir_q31.c ****     {
 475:../Dave/Generated/CMSIS_DSP/Source/FilteringFunctions/arm_fir_q31.c ****         pStateCur   = &(pState[(numTaps - 1u)]);
 476:../Dave/Generated/CMSIS_DSP/Source/FilteringFunctions/arm_fir_q31.c ****         pSamples    = pState;
 477:../Dave/Generated/CMSIS_DSP/Source/FilteringFunctions/arm_fir_q31.c ****         pTempSrc    = pSrc;
 478:../Dave/Generated/CMSIS_DSP/Source/FilteringFunctions/arm_fir_q31.c ****         pOutput     = pDst;
 479:../Dave/Generated/CMSIS_DSP/Source/FilteringFunctions/arm_fir_q31.c ****         blkCnt      = blockSize >> 2;
 480:../Dave/Generated/CMSIS_DSP/Source/FilteringFunctions/arm_fir_q31.c ****         while (blkCnt > 0U)
 481:../Dave/Generated/CMSIS_DSP/Source/FilteringFunctions/arm_fir_q31.c ****         {
 482:../Dave/Generated/CMSIS_DSP/Source/FilteringFunctions/arm_fir_q31.c ****             const q31_t    *pCoeffsTmp = pCoeffs;
 483:../Dave/Generated/CMSIS_DSP/Source/FilteringFunctions/arm_fir_q31.c ****             const q31_t    *pSamplesTmp = pSamples;
 484:../Dave/Generated/CMSIS_DSP/Source/FilteringFunctions/arm_fir_q31.c ****     
 485:../Dave/Generated/CMSIS_DSP/Source/FilteringFunctions/arm_fir_q31.c ****             acc0 = 0LL;
 486:../Dave/Generated/CMSIS_DSP/Source/FilteringFunctions/arm_fir_q31.c ****             acc1 = 0LL;
 487:../Dave/Generated/CMSIS_DSP/Source/FilteringFunctions/arm_fir_q31.c ****             acc2 = 0LL;
 488:../Dave/Generated/CMSIS_DSP/Source/FilteringFunctions/arm_fir_q31.c ****             acc3 = 0LL;
 489:../Dave/Generated/CMSIS_DSP/Source/FilteringFunctions/arm_fir_q31.c ****     
 490:../Dave/Generated/CMSIS_DSP/Source/FilteringFunctions/arm_fir_q31.c ****             /*
 491:../Dave/Generated/CMSIS_DSP/Source/FilteringFunctions/arm_fir_q31.c ****              * Save 4 input samples in the history buffer
 492:../Dave/Generated/CMSIS_DSP/Source/FilteringFunctions/arm_fir_q31.c ****              */
 493:../Dave/Generated/CMSIS_DSP/Source/FilteringFunctions/arm_fir_q31.c ****             vst1q(pStateCur, vld1q(pTempSrc));
 494:../Dave/Generated/CMSIS_DSP/Source/FilteringFunctions/arm_fir_q31.c ****             pStateCur += 4;
 495:../Dave/Generated/CMSIS_DSP/Source/FilteringFunctions/arm_fir_q31.c ****             pTempSrc += 4;
 496:../Dave/Generated/CMSIS_DSP/Source/FilteringFunctions/arm_fir_q31.c ****     
 497:../Dave/Generated/CMSIS_DSP/Source/FilteringFunctions/arm_fir_q31.c ****             tapsBlkCnt = (numTaps ) / 4;
 498:../Dave/Generated/CMSIS_DSP/Source/FilteringFunctions/arm_fir_q31.c ****             uint32_t       i = tapsBlkCnt ;
 499:../Dave/Generated/CMSIS_DSP/Source/FilteringFunctions/arm_fir_q31.c ****             while (i > 0U)
 500:../Dave/Generated/CMSIS_DSP/Source/FilteringFunctions/arm_fir_q31.c ****             {
 501:../Dave/Generated/CMSIS_DSP/Source/FilteringFunctions/arm_fir_q31.c ****                 /*
 502:../Dave/Generated/CMSIS_DSP/Source/FilteringFunctions/arm_fir_q31.c ****                  * load 4 coefs
 503:../Dave/Generated/CMSIS_DSP/Source/FilteringFunctions/arm_fir_q31.c ****                  */
 504:../Dave/Generated/CMSIS_DSP/Source/FilteringFunctions/arm_fir_q31.c ****                 vecCoeffs = *(q31x4_t *) pCoeffsTmp;
 505:../Dave/Generated/CMSIS_DSP/Source/FilteringFunctions/arm_fir_q31.c ****     
 506:../Dave/Generated/CMSIS_DSP/Source/FilteringFunctions/arm_fir_q31.c ****                 vecIn0 = vld1q(pSamplesTmp);
 507:../Dave/Generated/CMSIS_DSP/Source/FilteringFunctions/arm_fir_q31.c ****                 acc0 = vrmlaldavhaq(acc0, vecIn0, vecCoeffs);
 508:../Dave/Generated/CMSIS_DSP/Source/FilteringFunctions/arm_fir_q31.c ****     
 509:../Dave/Generated/CMSIS_DSP/Source/FilteringFunctions/arm_fir_q31.c ****                 vecIn0 = vld1q(&pSamplesTmp[1]);
 510:../Dave/Generated/CMSIS_DSP/Source/FilteringFunctions/arm_fir_q31.c ****                 acc1 = vrmlaldavhaq(acc1, vecIn0, vecCoeffs);
 511:../Dave/Generated/CMSIS_DSP/Source/FilteringFunctions/arm_fir_q31.c ****     
 512:../Dave/Generated/CMSIS_DSP/Source/FilteringFunctions/arm_fir_q31.c ****                 vecIn0 = vld1q(&pSamplesTmp[2]);
 513:../Dave/Generated/CMSIS_DSP/Source/FilteringFunctions/arm_fir_q31.c ****                 acc2 = vrmlaldavhaq(acc2, vecIn0, vecCoeffs);
 514:../Dave/Generated/CMSIS_DSP/Source/FilteringFunctions/arm_fir_q31.c ****     
 515:../Dave/Generated/CMSIS_DSP/Source/FilteringFunctions/arm_fir_q31.c ****                 vecIn0 = vld1q(&pSamplesTmp[3]);
 516:../Dave/Generated/CMSIS_DSP/Source/FilteringFunctions/arm_fir_q31.c ****                 acc3 = vrmlaldavhaq(acc3, vecIn0, vecCoeffs);
 517:../Dave/Generated/CMSIS_DSP/Source/FilteringFunctions/arm_fir_q31.c ****     
 518:../Dave/Generated/CMSIS_DSP/Source/FilteringFunctions/arm_fir_q31.c ****                 pSamplesTmp += 4;
 519:../Dave/Generated/CMSIS_DSP/Source/FilteringFunctions/arm_fir_q31.c ****                 pCoeffsTmp += 4;
 520:../Dave/Generated/CMSIS_DSP/Source/FilteringFunctions/arm_fir_q31.c ****                 /*
 521:../Dave/Generated/CMSIS_DSP/Source/FilteringFunctions/arm_fir_q31.c ****                  * Decrement the taps block loop counter
 522:../Dave/Generated/CMSIS_DSP/Source/FilteringFunctions/arm_fir_q31.c ****                  */
 523:../Dave/Generated/CMSIS_DSP/Source/FilteringFunctions/arm_fir_q31.c ****                 i--;
 524:../Dave/Generated/CMSIS_DSP/Source/FilteringFunctions/arm_fir_q31.c ****             }
 525:../Dave/Generated/CMSIS_DSP/Source/FilteringFunctions/arm_fir_q31.c **** 
 526:../Dave/Generated/CMSIS_DSP/Source/FilteringFunctions/arm_fir_q31.c ****             tapsBlkCnt = (numTaps ) & 3;
 527:../Dave/Generated/CMSIS_DSP/Source/FilteringFunctions/arm_fir_q31.c ****             i = tapsBlkCnt ;
 528:../Dave/Generated/CMSIS_DSP/Source/FilteringFunctions/arm_fir_q31.c ****             while (i > 0U)
 529:../Dave/Generated/CMSIS_DSP/Source/FilteringFunctions/arm_fir_q31.c ****             {
 530:../Dave/Generated/CMSIS_DSP/Source/FilteringFunctions/arm_fir_q31.c ****                 /*
 531:../Dave/Generated/CMSIS_DSP/Source/FilteringFunctions/arm_fir_q31.c ****                  * load 4 coefs
 532:../Dave/Generated/CMSIS_DSP/Source/FilteringFunctions/arm_fir_q31.c ****                  */
 533:../Dave/Generated/CMSIS_DSP/Source/FilteringFunctions/arm_fir_q31.c **** 
 534:../Dave/Generated/CMSIS_DSP/Source/FilteringFunctions/arm_fir_q31.c ****                 /* acc =  b[numTaps-1] * x[n-numTaps-1] + b[numTaps-2] * x[n-numTaps-2] + b[numTaps
 535:../Dave/Generated/CMSIS_DSP/Source/FilteringFunctions/arm_fir_q31.c ****                 acc0 += ((q63_t) *pSamplesTmp * *pCoeffsTmp) >> 8;
 536:../Dave/Generated/CMSIS_DSP/Source/FilteringFunctions/arm_fir_q31.c ****                 acc1 += ((q63_t) pSamplesTmp[1] * *pCoeffsTmp) >> 8;
 537:../Dave/Generated/CMSIS_DSP/Source/FilteringFunctions/arm_fir_q31.c ****                 acc2 += ((q63_t) pSamplesTmp[2] * *pCoeffsTmp) >> 8;
 538:../Dave/Generated/CMSIS_DSP/Source/FilteringFunctions/arm_fir_q31.c ****                 acc3 += ((q63_t) pSamplesTmp[3] * *pCoeffsTmp) >> 8;
 539:../Dave/Generated/CMSIS_DSP/Source/FilteringFunctions/arm_fir_q31.c **** 
 540:../Dave/Generated/CMSIS_DSP/Source/FilteringFunctions/arm_fir_q31.c ****     
 541:../Dave/Generated/CMSIS_DSP/Source/FilteringFunctions/arm_fir_q31.c ****                 pSamplesTmp += 1;
 542:../Dave/Generated/CMSIS_DSP/Source/FilteringFunctions/arm_fir_q31.c ****                 pCoeffsTmp += 1;
 543:../Dave/Generated/CMSIS_DSP/Source/FilteringFunctions/arm_fir_q31.c ****                 /*
 544:../Dave/Generated/CMSIS_DSP/Source/FilteringFunctions/arm_fir_q31.c ****                  * Decrement the taps block loop counter
 545:../Dave/Generated/CMSIS_DSP/Source/FilteringFunctions/arm_fir_q31.c ****                  */
 546:../Dave/Generated/CMSIS_DSP/Source/FilteringFunctions/arm_fir_q31.c ****                 i--;
 547:../Dave/Generated/CMSIS_DSP/Source/FilteringFunctions/arm_fir_q31.c ****             }
 548:../Dave/Generated/CMSIS_DSP/Source/FilteringFunctions/arm_fir_q31.c ****     
 549:../Dave/Generated/CMSIS_DSP/Source/FilteringFunctions/arm_fir_q31.c ****             /* .54-> .31 conversion and store accumulators */
 550:../Dave/Generated/CMSIS_DSP/Source/FilteringFunctions/arm_fir_q31.c ****             acc0 = asrl(acc0, 23);
 551:../Dave/Generated/CMSIS_DSP/Source/FilteringFunctions/arm_fir_q31.c ****             acc1 = asrl(acc1, 23);
 552:../Dave/Generated/CMSIS_DSP/Source/FilteringFunctions/arm_fir_q31.c ****             acc2 = asrl(acc2, 23);
 553:../Dave/Generated/CMSIS_DSP/Source/FilteringFunctions/arm_fir_q31.c ****             acc3 = asrl(acc3, 23);
 554:../Dave/Generated/CMSIS_DSP/Source/FilteringFunctions/arm_fir_q31.c ****     
 555:../Dave/Generated/CMSIS_DSP/Source/FilteringFunctions/arm_fir_q31.c ****             *pOutput++ = (q31_t) acc0;
 556:../Dave/Generated/CMSIS_DSP/Source/FilteringFunctions/arm_fir_q31.c ****             *pOutput++ = (q31_t) acc1;
 557:../Dave/Generated/CMSIS_DSP/Source/FilteringFunctions/arm_fir_q31.c ****             *pOutput++ = (q31_t) acc2;
 558:../Dave/Generated/CMSIS_DSP/Source/FilteringFunctions/arm_fir_q31.c ****             *pOutput++ = (q31_t) acc3;
 559:../Dave/Generated/CMSIS_DSP/Source/FilteringFunctions/arm_fir_q31.c ****     
 560:../Dave/Generated/CMSIS_DSP/Source/FilteringFunctions/arm_fir_q31.c ****             pSamples += 4;
 561:../Dave/Generated/CMSIS_DSP/Source/FilteringFunctions/arm_fir_q31.c **** 
 562:../Dave/Generated/CMSIS_DSP/Source/FilteringFunctions/arm_fir_q31.c ****             
 563:../Dave/Generated/CMSIS_DSP/Source/FilteringFunctions/arm_fir_q31.c ****             /*
 564:../Dave/Generated/CMSIS_DSP/Source/FilteringFunctions/arm_fir_q31.c ****              * Decrement the sample block loop counter
 565:../Dave/Generated/CMSIS_DSP/Source/FilteringFunctions/arm_fir_q31.c ****              */
 566:../Dave/Generated/CMSIS_DSP/Source/FilteringFunctions/arm_fir_q31.c ****             blkCnt--;
 567:../Dave/Generated/CMSIS_DSP/Source/FilteringFunctions/arm_fir_q31.c ****         }
 568:../Dave/Generated/CMSIS_DSP/Source/FilteringFunctions/arm_fir_q31.c ****     
 569:../Dave/Generated/CMSIS_DSP/Source/FilteringFunctions/arm_fir_q31.c ****         uint32_t  residual = blockSize & 3;
 570:../Dave/Generated/CMSIS_DSP/Source/FilteringFunctions/arm_fir_q31.c ****         switch (residual)
 571:../Dave/Generated/CMSIS_DSP/Source/FilteringFunctions/arm_fir_q31.c ****         {
 572:../Dave/Generated/CMSIS_DSP/Source/FilteringFunctions/arm_fir_q31.c ****         case 3:
 573:../Dave/Generated/CMSIS_DSP/Source/FilteringFunctions/arm_fir_q31.c ****             {
 574:../Dave/Generated/CMSIS_DSP/Source/FilteringFunctions/arm_fir_q31.c ****                 const q31_t    *pCoeffsTmp = pCoeffs;
 575:../Dave/Generated/CMSIS_DSP/Source/FilteringFunctions/arm_fir_q31.c ****                 const q31_t    *pSamplesTmp = pSamples;
 576:../Dave/Generated/CMSIS_DSP/Source/FilteringFunctions/arm_fir_q31.c ****     
 577:../Dave/Generated/CMSIS_DSP/Source/FilteringFunctions/arm_fir_q31.c ****                 acc0 = 0LL;
 578:../Dave/Generated/CMSIS_DSP/Source/FilteringFunctions/arm_fir_q31.c ****                 acc1 = 0LL;
 579:../Dave/Generated/CMSIS_DSP/Source/FilteringFunctions/arm_fir_q31.c ****                 acc2 = 0LL;
 580:../Dave/Generated/CMSIS_DSP/Source/FilteringFunctions/arm_fir_q31.c ****     
 581:../Dave/Generated/CMSIS_DSP/Source/FilteringFunctions/arm_fir_q31.c ****                 /*
 582:../Dave/Generated/CMSIS_DSP/Source/FilteringFunctions/arm_fir_q31.c ****                  * Save 4 input samples in the history buffer
 583:../Dave/Generated/CMSIS_DSP/Source/FilteringFunctions/arm_fir_q31.c ****                  */
 584:../Dave/Generated/CMSIS_DSP/Source/FilteringFunctions/arm_fir_q31.c ****               
 585:../Dave/Generated/CMSIS_DSP/Source/FilteringFunctions/arm_fir_q31.c ****                 *(q31x4_t *) pStateCur = *(q31x4_t *) pTempSrc;
 586:../Dave/Generated/CMSIS_DSP/Source/FilteringFunctions/arm_fir_q31.c ****                 pStateCur += 4;
 587:../Dave/Generated/CMSIS_DSP/Source/FilteringFunctions/arm_fir_q31.c ****                 pTempSrc += 4;
 588:../Dave/Generated/CMSIS_DSP/Source/FilteringFunctions/arm_fir_q31.c ****     
 589:../Dave/Generated/CMSIS_DSP/Source/FilteringFunctions/arm_fir_q31.c ****                 tapsBlkCnt = numTaps  / 4;
 590:../Dave/Generated/CMSIS_DSP/Source/FilteringFunctions/arm_fir_q31.c ****                 uint32_t       i = tapsBlkCnt;
 591:../Dave/Generated/CMSIS_DSP/Source/FilteringFunctions/arm_fir_q31.c ****                 while (i > 0U)
 592:../Dave/Generated/CMSIS_DSP/Source/FilteringFunctions/arm_fir_q31.c ****                 {
 593:../Dave/Generated/CMSIS_DSP/Source/FilteringFunctions/arm_fir_q31.c ****                     vecCoeffs = *(q31x4_t *) pCoeffsTmp;
 594:../Dave/Generated/CMSIS_DSP/Source/FilteringFunctions/arm_fir_q31.c **** 
 595:../Dave/Generated/CMSIS_DSP/Source/FilteringFunctions/arm_fir_q31.c ****                     vecIn0 = vld1q(pSamplesTmp);
 596:../Dave/Generated/CMSIS_DSP/Source/FilteringFunctions/arm_fir_q31.c ****                     acc0 = vrmlaldavhaq(acc0, vecIn0, vecCoeffs);
 597:../Dave/Generated/CMSIS_DSP/Source/FilteringFunctions/arm_fir_q31.c ****     
 598:../Dave/Generated/CMSIS_DSP/Source/FilteringFunctions/arm_fir_q31.c ****                     vecIn0 = vld1q(&pSamplesTmp[1]);
 599:../Dave/Generated/CMSIS_DSP/Source/FilteringFunctions/arm_fir_q31.c ****                     acc1 = vrmlaldavhaq(acc1, vecIn0, vecCoeffs);
 600:../Dave/Generated/CMSIS_DSP/Source/FilteringFunctions/arm_fir_q31.c ****     
 601:../Dave/Generated/CMSIS_DSP/Source/FilteringFunctions/arm_fir_q31.c ****                     vecIn0 = vld1q(&pSamplesTmp[2]);
 602:../Dave/Generated/CMSIS_DSP/Source/FilteringFunctions/arm_fir_q31.c ****                     acc2 = vrmlaldavhaq(acc2, vecIn0, vecCoeffs);
 603:../Dave/Generated/CMSIS_DSP/Source/FilteringFunctions/arm_fir_q31.c ****     
 604:../Dave/Generated/CMSIS_DSP/Source/FilteringFunctions/arm_fir_q31.c ****                     pSamplesTmp += 4;
 605:../Dave/Generated/CMSIS_DSP/Source/FilteringFunctions/arm_fir_q31.c ****                     pCoeffsTmp += 4;
 606:../Dave/Generated/CMSIS_DSP/Source/FilteringFunctions/arm_fir_q31.c ****                     i--;
 607:../Dave/Generated/CMSIS_DSP/Source/FilteringFunctions/arm_fir_q31.c ****                 }
 608:../Dave/Generated/CMSIS_DSP/Source/FilteringFunctions/arm_fir_q31.c **** 
 609:../Dave/Generated/CMSIS_DSP/Source/FilteringFunctions/arm_fir_q31.c ****                 tapsBlkCnt = (numTaps ) & 3;
 610:../Dave/Generated/CMSIS_DSP/Source/FilteringFunctions/arm_fir_q31.c ****                 
 611:../Dave/Generated/CMSIS_DSP/Source/FilteringFunctions/arm_fir_q31.c ****                 i = tapsBlkCnt ;
 612:../Dave/Generated/CMSIS_DSP/Source/FilteringFunctions/arm_fir_q31.c ****                 while (i > 0U)
 613:../Dave/Generated/CMSIS_DSP/Source/FilteringFunctions/arm_fir_q31.c ****                 {
 614:../Dave/Generated/CMSIS_DSP/Source/FilteringFunctions/arm_fir_q31.c ****                    
 615:../Dave/Generated/CMSIS_DSP/Source/FilteringFunctions/arm_fir_q31.c ****                     /* acc =  b[numTaps-1] * x[n-numTaps-1] + b[numTaps-2] * x[n-numTaps-2] + b[num
 616:../Dave/Generated/CMSIS_DSP/Source/FilteringFunctions/arm_fir_q31.c ****                     acc0 += ((q63_t) *pSamplesTmp * *pCoeffsTmp) >> 8;
 617:../Dave/Generated/CMSIS_DSP/Source/FilteringFunctions/arm_fir_q31.c ****                     acc1 += ((q63_t) pSamplesTmp[1] * *pCoeffsTmp) >> 8;
 618:../Dave/Generated/CMSIS_DSP/Source/FilteringFunctions/arm_fir_q31.c ****                     acc2 += ((q63_t) pSamplesTmp[2] * *pCoeffsTmp) >> 8;
 619:../Dave/Generated/CMSIS_DSP/Source/FilteringFunctions/arm_fir_q31.c ****     
 620:../Dave/Generated/CMSIS_DSP/Source/FilteringFunctions/arm_fir_q31.c ****                     pSamplesTmp += 1;
 621:../Dave/Generated/CMSIS_DSP/Source/FilteringFunctions/arm_fir_q31.c ****                     pCoeffsTmp += 1;
 622:../Dave/Generated/CMSIS_DSP/Source/FilteringFunctions/arm_fir_q31.c ****                     /*
 623:../Dave/Generated/CMSIS_DSP/Source/FilteringFunctions/arm_fir_q31.c ****                      * Decrement the taps block loop counter
 624:../Dave/Generated/CMSIS_DSP/Source/FilteringFunctions/arm_fir_q31.c ****                      */
 625:../Dave/Generated/CMSIS_DSP/Source/FilteringFunctions/arm_fir_q31.c ****                     i--;
 626:../Dave/Generated/CMSIS_DSP/Source/FilteringFunctions/arm_fir_q31.c ****                 }
 627:../Dave/Generated/CMSIS_DSP/Source/FilteringFunctions/arm_fir_q31.c ****     
 628:../Dave/Generated/CMSIS_DSP/Source/FilteringFunctions/arm_fir_q31.c ****     
 629:../Dave/Generated/CMSIS_DSP/Source/FilteringFunctions/arm_fir_q31.c ****                 acc0 = asrl(acc0, 23);
 630:../Dave/Generated/CMSIS_DSP/Source/FilteringFunctions/arm_fir_q31.c ****                 acc1 = asrl(acc1, 23);
 631:../Dave/Generated/CMSIS_DSP/Source/FilteringFunctions/arm_fir_q31.c ****                 acc2 = asrl(acc2, 23);
 632:../Dave/Generated/CMSIS_DSP/Source/FilteringFunctions/arm_fir_q31.c ****     
 633:../Dave/Generated/CMSIS_DSP/Source/FilteringFunctions/arm_fir_q31.c ****                 *pOutput++ = (q31_t) acc0;
 634:../Dave/Generated/CMSIS_DSP/Source/FilteringFunctions/arm_fir_q31.c ****                 *pOutput++ = (q31_t) acc1;
 635:../Dave/Generated/CMSIS_DSP/Source/FilteringFunctions/arm_fir_q31.c ****                 *pOutput++ = (q31_t) acc2;
 636:../Dave/Generated/CMSIS_DSP/Source/FilteringFunctions/arm_fir_q31.c ****             }
 637:../Dave/Generated/CMSIS_DSP/Source/FilteringFunctions/arm_fir_q31.c ****             break;
 638:../Dave/Generated/CMSIS_DSP/Source/FilteringFunctions/arm_fir_q31.c ****     
 639:../Dave/Generated/CMSIS_DSP/Source/FilteringFunctions/arm_fir_q31.c ****         case 2:
 640:../Dave/Generated/CMSIS_DSP/Source/FilteringFunctions/arm_fir_q31.c ****             {
 641:../Dave/Generated/CMSIS_DSP/Source/FilteringFunctions/arm_fir_q31.c ****                 const q31_t    *pCoeffsTmp = pCoeffs;
 642:../Dave/Generated/CMSIS_DSP/Source/FilteringFunctions/arm_fir_q31.c ****                 const q31_t    *pSamplesTmp = pSamples;
 643:../Dave/Generated/CMSIS_DSP/Source/FilteringFunctions/arm_fir_q31.c ****     
 644:../Dave/Generated/CMSIS_DSP/Source/FilteringFunctions/arm_fir_q31.c ****                 acc0 = 0LL;
 645:../Dave/Generated/CMSIS_DSP/Source/FilteringFunctions/arm_fir_q31.c ****                 acc1 = 0LL;
 646:../Dave/Generated/CMSIS_DSP/Source/FilteringFunctions/arm_fir_q31.c ****     
 647:../Dave/Generated/CMSIS_DSP/Source/FilteringFunctions/arm_fir_q31.c ****                 /*
 648:../Dave/Generated/CMSIS_DSP/Source/FilteringFunctions/arm_fir_q31.c ****                  * Save 4 input samples in the history buffer
 649:../Dave/Generated/CMSIS_DSP/Source/FilteringFunctions/arm_fir_q31.c ****                  */
 650:../Dave/Generated/CMSIS_DSP/Source/FilteringFunctions/arm_fir_q31.c ****                 vst1q(pStateCur, vld1q(pTempSrc));
 651:../Dave/Generated/CMSIS_DSP/Source/FilteringFunctions/arm_fir_q31.c ****                 pStateCur += 4;
 652:../Dave/Generated/CMSIS_DSP/Source/FilteringFunctions/arm_fir_q31.c ****                 pTempSrc += 4;
 653:../Dave/Generated/CMSIS_DSP/Source/FilteringFunctions/arm_fir_q31.c ****     
 654:../Dave/Generated/CMSIS_DSP/Source/FilteringFunctions/arm_fir_q31.c ****                 tapsBlkCnt = (numTaps ) / 4;
 655:../Dave/Generated/CMSIS_DSP/Source/FilteringFunctions/arm_fir_q31.c ****                 uint32_t       i = tapsBlkCnt;
 656:../Dave/Generated/CMSIS_DSP/Source/FilteringFunctions/arm_fir_q31.c ****                 while (i > 0U)
 657:../Dave/Generated/CMSIS_DSP/Source/FilteringFunctions/arm_fir_q31.c ****                 {
 658:../Dave/Generated/CMSIS_DSP/Source/FilteringFunctions/arm_fir_q31.c ****                     vecCoeffs = *(q31x4_t *) pCoeffsTmp;
 659:../Dave/Generated/CMSIS_DSP/Source/FilteringFunctions/arm_fir_q31.c ****     
 660:../Dave/Generated/CMSIS_DSP/Source/FilteringFunctions/arm_fir_q31.c ****                     vecIn0 = vld1q(pSamplesTmp);
 661:../Dave/Generated/CMSIS_DSP/Source/FilteringFunctions/arm_fir_q31.c ****                     acc0 = vrmlaldavhaq(acc0, vecIn0, vecCoeffs);
 662:../Dave/Generated/CMSIS_DSP/Source/FilteringFunctions/arm_fir_q31.c ****     
 663:../Dave/Generated/CMSIS_DSP/Source/FilteringFunctions/arm_fir_q31.c ****                     vecIn0 = vld1q(&pSamplesTmp[1]);
 664:../Dave/Generated/CMSIS_DSP/Source/FilteringFunctions/arm_fir_q31.c ****                     acc1 = vrmlaldavhaq(acc1, vecIn0, vecCoeffs);
 665:../Dave/Generated/CMSIS_DSP/Source/FilteringFunctions/arm_fir_q31.c ****     
 666:../Dave/Generated/CMSIS_DSP/Source/FilteringFunctions/arm_fir_q31.c ****                     pSamplesTmp += 4;
 667:../Dave/Generated/CMSIS_DSP/Source/FilteringFunctions/arm_fir_q31.c ****                     pCoeffsTmp += 4;
 668:../Dave/Generated/CMSIS_DSP/Source/FilteringFunctions/arm_fir_q31.c ****                     i--;
 669:../Dave/Generated/CMSIS_DSP/Source/FilteringFunctions/arm_fir_q31.c ****                 }
 670:../Dave/Generated/CMSIS_DSP/Source/FilteringFunctions/arm_fir_q31.c **** 
 671:../Dave/Generated/CMSIS_DSP/Source/FilteringFunctions/arm_fir_q31.c ****                 tapsBlkCnt = (numTaps ) & 3;
 672:../Dave/Generated/CMSIS_DSP/Source/FilteringFunctions/arm_fir_q31.c ****                 i = tapsBlkCnt ;
 673:../Dave/Generated/CMSIS_DSP/Source/FilteringFunctions/arm_fir_q31.c ****                 while (i > 0U)
 674:../Dave/Generated/CMSIS_DSP/Source/FilteringFunctions/arm_fir_q31.c ****                 {
 675:../Dave/Generated/CMSIS_DSP/Source/FilteringFunctions/arm_fir_q31.c ****                    
 676:../Dave/Generated/CMSIS_DSP/Source/FilteringFunctions/arm_fir_q31.c **** 
 677:../Dave/Generated/CMSIS_DSP/Source/FilteringFunctions/arm_fir_q31.c ****                     /* acc =  b[numTaps-1] * x[n-numTaps-1] + b[numTaps-2] * x[n-numTaps-2] + b[num
 678:../Dave/Generated/CMSIS_DSP/Source/FilteringFunctions/arm_fir_q31.c ****                     acc0 += ((q63_t) *pSamplesTmp * *pCoeffsTmp) >> 8;
 679:../Dave/Generated/CMSIS_DSP/Source/FilteringFunctions/arm_fir_q31.c ****                     acc1 += ((q63_t) pSamplesTmp[1] * *pCoeffsTmp) >> 8;
 680:../Dave/Generated/CMSIS_DSP/Source/FilteringFunctions/arm_fir_q31.c ****     
 681:../Dave/Generated/CMSIS_DSP/Source/FilteringFunctions/arm_fir_q31.c ****                     pSamplesTmp += 1;
 682:../Dave/Generated/CMSIS_DSP/Source/FilteringFunctions/arm_fir_q31.c ****                     pCoeffsTmp += 1;
 683:../Dave/Generated/CMSIS_DSP/Source/FilteringFunctions/arm_fir_q31.c ****                     /*
 684:../Dave/Generated/CMSIS_DSP/Source/FilteringFunctions/arm_fir_q31.c ****                      * Decrement the taps block loop counter
 685:../Dave/Generated/CMSIS_DSP/Source/FilteringFunctions/arm_fir_q31.c ****                      */
 686:../Dave/Generated/CMSIS_DSP/Source/FilteringFunctions/arm_fir_q31.c ****                     i--;
 687:../Dave/Generated/CMSIS_DSP/Source/FilteringFunctions/arm_fir_q31.c ****                 }
 688:../Dave/Generated/CMSIS_DSP/Source/FilteringFunctions/arm_fir_q31.c ****     
 689:../Dave/Generated/CMSIS_DSP/Source/FilteringFunctions/arm_fir_q31.c ****                 acc0 = asrl(acc0, 23);
 690:../Dave/Generated/CMSIS_DSP/Source/FilteringFunctions/arm_fir_q31.c ****                 acc1 = asrl(acc1, 23);
 691:../Dave/Generated/CMSIS_DSP/Source/FilteringFunctions/arm_fir_q31.c ****     
 692:../Dave/Generated/CMSIS_DSP/Source/FilteringFunctions/arm_fir_q31.c ****                 *pOutput++ = (q31_t) acc0;
 693:../Dave/Generated/CMSIS_DSP/Source/FilteringFunctions/arm_fir_q31.c ****                 *pOutput++ = (q31_t) acc1;
 694:../Dave/Generated/CMSIS_DSP/Source/FilteringFunctions/arm_fir_q31.c ****             }
 695:../Dave/Generated/CMSIS_DSP/Source/FilteringFunctions/arm_fir_q31.c ****             break;
 696:../Dave/Generated/CMSIS_DSP/Source/FilteringFunctions/arm_fir_q31.c ****     
 697:../Dave/Generated/CMSIS_DSP/Source/FilteringFunctions/arm_fir_q31.c ****         case 1:
 698:../Dave/Generated/CMSIS_DSP/Source/FilteringFunctions/arm_fir_q31.c ****             {
 699:../Dave/Generated/CMSIS_DSP/Source/FilteringFunctions/arm_fir_q31.c ****                 const q31_t    *pCoeffsTmp = pCoeffs;
 700:../Dave/Generated/CMSIS_DSP/Source/FilteringFunctions/arm_fir_q31.c ****                 const q31_t    *pSamplesTmp = pSamples;
 701:../Dave/Generated/CMSIS_DSP/Source/FilteringFunctions/arm_fir_q31.c ****     
 702:../Dave/Generated/CMSIS_DSP/Source/FilteringFunctions/arm_fir_q31.c ****                 acc0 = 0LL;
 703:../Dave/Generated/CMSIS_DSP/Source/FilteringFunctions/arm_fir_q31.c ****     
 704:../Dave/Generated/CMSIS_DSP/Source/FilteringFunctions/arm_fir_q31.c ****                 /*
 705:../Dave/Generated/CMSIS_DSP/Source/FilteringFunctions/arm_fir_q31.c ****                  * Save 4 input samples in the history buffer
 706:../Dave/Generated/CMSIS_DSP/Source/FilteringFunctions/arm_fir_q31.c ****                  */
 707:../Dave/Generated/CMSIS_DSP/Source/FilteringFunctions/arm_fir_q31.c ****                 vst1q(pStateCur, vld1q(pTempSrc));
 708:../Dave/Generated/CMSIS_DSP/Source/FilteringFunctions/arm_fir_q31.c ****                 pStateCur += 4;
 709:../Dave/Generated/CMSIS_DSP/Source/FilteringFunctions/arm_fir_q31.c ****                 pTempSrc += 4;
 710:../Dave/Generated/CMSIS_DSP/Source/FilteringFunctions/arm_fir_q31.c ****     
 711:../Dave/Generated/CMSIS_DSP/Source/FilteringFunctions/arm_fir_q31.c ****                 tapsBlkCnt = (numTaps ) / 4;
 712:../Dave/Generated/CMSIS_DSP/Source/FilteringFunctions/arm_fir_q31.c ****                 uint32_t       i = tapsBlkCnt;
 713:../Dave/Generated/CMSIS_DSP/Source/FilteringFunctions/arm_fir_q31.c ****                 while (i > 0U)
 714:../Dave/Generated/CMSIS_DSP/Source/FilteringFunctions/arm_fir_q31.c ****                 {
 715:../Dave/Generated/CMSIS_DSP/Source/FilteringFunctions/arm_fir_q31.c ****                     vecCoeffs = *(q31x4_t *) pCoeffsTmp;
 716:../Dave/Generated/CMSIS_DSP/Source/FilteringFunctions/arm_fir_q31.c ****     
 717:../Dave/Generated/CMSIS_DSP/Source/FilteringFunctions/arm_fir_q31.c ****                     vecIn0 = vld1q(pSamplesTmp);
 718:../Dave/Generated/CMSIS_DSP/Source/FilteringFunctions/arm_fir_q31.c ****                     acc0 = vrmlaldavhaq(acc0, vecIn0, vecCoeffs);
 719:../Dave/Generated/CMSIS_DSP/Source/FilteringFunctions/arm_fir_q31.c ****     
 720:../Dave/Generated/CMSIS_DSP/Source/FilteringFunctions/arm_fir_q31.c ****                     pSamplesTmp += 4;
 721:../Dave/Generated/CMSIS_DSP/Source/FilteringFunctions/arm_fir_q31.c ****                     pCoeffsTmp += 4;
 722:../Dave/Generated/CMSIS_DSP/Source/FilteringFunctions/arm_fir_q31.c ****                     i--;
 723:../Dave/Generated/CMSIS_DSP/Source/FilteringFunctions/arm_fir_q31.c ****                 }
 724:../Dave/Generated/CMSIS_DSP/Source/FilteringFunctions/arm_fir_q31.c **** 
 725:../Dave/Generated/CMSIS_DSP/Source/FilteringFunctions/arm_fir_q31.c ****                 tapsBlkCnt = (numTaps ) & 3;
 726:../Dave/Generated/CMSIS_DSP/Source/FilteringFunctions/arm_fir_q31.c ****                 i = tapsBlkCnt ;
 727:../Dave/Generated/CMSIS_DSP/Source/FilteringFunctions/arm_fir_q31.c ****                 while (i > 0U)
 728:../Dave/Generated/CMSIS_DSP/Source/FilteringFunctions/arm_fir_q31.c ****                 {
 729:../Dave/Generated/CMSIS_DSP/Source/FilteringFunctions/arm_fir_q31.c ****                    
 730:../Dave/Generated/CMSIS_DSP/Source/FilteringFunctions/arm_fir_q31.c **** 
 731:../Dave/Generated/CMSIS_DSP/Source/FilteringFunctions/arm_fir_q31.c ****                     /* acc =  b[numTaps-1] * x[n-numTaps-1] + b[numTaps-2] * x[n-numTaps-2] + b[num
 732:../Dave/Generated/CMSIS_DSP/Source/FilteringFunctions/arm_fir_q31.c ****                     acc0 += ((q63_t) *pSamplesTmp * *pCoeffsTmp) >> 8;
 733:../Dave/Generated/CMSIS_DSP/Source/FilteringFunctions/arm_fir_q31.c ****     
 734:../Dave/Generated/CMSIS_DSP/Source/FilteringFunctions/arm_fir_q31.c ****                     pSamplesTmp += 1;
 735:../Dave/Generated/CMSIS_DSP/Source/FilteringFunctions/arm_fir_q31.c ****                     pCoeffsTmp += 1;
 736:../Dave/Generated/CMSIS_DSP/Source/FilteringFunctions/arm_fir_q31.c ****                     /*
 737:../Dave/Generated/CMSIS_DSP/Source/FilteringFunctions/arm_fir_q31.c ****                      * Decrement the taps block loop counter
 738:../Dave/Generated/CMSIS_DSP/Source/FilteringFunctions/arm_fir_q31.c ****                      */
 739:../Dave/Generated/CMSIS_DSP/Source/FilteringFunctions/arm_fir_q31.c ****                     i--;
 740:../Dave/Generated/CMSIS_DSP/Source/FilteringFunctions/arm_fir_q31.c ****                 }
 741:../Dave/Generated/CMSIS_DSP/Source/FilteringFunctions/arm_fir_q31.c ****     
 742:../Dave/Generated/CMSIS_DSP/Source/FilteringFunctions/arm_fir_q31.c ****                 acc0 = asrl(acc0, 23);
 743:../Dave/Generated/CMSIS_DSP/Source/FilteringFunctions/arm_fir_q31.c ****     
 744:../Dave/Generated/CMSIS_DSP/Source/FilteringFunctions/arm_fir_q31.c ****                 *pOutput++ = (q31_t) acc0;
 745:../Dave/Generated/CMSIS_DSP/Source/FilteringFunctions/arm_fir_q31.c ****             }
 746:../Dave/Generated/CMSIS_DSP/Source/FilteringFunctions/arm_fir_q31.c ****             break;
 747:../Dave/Generated/CMSIS_DSP/Source/FilteringFunctions/arm_fir_q31.c ****         }
 748:../Dave/Generated/CMSIS_DSP/Source/FilteringFunctions/arm_fir_q31.c ****     }
 749:../Dave/Generated/CMSIS_DSP/Source/FilteringFunctions/arm_fir_q31.c ****     else
 750:../Dave/Generated/CMSIS_DSP/Source/FilteringFunctions/arm_fir_q31.c ****     {
 751:../Dave/Generated/CMSIS_DSP/Source/FilteringFunctions/arm_fir_q31.c ****          
 752:../Dave/Generated/CMSIS_DSP/Source/FilteringFunctions/arm_fir_q31.c ****                 q31_t *pStateCurnt;                            /* Points to the current sample of t
 753:../Dave/Generated/CMSIS_DSP/Source/FilteringFunctions/arm_fir_q31.c ****                 q31_t *px;                                     /* Temporary pointer for state buffe
 754:../Dave/Generated/CMSIS_DSP/Source/FilteringFunctions/arm_fir_q31.c ****           const q31_t *pb;                                     /* Temporary pointer for coefficient
 755:../Dave/Generated/CMSIS_DSP/Source/FilteringFunctions/arm_fir_q31.c ****                 q63_t acc0;                                    /* Accumulator */
 756:../Dave/Generated/CMSIS_DSP/Source/FilteringFunctions/arm_fir_q31.c ****                 uint32_t i, blkCnt;                    /* Loop counters */
 757:../Dave/Generated/CMSIS_DSP/Source/FilteringFunctions/arm_fir_q31.c ****           pStateCurnt = &(S->pState[(numTaps - 1U)]);
 758:../Dave/Generated/CMSIS_DSP/Source/FilteringFunctions/arm_fir_q31.c ****           blkCnt = blockSize;
 759:../Dave/Generated/CMSIS_DSP/Source/FilteringFunctions/arm_fir_q31.c ****         
 760:../Dave/Generated/CMSIS_DSP/Source/FilteringFunctions/arm_fir_q31.c ****           while (blkCnt > 0U)
 761:../Dave/Generated/CMSIS_DSP/Source/FilteringFunctions/arm_fir_q31.c ****           {
 762:../Dave/Generated/CMSIS_DSP/Source/FilteringFunctions/arm_fir_q31.c ****             /* Copy one sample at a time into state buffer */
 763:../Dave/Generated/CMSIS_DSP/Source/FilteringFunctions/arm_fir_q31.c ****             *pStateCurnt++ = *pSrc++;
 764:../Dave/Generated/CMSIS_DSP/Source/FilteringFunctions/arm_fir_q31.c ****         
 765:../Dave/Generated/CMSIS_DSP/Source/FilteringFunctions/arm_fir_q31.c ****             /* Set the accumulator to zero */
 766:../Dave/Generated/CMSIS_DSP/Source/FilteringFunctions/arm_fir_q31.c ****             acc0 = 0;
 767:../Dave/Generated/CMSIS_DSP/Source/FilteringFunctions/arm_fir_q31.c ****         
 768:../Dave/Generated/CMSIS_DSP/Source/FilteringFunctions/arm_fir_q31.c ****             /* Initialize state pointer */
 769:../Dave/Generated/CMSIS_DSP/Source/FilteringFunctions/arm_fir_q31.c ****             px = pState;
 770:../Dave/Generated/CMSIS_DSP/Source/FilteringFunctions/arm_fir_q31.c ****         
 771:../Dave/Generated/CMSIS_DSP/Source/FilteringFunctions/arm_fir_q31.c ****             /* Initialize Coefficient pointer */
 772:../Dave/Generated/CMSIS_DSP/Source/FilteringFunctions/arm_fir_q31.c ****             pb = pCoeffs;
 773:../Dave/Generated/CMSIS_DSP/Source/FilteringFunctions/arm_fir_q31.c ****         
 774:../Dave/Generated/CMSIS_DSP/Source/FilteringFunctions/arm_fir_q31.c ****             i = numTaps;
 775:../Dave/Generated/CMSIS_DSP/Source/FilteringFunctions/arm_fir_q31.c ****         
 776:../Dave/Generated/CMSIS_DSP/Source/FilteringFunctions/arm_fir_q31.c ****             /* Perform the multiply-accumulates */
 777:../Dave/Generated/CMSIS_DSP/Source/FilteringFunctions/arm_fir_q31.c ****             do
 778:../Dave/Generated/CMSIS_DSP/Source/FilteringFunctions/arm_fir_q31.c ****             {
 779:../Dave/Generated/CMSIS_DSP/Source/FilteringFunctions/arm_fir_q31.c ****               /* acc =  b[numTaps-1] * x[n-numTaps-1] + b[numTaps-2] * x[n-numTaps-2] + b[numTaps-3
 780:../Dave/Generated/CMSIS_DSP/Source/FilteringFunctions/arm_fir_q31.c ****               acc0 += (q63_t) *px++ * *pb++;
 781:../Dave/Generated/CMSIS_DSP/Source/FilteringFunctions/arm_fir_q31.c ****         
 782:../Dave/Generated/CMSIS_DSP/Source/FilteringFunctions/arm_fir_q31.c ****               i--;
 783:../Dave/Generated/CMSIS_DSP/Source/FilteringFunctions/arm_fir_q31.c ****             } while (i > 0U);
 784:../Dave/Generated/CMSIS_DSP/Source/FilteringFunctions/arm_fir_q31.c ****         
 785:../Dave/Generated/CMSIS_DSP/Source/FilteringFunctions/arm_fir_q31.c ****             /* Result is in 2.62 format. Convert to 1.31 and store in destination buffer. */
 786:../Dave/Generated/CMSIS_DSP/Source/FilteringFunctions/arm_fir_q31.c ****             *pDst++ = (q31_t) (acc0 >> 31U);
 787:../Dave/Generated/CMSIS_DSP/Source/FilteringFunctions/arm_fir_q31.c ****         
 788:../Dave/Generated/CMSIS_DSP/Source/FilteringFunctions/arm_fir_q31.c ****             /* Advance state pointer by 1 for the next sample */
 789:../Dave/Generated/CMSIS_DSP/Source/FilteringFunctions/arm_fir_q31.c ****             pState = pState + 1U;
 790:../Dave/Generated/CMSIS_DSP/Source/FilteringFunctions/arm_fir_q31.c ****         
 791:../Dave/Generated/CMSIS_DSP/Source/FilteringFunctions/arm_fir_q31.c ****             /* Decrement loop counter */
 792:../Dave/Generated/CMSIS_DSP/Source/FilteringFunctions/arm_fir_q31.c ****             blkCnt--;
 793:../Dave/Generated/CMSIS_DSP/Source/FilteringFunctions/arm_fir_q31.c ****         }
 794:../Dave/Generated/CMSIS_DSP/Source/FilteringFunctions/arm_fir_q31.c ****     }
 795:../Dave/Generated/CMSIS_DSP/Source/FilteringFunctions/arm_fir_q31.c **** 
 796:../Dave/Generated/CMSIS_DSP/Source/FilteringFunctions/arm_fir_q31.c ****     /*
 797:../Dave/Generated/CMSIS_DSP/Source/FilteringFunctions/arm_fir_q31.c ****      * Copy the samples back into the history buffer start
 798:../Dave/Generated/CMSIS_DSP/Source/FilteringFunctions/arm_fir_q31.c ****      */
 799:../Dave/Generated/CMSIS_DSP/Source/FilteringFunctions/arm_fir_q31.c ****     pTempSrc = &S->pState[blockSize];
 800:../Dave/Generated/CMSIS_DSP/Source/FilteringFunctions/arm_fir_q31.c ****     pTempDest = S->pState;
 801:../Dave/Generated/CMSIS_DSP/Source/FilteringFunctions/arm_fir_q31.c **** 
 802:../Dave/Generated/CMSIS_DSP/Source/FilteringFunctions/arm_fir_q31.c ****     blkCnt = numTaps >> 2;
 803:../Dave/Generated/CMSIS_DSP/Source/FilteringFunctions/arm_fir_q31.c ****     while (blkCnt > 0U)
 804:../Dave/Generated/CMSIS_DSP/Source/FilteringFunctions/arm_fir_q31.c ****     {
 805:../Dave/Generated/CMSIS_DSP/Source/FilteringFunctions/arm_fir_q31.c ****         vst1q(pTempDest, vld1q(pTempSrc));
 806:../Dave/Generated/CMSIS_DSP/Source/FilteringFunctions/arm_fir_q31.c ****         pTempSrc += 4;
 807:../Dave/Generated/CMSIS_DSP/Source/FilteringFunctions/arm_fir_q31.c ****         pTempDest += 4;
 808:../Dave/Generated/CMSIS_DSP/Source/FilteringFunctions/arm_fir_q31.c ****         blkCnt--;
 809:../Dave/Generated/CMSIS_DSP/Source/FilteringFunctions/arm_fir_q31.c ****     }
 810:../Dave/Generated/CMSIS_DSP/Source/FilteringFunctions/arm_fir_q31.c ****     blkCnt = numTaps & 3;
 811:../Dave/Generated/CMSIS_DSP/Source/FilteringFunctions/arm_fir_q31.c ****     if (blkCnt > 0U)
 812:../Dave/Generated/CMSIS_DSP/Source/FilteringFunctions/arm_fir_q31.c ****     {
 813:../Dave/Generated/CMSIS_DSP/Source/FilteringFunctions/arm_fir_q31.c ****         mve_pred16_t p0 = vctp32q(blkCnt);
 814:../Dave/Generated/CMSIS_DSP/Source/FilteringFunctions/arm_fir_q31.c ****         vstrwq_p_s32(pTempDest, vld1q(pTempSrc), p0);
 815:../Dave/Generated/CMSIS_DSP/Source/FilteringFunctions/arm_fir_q31.c ****     }
 816:../Dave/Generated/CMSIS_DSP/Source/FilteringFunctions/arm_fir_q31.c **** }
 817:../Dave/Generated/CMSIS_DSP/Source/FilteringFunctions/arm_fir_q31.c **** 
 818:../Dave/Generated/CMSIS_DSP/Source/FilteringFunctions/arm_fir_q31.c **** #else
 819:../Dave/Generated/CMSIS_DSP/Source/FilteringFunctions/arm_fir_q31.c **** void arm_fir_q31(
 820:../Dave/Generated/CMSIS_DSP/Source/FilteringFunctions/arm_fir_q31.c ****   const arm_fir_instance_q31 * S,
 821:../Dave/Generated/CMSIS_DSP/Source/FilteringFunctions/arm_fir_q31.c ****   const q31_t * pSrc,
 822:../Dave/Generated/CMSIS_DSP/Source/FilteringFunctions/arm_fir_q31.c ****         q31_t * pDst,
 823:../Dave/Generated/CMSIS_DSP/Source/FilteringFunctions/arm_fir_q31.c ****         uint32_t blockSize)
 824:../Dave/Generated/CMSIS_DSP/Source/FilteringFunctions/arm_fir_q31.c **** {
  28              	 .loc 1 824 0
  29              	 .cfi_startproc
  30              	 
  31              	 
  32 0000 F0B5     	 push {r4,r5,r6,r7,lr}
  33              	.LCFI0:
  34              	 .cfi_def_cfa_offset 20
  35              	 .cfi_offset 4,-20
  36              	 .cfi_offset 5,-16
  37              	 .cfi_offset 6,-12
  38              	 .cfi_offset 7,-8
  39              	 .cfi_offset 14,-4
  40 0002 91B0     	 sub sp,sp,#68
  41              	.LCFI1:
  42              	 .cfi_def_cfa_offset 88
  43 0004 00AF     	 add r7,sp,#0
  44              	.LCFI2:
  45              	 .cfi_def_cfa_register 7
  46 0006 F860     	 str r0,[r7,#12]
  47 0008 B960     	 str r1,[r7,#8]
  48 000a 7A60     	 str r2,[r7,#4]
  49 000c 3B60     	 str r3,[r7]
 825:../Dave/Generated/CMSIS_DSP/Source/FilteringFunctions/arm_fir_q31.c ****         q31_t *pState = S->pState;                     /* State pointer */
  50              	 .loc 1 825 0
  51 000e FB68     	 ldr r3,[r7,#12]
  52 0010 5B68     	 ldr r3,[r3,#4]
  53 0012 FB63     	 str r3,[r7,#60]
 826:../Dave/Generated/CMSIS_DSP/Source/FilteringFunctions/arm_fir_q31.c ****   const q31_t *pCoeffs = S->pCoeffs;                   /* Coefficient pointer */
  54              	 .loc 1 826 0
  55 0014 FB68     	 ldr r3,[r7,#12]
  56 0016 9B68     	 ldr r3,[r3,#8]
  57 0018 BB61     	 str r3,[r7,#24]
 827:../Dave/Generated/CMSIS_DSP/Source/FilteringFunctions/arm_fir_q31.c ****         q31_t *pStateCurnt;                            /* Points to the current sample of the state
 828:../Dave/Generated/CMSIS_DSP/Source/FilteringFunctions/arm_fir_q31.c ****         q31_t *px;                                     /* Temporary pointer for state buffer */
 829:../Dave/Generated/CMSIS_DSP/Source/FilteringFunctions/arm_fir_q31.c ****   const q31_t *pb;                                     /* Temporary pointer for coefficient buffer 
 830:../Dave/Generated/CMSIS_DSP/Source/FilteringFunctions/arm_fir_q31.c ****         q63_t acc0;                                    /* Accumulator */
 831:../Dave/Generated/CMSIS_DSP/Source/FilteringFunctions/arm_fir_q31.c ****         uint32_t numTaps = S->numTaps;                 /* Number of filter coefficients in the filt
  58              	 .loc 1 831 0
  59 001a FB68     	 ldr r3,[r7,#12]
  60 001c 1B88     	 ldrh r3,[r3]
  61 001e 7B61     	 str r3,[r7,#20]
 832:../Dave/Generated/CMSIS_DSP/Source/FilteringFunctions/arm_fir_q31.c ****         uint32_t i, tapCnt, blkCnt;                    /* Loop counters */
 833:../Dave/Generated/CMSIS_DSP/Source/FilteringFunctions/arm_fir_q31.c **** 
 834:../Dave/Generated/CMSIS_DSP/Source/FilteringFunctions/arm_fir_q31.c **** #if defined (ARM_MATH_LOOPUNROLL)
 835:../Dave/Generated/CMSIS_DSP/Source/FilteringFunctions/arm_fir_q31.c ****         q63_t acc1, acc2;                              /* Accumulators */
 836:../Dave/Generated/CMSIS_DSP/Source/FilteringFunctions/arm_fir_q31.c ****         q31_t x0, x1, x2;                              /* Temporary variables to hold state values 
 837:../Dave/Generated/CMSIS_DSP/Source/FilteringFunctions/arm_fir_q31.c ****         q31_t c0;                                      /* Temporary variable to hold coefficient va
 838:../Dave/Generated/CMSIS_DSP/Source/FilteringFunctions/arm_fir_q31.c **** #endif
 839:../Dave/Generated/CMSIS_DSP/Source/FilteringFunctions/arm_fir_q31.c **** 
 840:../Dave/Generated/CMSIS_DSP/Source/FilteringFunctions/arm_fir_q31.c ****   /* S->pState points to state array which contains previous frame (numTaps - 1) samples */
 841:../Dave/Generated/CMSIS_DSP/Source/FilteringFunctions/arm_fir_q31.c ****   /* pStateCurnt points to the location where the new input data should be written */
 842:../Dave/Generated/CMSIS_DSP/Source/FilteringFunctions/arm_fir_q31.c ****   pStateCurnt = &(S->pState[(numTaps - 1U)]);
  62              	 .loc 1 842 0
  63 0020 FB68     	 ldr r3,[r7,#12]
  64 0022 5A68     	 ldr r2,[r3,#4]
  65 0024 7B69     	 ldr r3,[r7,#20]
  66 0026 03F18043 	 add r3,r3,#1073741824
  67 002a 013B     	 subs r3,r3,#1
  68 002c 9B00     	 lsls r3,r3,#2
  69 002e 1344     	 add r3,r3,r2
  70 0030 BB63     	 str r3,[r7,#56]
 843:../Dave/Generated/CMSIS_DSP/Source/FilteringFunctions/arm_fir_q31.c **** 
 844:../Dave/Generated/CMSIS_DSP/Source/FilteringFunctions/arm_fir_q31.c **** #if defined (ARM_MATH_LOOPUNROLL)
 845:../Dave/Generated/CMSIS_DSP/Source/FilteringFunctions/arm_fir_q31.c **** 
 846:../Dave/Generated/CMSIS_DSP/Source/FilteringFunctions/arm_fir_q31.c ****   /* Loop unrolling: Compute 4 output values simultaneously.
 847:../Dave/Generated/CMSIS_DSP/Source/FilteringFunctions/arm_fir_q31.c ****    * The variables acc0 ... acc3 hold output values that are being computed:
 848:../Dave/Generated/CMSIS_DSP/Source/FilteringFunctions/arm_fir_q31.c ****    *
 849:../Dave/Generated/CMSIS_DSP/Source/FilteringFunctions/arm_fir_q31.c ****    *    acc0 =  b[numTaps-1] * x[n-numTaps-1] + b[numTaps-2] * x[n-numTaps-2] + b[numTaps-3] * x[n-
 850:../Dave/Generated/CMSIS_DSP/Source/FilteringFunctions/arm_fir_q31.c ****    *    acc1 =  b[numTaps-1] * x[n-numTaps]   + b[numTaps-2] * x[n-numTaps-1] + b[numTaps-3] * x[n-
 851:../Dave/Generated/CMSIS_DSP/Source/FilteringFunctions/arm_fir_q31.c ****    *    acc2 =  b[numTaps-1] * x[n-numTaps+1] + b[numTaps-2] * x[n-numTaps]   + b[numTaps-3] * x[n-
 852:../Dave/Generated/CMSIS_DSP/Source/FilteringFunctions/arm_fir_q31.c ****    *    acc3 =  b[numTaps-1] * x[n-numTaps+2] + b[numTaps-2] * x[n-numTaps+1] + b[numTaps-3] * x[n-
 853:../Dave/Generated/CMSIS_DSP/Source/FilteringFunctions/arm_fir_q31.c ****    */
 854:../Dave/Generated/CMSIS_DSP/Source/FilteringFunctions/arm_fir_q31.c **** 
 855:../Dave/Generated/CMSIS_DSP/Source/FilteringFunctions/arm_fir_q31.c ****   blkCnt = blockSize / 3;
 856:../Dave/Generated/CMSIS_DSP/Source/FilteringFunctions/arm_fir_q31.c **** 
 857:../Dave/Generated/CMSIS_DSP/Source/FilteringFunctions/arm_fir_q31.c ****   while (blkCnt > 0U)
 858:../Dave/Generated/CMSIS_DSP/Source/FilteringFunctions/arm_fir_q31.c ****   {
 859:../Dave/Generated/CMSIS_DSP/Source/FilteringFunctions/arm_fir_q31.c ****     /* Copy 3 new input samples into the state buffer. */
 860:../Dave/Generated/CMSIS_DSP/Source/FilteringFunctions/arm_fir_q31.c ****     *pStateCurnt++ = *pSrc++;
 861:../Dave/Generated/CMSIS_DSP/Source/FilteringFunctions/arm_fir_q31.c ****     *pStateCurnt++ = *pSrc++;
 862:../Dave/Generated/CMSIS_DSP/Source/FilteringFunctions/arm_fir_q31.c ****     *pStateCurnt++ = *pSrc++;
 863:../Dave/Generated/CMSIS_DSP/Source/FilteringFunctions/arm_fir_q31.c **** 
 864:../Dave/Generated/CMSIS_DSP/Source/FilteringFunctions/arm_fir_q31.c ****     /* Set all accumulators to zero */
 865:../Dave/Generated/CMSIS_DSP/Source/FilteringFunctions/arm_fir_q31.c ****     acc0 = 0;
 866:../Dave/Generated/CMSIS_DSP/Source/FilteringFunctions/arm_fir_q31.c ****     acc1 = 0;
 867:../Dave/Generated/CMSIS_DSP/Source/FilteringFunctions/arm_fir_q31.c ****     acc2 = 0;
 868:../Dave/Generated/CMSIS_DSP/Source/FilteringFunctions/arm_fir_q31.c **** 
 869:../Dave/Generated/CMSIS_DSP/Source/FilteringFunctions/arm_fir_q31.c ****     /* Initialize state pointer */
 870:../Dave/Generated/CMSIS_DSP/Source/FilteringFunctions/arm_fir_q31.c ****     px = pState;
 871:../Dave/Generated/CMSIS_DSP/Source/FilteringFunctions/arm_fir_q31.c **** 
 872:../Dave/Generated/CMSIS_DSP/Source/FilteringFunctions/arm_fir_q31.c ****     /* Initialize coefficient pointer */
 873:../Dave/Generated/CMSIS_DSP/Source/FilteringFunctions/arm_fir_q31.c ****     pb = pCoeffs;
 874:../Dave/Generated/CMSIS_DSP/Source/FilteringFunctions/arm_fir_q31.c **** 
 875:../Dave/Generated/CMSIS_DSP/Source/FilteringFunctions/arm_fir_q31.c ****     /* Read the first 2 samples from the state buffer: x[n-numTaps], x[n-numTaps-1] */
 876:../Dave/Generated/CMSIS_DSP/Source/FilteringFunctions/arm_fir_q31.c ****     x0 = *px++;
 877:../Dave/Generated/CMSIS_DSP/Source/FilteringFunctions/arm_fir_q31.c ****     x1 = *px++;
 878:../Dave/Generated/CMSIS_DSP/Source/FilteringFunctions/arm_fir_q31.c **** 
 879:../Dave/Generated/CMSIS_DSP/Source/FilteringFunctions/arm_fir_q31.c ****     /* Loop unrolling: process 3 taps at a time. */
 880:../Dave/Generated/CMSIS_DSP/Source/FilteringFunctions/arm_fir_q31.c ****     tapCnt = numTaps / 3;
 881:../Dave/Generated/CMSIS_DSP/Source/FilteringFunctions/arm_fir_q31.c **** 
 882:../Dave/Generated/CMSIS_DSP/Source/FilteringFunctions/arm_fir_q31.c ****     while (tapCnt > 0U)
 883:../Dave/Generated/CMSIS_DSP/Source/FilteringFunctions/arm_fir_q31.c ****     {
 884:../Dave/Generated/CMSIS_DSP/Source/FilteringFunctions/arm_fir_q31.c ****       /* Read the b[numTaps] coefficient */
 885:../Dave/Generated/CMSIS_DSP/Source/FilteringFunctions/arm_fir_q31.c ****       c0 = *pb;
 886:../Dave/Generated/CMSIS_DSP/Source/FilteringFunctions/arm_fir_q31.c **** 
 887:../Dave/Generated/CMSIS_DSP/Source/FilteringFunctions/arm_fir_q31.c ****       /* Read x[n-numTaps-2] sample */
 888:../Dave/Generated/CMSIS_DSP/Source/FilteringFunctions/arm_fir_q31.c ****       x2 = *(px++);
 889:../Dave/Generated/CMSIS_DSP/Source/FilteringFunctions/arm_fir_q31.c **** 
 890:../Dave/Generated/CMSIS_DSP/Source/FilteringFunctions/arm_fir_q31.c ****       /* Perform the multiply-accumulates */
 891:../Dave/Generated/CMSIS_DSP/Source/FilteringFunctions/arm_fir_q31.c ****       acc0 += ((q63_t) x0 * c0);
 892:../Dave/Generated/CMSIS_DSP/Source/FilteringFunctions/arm_fir_q31.c ****       acc1 += ((q63_t) x1 * c0);
 893:../Dave/Generated/CMSIS_DSP/Source/FilteringFunctions/arm_fir_q31.c ****       acc2 += ((q63_t) x2 * c0);
 894:../Dave/Generated/CMSIS_DSP/Source/FilteringFunctions/arm_fir_q31.c **** 
 895:../Dave/Generated/CMSIS_DSP/Source/FilteringFunctions/arm_fir_q31.c ****       /* Read the coefficient and state */
 896:../Dave/Generated/CMSIS_DSP/Source/FilteringFunctions/arm_fir_q31.c ****       c0 = *(pb + 1U);
 897:../Dave/Generated/CMSIS_DSP/Source/FilteringFunctions/arm_fir_q31.c ****       x0 = *(px++);
 898:../Dave/Generated/CMSIS_DSP/Source/FilteringFunctions/arm_fir_q31.c **** 
 899:../Dave/Generated/CMSIS_DSP/Source/FilteringFunctions/arm_fir_q31.c ****       /* Perform the multiply-accumulates */
 900:../Dave/Generated/CMSIS_DSP/Source/FilteringFunctions/arm_fir_q31.c ****       acc0 += ((q63_t) x1 * c0);
 901:../Dave/Generated/CMSIS_DSP/Source/FilteringFunctions/arm_fir_q31.c ****       acc1 += ((q63_t) x2 * c0);
 902:../Dave/Generated/CMSIS_DSP/Source/FilteringFunctions/arm_fir_q31.c ****       acc2 += ((q63_t) x0 * c0);
 903:../Dave/Generated/CMSIS_DSP/Source/FilteringFunctions/arm_fir_q31.c **** 
 904:../Dave/Generated/CMSIS_DSP/Source/FilteringFunctions/arm_fir_q31.c ****       /* Read the coefficient and state */
 905:../Dave/Generated/CMSIS_DSP/Source/FilteringFunctions/arm_fir_q31.c ****       c0 = *(pb + 2U);
 906:../Dave/Generated/CMSIS_DSP/Source/FilteringFunctions/arm_fir_q31.c ****       x1 = *(px++);
 907:../Dave/Generated/CMSIS_DSP/Source/FilteringFunctions/arm_fir_q31.c **** 
 908:../Dave/Generated/CMSIS_DSP/Source/FilteringFunctions/arm_fir_q31.c ****       /* update coefficient pointer */
 909:../Dave/Generated/CMSIS_DSP/Source/FilteringFunctions/arm_fir_q31.c ****       pb += 3U;
 910:../Dave/Generated/CMSIS_DSP/Source/FilteringFunctions/arm_fir_q31.c **** 
 911:../Dave/Generated/CMSIS_DSP/Source/FilteringFunctions/arm_fir_q31.c ****       /* Perform the multiply-accumulates */
 912:../Dave/Generated/CMSIS_DSP/Source/FilteringFunctions/arm_fir_q31.c ****       acc0 += ((q63_t) x2 * c0);
 913:../Dave/Generated/CMSIS_DSP/Source/FilteringFunctions/arm_fir_q31.c ****       acc1 += ((q63_t) x0 * c0);
 914:../Dave/Generated/CMSIS_DSP/Source/FilteringFunctions/arm_fir_q31.c ****       acc2 += ((q63_t) x1 * c0);
 915:../Dave/Generated/CMSIS_DSP/Source/FilteringFunctions/arm_fir_q31.c **** 
 916:../Dave/Generated/CMSIS_DSP/Source/FilteringFunctions/arm_fir_q31.c ****       /* Decrement loop counter */
 917:../Dave/Generated/CMSIS_DSP/Source/FilteringFunctions/arm_fir_q31.c ****       tapCnt--;
 918:../Dave/Generated/CMSIS_DSP/Source/FilteringFunctions/arm_fir_q31.c ****     }
 919:../Dave/Generated/CMSIS_DSP/Source/FilteringFunctions/arm_fir_q31.c **** 
 920:../Dave/Generated/CMSIS_DSP/Source/FilteringFunctions/arm_fir_q31.c ****     /* Loop unrolling: Compute remaining outputs */
 921:../Dave/Generated/CMSIS_DSP/Source/FilteringFunctions/arm_fir_q31.c ****     tapCnt = numTaps % 0x3U;
 922:../Dave/Generated/CMSIS_DSP/Source/FilteringFunctions/arm_fir_q31.c **** 
 923:../Dave/Generated/CMSIS_DSP/Source/FilteringFunctions/arm_fir_q31.c ****     while (tapCnt > 0U)
 924:../Dave/Generated/CMSIS_DSP/Source/FilteringFunctions/arm_fir_q31.c ****     {
 925:../Dave/Generated/CMSIS_DSP/Source/FilteringFunctions/arm_fir_q31.c ****       /* Read coefficients */
 926:../Dave/Generated/CMSIS_DSP/Source/FilteringFunctions/arm_fir_q31.c ****       c0 = *(pb++);
 927:../Dave/Generated/CMSIS_DSP/Source/FilteringFunctions/arm_fir_q31.c **** 
 928:../Dave/Generated/CMSIS_DSP/Source/FilteringFunctions/arm_fir_q31.c ****       /* Fetch 1 state variable */
 929:../Dave/Generated/CMSIS_DSP/Source/FilteringFunctions/arm_fir_q31.c ****       x2 = *(px++);
 930:../Dave/Generated/CMSIS_DSP/Source/FilteringFunctions/arm_fir_q31.c **** 
 931:../Dave/Generated/CMSIS_DSP/Source/FilteringFunctions/arm_fir_q31.c ****       /* Perform the multiply-accumulates */
 932:../Dave/Generated/CMSIS_DSP/Source/FilteringFunctions/arm_fir_q31.c ****       acc0 += ((q63_t) x0 * c0);
 933:../Dave/Generated/CMSIS_DSP/Source/FilteringFunctions/arm_fir_q31.c ****       acc1 += ((q63_t) x1 * c0);
 934:../Dave/Generated/CMSIS_DSP/Source/FilteringFunctions/arm_fir_q31.c ****       acc2 += ((q63_t) x2 * c0);
 935:../Dave/Generated/CMSIS_DSP/Source/FilteringFunctions/arm_fir_q31.c **** 
 936:../Dave/Generated/CMSIS_DSP/Source/FilteringFunctions/arm_fir_q31.c ****       /* Reuse the present sample states for next sample */
 937:../Dave/Generated/CMSIS_DSP/Source/FilteringFunctions/arm_fir_q31.c ****       x0 = x1;
 938:../Dave/Generated/CMSIS_DSP/Source/FilteringFunctions/arm_fir_q31.c ****       x1 = x2;
 939:../Dave/Generated/CMSIS_DSP/Source/FilteringFunctions/arm_fir_q31.c **** 
 940:../Dave/Generated/CMSIS_DSP/Source/FilteringFunctions/arm_fir_q31.c ****       /* Decrement loop counter */
 941:../Dave/Generated/CMSIS_DSP/Source/FilteringFunctions/arm_fir_q31.c ****       tapCnt--;
 942:../Dave/Generated/CMSIS_DSP/Source/FilteringFunctions/arm_fir_q31.c ****     }
 943:../Dave/Generated/CMSIS_DSP/Source/FilteringFunctions/arm_fir_q31.c **** 
 944:../Dave/Generated/CMSIS_DSP/Source/FilteringFunctions/arm_fir_q31.c ****     /* Advance the state pointer by 3 to process the next group of 3 samples */
 945:../Dave/Generated/CMSIS_DSP/Source/FilteringFunctions/arm_fir_q31.c ****     pState = pState + 3;
 946:../Dave/Generated/CMSIS_DSP/Source/FilteringFunctions/arm_fir_q31.c **** 
 947:../Dave/Generated/CMSIS_DSP/Source/FilteringFunctions/arm_fir_q31.c ****     /* The result is in 2.30 format. Convert to 1.31 and store in destination buffer. */
 948:../Dave/Generated/CMSIS_DSP/Source/FilteringFunctions/arm_fir_q31.c ****     *pDst++ = (q31_t) (acc0 >> 31U);
 949:../Dave/Generated/CMSIS_DSP/Source/FilteringFunctions/arm_fir_q31.c ****     *pDst++ = (q31_t) (acc1 >> 31U);
 950:../Dave/Generated/CMSIS_DSP/Source/FilteringFunctions/arm_fir_q31.c ****     *pDst++ = (q31_t) (acc2 >> 31U);
 951:../Dave/Generated/CMSIS_DSP/Source/FilteringFunctions/arm_fir_q31.c **** 
 952:../Dave/Generated/CMSIS_DSP/Source/FilteringFunctions/arm_fir_q31.c ****     /* Decrement loop counter */
 953:../Dave/Generated/CMSIS_DSP/Source/FilteringFunctions/arm_fir_q31.c ****     blkCnt--;
 954:../Dave/Generated/CMSIS_DSP/Source/FilteringFunctions/arm_fir_q31.c ****   }
 955:../Dave/Generated/CMSIS_DSP/Source/FilteringFunctions/arm_fir_q31.c **** 
 956:../Dave/Generated/CMSIS_DSP/Source/FilteringFunctions/arm_fir_q31.c ****   /* Loop unrolling: Compute remaining output samples */
 957:../Dave/Generated/CMSIS_DSP/Source/FilteringFunctions/arm_fir_q31.c ****   blkCnt = blockSize % 0x3U;
 958:../Dave/Generated/CMSIS_DSP/Source/FilteringFunctions/arm_fir_q31.c **** 
 959:../Dave/Generated/CMSIS_DSP/Source/FilteringFunctions/arm_fir_q31.c **** #else
 960:../Dave/Generated/CMSIS_DSP/Source/FilteringFunctions/arm_fir_q31.c **** 
 961:../Dave/Generated/CMSIS_DSP/Source/FilteringFunctions/arm_fir_q31.c ****   /* Initialize blkCnt with number of taps */
 962:../Dave/Generated/CMSIS_DSP/Source/FilteringFunctions/arm_fir_q31.c ****   blkCnt = blockSize;
  71              	 .loc 1 962 0
  72 0032 3B68     	 ldr r3,[r7]
  73 0034 FB61     	 str r3,[r7,#28]
 963:../Dave/Generated/CMSIS_DSP/Source/FilteringFunctions/arm_fir_q31.c **** 
 964:../Dave/Generated/CMSIS_DSP/Source/FilteringFunctions/arm_fir_q31.c **** #endif /* #if defined (ARM_MATH_LOOPUNROLL) */
 965:../Dave/Generated/CMSIS_DSP/Source/FilteringFunctions/arm_fir_q31.c **** 
 966:../Dave/Generated/CMSIS_DSP/Source/FilteringFunctions/arm_fir_q31.c ****   while (blkCnt > 0U)
  74              	 .loc 1 966 0
  75 0036 48E0     	 b .L2
  76              	.L4:
 967:../Dave/Generated/CMSIS_DSP/Source/FilteringFunctions/arm_fir_q31.c ****   {
 968:../Dave/Generated/CMSIS_DSP/Source/FilteringFunctions/arm_fir_q31.c ****     /* Copy one sample at a time into state buffer */
 969:../Dave/Generated/CMSIS_DSP/Source/FilteringFunctions/arm_fir_q31.c ****     *pStateCurnt++ = *pSrc++;
  77              	 .loc 1 969 0
  78 0038 BB6B     	 ldr r3,[r7,#56]
  79 003a 1A1D     	 adds r2,r3,#4
  80 003c BA63     	 str r2,[r7,#56]
  81 003e BA68     	 ldr r2,[r7,#8]
  82 0040 111D     	 adds r1,r2,#4
  83 0042 B960     	 str r1,[r7,#8]
  84 0044 1268     	 ldr r2,[r2]
  85 0046 1A60     	 str r2,[r3]
 970:../Dave/Generated/CMSIS_DSP/Source/FilteringFunctions/arm_fir_q31.c **** 
 971:../Dave/Generated/CMSIS_DSP/Source/FilteringFunctions/arm_fir_q31.c ****     /* Set the accumulator to zero */
 972:../Dave/Generated/CMSIS_DSP/Source/FilteringFunctions/arm_fir_q31.c ****     acc0 = 0;
  86              	 .loc 1 972 0
  87 0048 4FF00002 	 mov r2,#0
  88 004c 4FF00003 	 mov r3,#0
  89 0050 C7E90A23 	 strd r2,[r7,#40]
 973:../Dave/Generated/CMSIS_DSP/Source/FilteringFunctions/arm_fir_q31.c **** 
 974:../Dave/Generated/CMSIS_DSP/Source/FilteringFunctions/arm_fir_q31.c ****     /* Initialize state pointer */
 975:../Dave/Generated/CMSIS_DSP/Source/FilteringFunctions/arm_fir_q31.c ****     px = pState;
  90              	 .loc 1 975 0
  91 0054 FB6B     	 ldr r3,[r7,#60]
  92 0056 7B63     	 str r3,[r7,#52]
 976:../Dave/Generated/CMSIS_DSP/Source/FilteringFunctions/arm_fir_q31.c **** 
 977:../Dave/Generated/CMSIS_DSP/Source/FilteringFunctions/arm_fir_q31.c ****     /* Initialize Coefficient pointer */
 978:../Dave/Generated/CMSIS_DSP/Source/FilteringFunctions/arm_fir_q31.c ****     pb = pCoeffs;
  93              	 .loc 1 978 0
  94 0058 BB69     	 ldr r3,[r7,#24]
  95 005a 3B63     	 str r3,[r7,#48]
 979:../Dave/Generated/CMSIS_DSP/Source/FilteringFunctions/arm_fir_q31.c **** 
 980:../Dave/Generated/CMSIS_DSP/Source/FilteringFunctions/arm_fir_q31.c ****     i = numTaps;
  96              	 .loc 1 980 0
  97 005c 7B69     	 ldr r3,[r7,#20]
  98 005e 7B62     	 str r3,[r7,#36]
  99              	.L3:
 981:../Dave/Generated/CMSIS_DSP/Source/FilteringFunctions/arm_fir_q31.c **** 
 982:../Dave/Generated/CMSIS_DSP/Source/FilteringFunctions/arm_fir_q31.c ****     /* Perform the multiply-accumulates */
 983:../Dave/Generated/CMSIS_DSP/Source/FilteringFunctions/arm_fir_q31.c ****     do
 984:../Dave/Generated/CMSIS_DSP/Source/FilteringFunctions/arm_fir_q31.c ****     {
 985:../Dave/Generated/CMSIS_DSP/Source/FilteringFunctions/arm_fir_q31.c ****       /* acc =  b[numTaps-1] * x[n-numTaps-1] + b[numTaps-2] * x[n-numTaps-2] + b[numTaps-3] * x[n-
 986:../Dave/Generated/CMSIS_DSP/Source/FilteringFunctions/arm_fir_q31.c ****       acc0 += (q63_t) *px++ * *pb++;
 100              	 .loc 1 986 0 discriminator 1
 101 0060 7B6B     	 ldr r3,[r7,#52]
 102 0062 1A1D     	 adds r2,r3,#4
 103 0064 7A63     	 str r2,[r7,#52]
 104 0066 1B68     	 ldr r3,[r3]
 105 0068 1846     	 mov r0,r3
 106 006a 4FEAE071 	 asr r1,r0,#31
 107 006e 3B6B     	 ldr r3,[r7,#48]
 108 0070 1A1D     	 adds r2,r3,#4
 109 0072 3A63     	 str r2,[r7,#48]
 110 0074 1B68     	 ldr r3,[r3]
 111 0076 1A46     	 mov r2,r3
 112 0078 4FEAE273 	 asr r3,r2,#31
 113 007c 02FB01FE 	 mul lr,r2,r1
 114 0080 00FB03F6 	 mul r6,r0,r3
 115 0084 7644     	 add r6,r6,lr
 116 0086 A0FB0223 	 umull r2,r3,r0,r2
 117 008a F118     	 adds r1,r6,r3
 118 008c 0B46     	 mov r3,r1
 119 008e D7E90A01 	 ldrd r0,[r7,#40]
 120 0092 1218     	 adds r2,r2,r0
 121 0094 43EB0103 	 adc r3,r3,r1
 122 0098 C7E90A23 	 strd r2,[r7,#40]
 987:../Dave/Generated/CMSIS_DSP/Source/FilteringFunctions/arm_fir_q31.c **** 
 988:../Dave/Generated/CMSIS_DSP/Source/FilteringFunctions/arm_fir_q31.c ****       i--;
 123              	 .loc 1 988 0 discriminator 1
 124 009c 7B6A     	 ldr r3,[r7,#36]
 125 009e 013B     	 subs r3,r3,#1
 126 00a0 7B62     	 str r3,[r7,#36]
 989:../Dave/Generated/CMSIS_DSP/Source/FilteringFunctions/arm_fir_q31.c ****     } while (i > 0U);
 127              	 .loc 1 989 0 discriminator 1
 128 00a2 7B6A     	 ldr r3,[r7,#36]
 129 00a4 002B     	 cmp r3,#0
 130 00a6 DBD1     	 bne .L3
 990:../Dave/Generated/CMSIS_DSP/Source/FilteringFunctions/arm_fir_q31.c **** 
 991:../Dave/Generated/CMSIS_DSP/Source/FilteringFunctions/arm_fir_q31.c ****     /* Result is in 2.62 format. Convert to 1.31 and store in destination buffer. */
 992:../Dave/Generated/CMSIS_DSP/Source/FilteringFunctions/arm_fir_q31.c ****     *pDst++ = (q31_t) (acc0 >> 31U);
 131              	 .loc 1 992 0
 132 00a8 7968     	 ldr r1,[r7,#4]
 133 00aa 0B1D     	 adds r3,r1,#4
 134 00ac 7B60     	 str r3,[r7,#4]
 135 00ae D7E90A23 	 ldrd r2,[r7,#40]
 136 00b2 D40F     	 lsrs r4,r2,#31
 137 00b4 44EA4304 	 orr r4,r4,r3,lsl#1
 138 00b8 DD17     	 asrs r5,r3,#31
 139 00ba 2346     	 mov r3,r4
 140 00bc 0B60     	 str r3,[r1]
 993:../Dave/Generated/CMSIS_DSP/Source/FilteringFunctions/arm_fir_q31.c **** 
 994:../Dave/Generated/CMSIS_DSP/Source/FilteringFunctions/arm_fir_q31.c ****     /* Advance state pointer by 1 for the next sample */
 995:../Dave/Generated/CMSIS_DSP/Source/FilteringFunctions/arm_fir_q31.c ****     pState = pState + 1U;
 141              	 .loc 1 995 0
 142 00be FB6B     	 ldr r3,[r7,#60]
 143 00c0 0433     	 adds r3,r3,#4
 144 00c2 FB63     	 str r3,[r7,#60]
 996:../Dave/Generated/CMSIS_DSP/Source/FilteringFunctions/arm_fir_q31.c **** 
 997:../Dave/Generated/CMSIS_DSP/Source/FilteringFunctions/arm_fir_q31.c ****     /* Decrement loop counter */
 998:../Dave/Generated/CMSIS_DSP/Source/FilteringFunctions/arm_fir_q31.c ****     blkCnt--;
 145              	 .loc 1 998 0
 146 00c4 FB69     	 ldr r3,[r7,#28]
 147 00c6 013B     	 subs r3,r3,#1
 148 00c8 FB61     	 str r3,[r7,#28]
 149              	.L2:
 966:../Dave/Generated/CMSIS_DSP/Source/FilteringFunctions/arm_fir_q31.c ****   {
 150              	 .loc 1 966 0
 151 00ca FB69     	 ldr r3,[r7,#28]
 152 00cc 002B     	 cmp r3,#0
 153 00ce B3D1     	 bne .L4
 999:../Dave/Generated/CMSIS_DSP/Source/FilteringFunctions/arm_fir_q31.c ****   }
1000:../Dave/Generated/CMSIS_DSP/Source/FilteringFunctions/arm_fir_q31.c **** 
1001:../Dave/Generated/CMSIS_DSP/Source/FilteringFunctions/arm_fir_q31.c ****   /* Processing is complete.
1002:../Dave/Generated/CMSIS_DSP/Source/FilteringFunctions/arm_fir_q31.c ****      Now copy the last numTaps - 1 samples to the start of the state buffer.
1003:../Dave/Generated/CMSIS_DSP/Source/FilteringFunctions/arm_fir_q31.c ****      This prepares the state buffer for the next function call. */
1004:../Dave/Generated/CMSIS_DSP/Source/FilteringFunctions/arm_fir_q31.c **** 
1005:../Dave/Generated/CMSIS_DSP/Source/FilteringFunctions/arm_fir_q31.c ****   /* Points to the start of the state buffer */
1006:../Dave/Generated/CMSIS_DSP/Source/FilteringFunctions/arm_fir_q31.c ****   pStateCurnt = S->pState;
 154              	 .loc 1 1006 0
 155 00d0 FB68     	 ldr r3,[r7,#12]
 156 00d2 5B68     	 ldr r3,[r3,#4]
 157 00d4 BB63     	 str r3,[r7,#56]
1007:../Dave/Generated/CMSIS_DSP/Source/FilteringFunctions/arm_fir_q31.c **** 
1008:../Dave/Generated/CMSIS_DSP/Source/FilteringFunctions/arm_fir_q31.c **** #if defined (ARM_MATH_LOOPUNROLL)
1009:../Dave/Generated/CMSIS_DSP/Source/FilteringFunctions/arm_fir_q31.c **** 
1010:../Dave/Generated/CMSIS_DSP/Source/FilteringFunctions/arm_fir_q31.c ****   /* Loop unrolling: Compute 4 taps at a time */
1011:../Dave/Generated/CMSIS_DSP/Source/FilteringFunctions/arm_fir_q31.c ****   tapCnt = (numTaps - 1U) >> 2U;
1012:../Dave/Generated/CMSIS_DSP/Source/FilteringFunctions/arm_fir_q31.c **** 
1013:../Dave/Generated/CMSIS_DSP/Source/FilteringFunctions/arm_fir_q31.c ****   /* Copy data */
1014:../Dave/Generated/CMSIS_DSP/Source/FilteringFunctions/arm_fir_q31.c ****   while (tapCnt > 0U)
1015:../Dave/Generated/CMSIS_DSP/Source/FilteringFunctions/arm_fir_q31.c ****   {
1016:../Dave/Generated/CMSIS_DSP/Source/FilteringFunctions/arm_fir_q31.c ****     *pStateCurnt++ = *pState++;
1017:../Dave/Generated/CMSIS_DSP/Source/FilteringFunctions/arm_fir_q31.c ****     *pStateCurnt++ = *pState++;
1018:../Dave/Generated/CMSIS_DSP/Source/FilteringFunctions/arm_fir_q31.c ****     *pStateCurnt++ = *pState++;
1019:../Dave/Generated/CMSIS_DSP/Source/FilteringFunctions/arm_fir_q31.c ****     *pStateCurnt++ = *pState++;
1020:../Dave/Generated/CMSIS_DSP/Source/FilteringFunctions/arm_fir_q31.c **** 
1021:../Dave/Generated/CMSIS_DSP/Source/FilteringFunctions/arm_fir_q31.c ****     /* Decrement loop counter */
1022:../Dave/Generated/CMSIS_DSP/Source/FilteringFunctions/arm_fir_q31.c ****     tapCnt--;
1023:../Dave/Generated/CMSIS_DSP/Source/FilteringFunctions/arm_fir_q31.c ****   }
1024:../Dave/Generated/CMSIS_DSP/Source/FilteringFunctions/arm_fir_q31.c **** 
1025:../Dave/Generated/CMSIS_DSP/Source/FilteringFunctions/arm_fir_q31.c ****   /* Calculate remaining number of copies */
1026:../Dave/Generated/CMSIS_DSP/Source/FilteringFunctions/arm_fir_q31.c ****   tapCnt = (numTaps - 1U) % 0x4U;
1027:../Dave/Generated/CMSIS_DSP/Source/FilteringFunctions/arm_fir_q31.c **** 
1028:../Dave/Generated/CMSIS_DSP/Source/FilteringFunctions/arm_fir_q31.c **** #else
1029:../Dave/Generated/CMSIS_DSP/Source/FilteringFunctions/arm_fir_q31.c **** 
1030:../Dave/Generated/CMSIS_DSP/Source/FilteringFunctions/arm_fir_q31.c ****   /* Initialize tapCnt with number of taps */
1031:../Dave/Generated/CMSIS_DSP/Source/FilteringFunctions/arm_fir_q31.c ****   tapCnt = (numTaps - 1U);
 158              	 .loc 1 1031 0
 159 00d6 7B69     	 ldr r3,[r7,#20]
 160 00d8 013B     	 subs r3,r3,#1
 161 00da 3B62     	 str r3,[r7,#32]
1032:../Dave/Generated/CMSIS_DSP/Source/FilteringFunctions/arm_fir_q31.c **** 
1033:../Dave/Generated/CMSIS_DSP/Source/FilteringFunctions/arm_fir_q31.c **** #endif /* #if defined (ARM_MATH_LOOPUNROLL) */
1034:../Dave/Generated/CMSIS_DSP/Source/FilteringFunctions/arm_fir_q31.c **** 
1035:../Dave/Generated/CMSIS_DSP/Source/FilteringFunctions/arm_fir_q31.c ****   /* Copy remaining data */
1036:../Dave/Generated/CMSIS_DSP/Source/FilteringFunctions/arm_fir_q31.c ****   while (tapCnt > 0U)
 162              	 .loc 1 1036 0
 163 00dc 0AE0     	 b .L5
 164              	.L6:
1037:../Dave/Generated/CMSIS_DSP/Source/FilteringFunctions/arm_fir_q31.c ****   {
1038:../Dave/Generated/CMSIS_DSP/Source/FilteringFunctions/arm_fir_q31.c ****     *pStateCurnt++ = *pState++;
 165              	 .loc 1 1038 0
 166 00de BB6B     	 ldr r3,[r7,#56]
 167 00e0 1A1D     	 adds r2,r3,#4
 168 00e2 BA63     	 str r2,[r7,#56]
 169 00e4 FA6B     	 ldr r2,[r7,#60]
 170 00e6 111D     	 adds r1,r2,#4
 171 00e8 F963     	 str r1,[r7,#60]
 172 00ea 1268     	 ldr r2,[r2]
 173 00ec 1A60     	 str r2,[r3]
1039:../Dave/Generated/CMSIS_DSP/Source/FilteringFunctions/arm_fir_q31.c **** 
1040:../Dave/Generated/CMSIS_DSP/Source/FilteringFunctions/arm_fir_q31.c ****     /* Decrement loop counter */
1041:../Dave/Generated/CMSIS_DSP/Source/FilteringFunctions/arm_fir_q31.c ****     tapCnt--;
 174              	 .loc 1 1041 0
 175 00ee 3B6A     	 ldr r3,[r7,#32]
 176 00f0 013B     	 subs r3,r3,#1
 177 00f2 3B62     	 str r3,[r7,#32]
 178              	.L5:
1036:../Dave/Generated/CMSIS_DSP/Source/FilteringFunctions/arm_fir_q31.c ****   {
 179              	 .loc 1 1036 0
 180 00f4 3B6A     	 ldr r3,[r7,#32]
 181 00f6 002B     	 cmp r3,#0
 182 00f8 F1D1     	 bne .L6
1042:../Dave/Generated/CMSIS_DSP/Source/FilteringFunctions/arm_fir_q31.c ****   }
1043:../Dave/Generated/CMSIS_DSP/Source/FilteringFunctions/arm_fir_q31.c **** 
1044:../Dave/Generated/CMSIS_DSP/Source/FilteringFunctions/arm_fir_q31.c **** }
 183              	 .loc 1 1044 0
 184 00fa 4437     	 adds r7,r7,#68
 185              	.LCFI3:
 186              	 .cfi_def_cfa_offset 20
 187 00fc BD46     	 mov sp,r7
 188              	.LCFI4:
 189              	 .cfi_def_cfa_register 13
 190              	 
 191 00fe F0BD     	 pop {r4,r5,r6,r7,pc}
 192              	 .cfi_endproc
 193              	.LFE149:
 195              	 .text
 196              	.Letext0:
 197              	 .file 2 "c:\\infineon\\tools\\dave ide\\4.5.0.202105191637\\eclipse\\arm-gcc-49\\arm-none-eabi\\include\\machine\\_default_types.h"
 198              	 .file 3 "c:\\infineon\\tools\\dave ide\\4.5.0.202105191637\\eclipse\\arm-gcc-49\\arm-none-eabi\\include\\stdint.h"
 199              	 .file 4 "C:/Users/Rui Mendes/Desktop/DAVE/_Naive/_ForTesting/Dave/Generated/CMSIS_DSP/Include/arm_math.h"
 200              	 .file 5 "C:/Users/Rui Mendes/Desktop/DAVE/_Naive/_ForTesting/Libraries/CMSIS/Include/cmsis_gcc.h"