   1              	 .syntax unified
   2              	 .cpu cortex-m4
   3              	 .eabi_attribute 27,3
   4              	 .fpu fpv4-sp-d16
   5              	 .eabi_attribute 20,1
   6              	 .eabi_attribute 21,1
   7              	 .eabi_attribute 23,3
   8              	 .eabi_attribute 24,1
   9              	 .eabi_attribute 25,1
  10              	 .eabi_attribute 26,1
  11              	 .eabi_attribute 30,6
  12              	 .eabi_attribute 34,1
  13              	 .eabi_attribute 18,4
  14              	 .thumb
  15              	 .file "main.c"
  16              	 .text
  17              	.Ltext0:
  18              	 .cfi_sections .debug_frame
  19              	 .comm Controller,68,4
  20              	 .comm RPM,4,4
  21              	 .global time
  22              	 .section .bss.time,"aw",%nobits
  23              	 .align 2
  26              	time:
  27 0000 00000000 	 .space 4
  28              	 .comm RPM_REF,4,4
  29              	 .comm Ia,4,4
  30              	 .comm Ib,4,4
  31              	 .comm Ic,4,4
  32              	 .global __aeabi_f2d
  33              	 .global __aeabi_dmul
  34              	 .global __aeabi_d2f
  35              	 .global __aeabi_dadd
  36              	 .global __aeabi_dcmpge
  37              	 .section .text.CCU43_1_IRQHandler,"ax",%progbits
  38              	 .align 2
  39              	 .global CCU43_1_IRQHandler
  40              	 .thumb
  41              	 .thumb_func
  43              	CCU43_1_IRQHandler:
  44              	.LFB375:
  45              	 .file 1 "../main.c"
   1:../main.c     **** #include <DAVE.h>
   2:../main.c     **** #include "FOC.h"
   3:../main.c     **** #include <probe_scope.h>
   4:../main.c     **** #include <probe_scope_cfg.h>
   5:../main.c     **** 
   6:../main.c     **** #define TICKS_PER_SECOND 12000
   7:../main.c     **** #define SECOND_PER_TICKS 0.001f
   8:../main.c     **** 
   9:../main.c     **** #define KpSpeed 10
  10:../main.c     **** #define KiSpeed 0.01
  11:../main.c     **** #define T_PI_RPM 0.1
  12:../main.c     **** #define ControlLoopTime 8.3333333333333333333333333333333e-5;
  13:../main.c     **** 
  14:../main.c     **** /*
  15:../main.c     ****  * 0 - Stand alone inverter (SVM & Bellow Nominal Current Ref)
  16:../main.c     ****  * 1 - Open loop motor test (Nominal Id and Iq Curents)
  17:../main.c     ****  * 2 - Closed loop motor test (no-load,0.75 nominal speed ref)
  18:../main.c     ****  * 3 - Closed loop motor test (0.5 load,nominal speed ref)
  19:../main.c     ****  * 4 - Closed loop nominal load test
  20:../main.c     ****  */
  21:../main.c     **** #define TestVal 0
  22:../main.c     **** 
  23:../main.c     **** // Global Variables
  24:../main.c     **** FOC Controller;
  25:../main.c     **** float RPM;
  26:../main.c     **** float time = 0;
  27:../main.c     **** float RPM_REF;
  28:../main.c     **** float Ia,Ib,Ic;
  29:../main.c     **** 
  30:../main.c     **** // Speed Controller
  31:../main.c     **** /*
  32:../main.c     ****  * @brief PI Speed controller tuned to a slower dynamic response then current controller
  33:../main.c     ****  * @params RPM_Val Current speed value in RPM
  34:../main.c     ****  * @params Controller_Var FOC structure, function will change IqRef value limited to IQ_LIM
  35:../main.c     ****  */
  36:../main.c     **** void SpeedController(float RPM_Val, FOC Controller_Var);
  37:../main.c     **** 
  38:../main.c     **** // Field Weakening
  39:../main.c     **** /*
  40:../main.c     ****  * @brief Implements field weakening by reducing Id reference from nominal when current speed is gr
  41:../main.c     ****  *  					wNominal
  42:../main.c     ****  * Id = IdNominal * ----------------
  43:../main.c     ****  * 							w
  44:../main.c     ****  * @params RPM_Val Current speed value in RPM
  45:../main.c     ****  * @params Controller_Var FOC structure, function will change IdRef value limited to ID_MIN
  46:../main.c     ****  */
  47:../main.c     **** void FieldWeakening(float RPM_Val, FOC Controller_Var);
  48:../main.c     **** 
  49:../main.c     **** void ControlLoop(void)
  50:../main.c     **** {
  46              	 .loc 1 50 0
  47              	 .cfi_startproc
  48              	 
  49              	 
  50 0000 80B5     	 push {r7,lr}
  51              	.LCFI0:
  52              	 .cfi_def_cfa_offset 8
  53              	 .cfi_offset 7,-8
  54              	 .cfi_offset 14,-4
  55 0002 00AF     	 add r7,sp,#0
  56              	.LCFI1:
  57              	 .cfi_def_cfa_register 7
  51:../main.c     **** 	Ia = sin(time*2*PI*50);
  58              	 .loc 1 51 0
  59 0004 7A4B     	 ldr r3,.L5+40
  60 0006 D3ED007A 	 flds s15,[r3]
  61 000a 77EEA77A 	 fadds s15,s15,s15
  62 000e 17EE900A 	 fmrs r0,s15
  63 0012 FFF7FEFF 	 bl __aeabi_f2d
  64 0016 0246     	 mov r2,r0
  65 0018 0B46     	 mov r3,r1
  66 001a 1046     	 mov r0,r2
  67 001c 1946     	 mov r1,r3
  68 001e 6AA3     	 adr r3,.L5
  69 0020 D3E90023 	 ldrd r2,[r3]
  70 0024 FFF7FEFF 	 bl __aeabi_dmul
  71 0028 0246     	 mov r2,r0
  72 002a 0B46     	 mov r3,r1
  73 002c 1046     	 mov r0,r2
  74 002e 1946     	 mov r1,r3
  75 0030 4FF00002 	 mov r2,#0
  76 0034 6F4B     	 ldr r3,.L5+44
  77 0036 FFF7FEFF 	 bl __aeabi_dmul
  78 003a 0246     	 mov r2,r0
  79 003c 0B46     	 mov r3,r1
  80 003e 1046     	 mov r0,r2
  81 0040 1946     	 mov r1,r3
  82 0042 FFF7FEFF 	 bl sin
  83 0046 0246     	 mov r2,r0
  84 0048 0B46     	 mov r3,r1
  85 004a 1046     	 mov r0,r2
  86 004c 1946     	 mov r1,r3
  87 004e FFF7FEFF 	 bl __aeabi_d2f
  88 0052 0246     	 mov r2,r0
  89 0054 684B     	 ldr r3,.L5+48
  90 0056 1A60     	 str r2,[r3]
  52:../main.c     **** 	Ib = sin(time*2*PI*50 + 0.5*PI);
  91              	 .loc 1 52 0
  92 0058 654B     	 ldr r3,.L5+40
  93 005a D3ED007A 	 flds s15,[r3]
  94 005e 77EEA77A 	 fadds s15,s15,s15
  95 0062 17EE900A 	 fmrs r0,s15
  96 0066 FFF7FEFF 	 bl __aeabi_f2d
  97 006a 0246     	 mov r2,r0
  98 006c 0B46     	 mov r3,r1
  99 006e 1046     	 mov r0,r2
 100 0070 1946     	 mov r1,r3
 101 0072 55A3     	 adr r3,.L5
 102 0074 D3E90023 	 ldrd r2,[r3]
 103 0078 FFF7FEFF 	 bl __aeabi_dmul
 104 007c 0246     	 mov r2,r0
 105 007e 0B46     	 mov r3,r1
 106 0080 1046     	 mov r0,r2
 107 0082 1946     	 mov r1,r3
 108 0084 4FF00002 	 mov r2,#0
 109 0088 5A4B     	 ldr r3,.L5+44
 110 008a FFF7FEFF 	 bl __aeabi_dmul
 111 008e 0246     	 mov r2,r0
 112 0090 0B46     	 mov r3,r1
 113 0092 1046     	 mov r0,r2
 114 0094 1946     	 mov r1,r3
 115 0096 4EA3     	 adr r3,.L5+8
 116 0098 D3E90023 	 ldrd r2,[r3]
 117 009c FFF7FEFF 	 bl __aeabi_dadd
 118 00a0 0246     	 mov r2,r0
 119 00a2 0B46     	 mov r3,r1
 120 00a4 1046     	 mov r0,r2
 121 00a6 1946     	 mov r1,r3
 122 00a8 FFF7FEFF 	 bl sin
 123 00ac 0246     	 mov r2,r0
 124 00ae 0B46     	 mov r3,r1
 125 00b0 1046     	 mov r0,r2
 126 00b2 1946     	 mov r1,r3
 127 00b4 FFF7FEFF 	 bl __aeabi_d2f
 128 00b8 0246     	 mov r2,r0
 129 00ba 504B     	 ldr r3,.L5+52
 130 00bc 1A60     	 str r2,[r3]
  53:../main.c     **** 	Ic = sin(time*2*PI*50 + 1.333333333333333*PI);
 131              	 .loc 1 53 0
 132 00be 4C4B     	 ldr r3,.L5+40
 133 00c0 D3ED007A 	 flds s15,[r3]
 134 00c4 77EEA77A 	 fadds s15,s15,s15
 135 00c8 17EE900A 	 fmrs r0,s15
 136 00cc FFF7FEFF 	 bl __aeabi_f2d
 137 00d0 0246     	 mov r2,r0
 138 00d2 0B46     	 mov r3,r1
 139 00d4 1046     	 mov r0,r2
 140 00d6 1946     	 mov r1,r3
 141 00d8 3BA3     	 adr r3,.L5
 142 00da D3E90023 	 ldrd r2,[r3]
 143 00de FFF7FEFF 	 bl __aeabi_dmul
 144 00e2 0246     	 mov r2,r0
 145 00e4 0B46     	 mov r3,r1
 146 00e6 1046     	 mov r0,r2
 147 00e8 1946     	 mov r1,r3
 148 00ea 4FF00002 	 mov r2,#0
 149 00ee 414B     	 ldr r3,.L5+44
 150 00f0 FFF7FEFF 	 bl __aeabi_dmul
 151 00f4 0246     	 mov r2,r0
 152 00f6 0B46     	 mov r3,r1
 153 00f8 1046     	 mov r0,r2
 154 00fa 1946     	 mov r1,r3
 155 00fc 36A3     	 adr r3,.L5+16
 156 00fe D3E90023 	 ldrd r2,[r3]
 157 0102 FFF7FEFF 	 bl __aeabi_dadd
 158 0106 0246     	 mov r2,r0
 159 0108 0B46     	 mov r3,r1
 160 010a 1046     	 mov r0,r2
 161 010c 1946     	 mov r1,r3
 162 010e FFF7FEFF 	 bl sin
 163 0112 0246     	 mov r2,r0
 164 0114 0B46     	 mov r3,r1
 165 0116 1046     	 mov r0,r2
 166 0118 1946     	 mov r1,r3
 167 011a FFF7FEFF 	 bl __aeabi_d2f
 168 011e 0246     	 mov r2,r0
 169 0120 374B     	 ldr r3,.L5+56
 170 0122 1A60     	 str r2,[r3]
  54:../main.c     **** 
  55:../main.c     **** 	RPM = SpeedSensor(Ia,Ib);
 171              	 .loc 1 55 0
 172 0124 344B     	 ldr r3,.L5+48
 173 0126 1A68     	 ldr r2,[r3]
 174 0128 344B     	 ldr r3,.L5+52
 175 012a 1B68     	 ldr r3,[r3]
 176 012c 1046     	 mov r0,r2
 177 012e 1946     	 mov r1,r3
 178 0130 FFF7FEFF 	 bl SpeedSensor
 179 0134 0246     	 mov r2,r0
 180 0136 334B     	 ldr r3,.L5+60
 181 0138 1A60     	 str r2,[r3]
  56:../main.c     **** 	time += ControlLoopTime;
 182              	 .loc 1 56 0
 183 013a 2D4B     	 ldr r3,.L5+40
 184 013c 1B68     	 ldr r3,[r3]
 185 013e 1846     	 mov r0,r3
 186 0140 FFF7FEFF 	 bl __aeabi_f2d
 187 0144 0246     	 mov r2,r0
 188 0146 0B46     	 mov r3,r1
 189 0148 1046     	 mov r0,r2
 190 014a 1946     	 mov r1,r3
 191 014c 24A3     	 adr r3,.L5+24
 192 014e D3E90023 	 ldrd r2,[r3]
 193 0152 FFF7FEFF 	 bl __aeabi_dadd
 194 0156 0246     	 mov r2,r0
 195 0158 0B46     	 mov r3,r1
 196 015a 1046     	 mov r0,r2
 197 015c 1946     	 mov r1,r3
 198 015e FFF7FEFF 	 bl __aeabi_d2f
 199 0162 0246     	 mov r2,r0
 200 0164 224B     	 ldr r3,.L5+40
 201 0166 1A60     	 str r2,[r3]
  57:../main.c     **** 	if(time*2*PI*50 >= 2*PI)
 202              	 .loc 1 57 0
 203 0168 214B     	 ldr r3,.L5+40
 204 016a D3ED007A 	 flds s15,[r3]
 205 016e 77EEA77A 	 fadds s15,s15,s15
 206 0172 17EE900A 	 fmrs r0,s15
 207 0176 FFF7FEFF 	 bl __aeabi_f2d
 208 017a 0246     	 mov r2,r0
 209 017c 0B46     	 mov r3,r1
 210 017e 1046     	 mov r0,r2
 211 0180 1946     	 mov r1,r3
 212 0182 11A3     	 adr r3,.L5
 213 0184 D3E90023 	 ldrd r2,[r3]
 214 0188 FFF7FEFF 	 bl __aeabi_dmul
 215 018c 0246     	 mov r2,r0
 216 018e 0B46     	 mov r3,r1
 217 0190 1046     	 mov r0,r2
 218 0192 1946     	 mov r1,r3
 219 0194 4FF00002 	 mov r2,#0
 220 0198 164B     	 ldr r3,.L5+44
 221 019a FFF7FEFF 	 bl __aeabi_dmul
 222 019e 0246     	 mov r2,r0
 223 01a0 0B46     	 mov r3,r1
 224 01a2 1046     	 mov r0,r2
 225 01a4 1946     	 mov r1,r3
 226 01a6 10A3     	 adr r3,.L5+32
 227 01a8 D3E90023 	 ldrd r2,[r3]
 228 01ac FFF7FEFF 	 bl __aeabi_dcmpge
 229 01b0 0346     	 mov r3,r0
 230 01b2 002B     	 cmp r3,#0
 231 01b4 03D0     	 beq .L2
  58:../main.c     **** 		time = 0;
 232              	 .loc 1 58 0
 233 01b6 0E4B     	 ldr r3,.L5+40
 234 01b8 4FF00002 	 mov r2,#0
 235 01bc 1A60     	 str r2,[r3]
 236              	.L2:
  59:../main.c     **** 	/*
  60:../main.c     **** 	ClarkeTransform(0,Ia,Ib,Ic,0,0,0,&Controller);
  61:../main.c     **** 	Controller.Theta = time*2*PI*50;
  62:../main.c     **** 	ParkTransform(&Controller);*/
  63:../main.c     **** 	ProbeScope_Sampling();
 237              	 .loc 1 63 0
 238 01be FFF7FEFF 	 bl ProbeScope_Sampling
  64:../main.c     **** }
 239              	 .loc 1 64 0
 240 01c2 80BD     	 pop {r7,pc}
 241              	.L6:
 242 01c4 AFF30080 	 .align 3
 243              	.L5:
 244 01c8 EA2E4454 	 .word 1413754602
 245 01cc FB210940 	 .word 1074340347
 246 01d0 EA2E4454 	 .word 1413754602
 247 01d4 FB21F93F 	 .word 1073291771
 248 01d8 9B742D38 	 .word 942503067
 249 01dc 52C11040 	 .word 1074839890
 250 01e0 A5E2ECC3 	 .word -1007885659
 251 01e4 67D8153F 	 .word 1058396263
 252 01e8 EA2E4454 	 .word 1413754602
 253 01ec FB211940 	 .word 1075388923
 254 01f0 00000000 	 .word time
 255 01f4 00004940 	 .word 1078525952
 256 01f8 00000000 	 .word Ia
 257 01fc 00000000 	 .word Ib
 258 0200 00000000 	 .word Ic
 259 0204 00000000 	 .word RPM
 260              	 .cfi_endproc
 261              	.LFE375:
 263              	 .section .text.main,"ax",%progbits
 264              	 .align 2
 265              	 .global main
 266              	 .thumb
 267              	 .thumb_func
 269              	main:
 270              	.LFB376:
  65:../main.c     **** 
  66:../main.c     **** int main(void)
  67:../main.c     **** {
 271              	 .loc 1 67 0
 272              	 .cfi_startproc
 273              	 
 274              	 
 275 0000 80B5     	 push {r7,lr}
 276              	.LCFI2:
 277              	 .cfi_def_cfa_offset 8
 278              	 .cfi_offset 7,-8
 279              	 .cfi_offset 14,-4
 280 0002 82B0     	 sub sp,sp,#8
 281              	.LCFI3:
 282              	 .cfi_def_cfa_offset 16
 283 0004 00AF     	 add r7,sp,#0
 284              	.LCFI4:
 285              	 .cfi_def_cfa_register 7
  68:../main.c     **** 	DAVE_STATUS_t status;
  69:../main.c     **** 	status = DAVE_Init();
 286              	 .loc 1 69 0
 287 0006 FFF7FEFF 	 bl DAVE_Init
 288 000a 0346     	 mov r3,r0
 289 000c FB71     	 strb r3,[r7,#7]
  70:../main.c     **** 	/* Initialization of DAVE APPs  */
  71:../main.c     **** 	if (status != DAVE_STATUS_SUCCESS)
 290              	 .loc 1 71 0
 291 000e FB79     	 ldrb r3,[r7,#7]
 292 0010 002B     	 cmp r3,#0
 293 0012 00D0     	 beq .L8
 294              	.L9:
  72:../main.c     **** 	{
  73:../main.c     **** 		/* Placeholder for error handler code. The while loop below can be replaced with an user error ha
  74:../main.c     **** 		XMC_DEBUG("DAVE APPs initialization failed\n");
  75:../main.c     **** 		while (1U)
  76:../main.c     **** 		{
  77:../main.c     **** 		}
 295              	 .loc 1 77 0 discriminator 1
 296 0014 FEE7     	 b .L9
 297              	.L8:
  78:../main.c     **** 	}
  79:../main.c     **** 	PWM_SVM_Start(&PWM_SVM_0);
 298              	 .loc 1 79 0
 299 0016 0648     	 ldr r0,.L11
 300 0018 FFF7FEFF 	 bl PWM_SVM_Start
  80:../main.c     **** 	ProbeScope_Init(SystemCoreClock / TICKS_PER_SECOND); /// for micrium uScope
 301              	 .loc 1 80 0
 302 001c 054B     	 ldr r3,.L11+4
 303 001e 1B68     	 ldr r3,[r3]
 304 0020 054A     	 ldr r2,.L11+8
 305 0022 A2FB0323 	 umull r2,r3,r2,r3
 306 0026 1B0A     	 lsrs r3,r3,#8
 307 0028 1846     	 mov r0,r3
 308 002a FFF7FEFF 	 bl ProbeScope_Init
 309              	.L10:
  81:../main.c     **** 	/* Placeholder for user application code. The while loop below can be replaced with user applicati
  82:../main.c     **** 	while (1U)
  83:../main.c     **** 	{
  84:../main.c     **** 
  85:../main.c     **** 	}
 310              	 .loc 1 85 0 discriminator 2
 311 002e FEE7     	 b .L10
 312              	.L12:
 313              	 .align 2
 314              	.L11:
 315 0030 00000000 	 .word PWM_SVM_0
 316 0034 00000000 	 .word SystemCoreClock
 317 0038 F1197605 	 .word 91625969
 318              	 .cfi_endproc
 319              	.LFE376:
 321              	 .section .text.SpeedController,"ax",%progbits
 322              	 .align 2
 323              	 .global SpeedController
 324              	 .thumb
 325              	 .thumb_func
 327              	SpeedController:
 328              	.LFB377:
  86:../main.c     **** }
  87:../main.c     **** 
  88:../main.c     **** void SpeedController(float RPM_Val, FOC Controller_Var)
  89:../main.c     **** {
 329              	 .loc 1 89 0
 330              	 .cfi_startproc
 331              	 
 332              	 
 333 0000 84B0     	 sub sp,sp,#16
 334              	.LCFI5:
 335              	 .cfi_def_cfa_offset 16
 336 0002 B0B5     	 push {r4,r5,r7,lr}
 337              	.LCFI6:
 338              	 .cfi_def_cfa_offset 32
 339              	 .cfi_offset 4,-32
 340              	 .cfi_offset 5,-28
 341              	 .cfi_offset 7,-24
 342              	 .cfi_offset 14,-20
 343 0004 84B0     	 sub sp,sp,#16
 344              	.LCFI7:
 345              	 .cfi_def_cfa_offset 48
 346 0006 00AF     	 add r7,sp,#0
 347              	.LCFI8:
 348              	 .cfi_def_cfa_register 7
 349 0008 7860     	 str r0,[r7,#4]
 350 000a 07F12400 	 add r0,r7,#36
 351 000e 80E80E00 	 stmia r0,{r1,r2,r3}
  90:../main.c     **** 	static float AccmErrRPM = 0, AuxRPM = 0;
  91:../main.c     **** 
  92:../main.c     **** 	float ErrRPM = RPM_REF - RPM_Val;
 352              	 .loc 1 92 0
 353 0012 374B     	 ldr r3,.L14+16
 354 0014 93ED007A 	 flds s14,[r3]
 355 0018 D7ED017A 	 flds s15,[r7,#4]
 356 001c 77EE677A 	 fsubs s15,s14,s15
 357 0020 C7ED037A 	 fsts s15,[r7,#12]
  93:../main.c     **** 
  94:../main.c     **** 	AuxRPM += 0.5 * T_PI_RPM * (ErrRPM + AccmErrRPM);
 358              	 .loc 1 94 0
 359 0024 334B     	 ldr r3,.L14+20
 360 0026 1B68     	 ldr r3,[r3]
 361 0028 1846     	 mov r0,r3
 362 002a FFF7FEFF 	 bl __aeabi_f2d
 363 002e 0446     	 mov r4,r0
 364 0030 0D46     	 mov r5,r1
 365 0032 314B     	 ldr r3,.L14+24
 366 0034 93ED007A 	 flds s14,[r3]
 367 0038 D7ED037A 	 flds s15,[r7,#12]
 368 003c 77EE277A 	 fadds s15,s14,s15
 369 0040 17EE900A 	 fmrs r0,s15
 370 0044 FFF7FEFF 	 bl __aeabi_f2d
 371 0048 0246     	 mov r2,r0
 372 004a 0B46     	 mov r3,r1
 373 004c 1046     	 mov r0,r2
 374 004e 1946     	 mov r1,r3
 375 0050 23A3     	 adr r3,.L14
 376 0052 D3E90023 	 ldrd r2,[r3]
 377 0056 FFF7FEFF 	 bl __aeabi_dmul
 378 005a 0246     	 mov r2,r0
 379 005c 0B46     	 mov r3,r1
 380 005e 2046     	 mov r0,r4
 381 0060 2946     	 mov r1,r5
 382 0062 FFF7FEFF 	 bl __aeabi_dadd
 383 0066 0246     	 mov r2,r0
 384 0068 0B46     	 mov r3,r1
 385 006a 1046     	 mov r0,r2
 386 006c 1946     	 mov r1,r3
 387 006e FFF7FEFF 	 bl __aeabi_d2f
 388 0072 0246     	 mov r2,r0
 389 0074 1F4B     	 ldr r3,.L14+20
 390 0076 1A60     	 str r2,[r3]
  95:../main.c     **** 
  96:../main.c     **** 	Controller_Var.Iq_Ref = AuxRPM * KiSpeed + ErrRPM * KpSpeed;
 391              	 .loc 1 96 0
 392 0078 1E4B     	 ldr r3,.L14+20
 393 007a 1B68     	 ldr r3,[r3]
 394 007c 1846     	 mov r0,r3
 395 007e FFF7FEFF 	 bl __aeabi_f2d
 396 0082 0246     	 mov r2,r0
 397 0084 0B46     	 mov r3,r1
 398 0086 1046     	 mov r0,r2
 399 0088 1946     	 mov r1,r3
 400 008a 17A3     	 adr r3,.L14+8
 401 008c D3E90023 	 ldrd r2,[r3]
 402 0090 FFF7FEFF 	 bl __aeabi_dmul
 403 0094 0246     	 mov r2,r0
 404 0096 0B46     	 mov r3,r1
 405 0098 1446     	 mov r4,r2
 406 009a 1D46     	 mov r5,r3
 407 009c D7ED037A 	 flds s15,[r7,#12]
 408 00a0 B2EE047A 	 fconsts s14,#36
 409 00a4 67EE877A 	 fmuls s15,s15,s14
 410 00a8 17EE900A 	 fmrs r0,s15
 411 00ac FFF7FEFF 	 bl __aeabi_f2d
 412 00b0 0246     	 mov r2,r0
 413 00b2 0B46     	 mov r3,r1
 414 00b4 2046     	 mov r0,r4
 415 00b6 2946     	 mov r1,r5
 416 00b8 FFF7FEFF 	 bl __aeabi_dadd
 417 00bc 0246     	 mov r2,r0
 418 00be 0B46     	 mov r3,r1
 419 00c0 1046     	 mov r0,r2
 420 00c2 1946     	 mov r1,r3
 421 00c4 FFF7FEFF 	 bl __aeabi_d2f
 422 00c8 0346     	 mov r3,r0
 423 00ca 7B65     	 str r3,[r7,#84]
  97:../main.c     **** 
  98:../main.c     **** 	AccmErrRPM = ErrRPM;
 424              	 .loc 1 98 0
 425 00cc 0A4A     	 ldr r2,.L14+24
 426 00ce FB68     	 ldr r3,[r7,#12]
 427 00d0 1360     	 str r3,[r2]
  99:../main.c     **** }
 428              	 .loc 1 99 0
 429 00d2 1037     	 adds r7,r7,#16
 430              	.LCFI9:
 431              	 .cfi_def_cfa_offset 32
 432 00d4 BD46     	 mov sp,r7
 433              	.LCFI10:
 434              	 .cfi_def_cfa_register 13
 435              	 
 436 00d6 BDE8B040 	 pop {r4,r5,r7,lr}
 437              	.LCFI11:
 438              	 .cfi_restore 14
 439              	 .cfi_restore 7
 440              	 .cfi_restore 5
 441              	 .cfi_restore 4
 442              	 .cfi_def_cfa_offset 16
 443 00da 04B0     	 add sp,sp,#16
 444              	.LCFI12:
 445              	 .cfi_def_cfa_offset 0
 446 00dc 7047     	 bx lr
 447              	.L15:
 448 00de 00BF     	 .align 3
 449              	.L14:
 450 00e0 9A999999 	 .word -1717986918
 451 00e4 9999A93F 	 .word 1068079513
 452 00e8 7B14AE47 	 .word 1202590843
 453 00ec E17A843F 	 .word 1065646817
 454 00f0 00000000 	 .word RPM_REF
 455 00f4 00000000 	 .word AuxRPM.11163
 456 00f8 00000000 	 .word AccmErrRPM.11162
 457              	 .cfi_endproc
 458              	.LFE377:
 460 00fc AFF30080 	 .section .text.FieldWeakening,"ax",%progbits
 461              	 .align 2
 462              	 .global FieldWeakening
 463              	 .thumb
 464              	 .thumb_func
 466              	FieldWeakening:
 467              	.LFB378:
 100:../main.c     **** void FieldWeakening(float RPM_Val, FOC Controller_Var)
 101:../main.c     **** {
 468              	 .loc 1 101 0
 469              	 .cfi_startproc
 470              	 
 471              	 
 472              	 
 473 0000 84B0     	 sub sp,sp,#16
 474              	.LCFI13:
 475              	 .cfi_def_cfa_offset 16
 476 0002 80B4     	 push {r7}
 477              	.LCFI14:
 478              	 .cfi_def_cfa_offset 20
 479              	 .cfi_offset 7,-20
 480 0004 83B0     	 sub sp,sp,#12
 481              	.LCFI15:
 482              	 .cfi_def_cfa_offset 32
 483 0006 00AF     	 add r7,sp,#0
 484              	.LCFI16:
 485              	 .cfi_def_cfa_register 7
 486 0008 7860     	 str r0,[r7,#4]
 487 000a 07F11400 	 add r0,r7,#20
 488 000e 80E80E00 	 stmia r0,{r1,r2,r3}
 102:../main.c     **** 	if (RPM_Val > RPM_NOMINAL)
 489              	 .loc 1 102 0
 490 0012 D7ED017A 	 flds s15,[r7,#4]
 491 0016 9FED0C7A 	 flds s14,.L22
 492 001a F4EEC77A 	 fcmpes s15,s14
 493 001e F1EE10FA 	 fmstat
 494 0022 08DD     	 ble .L21
 103:../main.c     **** 	{
 104:../main.c     **** 		Controller_Var.Id_Ref = ID_NOMINAL * RPM_NOMINAL / RPM_Val;
 495              	 .loc 1 104 0
 496 0024 9FED097A 	 flds s14,.L22+4
 497 0028 D7ED017A 	 flds s15,[r7,#4]
 498 002c C7EE277A 	 fdivs s15,s14,s15
 499 0030 C7ED107A 	 fsts s15,[r7,#64]
 500 0034 01E0     	 b .L16
 501              	.L21:
 105:../main.c     **** 	}
 106:../main.c     **** 	else
 107:../main.c     **** 		Controller_Var.Id_Ref = ID_NOMINAL;
 502              	 .loc 1 107 0
 503 0036 064B     	 ldr r3,.L22+8
 504 0038 3B64     	 str r3,[r7,#64]
 505              	.L16:
 108:../main.c     **** }
 506              	 .loc 1 108 0
 507 003a 0C37     	 adds r7,r7,#12
 508              	.LCFI17:
 509              	 .cfi_def_cfa_offset 20
 510 003c BD46     	 mov sp,r7
 511              	.LCFI18:
 512              	 .cfi_def_cfa_register 13
 513              	 
 514 003e 5DF8047B 	 ldr r7,[sp],#4
 515              	.LCFI19:
 516              	 .cfi_restore 7
 517              	 .cfi_def_cfa_offset 16
 518 0042 04B0     	 add sp,sp,#16
 519              	.LCFI20:
 520              	 .cfi_def_cfa_offset 0
 521 0044 7047     	 bx lr
 522              	.L23:
 523 0046 00BF     	 .align 2
 524              	.L22:
 525 0048 0080BB44 	 .word 1153138688
 526 004c 0085B647 	 .word 1203143936
 527 0050 33337942 	 .word 1115239219
 528              	 .cfi_endproc
 529              	.LFE378:
 531              	 .section .bss.AuxRPM.11163,"aw",%nobits
 532              	 .align 2
 535              	AuxRPM.11163:
 536 0000 00000000 	 .space 4
 537              	 .section .bss.AccmErrRPM.11162,"aw",%nobits
 538              	 .align 2
 541              	AccmErrRPM.11162:
 542 0000 00000000 	 .space 4
 543              	 .text
 544              	.Letext0:
 545              	 .file 2 "c:\\infineon\\tools\\dave ide\\4.5.0.202105191637\\eclipse\\arm-gcc-49\\arm-none-eabi\\include\\machine\\_default_types.h"
 546              	 .file 3 "c:\\infineon\\tools\\dave ide\\4.5.0.202105191637\\eclipse\\arm-gcc-49\\arm-none-eabi\\include\\stdint.h"
 547              	 .file 4 "C:/Users/Rui Mendes/Desktop/DAVE/Dissertation/Dissertation_TCU/_FullProject/Libraries/CMSIS/Infineon/XMC4500_series/Include/XMC4500.h"
 548              	 .file 5 "C:/Users/Rui Mendes/Desktop/DAVE/Dissertation/Dissertation_TCU/_FullProject/Libraries/XMCLib/inc/xmc4_scu.h"
 549              	 .file 6 "C:/Users/Rui Mendes/Desktop/DAVE/Dissertation/Dissertation_TCU/_FullProject/Libraries/XMCLib/inc/xmc_gpio.h"
 550              	 .file 7 "C:/Users/Rui Mendes/Desktop/DAVE/Dissertation/Dissertation_TCU/_FullProject/Libraries/XMCLib/inc/xmc4_gpio.h"
 551              	 .file 8 "C:/Users/Rui Mendes/Desktop/DAVE/Dissertation/Dissertation_TCU/_FullProject/Libraries/XMCLib/inc/xmc_ccu8.h"
 552              	 .file 9 "C:/Users/Rui Mendes/Desktop/DAVE/Dissertation/Dissertation_TCU/_FullProject/Dave/Generated/GLOBAL_CCU8/global_ccu8.h"
 553              	 .file 10 "C:/Users/Rui Mendes/Desktop/DAVE/Dissertation/Dissertation_TCU/_FullProject/Dave/Generated/PWM_SVM/pwm_svm.h"
 554              	 .file 11 "C:/Users/Rui Mendes/Desktop/DAVE/Dissertation/Dissertation_TCU/_FullProject/Dave/Generated/DAVE.h"
 555              	 .file 12 "../FOC.h"
 556              	 .file 13 "C:/Users/Rui Mendes/Desktop/DAVE/Dissertation/Dissertation_TCU/_FullProject/Libraries/CMSIS/Include/cmsis_gcc.h"
 557              	 .file 14 "C:/Users/Rui Mendes/Desktop/DAVE/Dissertation/Dissertation_TCU/_FullProject/Libraries/CMSIS/Include/core_cm4.h"
 558              	 .file 15 "C:/Users/Rui Mendes/Desktop/DAVE/Dissertation/Dissertation_TCU/_FullProject/Libraries/CMSIS/Infineon/XMC4500_series/Include/system_XMC4500.h"
 559              	 .file 16 "C:/Users/Rui Mendes/Desktop/DAVE/Dissertation/Dissertation_TCU/_FullProject/Dave/Generated/PWM_SVM/pwm_svm_extern.h"