   1              	 .syntax unified
   2              	 .cpu cortex-m4
   3              	 .eabi_attribute 27,3
   4              	 .fpu fpv4-sp-d16
   5              	 .eabi_attribute 20,1
   6              	 .eabi_attribute 21,1
   7              	 .eabi_attribute 23,3
   8              	 .eabi_attribute 24,1
   9              	 .eabi_attribute 25,1
  10              	 .eabi_attribute 26,1
  11              	 .eabi_attribute 30,6
  12              	 .eabi_attribute 34,1
  13              	 .eabi_attribute 18,4
  14              	 .thumb
  15              	 .file "arm_not_u32.c"
  16              	 .text
  17              	.Ltext0:
  18              	 .cfi_sections .debug_frame
  19              	 .section .text.arm_not_u32,"ax",%progbits
  20              	 .align 2
  21              	 .global arm_not_u32
  22              	 .thumb
  23              	 .thumb_func
  25              	arm_not_u32:
  26              	.LFB149:
  27              	 .file 1 "../Dave/Generated/CMSIS_DSP/Source/BasicMathFunctions/arm_not_u32.c"
   1:../Dave/Generated/CMSIS_DSP/Source/BasicMathFunctions/arm_not_u32.c **** /* ----------------------------------------------------------------------
   2:../Dave/Generated/CMSIS_DSP/Source/BasicMathFunctions/arm_not_u32.c ****  * Project:      CMSIS DSP Library
   3:../Dave/Generated/CMSIS_DSP/Source/BasicMathFunctions/arm_not_u32.c ****  * Title:        arm_not_u32.c
   4:../Dave/Generated/CMSIS_DSP/Source/BasicMathFunctions/arm_not_u32.c ****  * Description:  uint32_t bitwise NOT
   5:../Dave/Generated/CMSIS_DSP/Source/BasicMathFunctions/arm_not_u32.c ****  *
   6:../Dave/Generated/CMSIS_DSP/Source/BasicMathFunctions/arm_not_u32.c ****  * $Date:        14 November 2019
   7:../Dave/Generated/CMSIS_DSP/Source/BasicMathFunctions/arm_not_u32.c ****  * $Revision:    V1.6.0
   8:../Dave/Generated/CMSIS_DSP/Source/BasicMathFunctions/arm_not_u32.c ****  *
   9:../Dave/Generated/CMSIS_DSP/Source/BasicMathFunctions/arm_not_u32.c ****  * Target Processor: Cortex-M cores
  10:../Dave/Generated/CMSIS_DSP/Source/BasicMathFunctions/arm_not_u32.c ****  * -------------------------------------------------------------------- */
  11:../Dave/Generated/CMSIS_DSP/Source/BasicMathFunctions/arm_not_u32.c **** /*
  12:../Dave/Generated/CMSIS_DSP/Source/BasicMathFunctions/arm_not_u32.c ****  * Copyright (C) 2010-2019 ARM Limited or its affiliates. All rights reserved.
  13:../Dave/Generated/CMSIS_DSP/Source/BasicMathFunctions/arm_not_u32.c ****  *
  14:../Dave/Generated/CMSIS_DSP/Source/BasicMathFunctions/arm_not_u32.c ****  * SPDX-License-Identifier: Apache-2.0
  15:../Dave/Generated/CMSIS_DSP/Source/BasicMathFunctions/arm_not_u32.c ****  *
  16:../Dave/Generated/CMSIS_DSP/Source/BasicMathFunctions/arm_not_u32.c ****  * Licensed under the Apache License, Version 2.0 (the License); you may
  17:../Dave/Generated/CMSIS_DSP/Source/BasicMathFunctions/arm_not_u32.c ****  * not use this file except in compliance with the License.
  18:../Dave/Generated/CMSIS_DSP/Source/BasicMathFunctions/arm_not_u32.c ****  * You may obtain a copy of the License at
  19:../Dave/Generated/CMSIS_DSP/Source/BasicMathFunctions/arm_not_u32.c ****  *
  20:../Dave/Generated/CMSIS_DSP/Source/BasicMathFunctions/arm_not_u32.c ****  * www.apache.org/licenses/LICENSE-2.0
  21:../Dave/Generated/CMSIS_DSP/Source/BasicMathFunctions/arm_not_u32.c ****  *
  22:../Dave/Generated/CMSIS_DSP/Source/BasicMathFunctions/arm_not_u32.c ****  * Unless required by applicable law or agreed to in writing, software
  23:../Dave/Generated/CMSIS_DSP/Source/BasicMathFunctions/arm_not_u32.c ****  * distributed under the License is distributed on an AS IS BASIS, WITHOUT
  24:../Dave/Generated/CMSIS_DSP/Source/BasicMathFunctions/arm_not_u32.c ****  * WARRANTIES OR CONDITIONS OF ANY KIND, either express or implied.
  25:../Dave/Generated/CMSIS_DSP/Source/BasicMathFunctions/arm_not_u32.c ****  * See the License for the specific language governing permissions and
  26:../Dave/Generated/CMSIS_DSP/Source/BasicMathFunctions/arm_not_u32.c ****  * limitations under the License.
  27:../Dave/Generated/CMSIS_DSP/Source/BasicMathFunctions/arm_not_u32.c ****  */
  28:../Dave/Generated/CMSIS_DSP/Source/BasicMathFunctions/arm_not_u32.c **** 
  29:../Dave/Generated/CMSIS_DSP/Source/BasicMathFunctions/arm_not_u32.c **** #include "CMSIS_DSP/cmsis_dsp.h"
  30:../Dave/Generated/CMSIS_DSP/Source/BasicMathFunctions/arm_not_u32.c **** 
  31:../Dave/Generated/CMSIS_DSP/Source/BasicMathFunctions/arm_not_u32.c **** /**
  32:../Dave/Generated/CMSIS_DSP/Source/BasicMathFunctions/arm_not_u32.c ****   @ingroup groupMath
  33:../Dave/Generated/CMSIS_DSP/Source/BasicMathFunctions/arm_not_u32.c ****  */
  34:../Dave/Generated/CMSIS_DSP/Source/BasicMathFunctions/arm_not_u32.c **** 
  35:../Dave/Generated/CMSIS_DSP/Source/BasicMathFunctions/arm_not_u32.c **** /**
  36:../Dave/Generated/CMSIS_DSP/Source/BasicMathFunctions/arm_not_u32.c ****   @addtogroup Not
  37:../Dave/Generated/CMSIS_DSP/Source/BasicMathFunctions/arm_not_u32.c ****   @{
  38:../Dave/Generated/CMSIS_DSP/Source/BasicMathFunctions/arm_not_u32.c ****  */
  39:../Dave/Generated/CMSIS_DSP/Source/BasicMathFunctions/arm_not_u32.c **** 
  40:../Dave/Generated/CMSIS_DSP/Source/BasicMathFunctions/arm_not_u32.c **** /**
  41:../Dave/Generated/CMSIS_DSP/Source/BasicMathFunctions/arm_not_u32.c ****   @brief         Compute the logical bitwise NOT of a fixed-point vector.
  42:../Dave/Generated/CMSIS_DSP/Source/BasicMathFunctions/arm_not_u32.c ****   @param[in]     pSrc       points to input vector 
  43:../Dave/Generated/CMSIS_DSP/Source/BasicMathFunctions/arm_not_u32.c ****   @param[out]    pDst       points to output vector
  44:../Dave/Generated/CMSIS_DSP/Source/BasicMathFunctions/arm_not_u32.c ****   @param[in]     blockSize  number of samples in each vector
  45:../Dave/Generated/CMSIS_DSP/Source/BasicMathFunctions/arm_not_u32.c ****   @return        none
  46:../Dave/Generated/CMSIS_DSP/Source/BasicMathFunctions/arm_not_u32.c ****  */
  47:../Dave/Generated/CMSIS_DSP/Source/BasicMathFunctions/arm_not_u32.c **** 
  48:../Dave/Generated/CMSIS_DSP/Source/BasicMathFunctions/arm_not_u32.c **** void arm_not_u32(
  49:../Dave/Generated/CMSIS_DSP/Source/BasicMathFunctions/arm_not_u32.c ****     const uint32_t * pSrc,
  50:../Dave/Generated/CMSIS_DSP/Source/BasicMathFunctions/arm_not_u32.c ****           uint32_t * pDst,
  51:../Dave/Generated/CMSIS_DSP/Source/BasicMathFunctions/arm_not_u32.c ****           uint32_t blockSize)
  52:../Dave/Generated/CMSIS_DSP/Source/BasicMathFunctions/arm_not_u32.c **** {
  28              	 .loc 1 52 0
  29              	 .cfi_startproc
  30              	 
  31              	 
  32              	 
  33 0000 80B4     	 push {r7}
  34              	.LCFI0:
  35              	 .cfi_def_cfa_offset 4
  36              	 .cfi_offset 7,-4
  37 0002 87B0     	 sub sp,sp,#28
  38              	.LCFI1:
  39              	 .cfi_def_cfa_offset 32
  40 0004 00AF     	 add r7,sp,#0
  41              	.LCFI2:
  42              	 .cfi_def_cfa_register 7
  43 0006 F860     	 str r0,[r7,#12]
  44 0008 B960     	 str r1,[r7,#8]
  45 000a 7A60     	 str r2,[r7,#4]
  53:../Dave/Generated/CMSIS_DSP/Source/BasicMathFunctions/arm_not_u32.c ****     uint32_t blkCnt;      /* Loop counter */
  54:../Dave/Generated/CMSIS_DSP/Source/BasicMathFunctions/arm_not_u32.c **** 
  55:../Dave/Generated/CMSIS_DSP/Source/BasicMathFunctions/arm_not_u32.c **** #if defined(ARM_MATH_MVEI) && !defined(ARM_MATH_AUTOVECTORIZE)
  56:../Dave/Generated/CMSIS_DSP/Source/BasicMathFunctions/arm_not_u32.c ****     q31x4_t vecSrc;
  57:../Dave/Generated/CMSIS_DSP/Source/BasicMathFunctions/arm_not_u32.c **** 
  58:../Dave/Generated/CMSIS_DSP/Source/BasicMathFunctions/arm_not_u32.c ****     /* Compute 8 outputs at a time */
  59:../Dave/Generated/CMSIS_DSP/Source/BasicMathFunctions/arm_not_u32.c ****     blkCnt = blockSize >> 2;
  60:../Dave/Generated/CMSIS_DSP/Source/BasicMathFunctions/arm_not_u32.c **** 
  61:../Dave/Generated/CMSIS_DSP/Source/BasicMathFunctions/arm_not_u32.c ****     while (blkCnt > 0U)
  62:../Dave/Generated/CMSIS_DSP/Source/BasicMathFunctions/arm_not_u32.c ****     {
  63:../Dave/Generated/CMSIS_DSP/Source/BasicMathFunctions/arm_not_u32.c ****         vecSrc = vld1q(pSrc);
  64:../Dave/Generated/CMSIS_DSP/Source/BasicMathFunctions/arm_not_u32.c **** 
  65:../Dave/Generated/CMSIS_DSP/Source/BasicMathFunctions/arm_not_u32.c ****         vst1q(pDst, vmvnq_u32(vecSrc) );
  66:../Dave/Generated/CMSIS_DSP/Source/BasicMathFunctions/arm_not_u32.c **** 
  67:../Dave/Generated/CMSIS_DSP/Source/BasicMathFunctions/arm_not_u32.c ****         pSrc += 4;
  68:../Dave/Generated/CMSIS_DSP/Source/BasicMathFunctions/arm_not_u32.c ****         pDst += 4;
  69:../Dave/Generated/CMSIS_DSP/Source/BasicMathFunctions/arm_not_u32.c **** 
  70:../Dave/Generated/CMSIS_DSP/Source/BasicMathFunctions/arm_not_u32.c ****         /* Decrement the loop counter */
  71:../Dave/Generated/CMSIS_DSP/Source/BasicMathFunctions/arm_not_u32.c ****         blkCnt--;
  72:../Dave/Generated/CMSIS_DSP/Source/BasicMathFunctions/arm_not_u32.c ****     }
  73:../Dave/Generated/CMSIS_DSP/Source/BasicMathFunctions/arm_not_u32.c **** 
  74:../Dave/Generated/CMSIS_DSP/Source/BasicMathFunctions/arm_not_u32.c ****     /* Tail */
  75:../Dave/Generated/CMSIS_DSP/Source/BasicMathFunctions/arm_not_u32.c ****     blkCnt = blockSize & 3;
  76:../Dave/Generated/CMSIS_DSP/Source/BasicMathFunctions/arm_not_u32.c **** 
  77:../Dave/Generated/CMSIS_DSP/Source/BasicMathFunctions/arm_not_u32.c ****     if (blkCnt > 0U)
  78:../Dave/Generated/CMSIS_DSP/Source/BasicMathFunctions/arm_not_u32.c ****     {
  79:../Dave/Generated/CMSIS_DSP/Source/BasicMathFunctions/arm_not_u32.c ****         mve_pred16_t p0 = vctp32q(blkCnt);
  80:../Dave/Generated/CMSIS_DSP/Source/BasicMathFunctions/arm_not_u32.c ****         vecSrc = vld1q(pSrc);
  81:../Dave/Generated/CMSIS_DSP/Source/BasicMathFunctions/arm_not_u32.c ****         vstrwq_p(pDst, vmvnq_u32(vecSrc), p0);
  82:../Dave/Generated/CMSIS_DSP/Source/BasicMathFunctions/arm_not_u32.c ****     }
  83:../Dave/Generated/CMSIS_DSP/Source/BasicMathFunctions/arm_not_u32.c **** #else
  84:../Dave/Generated/CMSIS_DSP/Source/BasicMathFunctions/arm_not_u32.c **** #if defined(ARM_MATH_NEON) && !defined(ARM_MATH_AUTOVECTORIZE)
  85:../Dave/Generated/CMSIS_DSP/Source/BasicMathFunctions/arm_not_u32.c ****     uint32x4_t inV;
  86:../Dave/Generated/CMSIS_DSP/Source/BasicMathFunctions/arm_not_u32.c **** 
  87:../Dave/Generated/CMSIS_DSP/Source/BasicMathFunctions/arm_not_u32.c ****     /* Compute 4 outputs at a time */
  88:../Dave/Generated/CMSIS_DSP/Source/BasicMathFunctions/arm_not_u32.c ****     blkCnt = blockSize >> 2U;
  89:../Dave/Generated/CMSIS_DSP/Source/BasicMathFunctions/arm_not_u32.c **** 
  90:../Dave/Generated/CMSIS_DSP/Source/BasicMathFunctions/arm_not_u32.c ****     while (blkCnt > 0U)
  91:../Dave/Generated/CMSIS_DSP/Source/BasicMathFunctions/arm_not_u32.c ****     {
  92:../Dave/Generated/CMSIS_DSP/Source/BasicMathFunctions/arm_not_u32.c ****         inV = vld1q_u32(pSrc);
  93:../Dave/Generated/CMSIS_DSP/Source/BasicMathFunctions/arm_not_u32.c **** 
  94:../Dave/Generated/CMSIS_DSP/Source/BasicMathFunctions/arm_not_u32.c ****         vst1q_u32(pDst, vmvnq_u32(inV) );
  95:../Dave/Generated/CMSIS_DSP/Source/BasicMathFunctions/arm_not_u32.c **** 
  96:../Dave/Generated/CMSIS_DSP/Source/BasicMathFunctions/arm_not_u32.c ****         pSrc += 4;
  97:../Dave/Generated/CMSIS_DSP/Source/BasicMathFunctions/arm_not_u32.c ****         pDst += 4;
  98:../Dave/Generated/CMSIS_DSP/Source/BasicMathFunctions/arm_not_u32.c **** 
  99:../Dave/Generated/CMSIS_DSP/Source/BasicMathFunctions/arm_not_u32.c ****         /* Decrement the loop counter */
 100:../Dave/Generated/CMSIS_DSP/Source/BasicMathFunctions/arm_not_u32.c ****         blkCnt--;
 101:../Dave/Generated/CMSIS_DSP/Source/BasicMathFunctions/arm_not_u32.c ****     }
 102:../Dave/Generated/CMSIS_DSP/Source/BasicMathFunctions/arm_not_u32.c **** 
 103:../Dave/Generated/CMSIS_DSP/Source/BasicMathFunctions/arm_not_u32.c ****     /* Tail */
 104:../Dave/Generated/CMSIS_DSP/Source/BasicMathFunctions/arm_not_u32.c ****     blkCnt = blockSize & 3;
 105:../Dave/Generated/CMSIS_DSP/Source/BasicMathFunctions/arm_not_u32.c **** #else
 106:../Dave/Generated/CMSIS_DSP/Source/BasicMathFunctions/arm_not_u32.c ****     /* Initialize blkCnt with number of samples */
 107:../Dave/Generated/CMSIS_DSP/Source/BasicMathFunctions/arm_not_u32.c ****     blkCnt = blockSize;
  46              	 .loc 1 107 0
  47 000c 7B68     	 ldr r3,[r7,#4]
  48 000e 7B61     	 str r3,[r7,#20]
 108:../Dave/Generated/CMSIS_DSP/Source/BasicMathFunctions/arm_not_u32.c **** #endif
 109:../Dave/Generated/CMSIS_DSP/Source/BasicMathFunctions/arm_not_u32.c **** 
 110:../Dave/Generated/CMSIS_DSP/Source/BasicMathFunctions/arm_not_u32.c ****     while (blkCnt > 0U)
  49              	 .loc 1 110 0
  50 0010 0BE0     	 b .L2
  51              	.L3:
 111:../Dave/Generated/CMSIS_DSP/Source/BasicMathFunctions/arm_not_u32.c ****     {
 112:../Dave/Generated/CMSIS_DSP/Source/BasicMathFunctions/arm_not_u32.c ****         *pDst++ = ~(*pSrc++);
  52              	 .loc 1 112 0
  53 0012 BB68     	 ldr r3,[r7,#8]
  54 0014 1A1D     	 adds r2,r3,#4
  55 0016 BA60     	 str r2,[r7,#8]
  56 0018 FA68     	 ldr r2,[r7,#12]
  57 001a 111D     	 adds r1,r2,#4
  58 001c F960     	 str r1,[r7,#12]
  59 001e 1268     	 ldr r2,[r2]
  60 0020 D243     	 mvns r2,r2
  61 0022 1A60     	 str r2,[r3]
 113:../Dave/Generated/CMSIS_DSP/Source/BasicMathFunctions/arm_not_u32.c **** 
 114:../Dave/Generated/CMSIS_DSP/Source/BasicMathFunctions/arm_not_u32.c ****         /* Decrement the loop counter */
 115:../Dave/Generated/CMSIS_DSP/Source/BasicMathFunctions/arm_not_u32.c ****         blkCnt--;
  62              	 .loc 1 115 0
  63 0024 7B69     	 ldr r3,[r7,#20]
  64 0026 013B     	 subs r3,r3,#1
  65 0028 7B61     	 str r3,[r7,#20]
  66              	.L2:
 110:../Dave/Generated/CMSIS_DSP/Source/BasicMathFunctions/arm_not_u32.c ****     {
  67              	 .loc 1 110 0
  68 002a 7B69     	 ldr r3,[r7,#20]
  69 002c 002B     	 cmp r3,#0
  70 002e F0D1     	 bne .L3
 116:../Dave/Generated/CMSIS_DSP/Source/BasicMathFunctions/arm_not_u32.c ****     }
 117:../Dave/Generated/CMSIS_DSP/Source/BasicMathFunctions/arm_not_u32.c **** #endif /* if defined(ARM_MATH_MVEI) */
 118:../Dave/Generated/CMSIS_DSP/Source/BasicMathFunctions/arm_not_u32.c **** }
  71              	 .loc 1 118 0
  72 0030 1C37     	 adds r7,r7,#28
  73              	.LCFI3:
  74              	 .cfi_def_cfa_offset 4
  75 0032 BD46     	 mov sp,r7
  76              	.LCFI4:
  77              	 .cfi_def_cfa_register 13
  78              	 
  79 0034 5DF8047B 	 ldr r7,[sp],#4
  80              	.LCFI5:
  81              	 .cfi_restore 7
  82              	 .cfi_def_cfa_offset 0
  83 0038 7047     	 bx lr
  84              	 .cfi_endproc
  85              	.LFE149:
  87              	 .text
  88              	.Letext0:
  89              	 .file 2 "c:\\infineon\\tools\\dave ide\\4.5.0.202105191637\\eclipse\\arm-gcc-49\\arm-none-eabi\\include\\machine\\_default_types.h"
  90              	 .file 3 "c:\\infineon\\tools\\dave ide\\4.5.0.202105191637\\eclipse\\arm-gcc-49\\arm-none-eabi\\include\\stdint.h"
  91              	 .file 4 "C:/Users/Rui Mendes/Desktop/DAVE/_Naive/_ForTesting/Libraries/CMSIS/Include/cmsis_gcc.h"