   1              	 .syntax unified
   2              	 .cpu cortex-m4
   3              	 .eabi_attribute 27,3
   4              	 .fpu fpv4-sp-d16
   5              	 .eabi_attribute 20,1
   6              	 .eabi_attribute 21,1
   7              	 .eabi_attribute 23,3
   8              	 .eabi_attribute 24,1
   9              	 .eabi_attribute 25,1
  10              	 .eabi_attribute 26,1
  11              	 .eabi_attribute 30,6
  12              	 .eabi_attribute 34,1
  13              	 .eabi_attribute 18,4
  14              	 .thumb
  15              	 .file "arm_and_u32.c"
  16              	 .text
  17              	.Ltext0:
  18              	 .cfi_sections .debug_frame
  19              	 .section .text.arm_and_u32,"ax",%progbits
  20              	 .align 2
  21              	 .global arm_and_u32
  22              	 .thumb
  23              	 .thumb_func
  25              	arm_and_u32:
  26              	.LFB149:
  27              	 .file 1 "../Dave/Generated/CMSIS_DSP/Source/BasicMathFunctions/arm_and_u32.c"
   1:../Dave/Generated/CMSIS_DSP/Source/BasicMathFunctions/arm_and_u32.c **** /* ----------------------------------------------------------------------
   2:../Dave/Generated/CMSIS_DSP/Source/BasicMathFunctions/arm_and_u32.c ****  * Project:      CMSIS DSP Library
   3:../Dave/Generated/CMSIS_DSP/Source/BasicMathFunctions/arm_and_u32.c ****  * Title:        arm_and_u32.c
   4:../Dave/Generated/CMSIS_DSP/Source/BasicMathFunctions/arm_and_u32.c ****  * Description:  uint32_t bitwise AND
   5:../Dave/Generated/CMSIS_DSP/Source/BasicMathFunctions/arm_and_u32.c ****  *
   6:../Dave/Generated/CMSIS_DSP/Source/BasicMathFunctions/arm_and_u32.c ****  * $Date:        14 November 2019
   7:../Dave/Generated/CMSIS_DSP/Source/BasicMathFunctions/arm_and_u32.c ****  * $Revision:    V1.6.0
   8:../Dave/Generated/CMSIS_DSP/Source/BasicMathFunctions/arm_and_u32.c ****  *
   9:../Dave/Generated/CMSIS_DSP/Source/BasicMathFunctions/arm_and_u32.c ****  * Target Processor: Cortex-M cores
  10:../Dave/Generated/CMSIS_DSP/Source/BasicMathFunctions/arm_and_u32.c ****  * -------------------------------------------------------------------- */
  11:../Dave/Generated/CMSIS_DSP/Source/BasicMathFunctions/arm_and_u32.c **** /*
  12:../Dave/Generated/CMSIS_DSP/Source/BasicMathFunctions/arm_and_u32.c ****  * Copyright (C) 2010-2019 ARM Limited or its affiliates. All rights reserved.
  13:../Dave/Generated/CMSIS_DSP/Source/BasicMathFunctions/arm_and_u32.c ****  *
  14:../Dave/Generated/CMSIS_DSP/Source/BasicMathFunctions/arm_and_u32.c ****  * SPDX-License-Identifier: Apache-2.0
  15:../Dave/Generated/CMSIS_DSP/Source/BasicMathFunctions/arm_and_u32.c ****  *
  16:../Dave/Generated/CMSIS_DSP/Source/BasicMathFunctions/arm_and_u32.c ****  * Licensed under the Apache License, Version 2.0 (the License); you may
  17:../Dave/Generated/CMSIS_DSP/Source/BasicMathFunctions/arm_and_u32.c ****  * not use this file except in compliance with the License.
  18:../Dave/Generated/CMSIS_DSP/Source/BasicMathFunctions/arm_and_u32.c ****  * You may obtain a copy of the License at
  19:../Dave/Generated/CMSIS_DSP/Source/BasicMathFunctions/arm_and_u32.c ****  *
  20:../Dave/Generated/CMSIS_DSP/Source/BasicMathFunctions/arm_and_u32.c ****  * www.apache.org/licenses/LICENSE-2.0
  21:../Dave/Generated/CMSIS_DSP/Source/BasicMathFunctions/arm_and_u32.c ****  *
  22:../Dave/Generated/CMSIS_DSP/Source/BasicMathFunctions/arm_and_u32.c ****  * Unless required by applicable law or agreed to in writing, software
  23:../Dave/Generated/CMSIS_DSP/Source/BasicMathFunctions/arm_and_u32.c ****  * distributed under the License is distributed on an AS IS BASIS, WITHOUT
  24:../Dave/Generated/CMSIS_DSP/Source/BasicMathFunctions/arm_and_u32.c ****  * WARRANTIES OR CONDITIONS OF ANY KIND, either express or implied.
  25:../Dave/Generated/CMSIS_DSP/Source/BasicMathFunctions/arm_and_u32.c ****  * See the License for the specific language governing permissions and
  26:../Dave/Generated/CMSIS_DSP/Source/BasicMathFunctions/arm_and_u32.c ****  * limitations under the License.
  27:../Dave/Generated/CMSIS_DSP/Source/BasicMathFunctions/arm_and_u32.c ****  */
  28:../Dave/Generated/CMSIS_DSP/Source/BasicMathFunctions/arm_and_u32.c **** 
  29:../Dave/Generated/CMSIS_DSP/Source/BasicMathFunctions/arm_and_u32.c **** #include "CMSIS_DSP/cmsis_dsp.h"
  30:../Dave/Generated/CMSIS_DSP/Source/BasicMathFunctions/arm_and_u32.c **** 
  31:../Dave/Generated/CMSIS_DSP/Source/BasicMathFunctions/arm_and_u32.c **** /**
  32:../Dave/Generated/CMSIS_DSP/Source/BasicMathFunctions/arm_and_u32.c ****   @ingroup groupMath
  33:../Dave/Generated/CMSIS_DSP/Source/BasicMathFunctions/arm_and_u32.c ****  */
  34:../Dave/Generated/CMSIS_DSP/Source/BasicMathFunctions/arm_and_u32.c **** 
  35:../Dave/Generated/CMSIS_DSP/Source/BasicMathFunctions/arm_and_u32.c **** /**
  36:../Dave/Generated/CMSIS_DSP/Source/BasicMathFunctions/arm_and_u32.c ****   @addtogroup And
  37:../Dave/Generated/CMSIS_DSP/Source/BasicMathFunctions/arm_and_u32.c ****   @{
  38:../Dave/Generated/CMSIS_DSP/Source/BasicMathFunctions/arm_and_u32.c ****  */
  39:../Dave/Generated/CMSIS_DSP/Source/BasicMathFunctions/arm_and_u32.c **** 
  40:../Dave/Generated/CMSIS_DSP/Source/BasicMathFunctions/arm_and_u32.c **** /**
  41:../Dave/Generated/CMSIS_DSP/Source/BasicMathFunctions/arm_and_u32.c ****   @brief         Compute the logical bitwise AND of two fixed-point vectors.
  42:../Dave/Generated/CMSIS_DSP/Source/BasicMathFunctions/arm_and_u32.c ****   @param[in]     pSrcA      points to input vector A
  43:../Dave/Generated/CMSIS_DSP/Source/BasicMathFunctions/arm_and_u32.c ****   @param[in]     pSrcB      points to input vector B
  44:../Dave/Generated/CMSIS_DSP/Source/BasicMathFunctions/arm_and_u32.c ****   @param[out]    pDst       points to output vector
  45:../Dave/Generated/CMSIS_DSP/Source/BasicMathFunctions/arm_and_u32.c ****   @param[in]     blockSize  number of samples in each vector
  46:../Dave/Generated/CMSIS_DSP/Source/BasicMathFunctions/arm_and_u32.c ****   @return        none
  47:../Dave/Generated/CMSIS_DSP/Source/BasicMathFunctions/arm_and_u32.c ****  */
  48:../Dave/Generated/CMSIS_DSP/Source/BasicMathFunctions/arm_and_u32.c **** 
  49:../Dave/Generated/CMSIS_DSP/Source/BasicMathFunctions/arm_and_u32.c **** void arm_and_u32(
  50:../Dave/Generated/CMSIS_DSP/Source/BasicMathFunctions/arm_and_u32.c ****     const uint32_t * pSrcA,
  51:../Dave/Generated/CMSIS_DSP/Source/BasicMathFunctions/arm_and_u32.c ****     const uint32_t * pSrcB,
  52:../Dave/Generated/CMSIS_DSP/Source/BasicMathFunctions/arm_and_u32.c ****           uint32_t * pDst,
  53:../Dave/Generated/CMSIS_DSP/Source/BasicMathFunctions/arm_and_u32.c ****           uint32_t blockSize)
  54:../Dave/Generated/CMSIS_DSP/Source/BasicMathFunctions/arm_and_u32.c **** {
  28              	 .loc 1 54 0
  29              	 .cfi_startproc
  30              	 
  31              	 
  32              	 
  33 0000 80B4     	 push {r7}
  34              	.LCFI0:
  35              	 .cfi_def_cfa_offset 4
  36              	 .cfi_offset 7,-4
  37 0002 87B0     	 sub sp,sp,#28
  38              	.LCFI1:
  39              	 .cfi_def_cfa_offset 32
  40 0004 00AF     	 add r7,sp,#0
  41              	.LCFI2:
  42              	 .cfi_def_cfa_register 7
  43 0006 F860     	 str r0,[r7,#12]
  44 0008 B960     	 str r1,[r7,#8]
  45 000a 7A60     	 str r2,[r7,#4]
  46 000c 3B60     	 str r3,[r7]
  55:../Dave/Generated/CMSIS_DSP/Source/BasicMathFunctions/arm_and_u32.c ****     uint32_t blkCnt;      /* Loop counter */
  56:../Dave/Generated/CMSIS_DSP/Source/BasicMathFunctions/arm_and_u32.c **** 
  57:../Dave/Generated/CMSIS_DSP/Source/BasicMathFunctions/arm_and_u32.c **** #if defined(ARM_MATH_MVEI) && !defined(ARM_MATH_AUTOVECTORIZE)
  58:../Dave/Generated/CMSIS_DSP/Source/BasicMathFunctions/arm_and_u32.c ****     q31x4_t vecSrcA, vecSrcB;
  59:../Dave/Generated/CMSIS_DSP/Source/BasicMathFunctions/arm_and_u32.c **** 
  60:../Dave/Generated/CMSIS_DSP/Source/BasicMathFunctions/arm_and_u32.c ****     /* Compute 4 outputs at a time */
  61:../Dave/Generated/CMSIS_DSP/Source/BasicMathFunctions/arm_and_u32.c ****     blkCnt = blockSize >> 2;
  62:../Dave/Generated/CMSIS_DSP/Source/BasicMathFunctions/arm_and_u32.c **** 
  63:../Dave/Generated/CMSIS_DSP/Source/BasicMathFunctions/arm_and_u32.c ****     while (blkCnt > 0U)
  64:../Dave/Generated/CMSIS_DSP/Source/BasicMathFunctions/arm_and_u32.c ****     {
  65:../Dave/Generated/CMSIS_DSP/Source/BasicMathFunctions/arm_and_u32.c ****         vecSrcA = vld1q(pSrcA);
  66:../Dave/Generated/CMSIS_DSP/Source/BasicMathFunctions/arm_and_u32.c ****         vecSrcB = vld1q(pSrcB);
  67:../Dave/Generated/CMSIS_DSP/Source/BasicMathFunctions/arm_and_u32.c **** 
  68:../Dave/Generated/CMSIS_DSP/Source/BasicMathFunctions/arm_and_u32.c ****         vst1q(pDst, vandq_u32(vecSrcA, vecSrcB) );
  69:../Dave/Generated/CMSIS_DSP/Source/BasicMathFunctions/arm_and_u32.c **** 
  70:../Dave/Generated/CMSIS_DSP/Source/BasicMathFunctions/arm_and_u32.c ****         pSrcA += 4;
  71:../Dave/Generated/CMSIS_DSP/Source/BasicMathFunctions/arm_and_u32.c ****         pSrcB += 4;
  72:../Dave/Generated/CMSIS_DSP/Source/BasicMathFunctions/arm_and_u32.c ****         pDst  += 4;
  73:../Dave/Generated/CMSIS_DSP/Source/BasicMathFunctions/arm_and_u32.c **** 
  74:../Dave/Generated/CMSIS_DSP/Source/BasicMathFunctions/arm_and_u32.c ****         /* Decrement the loop counter */
  75:../Dave/Generated/CMSIS_DSP/Source/BasicMathFunctions/arm_and_u32.c ****         blkCnt--;
  76:../Dave/Generated/CMSIS_DSP/Source/BasicMathFunctions/arm_and_u32.c ****     }
  77:../Dave/Generated/CMSIS_DSP/Source/BasicMathFunctions/arm_and_u32.c **** 
  78:../Dave/Generated/CMSIS_DSP/Source/BasicMathFunctions/arm_and_u32.c ****     /* Tail */
  79:../Dave/Generated/CMSIS_DSP/Source/BasicMathFunctions/arm_and_u32.c ****     blkCnt = blockSize & 3;
  80:../Dave/Generated/CMSIS_DSP/Source/BasicMathFunctions/arm_and_u32.c **** 
  81:../Dave/Generated/CMSIS_DSP/Source/BasicMathFunctions/arm_and_u32.c ****     if (blkCnt > 0U)
  82:../Dave/Generated/CMSIS_DSP/Source/BasicMathFunctions/arm_and_u32.c ****     {
  83:../Dave/Generated/CMSIS_DSP/Source/BasicMathFunctions/arm_and_u32.c ****         mve_pred16_t p0 = vctp32q(blkCnt);
  84:../Dave/Generated/CMSIS_DSP/Source/BasicMathFunctions/arm_and_u32.c ****         vecSrcA = vld1q(pSrcA);
  85:../Dave/Generated/CMSIS_DSP/Source/BasicMathFunctions/arm_and_u32.c ****         vecSrcB = vld1q(pSrcB);
  86:../Dave/Generated/CMSIS_DSP/Source/BasicMathFunctions/arm_and_u32.c ****         vstrwq_p(pDst, vandq_u32(vecSrcA, vecSrcB), p0);
  87:../Dave/Generated/CMSIS_DSP/Source/BasicMathFunctions/arm_and_u32.c ****     }
  88:../Dave/Generated/CMSIS_DSP/Source/BasicMathFunctions/arm_and_u32.c **** #else
  89:../Dave/Generated/CMSIS_DSP/Source/BasicMathFunctions/arm_and_u32.c **** #if defined(ARM_MATH_NEON) && !defined(ARM_MATH_AUTOVECTORIZE)
  90:../Dave/Generated/CMSIS_DSP/Source/BasicMathFunctions/arm_and_u32.c ****     uint32x4_t vecA, vecB;
  91:../Dave/Generated/CMSIS_DSP/Source/BasicMathFunctions/arm_and_u32.c **** 
  92:../Dave/Generated/CMSIS_DSP/Source/BasicMathFunctions/arm_and_u32.c ****     /* Compute 4 outputs at a time */
  93:../Dave/Generated/CMSIS_DSP/Source/BasicMathFunctions/arm_and_u32.c ****     blkCnt = blockSize >> 2U;
  94:../Dave/Generated/CMSIS_DSP/Source/BasicMathFunctions/arm_and_u32.c **** 
  95:../Dave/Generated/CMSIS_DSP/Source/BasicMathFunctions/arm_and_u32.c ****     while (blkCnt > 0U)
  96:../Dave/Generated/CMSIS_DSP/Source/BasicMathFunctions/arm_and_u32.c ****     {
  97:../Dave/Generated/CMSIS_DSP/Source/BasicMathFunctions/arm_and_u32.c ****         vecA = vld1q_u32(pSrcA);
  98:../Dave/Generated/CMSIS_DSP/Source/BasicMathFunctions/arm_and_u32.c ****         vecB = vld1q_u32(pSrcB);
  99:../Dave/Generated/CMSIS_DSP/Source/BasicMathFunctions/arm_and_u32.c **** 
 100:../Dave/Generated/CMSIS_DSP/Source/BasicMathFunctions/arm_and_u32.c ****         vst1q_u32(pDst, vandq_u32(vecA, vecB) );
 101:../Dave/Generated/CMSIS_DSP/Source/BasicMathFunctions/arm_and_u32.c **** 
 102:../Dave/Generated/CMSIS_DSP/Source/BasicMathFunctions/arm_and_u32.c ****         pSrcA += 4;
 103:../Dave/Generated/CMSIS_DSP/Source/BasicMathFunctions/arm_and_u32.c ****         pSrcB += 4;
 104:../Dave/Generated/CMSIS_DSP/Source/BasicMathFunctions/arm_and_u32.c ****         pDst  += 4;
 105:../Dave/Generated/CMSIS_DSP/Source/BasicMathFunctions/arm_and_u32.c **** 
 106:../Dave/Generated/CMSIS_DSP/Source/BasicMathFunctions/arm_and_u32.c ****         /* Decrement the loop counter */
 107:../Dave/Generated/CMSIS_DSP/Source/BasicMathFunctions/arm_and_u32.c ****         blkCnt--;
 108:../Dave/Generated/CMSIS_DSP/Source/BasicMathFunctions/arm_and_u32.c ****     }
 109:../Dave/Generated/CMSIS_DSP/Source/BasicMathFunctions/arm_and_u32.c **** 
 110:../Dave/Generated/CMSIS_DSP/Source/BasicMathFunctions/arm_and_u32.c ****     /* Tail */
 111:../Dave/Generated/CMSIS_DSP/Source/BasicMathFunctions/arm_and_u32.c ****     blkCnt = blockSize & 3;
 112:../Dave/Generated/CMSIS_DSP/Source/BasicMathFunctions/arm_and_u32.c **** #else
 113:../Dave/Generated/CMSIS_DSP/Source/BasicMathFunctions/arm_and_u32.c ****     /* Initialize blkCnt with number of samples */
 114:../Dave/Generated/CMSIS_DSP/Source/BasicMathFunctions/arm_and_u32.c ****     blkCnt = blockSize;
  47              	 .loc 1 114 0
  48 000e 3B68     	 ldr r3,[r7]
  49 0010 7B61     	 str r3,[r7,#20]
 115:../Dave/Generated/CMSIS_DSP/Source/BasicMathFunctions/arm_and_u32.c **** #endif
 116:../Dave/Generated/CMSIS_DSP/Source/BasicMathFunctions/arm_and_u32.c **** 
 117:../Dave/Generated/CMSIS_DSP/Source/BasicMathFunctions/arm_and_u32.c ****     while (blkCnt > 0U)
  50              	 .loc 1 117 0
  51 0012 0FE0     	 b .L2
  52              	.L3:
 118:../Dave/Generated/CMSIS_DSP/Source/BasicMathFunctions/arm_and_u32.c ****     {
 119:../Dave/Generated/CMSIS_DSP/Source/BasicMathFunctions/arm_and_u32.c ****         *pDst++ = (*pSrcA++)&(*pSrcB++);
  53              	 .loc 1 119 0
  54 0014 7B68     	 ldr r3,[r7,#4]
  55 0016 1A1D     	 adds r2,r3,#4
  56 0018 7A60     	 str r2,[r7,#4]
  57 001a FA68     	 ldr r2,[r7,#12]
  58 001c 111D     	 adds r1,r2,#4
  59 001e F960     	 str r1,[r7,#12]
  60 0020 1168     	 ldr r1,[r2]
  61 0022 BA68     	 ldr r2,[r7,#8]
  62 0024 101D     	 adds r0,r2,#4
  63 0026 B860     	 str r0,[r7,#8]
  64 0028 1268     	 ldr r2,[r2]
  65 002a 0A40     	 ands r2,r2,r1
  66 002c 1A60     	 str r2,[r3]
 120:../Dave/Generated/CMSIS_DSP/Source/BasicMathFunctions/arm_and_u32.c **** 
 121:../Dave/Generated/CMSIS_DSP/Source/BasicMathFunctions/arm_and_u32.c ****         /* Decrement the loop counter */
 122:../Dave/Generated/CMSIS_DSP/Source/BasicMathFunctions/arm_and_u32.c ****         blkCnt--;
  67              	 .loc 1 122 0
  68 002e 7B69     	 ldr r3,[r7,#20]
  69 0030 013B     	 subs r3,r3,#1
  70 0032 7B61     	 str r3,[r7,#20]
  71              	.L2:
 117:../Dave/Generated/CMSIS_DSP/Source/BasicMathFunctions/arm_and_u32.c ****     {
  72              	 .loc 1 117 0
  73 0034 7B69     	 ldr r3,[r7,#20]
  74 0036 002B     	 cmp r3,#0
  75 0038 ECD1     	 bne .L3
 123:../Dave/Generated/CMSIS_DSP/Source/BasicMathFunctions/arm_and_u32.c ****     }
 124:../Dave/Generated/CMSIS_DSP/Source/BasicMathFunctions/arm_and_u32.c **** #endif /* if defined(ARM_MATH_MVEI) */
 125:../Dave/Generated/CMSIS_DSP/Source/BasicMathFunctions/arm_and_u32.c **** }
  76              	 .loc 1 125 0
  77 003a 1C37     	 adds r7,r7,#28
  78              	.LCFI3:
  79              	 .cfi_def_cfa_offset 4
  80 003c BD46     	 mov sp,r7
  81              	.LCFI4:
  82              	 .cfi_def_cfa_register 13
  83              	 
  84 003e 5DF8047B 	 ldr r7,[sp],#4
  85              	.LCFI5:
  86              	 .cfi_restore 7
  87              	 .cfi_def_cfa_offset 0
  88 0042 7047     	 bx lr
  89              	 .cfi_endproc
  90              	.LFE149:
  92              	 .text
  93              	.Letext0:
  94              	 .file 2 "c:\\infineon\\tools\\dave ide\\4.5.0.202105191637\\eclipse\\arm-gcc-49\\arm-none-eabi\\include\\machine\\_default_types.h"
  95              	 .file 3 "c:\\infineon\\tools\\dave ide\\4.5.0.202105191637\\eclipse\\arm-gcc-49\\arm-none-eabi\\include\\stdint.h"
  96              	 .file 4 "C:/Users/Rui Mendes/Desktop/DAVE/_Naive/_ForTesting/Libraries/CMSIS/Include/cmsis_gcc.h"