   1              	 .syntax unified
   2              	 .cpu cortex-m4
   3              	 .eabi_attribute 27,3
   4              	 .fpu fpv4-sp-d16
   5              	 .eabi_attribute 20,1
   6              	 .eabi_attribute 21,1
   7              	 .eabi_attribute 23,3
   8              	 .eabi_attribute 24,1
   9              	 .eabi_attribute 25,1
  10              	 .eabi_attribute 26,1
  11              	 .eabi_attribute 30,6
  12              	 .eabi_attribute 34,1
  13              	 .eabi_attribute 18,4
  14              	 .thumb
  15              	 .file "arm_not_u16.c"
  16              	 .text
  17              	.Ltext0:
  18              	 .cfi_sections .debug_frame
  19              	 .section .text.arm_not_u16,"ax",%progbits
  20              	 .align 2
  21              	 .global arm_not_u16
  22              	 .thumb
  23              	 .thumb_func
  25              	arm_not_u16:
  26              	.LFB149:
  27              	 .file 1 "../Dave/Generated/CMSIS_DSP/Source/BasicMathFunctions/arm_not_u16.c"
   1:../Dave/Generated/CMSIS_DSP/Source/BasicMathFunctions/arm_not_u16.c **** /* ----------------------------------------------------------------------
   2:../Dave/Generated/CMSIS_DSP/Source/BasicMathFunctions/arm_not_u16.c ****  * Project:      CMSIS DSP Library
   3:../Dave/Generated/CMSIS_DSP/Source/BasicMathFunctions/arm_not_u16.c ****  * Title:        arm_not_u16.c
   4:../Dave/Generated/CMSIS_DSP/Source/BasicMathFunctions/arm_not_u16.c ****  * Description:  uint16_t bitwise NOT
   5:../Dave/Generated/CMSIS_DSP/Source/BasicMathFunctions/arm_not_u16.c ****  *
   6:../Dave/Generated/CMSIS_DSP/Source/BasicMathFunctions/arm_not_u16.c ****  * $Date:        14 November 2019
   7:../Dave/Generated/CMSIS_DSP/Source/BasicMathFunctions/arm_not_u16.c ****  * $Revision:    V1.6.0
   8:../Dave/Generated/CMSIS_DSP/Source/BasicMathFunctions/arm_not_u16.c ****  *
   9:../Dave/Generated/CMSIS_DSP/Source/BasicMathFunctions/arm_not_u16.c ****  * Target Processor: Cortex-M cores
  10:../Dave/Generated/CMSIS_DSP/Source/BasicMathFunctions/arm_not_u16.c ****  * -------------------------------------------------------------------- */
  11:../Dave/Generated/CMSIS_DSP/Source/BasicMathFunctions/arm_not_u16.c **** /*
  12:../Dave/Generated/CMSIS_DSP/Source/BasicMathFunctions/arm_not_u16.c ****  * Copyright (C) 2010-2019 ARM Limited or its affiliates. All rights reserved.
  13:../Dave/Generated/CMSIS_DSP/Source/BasicMathFunctions/arm_not_u16.c ****  *
  14:../Dave/Generated/CMSIS_DSP/Source/BasicMathFunctions/arm_not_u16.c ****  * SPDX-License-Identifier: Apache-2.0
  15:../Dave/Generated/CMSIS_DSP/Source/BasicMathFunctions/arm_not_u16.c ****  *
  16:../Dave/Generated/CMSIS_DSP/Source/BasicMathFunctions/arm_not_u16.c ****  * Licensed under the Apache License, Version 2.0 (the License); you may
  17:../Dave/Generated/CMSIS_DSP/Source/BasicMathFunctions/arm_not_u16.c ****  * not use this file except in compliance with the License.
  18:../Dave/Generated/CMSIS_DSP/Source/BasicMathFunctions/arm_not_u16.c ****  * You may obtain a copy of the License at
  19:../Dave/Generated/CMSIS_DSP/Source/BasicMathFunctions/arm_not_u16.c ****  *
  20:../Dave/Generated/CMSIS_DSP/Source/BasicMathFunctions/arm_not_u16.c ****  * www.apache.org/licenses/LICENSE-2.0
  21:../Dave/Generated/CMSIS_DSP/Source/BasicMathFunctions/arm_not_u16.c ****  *
  22:../Dave/Generated/CMSIS_DSP/Source/BasicMathFunctions/arm_not_u16.c ****  * Unless required by applicable law or agreed to in writing, software
  23:../Dave/Generated/CMSIS_DSP/Source/BasicMathFunctions/arm_not_u16.c ****  * distributed under the License is distributed on an AS IS BASIS, WITHOUT
  24:../Dave/Generated/CMSIS_DSP/Source/BasicMathFunctions/arm_not_u16.c ****  * WARRANTIES OR CONDITIONS OF ANY KIND, either express or implied.
  25:../Dave/Generated/CMSIS_DSP/Source/BasicMathFunctions/arm_not_u16.c ****  * See the License for the specific language governing permissions and
  26:../Dave/Generated/CMSIS_DSP/Source/BasicMathFunctions/arm_not_u16.c ****  * limitations under the License.
  27:../Dave/Generated/CMSIS_DSP/Source/BasicMathFunctions/arm_not_u16.c ****  */
  28:../Dave/Generated/CMSIS_DSP/Source/BasicMathFunctions/arm_not_u16.c **** 
  29:../Dave/Generated/CMSIS_DSP/Source/BasicMathFunctions/arm_not_u16.c **** #include "CMSIS_DSP/cmsis_dsp.h"
  30:../Dave/Generated/CMSIS_DSP/Source/BasicMathFunctions/arm_not_u16.c **** 
  31:../Dave/Generated/CMSIS_DSP/Source/BasicMathFunctions/arm_not_u16.c **** /**
  32:../Dave/Generated/CMSIS_DSP/Source/BasicMathFunctions/arm_not_u16.c ****   @ingroup groupMath
  33:../Dave/Generated/CMSIS_DSP/Source/BasicMathFunctions/arm_not_u16.c ****  */
  34:../Dave/Generated/CMSIS_DSP/Source/BasicMathFunctions/arm_not_u16.c **** 
  35:../Dave/Generated/CMSIS_DSP/Source/BasicMathFunctions/arm_not_u16.c **** /**
  36:../Dave/Generated/CMSIS_DSP/Source/BasicMathFunctions/arm_not_u16.c ****   @defgroup Not Vector bitwise NOT
  37:../Dave/Generated/CMSIS_DSP/Source/BasicMathFunctions/arm_not_u16.c **** 
  38:../Dave/Generated/CMSIS_DSP/Source/BasicMathFunctions/arm_not_u16.c ****   Compute the logical bitwise NOT.
  39:../Dave/Generated/CMSIS_DSP/Source/BasicMathFunctions/arm_not_u16.c **** 
  40:../Dave/Generated/CMSIS_DSP/Source/BasicMathFunctions/arm_not_u16.c ****   There are separate functions for uint32_t, uint16_t, and uint8_t data types.
  41:../Dave/Generated/CMSIS_DSP/Source/BasicMathFunctions/arm_not_u16.c ****  */
  42:../Dave/Generated/CMSIS_DSP/Source/BasicMathFunctions/arm_not_u16.c **** 
  43:../Dave/Generated/CMSIS_DSP/Source/BasicMathFunctions/arm_not_u16.c **** /**
  44:../Dave/Generated/CMSIS_DSP/Source/BasicMathFunctions/arm_not_u16.c ****   @addtogroup Not
  45:../Dave/Generated/CMSIS_DSP/Source/BasicMathFunctions/arm_not_u16.c ****   @{
  46:../Dave/Generated/CMSIS_DSP/Source/BasicMathFunctions/arm_not_u16.c ****  */
  47:../Dave/Generated/CMSIS_DSP/Source/BasicMathFunctions/arm_not_u16.c **** 
  48:../Dave/Generated/CMSIS_DSP/Source/BasicMathFunctions/arm_not_u16.c **** /**
  49:../Dave/Generated/CMSIS_DSP/Source/BasicMathFunctions/arm_not_u16.c ****   @brief         Compute the logical bitwise NOT of a fixed-point vector.
  50:../Dave/Generated/CMSIS_DSP/Source/BasicMathFunctions/arm_not_u16.c ****   @param[in]     pSrc       points to input vector 
  51:../Dave/Generated/CMSIS_DSP/Source/BasicMathFunctions/arm_not_u16.c ****   @param[out]    pDst       points to output vector
  52:../Dave/Generated/CMSIS_DSP/Source/BasicMathFunctions/arm_not_u16.c ****   @param[in]     blockSize  number of samples in each vector
  53:../Dave/Generated/CMSIS_DSP/Source/BasicMathFunctions/arm_not_u16.c ****   @return        none
  54:../Dave/Generated/CMSIS_DSP/Source/BasicMathFunctions/arm_not_u16.c ****  */
  55:../Dave/Generated/CMSIS_DSP/Source/BasicMathFunctions/arm_not_u16.c **** 
  56:../Dave/Generated/CMSIS_DSP/Source/BasicMathFunctions/arm_not_u16.c **** void arm_not_u16(
  57:../Dave/Generated/CMSIS_DSP/Source/BasicMathFunctions/arm_not_u16.c ****     const uint16_t * pSrc,
  58:../Dave/Generated/CMSIS_DSP/Source/BasicMathFunctions/arm_not_u16.c ****           uint16_t * pDst,
  59:../Dave/Generated/CMSIS_DSP/Source/BasicMathFunctions/arm_not_u16.c ****           uint32_t blockSize)
  60:../Dave/Generated/CMSIS_DSP/Source/BasicMathFunctions/arm_not_u16.c **** {
  28              	 .loc 1 60 0
  29              	 .cfi_startproc
  30              	 
  31              	 
  32              	 
  33 0000 80B4     	 push {r7}
  34              	.LCFI0:
  35              	 .cfi_def_cfa_offset 4
  36              	 .cfi_offset 7,-4
  37 0002 87B0     	 sub sp,sp,#28
  38              	.LCFI1:
  39              	 .cfi_def_cfa_offset 32
  40 0004 00AF     	 add r7,sp,#0
  41              	.LCFI2:
  42              	 .cfi_def_cfa_register 7
  43 0006 F860     	 str r0,[r7,#12]
  44 0008 B960     	 str r1,[r7,#8]
  45 000a 7A60     	 str r2,[r7,#4]
  61:../Dave/Generated/CMSIS_DSP/Source/BasicMathFunctions/arm_not_u16.c ****     uint32_t blkCnt;      /* Loop counter */
  62:../Dave/Generated/CMSIS_DSP/Source/BasicMathFunctions/arm_not_u16.c **** 
  63:../Dave/Generated/CMSIS_DSP/Source/BasicMathFunctions/arm_not_u16.c **** #if defined(ARM_MATH_MVEI) && !defined(ARM_MATH_AUTOVECTORIZE)
  64:../Dave/Generated/CMSIS_DSP/Source/BasicMathFunctions/arm_not_u16.c ****     q15x8_t vecSrc;
  65:../Dave/Generated/CMSIS_DSP/Source/BasicMathFunctions/arm_not_u16.c **** 
  66:../Dave/Generated/CMSIS_DSP/Source/BasicMathFunctions/arm_not_u16.c ****     /* Compute 8 outputs at a time */
  67:../Dave/Generated/CMSIS_DSP/Source/BasicMathFunctions/arm_not_u16.c ****     blkCnt = blockSize >> 3;
  68:../Dave/Generated/CMSIS_DSP/Source/BasicMathFunctions/arm_not_u16.c **** 
  69:../Dave/Generated/CMSIS_DSP/Source/BasicMathFunctions/arm_not_u16.c ****     while (blkCnt > 0U)
  70:../Dave/Generated/CMSIS_DSP/Source/BasicMathFunctions/arm_not_u16.c ****     {
  71:../Dave/Generated/CMSIS_DSP/Source/BasicMathFunctions/arm_not_u16.c ****         vecSrc = vld1q(pSrc);
  72:../Dave/Generated/CMSIS_DSP/Source/BasicMathFunctions/arm_not_u16.c **** 
  73:../Dave/Generated/CMSIS_DSP/Source/BasicMathFunctions/arm_not_u16.c ****         vst1q(pDst, vmvnq_u16(vecSrc) );
  74:../Dave/Generated/CMSIS_DSP/Source/BasicMathFunctions/arm_not_u16.c **** 
  75:../Dave/Generated/CMSIS_DSP/Source/BasicMathFunctions/arm_not_u16.c ****         pSrc += 8;
  76:../Dave/Generated/CMSIS_DSP/Source/BasicMathFunctions/arm_not_u16.c ****         pDst += 8;
  77:../Dave/Generated/CMSIS_DSP/Source/BasicMathFunctions/arm_not_u16.c **** 
  78:../Dave/Generated/CMSIS_DSP/Source/BasicMathFunctions/arm_not_u16.c ****         /* Decrement the loop counter */
  79:../Dave/Generated/CMSIS_DSP/Source/BasicMathFunctions/arm_not_u16.c ****         blkCnt--;
  80:../Dave/Generated/CMSIS_DSP/Source/BasicMathFunctions/arm_not_u16.c ****     }
  81:../Dave/Generated/CMSIS_DSP/Source/BasicMathFunctions/arm_not_u16.c **** 
  82:../Dave/Generated/CMSIS_DSP/Source/BasicMathFunctions/arm_not_u16.c ****     /* Tail */
  83:../Dave/Generated/CMSIS_DSP/Source/BasicMathFunctions/arm_not_u16.c ****     blkCnt = blockSize & 7;
  84:../Dave/Generated/CMSIS_DSP/Source/BasicMathFunctions/arm_not_u16.c **** 
  85:../Dave/Generated/CMSIS_DSP/Source/BasicMathFunctions/arm_not_u16.c ****     if (blkCnt > 0U)
  86:../Dave/Generated/CMSIS_DSP/Source/BasicMathFunctions/arm_not_u16.c ****     {
  87:../Dave/Generated/CMSIS_DSP/Source/BasicMathFunctions/arm_not_u16.c ****         mve_pred16_t p0 = vctp16q(blkCnt);
  88:../Dave/Generated/CMSIS_DSP/Source/BasicMathFunctions/arm_not_u16.c ****         vecSrc = vld1q(pSrc);
  89:../Dave/Generated/CMSIS_DSP/Source/BasicMathFunctions/arm_not_u16.c ****         vstrhq_p(pDst, vmvnq_u16(vecSrc), p0);
  90:../Dave/Generated/CMSIS_DSP/Source/BasicMathFunctions/arm_not_u16.c ****     }
  91:../Dave/Generated/CMSIS_DSP/Source/BasicMathFunctions/arm_not_u16.c **** #else
  92:../Dave/Generated/CMSIS_DSP/Source/BasicMathFunctions/arm_not_u16.c **** #if defined(ARM_MATH_NEON) && !defined(ARM_MATH_AUTOVECTORIZE)
  93:../Dave/Generated/CMSIS_DSP/Source/BasicMathFunctions/arm_not_u16.c ****     uint16x8_t inV;
  94:../Dave/Generated/CMSIS_DSP/Source/BasicMathFunctions/arm_not_u16.c **** 
  95:../Dave/Generated/CMSIS_DSP/Source/BasicMathFunctions/arm_not_u16.c ****     /* Compute 8 outputs at a time */
  96:../Dave/Generated/CMSIS_DSP/Source/BasicMathFunctions/arm_not_u16.c ****     blkCnt = blockSize >> 3U;
  97:../Dave/Generated/CMSIS_DSP/Source/BasicMathFunctions/arm_not_u16.c **** 
  98:../Dave/Generated/CMSIS_DSP/Source/BasicMathFunctions/arm_not_u16.c ****     while (blkCnt > 0U)
  99:../Dave/Generated/CMSIS_DSP/Source/BasicMathFunctions/arm_not_u16.c ****     {
 100:../Dave/Generated/CMSIS_DSP/Source/BasicMathFunctions/arm_not_u16.c ****         inV = vld1q_u16(pSrc);
 101:../Dave/Generated/CMSIS_DSP/Source/BasicMathFunctions/arm_not_u16.c **** 
 102:../Dave/Generated/CMSIS_DSP/Source/BasicMathFunctions/arm_not_u16.c ****         vst1q_u16(pDst, vmvnq_u16(inV) );
 103:../Dave/Generated/CMSIS_DSP/Source/BasicMathFunctions/arm_not_u16.c **** 
 104:../Dave/Generated/CMSIS_DSP/Source/BasicMathFunctions/arm_not_u16.c ****         pSrc += 8;
 105:../Dave/Generated/CMSIS_DSP/Source/BasicMathFunctions/arm_not_u16.c ****         pDst += 8;
 106:../Dave/Generated/CMSIS_DSP/Source/BasicMathFunctions/arm_not_u16.c **** 
 107:../Dave/Generated/CMSIS_DSP/Source/BasicMathFunctions/arm_not_u16.c ****         /* Decrement the loop counter */
 108:../Dave/Generated/CMSIS_DSP/Source/BasicMathFunctions/arm_not_u16.c ****         blkCnt--;
 109:../Dave/Generated/CMSIS_DSP/Source/BasicMathFunctions/arm_not_u16.c ****     }
 110:../Dave/Generated/CMSIS_DSP/Source/BasicMathFunctions/arm_not_u16.c **** 
 111:../Dave/Generated/CMSIS_DSP/Source/BasicMathFunctions/arm_not_u16.c ****     /* Tail */
 112:../Dave/Generated/CMSIS_DSP/Source/BasicMathFunctions/arm_not_u16.c ****     blkCnt = blockSize & 7;
 113:../Dave/Generated/CMSIS_DSP/Source/BasicMathFunctions/arm_not_u16.c **** #else
 114:../Dave/Generated/CMSIS_DSP/Source/BasicMathFunctions/arm_not_u16.c ****     /* Initialize blkCnt with number of samples */
 115:../Dave/Generated/CMSIS_DSP/Source/BasicMathFunctions/arm_not_u16.c ****     blkCnt = blockSize;
  46              	 .loc 1 115 0
  47 000c 7B68     	 ldr r3,[r7,#4]
  48 000e 7B61     	 str r3,[r7,#20]
 116:../Dave/Generated/CMSIS_DSP/Source/BasicMathFunctions/arm_not_u16.c **** #endif
 117:../Dave/Generated/CMSIS_DSP/Source/BasicMathFunctions/arm_not_u16.c **** 
 118:../Dave/Generated/CMSIS_DSP/Source/BasicMathFunctions/arm_not_u16.c ****     while (blkCnt > 0U)
  49              	 .loc 1 118 0
  50 0010 0CE0     	 b .L2
  51              	.L3:
 119:../Dave/Generated/CMSIS_DSP/Source/BasicMathFunctions/arm_not_u16.c ****     {
 120:../Dave/Generated/CMSIS_DSP/Source/BasicMathFunctions/arm_not_u16.c ****         *pDst++ = ~(*pSrc++);
  52              	 .loc 1 120 0
  53 0012 BB68     	 ldr r3,[r7,#8]
  54 0014 9A1C     	 adds r2,r3,#2
  55 0016 BA60     	 str r2,[r7,#8]
  56 0018 FA68     	 ldr r2,[r7,#12]
  57 001a 911C     	 adds r1,r2,#2
  58 001c F960     	 str r1,[r7,#12]
  59 001e 1288     	 ldrh r2,[r2]
  60 0020 D243     	 mvns r2,r2
  61 0022 92B2     	 uxth r2,r2
  62 0024 1A80     	 strh r2,[r3]
 121:../Dave/Generated/CMSIS_DSP/Source/BasicMathFunctions/arm_not_u16.c **** 
 122:../Dave/Generated/CMSIS_DSP/Source/BasicMathFunctions/arm_not_u16.c ****         /* Decrement the loop counter */
 123:../Dave/Generated/CMSIS_DSP/Source/BasicMathFunctions/arm_not_u16.c ****         blkCnt--;
  63              	 .loc 1 123 0
  64 0026 7B69     	 ldr r3,[r7,#20]
  65 0028 013B     	 subs r3,r3,#1
  66 002a 7B61     	 str r3,[r7,#20]
  67              	.L2:
 118:../Dave/Generated/CMSIS_DSP/Source/BasicMathFunctions/arm_not_u16.c ****     {
  68              	 .loc 1 118 0
  69 002c 7B69     	 ldr r3,[r7,#20]
  70 002e 002B     	 cmp r3,#0
  71 0030 EFD1     	 bne .L3
 124:../Dave/Generated/CMSIS_DSP/Source/BasicMathFunctions/arm_not_u16.c ****     }
 125:../Dave/Generated/CMSIS_DSP/Source/BasicMathFunctions/arm_not_u16.c **** #endif /* if defined(ARM_MATH_MVEI) */
 126:../Dave/Generated/CMSIS_DSP/Source/BasicMathFunctions/arm_not_u16.c **** }
  72              	 .loc 1 126 0
  73 0032 1C37     	 adds r7,r7,#28
  74              	.LCFI3:
  75              	 .cfi_def_cfa_offset 4
  76 0034 BD46     	 mov sp,r7
  77              	.LCFI4:
  78              	 .cfi_def_cfa_register 13
  79              	 
  80 0036 5DF8047B 	 ldr r7,[sp],#4
  81              	.LCFI5:
  82              	 .cfi_restore 7
  83              	 .cfi_def_cfa_offset 0
  84 003a 7047     	 bx lr
  85              	 .cfi_endproc
  86              	.LFE149:
  88              	 .text
  89              	.Letext0:
  90              	 .file 2 "c:\\infineon\\tools\\dave ide\\4.5.0.202105191637\\eclipse\\arm-gcc-49\\arm-none-eabi\\include\\machine\\_default_types.h"
  91              	 .file 3 "c:\\infineon\\tools\\dave ide\\4.5.0.202105191637\\eclipse\\arm-gcc-49\\arm-none-eabi\\include\\stdint.h"
  92              	 .file 4 "C:/Users/Rui Mendes/Desktop/DAVE/_Naive/_ForTesting/Libraries/CMSIS/Include/cmsis_gcc.h"