   1              	 .syntax unified
   2              	 .cpu cortex-m4
   3              	 .eabi_attribute 27,3
   4              	 .fpu fpv4-sp-d16
   5              	 .eabi_attribute 20,1
   6              	 .eabi_attribute 21,1
   7              	 .eabi_attribute 23,3
   8              	 .eabi_attribute 24,1
   9              	 .eabi_attribute 25,1
  10              	 .eabi_attribute 26,1
  11              	 .eabi_attribute 30,6
  12              	 .eabi_attribute 34,1
  13              	 .eabi_attribute 18,4
  14              	 .thumb
  15              	 .file "DAVE.c"
  16              	 .text
  17              	.Ltext0:
  18              	 .cfi_sections .debug_frame
  19              	 .section .text.DAVE_Init,"ax",%progbits
  20              	 .align 2
  21              	 .weak DAVE_Init
  22              	 .thumb
  23              	 .thumb_func
  25              	DAVE_Init:
  26              	.LFB375:
  27              	 .file 1 "../Dave/Generated/DAVE.c"
   1:../Dave/Generated/DAVE.c **** 
   2:../Dave/Generated/DAVE.c **** /**
   3:../Dave/Generated/DAVE.c ****  * @cond
   4:../Dave/Generated/DAVE.c ****  **************************************************************************************************
   5:../Dave/Generated/DAVE.c ****  *
   6:../Dave/Generated/DAVE.c ****  * Copyright (c) 2015-2020, Infineon Technologies AG
   7:../Dave/Generated/DAVE.c ****  * All rights reserved.
   8:../Dave/Generated/DAVE.c ****  *
   9:../Dave/Generated/DAVE.c ****  * Redistribution and use in source and binary forms, with or without modification,are permitted pr
  10:../Dave/Generated/DAVE.c ****  * following conditions are met:
  11:../Dave/Generated/DAVE.c ****  *
  12:../Dave/Generated/DAVE.c ****  *   Redistributions of source code must retain the above copyright notice, this list of conditions
  13:../Dave/Generated/DAVE.c ****  *   disclaimer.
  14:../Dave/Generated/DAVE.c ****  *
  15:../Dave/Generated/DAVE.c ****  *   Redistributions in binary form must reproduce the above copyright notice, this list of conditi
  16:../Dave/Generated/DAVE.c ****  *   following disclaimer in the documentation and/or other materials provided with the distributio
  17:../Dave/Generated/DAVE.c ****  *
  18:../Dave/Generated/DAVE.c ****  *   Neither the name of the copyright holders nor the names of its contributors may be used to end
  19:../Dave/Generated/DAVE.c ****  *   products derived from this software without specific prior written permission.
  20:../Dave/Generated/DAVE.c ****  *
  21:../Dave/Generated/DAVE.c ****  * THIS SOFTWARE IS PROVIDED BY THE COPYRIGHT HOLDERS AND CONTRIBUTORS "AS IS" AND ANY EXPRESS OR I
  22:../Dave/Generated/DAVE.c ****  * INCLUDING, BUT NOT LIMITED TO, THE IMPLIED WARRANTIES OF MERCHANTABILITY AND FITNESS FOR A PARTI
  23:../Dave/Generated/DAVE.c ****  * DISCLAIMED. IN NO EVENT SHALL THE COPYRIGHT HOLDER OR CONTRIBUTORS BE LIABLE  FOR ANY DIRECT, IN
  24:../Dave/Generated/DAVE.c ****  * SPECIAL, EXEMPLARY, OR CONSEQUENTIAL DAMAGES (INCLUDING, BUT NOT LIMITED TO, PROCUREMENT OF SUBS
  25:../Dave/Generated/DAVE.c ****  * SERVICES; LOSS OF USE, DATA, OR PROFITS; OR BUSINESS INTERRUPTION) HOWEVER CAUSED AND ON ANY THE
  26:../Dave/Generated/DAVE.c ****  * WHETHER IN CONTRACT, STRICT LIABILITY,OR TORT (INCLUDING NEGLIGENCE OR OTHERWISE) ARISING IN ANY
  27:../Dave/Generated/DAVE.c ****  * USE OF THIS SOFTWARE, EVEN IF ADVISED OF THE POSSIBILITY OF SUCH DAMAGE.
  28:../Dave/Generated/DAVE.c ****  *
  29:../Dave/Generated/DAVE.c ****  * To improve the quality of the software, users are encouraged to share modifications, enhancement
  30:../Dave/Generated/DAVE.c ****  * with Infineon Technologies AG (dave@infineon.com).
  31:../Dave/Generated/DAVE.c ****  **************************************************************************************************
  32:../Dave/Generated/DAVE.c ****  *
  33:../Dave/Generated/DAVE.c ****  * Change History
  34:../Dave/Generated/DAVE.c ****  * --------------
  35:../Dave/Generated/DAVE.c ****  *
  36:../Dave/Generated/DAVE.c ****  * 2014-06-16:
  37:../Dave/Generated/DAVE.c ****  *     - Initial version<br>
  38:../Dave/Generated/DAVE.c ****  * 2015-08-28:
  39:../Dave/Generated/DAVE.c ****  *     - Added CLOCK_XMC1_Init conditionally
  40:../Dave/Generated/DAVE.c ****  * 2018-08-08:
  41:../Dave/Generated/DAVE.c ****  *     - Add creation of projectData.bak file
  42:../Dave/Generated/DAVE.c ****  * 2019-01-30:
  43:../Dave/Generated/DAVE.c ****  *     - Fix creation of projectData.bak file
  44:../Dave/Generated/DAVE.c ****  * 2019-04-29:
  45:../Dave/Generated/DAVE.c ****  *     - Make DAVE_Init() weak, the user can reimplement the function
  46:../Dave/Generated/DAVE.c ****  *
  47:../Dave/Generated/DAVE.c ****  * @endcond
  48:../Dave/Generated/DAVE.c ****  *
  49:../Dave/Generated/DAVE.c ****  */
  50:../Dave/Generated/DAVE.c **** 
  51:../Dave/Generated/DAVE.c **** /**************************************************************************************************
  52:../Dave/Generated/DAVE.c ****  * HEADER FILES
  53:../Dave/Generated/DAVE.c ****  **************************************************************************************************
  54:../Dave/Generated/DAVE.c **** #include "DAVE.h"
  55:../Dave/Generated/DAVE.c **** 
  56:../Dave/Generated/DAVE.c **** /**************************************************************************************************
  57:../Dave/Generated/DAVE.c ****  * API IMPLEMENTATION
  58:../Dave/Generated/DAVE.c ****  **************************************************************************************************
  59:../Dave/Generated/DAVE.c **** 
  60:../Dave/Generated/DAVE.c **** /*******************************************************************************
  61:../Dave/Generated/DAVE.c ****  * @brief This function initializes the APPs Init Functions.
  62:../Dave/Generated/DAVE.c ****  *
  63:../Dave/Generated/DAVE.c ****  * @param[in]  None
  64:../Dave/Generated/DAVE.c ****  *
  65:../Dave/Generated/DAVE.c ****  * @return  DAVE_STATUS_t <BR>
  66:../Dave/Generated/DAVE.c ****  ******************************************************************************/
  67:../Dave/Generated/DAVE.c **** __WEAK DAVE_STATUS_t DAVE_Init(void)
  68:../Dave/Generated/DAVE.c **** {
  28              	 .loc 1 68 0
  29              	 .cfi_startproc
  30              	 
  31              	 
  32 0000 80B5     	 push {r7,lr}
  33              	.LCFI0:
  34              	 .cfi_def_cfa_offset 8
  35              	 .cfi_offset 7,-8
  36              	 .cfi_offset 14,-4
  37 0002 82B0     	 sub sp,sp,#8
  38              	.LCFI1:
  39              	 .cfi_def_cfa_offset 16
  40 0004 00AF     	 add r7,sp,#0
  41              	.LCFI2:
  42              	 .cfi_def_cfa_register 7
  69:../Dave/Generated/DAVE.c ****   DAVE_STATUS_t init_status;
  70:../Dave/Generated/DAVE.c ****   
  71:../Dave/Generated/DAVE.c ****   init_status = DAVE_STATUS_SUCCESS;
  43              	 .loc 1 71 0
  44 0006 0023     	 movs r3,#0
  45 0008 FB71     	 strb r3,[r7,#7]
  72:../Dave/Generated/DAVE.c ****      /** @Initialization of APPs Init Functions */
  73:../Dave/Generated/DAVE.c ****      init_status = (DAVE_STATUS_t)CLOCK_XMC4_Init(&CLOCK_XMC4_0);
  46              	 .loc 1 73 0
  47 000a 1548     	 ldr r0,.L7
  48 000c FFF7FEFF 	 bl CLOCK_XMC4_Init
  49 0010 0346     	 mov r3,r0
  50 0012 FB71     	 strb r3,[r7,#7]
  74:../Dave/Generated/DAVE.c **** 
  75:../Dave/Generated/DAVE.c ****   if (init_status == DAVE_STATUS_SUCCESS)
  51              	 .loc 1 75 0
  52 0014 FB79     	 ldrb r3,[r7,#7]
  53 0016 002B     	 cmp r3,#0
  54 0018 04D1     	 bne .L2
  76:../Dave/Generated/DAVE.c ****   {
  77:../Dave/Generated/DAVE.c **** 	 /**  Initialization of ADC_MEASUREMENT APP instance ADC_MEASUREMENT_0 */
  78:../Dave/Generated/DAVE.c **** 	 init_status = (DAVE_STATUS_t)ADC_MEASUREMENT_Init(&ADC_MEASUREMENT_0); 
  55              	 .loc 1 78 0
  56 001a 1248     	 ldr r0,.L7+4
  57 001c FFF7FEFF 	 bl ADC_MEASUREMENT_Init
  58 0020 0346     	 mov r3,r0
  59 0022 FB71     	 strb r3,[r7,#7]
  60              	.L2:
  79:../Dave/Generated/DAVE.c ****    } 
  80:../Dave/Generated/DAVE.c ****   if (init_status == DAVE_STATUS_SUCCESS)
  61              	 .loc 1 80 0
  62 0024 FB79     	 ldrb r3,[r7,#7]
  63 0026 002B     	 cmp r3,#0
  64 0028 04D1     	 bne .L3
  81:../Dave/Generated/DAVE.c ****   {
  82:../Dave/Generated/DAVE.c **** 	 /**  Initialization of PWM_SVM APP instance PWM_SVM_0 */
  83:../Dave/Generated/DAVE.c **** 	 init_status = (DAVE_STATUS_t)PWM_SVM_Init(&PWM_SVM_0); 
  65              	 .loc 1 83 0
  66 002a 0F48     	 ldr r0,.L7+8
  67 002c FFF7FEFF 	 bl PWM_SVM_Init
  68 0030 0346     	 mov r3,r0
  69 0032 FB71     	 strb r3,[r7,#7]
  70              	.L3:
  84:../Dave/Generated/DAVE.c ****    } 
  85:../Dave/Generated/DAVE.c ****   if (init_status == DAVE_STATUS_SUCCESS)
  71              	 .loc 1 85 0
  72 0034 FB79     	 ldrb r3,[r7,#7]
  73 0036 002B     	 cmp r3,#0
  74 0038 04D1     	 bne .L4
  86:../Dave/Generated/DAVE.c ****   {
  87:../Dave/Generated/DAVE.c **** 	 /**  Initialization of PWM APP instance PWM_0 */
  88:../Dave/Generated/DAVE.c **** 	 init_status = (DAVE_STATUS_t)PWM_Init(&PWM_0); 
  75              	 .loc 1 88 0
  76 003a 0C48     	 ldr r0,.L7+12
  77 003c FFF7FEFF 	 bl PWM_Init
  78 0040 0346     	 mov r3,r0
  79 0042 FB71     	 strb r3,[r7,#7]
  80              	.L4:
  89:../Dave/Generated/DAVE.c ****    } 
  90:../Dave/Generated/DAVE.c ****   if (init_status == DAVE_STATUS_SUCCESS)
  81              	 .loc 1 90 0
  82 0044 FB79     	 ldrb r3,[r7,#7]
  83 0046 002B     	 cmp r3,#0
  84 0048 04D1     	 bne .L5
  91:../Dave/Generated/DAVE.c ****   {
  92:../Dave/Generated/DAVE.c **** 	 /**  Initialization of INTERRUPT APP instance INTERRUPT_0 */
  93:../Dave/Generated/DAVE.c **** 	 init_status = (DAVE_STATUS_t)INTERRUPT_Init(&INTERRUPT_0); 
  85              	 .loc 1 93 0
  86 004a 0948     	 ldr r0,.L7+16
  87 004c FFF7FEFF 	 bl INTERRUPT_Init
  88 0050 0346     	 mov r3,r0
  89 0052 FB71     	 strb r3,[r7,#7]
  90              	.L5:
  94:../Dave/Generated/DAVE.c ****    }  
  95:../Dave/Generated/DAVE.c ****   return init_status;
  91              	 .loc 1 95 0
  92 0054 FB79     	 ldrb r3,[r7,#7]
  96:../Dave/Generated/DAVE.c **** } /**  End of function DAVE_Init */
  93              	 .loc 1 96 0
  94 0056 1846     	 mov r0,r3
  95 0058 0837     	 adds r7,r7,#8
  96              	.LCFI3:
  97              	 .cfi_def_cfa_offset 8
  98 005a BD46     	 mov sp,r7
  99              	.LCFI4:
 100              	 .cfi_def_cfa_register 13
 101              	 
 102 005c 80BD     	 pop {r7,pc}
 103              	.L8:
 104 005e 00BF     	 .align 2
 105              	.L7:
 106 0060 00000000 	 .word CLOCK_XMC4_0
 107 0064 00000000 	 .word ADC_MEASUREMENT_0
 108 0068 00000000 	 .word PWM_SVM_0
 109 006c 00000000 	 .word PWM_0
 110 0070 00000000 	 .word INTERRUPT_0
 111              	 .cfi_endproc
 112              	.LFE375:
 114              	 .text
 115              	.Letext0:
 116              	 .file 2 "c:\\infineon\\tools\\dave ide\\4.5.0.202105191637\\eclipse\\arm-gcc-49\\arm-none-eabi\\include\\machine\\_default_types.h"
 117              	 .file 3 "c:\\infineon\\tools\\dave ide\\4.5.0.202105191637\\eclipse\\arm-gcc-49\\arm-none-eabi\\include\\stdint.h"
 118              	 .file 4 "C:/Users/Rui Mendes/Desktop/DAVE/Dissertation/Dissertation_TCU/_FullProject/Libraries/CMSIS/Infineon/XMC4500_series/Include/XMC4500.h"
 119              	 .file 5 "C:/Users/Rui Mendes/Desktop/DAVE/Dissertation/Dissertation_TCU/_FullProject/Libraries/XMCLib/inc/xmc4_scu.h"
 120              	 .file 6 "C:/Users/Rui Mendes/Desktop/DAVE/Dissertation/Dissertation_TCU/_FullProject/Libraries/XMCLib/inc/xmc_gpio.h"
 121              	 .file 7 "C:/Users/Rui Mendes/Desktop/DAVE/Dissertation/Dissertation_TCU/_FullProject/Libraries/XMCLib/inc/xmc4_gpio.h"
 122              	 .file 8 "../Dave/Generated/CLOCK_XMC4/clock_xmc4.h"
 123              	 .file 9 "C:/Users/Rui Mendes/Desktop/DAVE/Dissertation/Dissertation_TCU/_FullProject/Libraries/XMCLib/inc/xmc_vadc.h"
 124              	 .file 10 "../Dave/Generated/GLOBAL_ADC/global_adc.h"
 125              	 .file 11 "../Dave/Generated/ADC_MEASUREMENT/adc_measurement.h"
 126              	 .file 12 "C:/Users/Rui Mendes/Desktop/DAVE/Dissertation/Dissertation_TCU/_FullProject/Libraries/XMCLib/inc/xmc_ccu8.h"
 127              	 .file 13 "../Dave/Generated/GLOBAL_CCU8/global_ccu8.h"
 128              	 .file 14 "../Dave/Generated/PWM_SVM/pwm_svm.h"
 129              	 .file 15 "C:/Users/Rui Mendes/Desktop/DAVE/Dissertation/Dissertation_TCU/_FullProject/Libraries/XMCLib/inc/xmc_ccu4.h"
 130              	 .file 16 "../Dave/Generated/GLOBAL_CCU4/global_ccu4.h"
 131              	 .file 17 "../Dave/Generated/PWM/pwm.h"
 132              	 .file 18 "../Dave/Generated/INTERRUPT/interrupt.h"
 133              	 .file 19 "../Dave/Generated/DAVE.h"
 134              	 .file 20 "C:/Users/Rui Mendes/Desktop/DAVE/Dissertation/Dissertation_TCU/_FullProject/Libraries/CMSIS/Include/cmsis_gcc.h"
 135              	 .file 21 "C:/Users/Rui Mendes/Desktop/DAVE/Dissertation/Dissertation_TCU/_FullProject/Libraries/CMSIS/Include/core_cm4.h"
 136              	 .file 22 "C:/Users/Rui Mendes/Desktop/DAVE/Dissertation/Dissertation_TCU/_FullProject/Libraries/CMSIS/Infineon/XMC4500_series/Include/system_XMC4500.h"
 137              	 .file 23 "../Dave/Generated/CLOCK_XMC4/clock_xmc4_extern.h"
 138              	 .file 24 "../Dave/Generated/ADC_MEASUREMENT/adc_measurement_extern.h"
 139              	 .file 25 "../Dave/Generated/PWM_SVM/pwm_svm_extern.h"
 140              	 .file 26 "../Dave/Generated/PWM/PWM_Extern.h"
 141              	 .file 27 "../Dave/Generated/INTERRUPT/interrupt_extern.h"