   1              	 .syntax unified
   2              	 .cpu cortex-m4
   3              	 .eabi_attribute 27,3
   4              	 .fpu fpv4-sp-d16
   5              	 .eabi_attribute 20,1
   6              	 .eabi_attribute 21,1
   7              	 .eabi_attribute 23,3
   8              	 .eabi_attribute 24,1
   9              	 .eabi_attribute 25,1
  10              	 .eabi_attribute 26,1
  11              	 .eabi_attribute 30,6
  12              	 .eabi_attribute 34,1
  13              	 .eabi_attribute 18,4
  14              	 .thumb
  15              	 .file "arm_svm_linear_init_f32.c"
  16              	 .text
  17              	.Ltext0:
  18              	 .cfi_sections .debug_frame
  19              	 .section .text.arm_svm_linear_init_f32,"ax",%progbits
  20              	 .align 2
  21              	 .global arm_svm_linear_init_f32
  22              	 .thumb
  23              	 .thumb_func
  25              	arm_svm_linear_init_f32:
  26              	.LFB149:
  27              	 .file 1 "../Dave/Generated/CMSIS_DSP/Source/SVMFunctions/arm_svm_linear_init_f32.c"
   1:../Dave/Generated/CMSIS_DSP/Source/SVMFunctions/arm_svm_linear_init_f32.c **** /* ----------------------------------------------------------------------
   2:../Dave/Generated/CMSIS_DSP/Source/SVMFunctions/arm_svm_linear_init_f32.c ****  * Project:      CMSIS DSP Library
   3:../Dave/Generated/CMSIS_DSP/Source/SVMFunctions/arm_svm_linear_init_f32.c ****  * Title:        arm_svm_linear_init_f32.c
   4:../Dave/Generated/CMSIS_DSP/Source/SVMFunctions/arm_svm_linear_init_f32.c ****  * Description:  SVM Linear Instance Initialization
   5:../Dave/Generated/CMSIS_DSP/Source/SVMFunctions/arm_svm_linear_init_f32.c ****  *
   6:../Dave/Generated/CMSIS_DSP/Source/SVMFunctions/arm_svm_linear_init_f32.c ****  *
   7:../Dave/Generated/CMSIS_DSP/Source/SVMFunctions/arm_svm_linear_init_f32.c ****  * Target Processor: Cortex-M and Cortex-A cores
   8:../Dave/Generated/CMSIS_DSP/Source/SVMFunctions/arm_svm_linear_init_f32.c ****  * -------------------------------------------------------------------- */
   9:../Dave/Generated/CMSIS_DSP/Source/SVMFunctions/arm_svm_linear_init_f32.c **** /*
  10:../Dave/Generated/CMSIS_DSP/Source/SVMFunctions/arm_svm_linear_init_f32.c ****  * Copyright (C) 2010-2019 ARM Limited or its affiliates. All rights reserved.
  11:../Dave/Generated/CMSIS_DSP/Source/SVMFunctions/arm_svm_linear_init_f32.c ****  *
  12:../Dave/Generated/CMSIS_DSP/Source/SVMFunctions/arm_svm_linear_init_f32.c ****  * SPDX-License-Identifier: Apache-2.0
  13:../Dave/Generated/CMSIS_DSP/Source/SVMFunctions/arm_svm_linear_init_f32.c ****  *
  14:../Dave/Generated/CMSIS_DSP/Source/SVMFunctions/arm_svm_linear_init_f32.c ****  * Licensed under the Apache License, Version 2.0 (the License); you may
  15:../Dave/Generated/CMSIS_DSP/Source/SVMFunctions/arm_svm_linear_init_f32.c ****  * not use this file except in compliance with the License.
  16:../Dave/Generated/CMSIS_DSP/Source/SVMFunctions/arm_svm_linear_init_f32.c ****  * You may obtain a copy of the License at
  17:../Dave/Generated/CMSIS_DSP/Source/SVMFunctions/arm_svm_linear_init_f32.c ****  *
  18:../Dave/Generated/CMSIS_DSP/Source/SVMFunctions/arm_svm_linear_init_f32.c ****  * www.apache.org/licenses/LICENSE-2.0
  19:../Dave/Generated/CMSIS_DSP/Source/SVMFunctions/arm_svm_linear_init_f32.c ****  *
  20:../Dave/Generated/CMSIS_DSP/Source/SVMFunctions/arm_svm_linear_init_f32.c ****  * Unless required by applicable law or agreed to in writing, software
  21:../Dave/Generated/CMSIS_DSP/Source/SVMFunctions/arm_svm_linear_init_f32.c ****  * distributed under the License is distributed on an AS IS BASIS, WITHOUT
  22:../Dave/Generated/CMSIS_DSP/Source/SVMFunctions/arm_svm_linear_init_f32.c ****  * WARRANTIES OR CONDITIONS OF ANY KIND, either express or implied.
  23:../Dave/Generated/CMSIS_DSP/Source/SVMFunctions/arm_svm_linear_init_f32.c ****  * See the License for the specific language governing permissions and
  24:../Dave/Generated/CMSIS_DSP/Source/SVMFunctions/arm_svm_linear_init_f32.c ****  * limitations under the License.
  25:../Dave/Generated/CMSIS_DSP/Source/SVMFunctions/arm_svm_linear_init_f32.c ****  */
  26:../Dave/Generated/CMSIS_DSP/Source/SVMFunctions/arm_svm_linear_init_f32.c **** 
  27:../Dave/Generated/CMSIS_DSP/Source/SVMFunctions/arm_svm_linear_init_f32.c **** #include "CMSIS_DSP/cmsis_dsp.h"
  28:../Dave/Generated/CMSIS_DSP/Source/SVMFunctions/arm_svm_linear_init_f32.c **** #include <limits.h>
  29:../Dave/Generated/CMSIS_DSP/Source/SVMFunctions/arm_svm_linear_init_f32.c **** #include <math.h>
  30:../Dave/Generated/CMSIS_DSP/Source/SVMFunctions/arm_svm_linear_init_f32.c **** 
  31:../Dave/Generated/CMSIS_DSP/Source/SVMFunctions/arm_svm_linear_init_f32.c **** /**
  32:../Dave/Generated/CMSIS_DSP/Source/SVMFunctions/arm_svm_linear_init_f32.c ****  * @defgroup groupSVM SVM Functions
  33:../Dave/Generated/CMSIS_DSP/Source/SVMFunctions/arm_svm_linear_init_f32.c ****  *
  34:../Dave/Generated/CMSIS_DSP/Source/SVMFunctions/arm_svm_linear_init_f32.c ****  */
  35:../Dave/Generated/CMSIS_DSP/Source/SVMFunctions/arm_svm_linear_init_f32.c **** 
  36:../Dave/Generated/CMSIS_DSP/Source/SVMFunctions/arm_svm_linear_init_f32.c **** 
  37:../Dave/Generated/CMSIS_DSP/Source/SVMFunctions/arm_svm_linear_init_f32.c **** /**
  38:../Dave/Generated/CMSIS_DSP/Source/SVMFunctions/arm_svm_linear_init_f32.c ****  * @addtogroup groupSVM
  39:../Dave/Generated/CMSIS_DSP/Source/SVMFunctions/arm_svm_linear_init_f32.c ****  * @{
  40:../Dave/Generated/CMSIS_DSP/Source/SVMFunctions/arm_svm_linear_init_f32.c ****  */
  41:../Dave/Generated/CMSIS_DSP/Source/SVMFunctions/arm_svm_linear_init_f32.c **** 
  42:../Dave/Generated/CMSIS_DSP/Source/SVMFunctions/arm_svm_linear_init_f32.c **** 
  43:../Dave/Generated/CMSIS_DSP/Source/SVMFunctions/arm_svm_linear_init_f32.c **** /**
  44:../Dave/Generated/CMSIS_DSP/Source/SVMFunctions/arm_svm_linear_init_f32.c ****  * @brief        SVM linear instance init function
  45:../Dave/Generated/CMSIS_DSP/Source/SVMFunctions/arm_svm_linear_init_f32.c ****  *
  46:../Dave/Generated/CMSIS_DSP/Source/SVMFunctions/arm_svm_linear_init_f32.c ****  * Classes are integer used as output of the function (instead of having -1,1
  47:../Dave/Generated/CMSIS_DSP/Source/SVMFunctions/arm_svm_linear_init_f32.c ****  * as class values).
  48:../Dave/Generated/CMSIS_DSP/Source/SVMFunctions/arm_svm_linear_init_f32.c ****  *
  49:../Dave/Generated/CMSIS_DSP/Source/SVMFunctions/arm_svm_linear_init_f32.c ****  * @param[in]    S                      Parameters for the SVM function
  50:../Dave/Generated/CMSIS_DSP/Source/SVMFunctions/arm_svm_linear_init_f32.c ****  * @param[in]    nbOfSupportVectors     Number of support vectors
  51:../Dave/Generated/CMSIS_DSP/Source/SVMFunctions/arm_svm_linear_init_f32.c ****  * @param[in]    vectorDimension        Dimension of vector space
  52:../Dave/Generated/CMSIS_DSP/Source/SVMFunctions/arm_svm_linear_init_f32.c ****  * @param[in]    intercept              Intercept
  53:../Dave/Generated/CMSIS_DSP/Source/SVMFunctions/arm_svm_linear_init_f32.c ****  * @param[in]    dualCoefficients       Array of dual coefficients
  54:../Dave/Generated/CMSIS_DSP/Source/SVMFunctions/arm_svm_linear_init_f32.c ****  * @param[in]    supportVectors         Array of support vectors
  55:../Dave/Generated/CMSIS_DSP/Source/SVMFunctions/arm_svm_linear_init_f32.c ****  * @param[in]    classes                Array of 2 classes ID
  56:../Dave/Generated/CMSIS_DSP/Source/SVMFunctions/arm_svm_linear_init_f32.c ****  * @return none.
  57:../Dave/Generated/CMSIS_DSP/Source/SVMFunctions/arm_svm_linear_init_f32.c ****  *
  58:../Dave/Generated/CMSIS_DSP/Source/SVMFunctions/arm_svm_linear_init_f32.c ****  */
  59:../Dave/Generated/CMSIS_DSP/Source/SVMFunctions/arm_svm_linear_init_f32.c **** 
  60:../Dave/Generated/CMSIS_DSP/Source/SVMFunctions/arm_svm_linear_init_f32.c **** 
  61:../Dave/Generated/CMSIS_DSP/Source/SVMFunctions/arm_svm_linear_init_f32.c **** void arm_svm_linear_init_f32(arm_svm_linear_instance_f32 *S, 
  62:../Dave/Generated/CMSIS_DSP/Source/SVMFunctions/arm_svm_linear_init_f32.c ****   uint32_t nbOfSupportVectors,
  63:../Dave/Generated/CMSIS_DSP/Source/SVMFunctions/arm_svm_linear_init_f32.c ****   uint32_t vectorDimension,
  64:../Dave/Generated/CMSIS_DSP/Source/SVMFunctions/arm_svm_linear_init_f32.c ****   float32_t intercept,
  65:../Dave/Generated/CMSIS_DSP/Source/SVMFunctions/arm_svm_linear_init_f32.c ****   const float32_t *dualCoefficients,
  66:../Dave/Generated/CMSIS_DSP/Source/SVMFunctions/arm_svm_linear_init_f32.c ****   const float32_t *supportVectors,
  67:../Dave/Generated/CMSIS_DSP/Source/SVMFunctions/arm_svm_linear_init_f32.c ****   const int32_t *classes)
  68:../Dave/Generated/CMSIS_DSP/Source/SVMFunctions/arm_svm_linear_init_f32.c **** {
  28              	 .loc 1 68 0
  29              	 .cfi_startproc
  30              	 
  31              	 
  32              	 
  33 0000 80B4     	 push {r7}
  34              	.LCFI0:
  35              	 .cfi_def_cfa_offset 4
  36              	 .cfi_offset 7,-4
  37 0002 85B0     	 sub sp,sp,#20
  38              	.LCFI1:
  39              	 .cfi_def_cfa_offset 24
  40 0004 00AF     	 add r7,sp,#0
  41              	.LCFI2:
  42              	 .cfi_def_cfa_register 7
  43 0006 F860     	 str r0,[r7,#12]
  44 0008 B960     	 str r1,[r7,#8]
  45 000a 7A60     	 str r2,[r7,#4]
  46 000c 3B60     	 str r3,[r7]
  69:../Dave/Generated/CMSIS_DSP/Source/SVMFunctions/arm_svm_linear_init_f32.c ****    S->nbOfSupportVectors = nbOfSupportVectors;
  47              	 .loc 1 69 0
  48 000e FB68     	 ldr r3,[r7,#12]
  49 0010 BA68     	 ldr r2,[r7,#8]
  50 0012 1A60     	 str r2,[r3]
  70:../Dave/Generated/CMSIS_DSP/Source/SVMFunctions/arm_svm_linear_init_f32.c ****    S->vectorDimension = vectorDimension;
  51              	 .loc 1 70 0
  52 0014 FB68     	 ldr r3,[r7,#12]
  53 0016 7A68     	 ldr r2,[r7,#4]
  54 0018 5A60     	 str r2,[r3,#4]
  71:../Dave/Generated/CMSIS_DSP/Source/SVMFunctions/arm_svm_linear_init_f32.c ****    S->intercept = intercept;
  55              	 .loc 1 71 0
  56 001a FB68     	 ldr r3,[r7,#12]
  57 001c 3A68     	 ldr r2,[r7]
  58 001e 9A60     	 str r2,[r3,#8]
  72:../Dave/Generated/CMSIS_DSP/Source/SVMFunctions/arm_svm_linear_init_f32.c ****    S->dualCoefficients = dualCoefficients;
  59              	 .loc 1 72 0
  60 0020 FB68     	 ldr r3,[r7,#12]
  61 0022 BA69     	 ldr r2,[r7,#24]
  62 0024 DA60     	 str r2,[r3,#12]
  73:../Dave/Generated/CMSIS_DSP/Source/SVMFunctions/arm_svm_linear_init_f32.c ****    S->supportVectors = supportVectors;
  63              	 .loc 1 73 0
  64 0026 FB68     	 ldr r3,[r7,#12]
  65 0028 FA69     	 ldr r2,[r7,#28]
  66 002a 1A61     	 str r2,[r3,#16]
  74:../Dave/Generated/CMSIS_DSP/Source/SVMFunctions/arm_svm_linear_init_f32.c ****    S->classes = classes;
  67              	 .loc 1 74 0
  68 002c FB68     	 ldr r3,[r7,#12]
  69 002e 3A6A     	 ldr r2,[r7,#32]
  70 0030 5A61     	 str r2,[r3,#20]
  75:../Dave/Generated/CMSIS_DSP/Source/SVMFunctions/arm_svm_linear_init_f32.c **** }
  71              	 .loc 1 75 0
  72 0032 1437     	 adds r7,r7,#20
  73              	.LCFI3:
  74              	 .cfi_def_cfa_offset 4
  75 0034 BD46     	 mov sp,r7
  76              	.LCFI4:
  77              	 .cfi_def_cfa_register 13
  78              	 
  79 0036 5DF8047B 	 ldr r7,[sp],#4
  80              	.LCFI5:
  81              	 .cfi_restore 7
  82              	 .cfi_def_cfa_offset 0
  83 003a 7047     	 bx lr
  84              	 .cfi_endproc
  85              	.LFE149:
  87              	 .text
  88              	.Letext0:
  89              	 .file 2 "c:\\infineon\\tools\\dave ide\\4.5.0.202105191637\\eclipse\\arm-gcc-49\\arm-none-eabi\\include\\machine\\_default_types.h"
  90              	 .file 3 "c:\\infineon\\tools\\dave ide\\4.5.0.202105191637\\eclipse\\arm-gcc-49\\arm-none-eabi\\include\\stdint.h"
  91              	 .file 4 "C:/Users/Rui Mendes/Desktop/DAVE/_Naive/_ForTesting/Dave/Generated/CMSIS_DSP/Include/arm_math.h"
  92              	 .file 5 "C:/Users/Rui Mendes/Desktop/DAVE/_Naive/_ForTesting/Libraries/CMSIS/Include/cmsis_gcc.h"