   1              	 .syntax unified
   2              	 .cpu cortex-m4
   3              	 .eabi_attribute 27,3
   4              	 .fpu fpv4-sp-d16
   5              	 .eabi_attribute 20,1
   6              	 .eabi_attribute 21,1
   7              	 .eabi_attribute 23,3
   8              	 .eabi_attribute 24,1
   9              	 .eabi_attribute 25,1
  10              	 .eabi_attribute 26,1
  11              	 .eabi_attribute 30,6
  12              	 .eabi_attribute 34,1
  13              	 .eabi_attribute 18,4
  14              	 .thumb
  15              	 .file "arm_svm_linear_predict_f32.c"
  16              	 .text
  17              	.Ltext0:
  18              	 .cfi_sections .debug_frame
  19              	 .section .text.arm_svm_linear_predict_f32,"ax",%progbits
  20              	 .align 2
  21              	 .global arm_svm_linear_predict_f32
  22              	 .thumb
  23              	 .thumb_func
  25              	arm_svm_linear_predict_f32:
  26              	.LFB149:
  27              	 .file 1 "../Dave/Generated/CMSIS_DSP/Source/SVMFunctions/arm_svm_linear_predict_f32.c"
   1:../Dave/Generated/CMSIS_DSP/Source/SVMFunctions/arm_svm_linear_predict_f32.c **** /* ----------------------------------------------------------------------
   2:../Dave/Generated/CMSIS_DSP/Source/SVMFunctions/arm_svm_linear_predict_f32.c ****  * Project:      CMSIS DSP Library
   3:../Dave/Generated/CMSIS_DSP/Source/SVMFunctions/arm_svm_linear_predict_f32.c ****  * Title:        arm_svm_linear_predict_f32.c
   4:../Dave/Generated/CMSIS_DSP/Source/SVMFunctions/arm_svm_linear_predict_f32.c ****  * Description:  SVM Linear Classifier
   5:../Dave/Generated/CMSIS_DSP/Source/SVMFunctions/arm_svm_linear_predict_f32.c ****  *
   6:../Dave/Generated/CMSIS_DSP/Source/SVMFunctions/arm_svm_linear_predict_f32.c ****  *
   7:../Dave/Generated/CMSIS_DSP/Source/SVMFunctions/arm_svm_linear_predict_f32.c ****  * Target Processor: Cortex-M and Cortex-A cores
   8:../Dave/Generated/CMSIS_DSP/Source/SVMFunctions/arm_svm_linear_predict_f32.c ****  * -------------------------------------------------------------------- */
   9:../Dave/Generated/CMSIS_DSP/Source/SVMFunctions/arm_svm_linear_predict_f32.c **** /*
  10:../Dave/Generated/CMSIS_DSP/Source/SVMFunctions/arm_svm_linear_predict_f32.c ****  * Copyright (C) 2010-2019 ARM Limited or its affiliates. All rights reserved.
  11:../Dave/Generated/CMSIS_DSP/Source/SVMFunctions/arm_svm_linear_predict_f32.c ****  *
  12:../Dave/Generated/CMSIS_DSP/Source/SVMFunctions/arm_svm_linear_predict_f32.c ****  * SPDX-License-Identifier: Apache-2.0
  13:../Dave/Generated/CMSIS_DSP/Source/SVMFunctions/arm_svm_linear_predict_f32.c ****  *
  14:../Dave/Generated/CMSIS_DSP/Source/SVMFunctions/arm_svm_linear_predict_f32.c ****  * Licensed under the Apache License, Version 2.0 (the License); you may
  15:../Dave/Generated/CMSIS_DSP/Source/SVMFunctions/arm_svm_linear_predict_f32.c ****  * not use this file except in compliance with the License.
  16:../Dave/Generated/CMSIS_DSP/Source/SVMFunctions/arm_svm_linear_predict_f32.c ****  * You may obtain a copy of the License at
  17:../Dave/Generated/CMSIS_DSP/Source/SVMFunctions/arm_svm_linear_predict_f32.c ****  *
  18:../Dave/Generated/CMSIS_DSP/Source/SVMFunctions/arm_svm_linear_predict_f32.c ****  * www.apache.org/licenses/LICENSE-2.0
  19:../Dave/Generated/CMSIS_DSP/Source/SVMFunctions/arm_svm_linear_predict_f32.c ****  *
  20:../Dave/Generated/CMSIS_DSP/Source/SVMFunctions/arm_svm_linear_predict_f32.c ****  * Unless required by applicable law or agreed to in writing, software
  21:../Dave/Generated/CMSIS_DSP/Source/SVMFunctions/arm_svm_linear_predict_f32.c ****  * distributed under the License is distributed on an AS IS BASIS, WITHOUT
  22:../Dave/Generated/CMSIS_DSP/Source/SVMFunctions/arm_svm_linear_predict_f32.c ****  * WARRANTIES OR CONDITIONS OF ANY KIND, either express or implied.
  23:../Dave/Generated/CMSIS_DSP/Source/SVMFunctions/arm_svm_linear_predict_f32.c ****  * See the License for the specific language governing permissions and
  24:../Dave/Generated/CMSIS_DSP/Source/SVMFunctions/arm_svm_linear_predict_f32.c ****  * limitations under the License.
  25:../Dave/Generated/CMSIS_DSP/Source/SVMFunctions/arm_svm_linear_predict_f32.c ****  */
  26:../Dave/Generated/CMSIS_DSP/Source/SVMFunctions/arm_svm_linear_predict_f32.c **** 
  27:../Dave/Generated/CMSIS_DSP/Source/SVMFunctions/arm_svm_linear_predict_f32.c **** #include "CMSIS_DSP/cmsis_dsp.h"
  28:../Dave/Generated/CMSIS_DSP/Source/SVMFunctions/arm_svm_linear_predict_f32.c **** #include <limits.h>
  29:../Dave/Generated/CMSIS_DSP/Source/SVMFunctions/arm_svm_linear_predict_f32.c **** #include <math.h>
  30:../Dave/Generated/CMSIS_DSP/Source/SVMFunctions/arm_svm_linear_predict_f32.c **** 
  31:../Dave/Generated/CMSIS_DSP/Source/SVMFunctions/arm_svm_linear_predict_f32.c **** 
  32:../Dave/Generated/CMSIS_DSP/Source/SVMFunctions/arm_svm_linear_predict_f32.c **** /**
  33:../Dave/Generated/CMSIS_DSP/Source/SVMFunctions/arm_svm_linear_predict_f32.c ****  * @addtogroup groupSVM
  34:../Dave/Generated/CMSIS_DSP/Source/SVMFunctions/arm_svm_linear_predict_f32.c ****  * @{
  35:../Dave/Generated/CMSIS_DSP/Source/SVMFunctions/arm_svm_linear_predict_f32.c ****  */
  36:../Dave/Generated/CMSIS_DSP/Source/SVMFunctions/arm_svm_linear_predict_f32.c **** 
  37:../Dave/Generated/CMSIS_DSP/Source/SVMFunctions/arm_svm_linear_predict_f32.c **** 
  38:../Dave/Generated/CMSIS_DSP/Source/SVMFunctions/arm_svm_linear_predict_f32.c **** /**
  39:../Dave/Generated/CMSIS_DSP/Source/SVMFunctions/arm_svm_linear_predict_f32.c ****  * @brief SVM linear prediction
  40:../Dave/Generated/CMSIS_DSP/Source/SVMFunctions/arm_svm_linear_predict_f32.c ****  * @param[in]    S          Pointer to an instance of the linear SVM structure.
  41:../Dave/Generated/CMSIS_DSP/Source/SVMFunctions/arm_svm_linear_predict_f32.c ****  * @param[in]    in         Pointer to input vector
  42:../Dave/Generated/CMSIS_DSP/Source/SVMFunctions/arm_svm_linear_predict_f32.c ****  * @param[out]   pResult    Decision value
  43:../Dave/Generated/CMSIS_DSP/Source/SVMFunctions/arm_svm_linear_predict_f32.c ****  * @return none.
  44:../Dave/Generated/CMSIS_DSP/Source/SVMFunctions/arm_svm_linear_predict_f32.c ****  *
  45:../Dave/Generated/CMSIS_DSP/Source/SVMFunctions/arm_svm_linear_predict_f32.c ****  */
  46:../Dave/Generated/CMSIS_DSP/Source/SVMFunctions/arm_svm_linear_predict_f32.c **** #if defined(ARM_MATH_MVEF) && !defined(ARM_MATH_AUTOVECTORIZE)
  47:../Dave/Generated/CMSIS_DSP/Source/SVMFunctions/arm_svm_linear_predict_f32.c **** 
  48:../Dave/Generated/CMSIS_DSP/Source/SVMFunctions/arm_svm_linear_predict_f32.c **** #include "CMSIS_DSP/Include/arm_helium_utils.h"
  49:../Dave/Generated/CMSIS_DSP/Source/SVMFunctions/arm_svm_linear_predict_f32.c **** 
  50:../Dave/Generated/CMSIS_DSP/Source/SVMFunctions/arm_svm_linear_predict_f32.c **** void arm_svm_linear_predict_f32(
  51:../Dave/Generated/CMSIS_DSP/Source/SVMFunctions/arm_svm_linear_predict_f32.c ****     const arm_svm_linear_instance_f32 *S,
  52:../Dave/Generated/CMSIS_DSP/Source/SVMFunctions/arm_svm_linear_predict_f32.c ****     const float32_t * in,
  53:../Dave/Generated/CMSIS_DSP/Source/SVMFunctions/arm_svm_linear_predict_f32.c ****     int32_t * pResult)
  54:../Dave/Generated/CMSIS_DSP/Source/SVMFunctions/arm_svm_linear_predict_f32.c **** {
  55:../Dave/Generated/CMSIS_DSP/Source/SVMFunctions/arm_svm_linear_predict_f32.c ****         /* inlined Matrix x Vector function interleaved with dot prod */
  56:../Dave/Generated/CMSIS_DSP/Source/SVMFunctions/arm_svm_linear_predict_f32.c ****     uint32_t        numRows = S->nbOfSupportVectors;
  57:../Dave/Generated/CMSIS_DSP/Source/SVMFunctions/arm_svm_linear_predict_f32.c ****     uint32_t        numCols = S->vectorDimension;
  58:../Dave/Generated/CMSIS_DSP/Source/SVMFunctions/arm_svm_linear_predict_f32.c ****     const float32_t *pSupport = S->supportVectors;
  59:../Dave/Generated/CMSIS_DSP/Source/SVMFunctions/arm_svm_linear_predict_f32.c ****     const float32_t *pSrcA = pSupport;
  60:../Dave/Generated/CMSIS_DSP/Source/SVMFunctions/arm_svm_linear_predict_f32.c ****     const float32_t *pInA0;
  61:../Dave/Generated/CMSIS_DSP/Source/SVMFunctions/arm_svm_linear_predict_f32.c ****     const float32_t *pInA1;
  62:../Dave/Generated/CMSIS_DSP/Source/SVMFunctions/arm_svm_linear_predict_f32.c ****     uint32_t         row;
  63:../Dave/Generated/CMSIS_DSP/Source/SVMFunctions/arm_svm_linear_predict_f32.c ****     uint32_t         blkCnt;     /* loop counters */
  64:../Dave/Generated/CMSIS_DSP/Source/SVMFunctions/arm_svm_linear_predict_f32.c ****     const float32_t *pDualCoef = S->dualCoefficients;
  65:../Dave/Generated/CMSIS_DSP/Source/SVMFunctions/arm_svm_linear_predict_f32.c ****     float32_t       sum = S->intercept;
  66:../Dave/Generated/CMSIS_DSP/Source/SVMFunctions/arm_svm_linear_predict_f32.c ****     row = numRows;
  67:../Dave/Generated/CMSIS_DSP/Source/SVMFunctions/arm_svm_linear_predict_f32.c **** 
  68:../Dave/Generated/CMSIS_DSP/Source/SVMFunctions/arm_svm_linear_predict_f32.c ****     /*
  69:../Dave/Generated/CMSIS_DSP/Source/SVMFunctions/arm_svm_linear_predict_f32.c ****      * compute 4 rows in parrallel
  70:../Dave/Generated/CMSIS_DSP/Source/SVMFunctions/arm_svm_linear_predict_f32.c ****      */
  71:../Dave/Generated/CMSIS_DSP/Source/SVMFunctions/arm_svm_linear_predict_f32.c ****     while (row >= 4) 
  72:../Dave/Generated/CMSIS_DSP/Source/SVMFunctions/arm_svm_linear_predict_f32.c ****     {
  73:../Dave/Generated/CMSIS_DSP/Source/SVMFunctions/arm_svm_linear_predict_f32.c ****         const float32_t *pInA2, *pInA3;
  74:../Dave/Generated/CMSIS_DSP/Source/SVMFunctions/arm_svm_linear_predict_f32.c ****         float32_t const *pSrcA0Vec, *pSrcA1Vec, *pSrcA2Vec, *pSrcA3Vec, *pInVec;
  75:../Dave/Generated/CMSIS_DSP/Source/SVMFunctions/arm_svm_linear_predict_f32.c ****         f32x4_t         vecIn, acc0, acc1, acc2, acc3;
  76:../Dave/Generated/CMSIS_DSP/Source/SVMFunctions/arm_svm_linear_predict_f32.c ****         float32_t const *pSrcVecPtr = in;
  77:../Dave/Generated/CMSIS_DSP/Source/SVMFunctions/arm_svm_linear_predict_f32.c **** 
  78:../Dave/Generated/CMSIS_DSP/Source/SVMFunctions/arm_svm_linear_predict_f32.c ****         /*
  79:../Dave/Generated/CMSIS_DSP/Source/SVMFunctions/arm_svm_linear_predict_f32.c ****          * Initialize the pointers to 4 consecutive MatrixA rows
  80:../Dave/Generated/CMSIS_DSP/Source/SVMFunctions/arm_svm_linear_predict_f32.c ****          */
  81:../Dave/Generated/CMSIS_DSP/Source/SVMFunctions/arm_svm_linear_predict_f32.c ****         pInA0 = pSrcA;
  82:../Dave/Generated/CMSIS_DSP/Source/SVMFunctions/arm_svm_linear_predict_f32.c ****         pInA1 = pInA0 + numCols;
  83:../Dave/Generated/CMSIS_DSP/Source/SVMFunctions/arm_svm_linear_predict_f32.c ****         pInA2 = pInA1 + numCols;
  84:../Dave/Generated/CMSIS_DSP/Source/SVMFunctions/arm_svm_linear_predict_f32.c ****         pInA3 = pInA2 + numCols;
  85:../Dave/Generated/CMSIS_DSP/Source/SVMFunctions/arm_svm_linear_predict_f32.c ****         /*
  86:../Dave/Generated/CMSIS_DSP/Source/SVMFunctions/arm_svm_linear_predict_f32.c ****          * Initialize the vector pointer
  87:../Dave/Generated/CMSIS_DSP/Source/SVMFunctions/arm_svm_linear_predict_f32.c ****          */
  88:../Dave/Generated/CMSIS_DSP/Source/SVMFunctions/arm_svm_linear_predict_f32.c ****         pInVec = pSrcVecPtr;
  89:../Dave/Generated/CMSIS_DSP/Source/SVMFunctions/arm_svm_linear_predict_f32.c ****         /*
  90:../Dave/Generated/CMSIS_DSP/Source/SVMFunctions/arm_svm_linear_predict_f32.c ****          * reset accumulators
  91:../Dave/Generated/CMSIS_DSP/Source/SVMFunctions/arm_svm_linear_predict_f32.c ****          */
  92:../Dave/Generated/CMSIS_DSP/Source/SVMFunctions/arm_svm_linear_predict_f32.c ****         acc0 = vdupq_n_f32(0.0f);
  93:../Dave/Generated/CMSIS_DSP/Source/SVMFunctions/arm_svm_linear_predict_f32.c ****         acc1 = vdupq_n_f32(0.0f);
  94:../Dave/Generated/CMSIS_DSP/Source/SVMFunctions/arm_svm_linear_predict_f32.c ****         acc2 = vdupq_n_f32(0.0f);
  95:../Dave/Generated/CMSIS_DSP/Source/SVMFunctions/arm_svm_linear_predict_f32.c ****         acc3 = vdupq_n_f32(0.0f);
  96:../Dave/Generated/CMSIS_DSP/Source/SVMFunctions/arm_svm_linear_predict_f32.c **** 
  97:../Dave/Generated/CMSIS_DSP/Source/SVMFunctions/arm_svm_linear_predict_f32.c ****         pSrcA0Vec = pInA0;
  98:../Dave/Generated/CMSIS_DSP/Source/SVMFunctions/arm_svm_linear_predict_f32.c ****         pSrcA1Vec = pInA1;
  99:../Dave/Generated/CMSIS_DSP/Source/SVMFunctions/arm_svm_linear_predict_f32.c ****         pSrcA2Vec = pInA2;
 100:../Dave/Generated/CMSIS_DSP/Source/SVMFunctions/arm_svm_linear_predict_f32.c ****         pSrcA3Vec = pInA3;
 101:../Dave/Generated/CMSIS_DSP/Source/SVMFunctions/arm_svm_linear_predict_f32.c **** 
 102:../Dave/Generated/CMSIS_DSP/Source/SVMFunctions/arm_svm_linear_predict_f32.c ****         blkCnt = numCols >> 2;
 103:../Dave/Generated/CMSIS_DSP/Source/SVMFunctions/arm_svm_linear_predict_f32.c ****         while (blkCnt > 0U) {
 104:../Dave/Generated/CMSIS_DSP/Source/SVMFunctions/arm_svm_linear_predict_f32.c ****             f32x4_t         vecA;
 105:../Dave/Generated/CMSIS_DSP/Source/SVMFunctions/arm_svm_linear_predict_f32.c **** 
 106:../Dave/Generated/CMSIS_DSP/Source/SVMFunctions/arm_svm_linear_predict_f32.c ****             vecIn = vld1q(pInVec);
 107:../Dave/Generated/CMSIS_DSP/Source/SVMFunctions/arm_svm_linear_predict_f32.c ****             pInVec += 4;
 108:../Dave/Generated/CMSIS_DSP/Source/SVMFunctions/arm_svm_linear_predict_f32.c ****             vecA = vld1q(pSrcA0Vec);
 109:../Dave/Generated/CMSIS_DSP/Source/SVMFunctions/arm_svm_linear_predict_f32.c ****             pSrcA0Vec += 4;
 110:../Dave/Generated/CMSIS_DSP/Source/SVMFunctions/arm_svm_linear_predict_f32.c ****             acc0 = vfmaq(acc0, vecIn, vecA);
 111:../Dave/Generated/CMSIS_DSP/Source/SVMFunctions/arm_svm_linear_predict_f32.c ****             vecA = vld1q(pSrcA1Vec);
 112:../Dave/Generated/CMSIS_DSP/Source/SVMFunctions/arm_svm_linear_predict_f32.c ****             pSrcA1Vec += 4;
 113:../Dave/Generated/CMSIS_DSP/Source/SVMFunctions/arm_svm_linear_predict_f32.c ****             acc1 = vfmaq(acc1, vecIn, vecA);
 114:../Dave/Generated/CMSIS_DSP/Source/SVMFunctions/arm_svm_linear_predict_f32.c ****             vecA = vld1q(pSrcA2Vec);
 115:../Dave/Generated/CMSIS_DSP/Source/SVMFunctions/arm_svm_linear_predict_f32.c ****             pSrcA2Vec += 4;
 116:../Dave/Generated/CMSIS_DSP/Source/SVMFunctions/arm_svm_linear_predict_f32.c ****             acc2 = vfmaq(acc2, vecIn, vecA);
 117:../Dave/Generated/CMSIS_DSP/Source/SVMFunctions/arm_svm_linear_predict_f32.c ****             vecA = vld1q(pSrcA3Vec);
 118:../Dave/Generated/CMSIS_DSP/Source/SVMFunctions/arm_svm_linear_predict_f32.c ****             pSrcA3Vec += 4;
 119:../Dave/Generated/CMSIS_DSP/Source/SVMFunctions/arm_svm_linear_predict_f32.c ****             acc3 = vfmaq(acc3, vecIn, vecA);
 120:../Dave/Generated/CMSIS_DSP/Source/SVMFunctions/arm_svm_linear_predict_f32.c **** 
 121:../Dave/Generated/CMSIS_DSP/Source/SVMFunctions/arm_svm_linear_predict_f32.c ****             blkCnt--;
 122:../Dave/Generated/CMSIS_DSP/Source/SVMFunctions/arm_svm_linear_predict_f32.c ****         }
 123:../Dave/Generated/CMSIS_DSP/Source/SVMFunctions/arm_svm_linear_predict_f32.c ****         /*
 124:../Dave/Generated/CMSIS_DSP/Source/SVMFunctions/arm_svm_linear_predict_f32.c ****          * tail
 125:../Dave/Generated/CMSIS_DSP/Source/SVMFunctions/arm_svm_linear_predict_f32.c ****          * (will be merged thru tail predication)
 126:../Dave/Generated/CMSIS_DSP/Source/SVMFunctions/arm_svm_linear_predict_f32.c ****          */
 127:../Dave/Generated/CMSIS_DSP/Source/SVMFunctions/arm_svm_linear_predict_f32.c ****         blkCnt = numCols & 3;
 128:../Dave/Generated/CMSIS_DSP/Source/SVMFunctions/arm_svm_linear_predict_f32.c ****         if (blkCnt > 0U) {
 129:../Dave/Generated/CMSIS_DSP/Source/SVMFunctions/arm_svm_linear_predict_f32.c ****             mve_pred16_t    p0 = vctp32q(blkCnt);
 130:../Dave/Generated/CMSIS_DSP/Source/SVMFunctions/arm_svm_linear_predict_f32.c ****             f32x4_t         vecA;
 131:../Dave/Generated/CMSIS_DSP/Source/SVMFunctions/arm_svm_linear_predict_f32.c **** 
 132:../Dave/Generated/CMSIS_DSP/Source/SVMFunctions/arm_svm_linear_predict_f32.c ****             vecIn = vldrwq_z_f32(pInVec, p0);
 133:../Dave/Generated/CMSIS_DSP/Source/SVMFunctions/arm_svm_linear_predict_f32.c ****             vecA = vldrwq_z_f32(pSrcA0Vec, p0);
 134:../Dave/Generated/CMSIS_DSP/Source/SVMFunctions/arm_svm_linear_predict_f32.c ****             acc0 = vfmaq(acc0, vecIn, vecA);
 135:../Dave/Generated/CMSIS_DSP/Source/SVMFunctions/arm_svm_linear_predict_f32.c ****             vecA = vldrwq_z_f32(pSrcA1Vec, p0);
 136:../Dave/Generated/CMSIS_DSP/Source/SVMFunctions/arm_svm_linear_predict_f32.c ****             acc1 = vfmaq(acc1, vecIn, vecA);
 137:../Dave/Generated/CMSIS_DSP/Source/SVMFunctions/arm_svm_linear_predict_f32.c ****             vecA = vldrwq_z_f32(pSrcA2Vec, p0);
 138:../Dave/Generated/CMSIS_DSP/Source/SVMFunctions/arm_svm_linear_predict_f32.c ****             acc2 = vfmaq(acc2, vecIn, vecA);
 139:../Dave/Generated/CMSIS_DSP/Source/SVMFunctions/arm_svm_linear_predict_f32.c ****             vecA = vldrwq_z_f32(pSrcA3Vec, p0);
 140:../Dave/Generated/CMSIS_DSP/Source/SVMFunctions/arm_svm_linear_predict_f32.c ****             acc3 = vfmaq(acc3, vecIn, vecA);
 141:../Dave/Generated/CMSIS_DSP/Source/SVMFunctions/arm_svm_linear_predict_f32.c ****         }
 142:../Dave/Generated/CMSIS_DSP/Source/SVMFunctions/arm_svm_linear_predict_f32.c ****         /*
 143:../Dave/Generated/CMSIS_DSP/Source/SVMFunctions/arm_svm_linear_predict_f32.c ****          * Sum the partial parts
 144:../Dave/Generated/CMSIS_DSP/Source/SVMFunctions/arm_svm_linear_predict_f32.c ****          */
 145:../Dave/Generated/CMSIS_DSP/Source/SVMFunctions/arm_svm_linear_predict_f32.c ****         sum += *pDualCoef++ * vecAddAcrossF32Mve(acc0);
 146:../Dave/Generated/CMSIS_DSP/Source/SVMFunctions/arm_svm_linear_predict_f32.c ****         sum += *pDualCoef++ * vecAddAcrossF32Mve(acc1);
 147:../Dave/Generated/CMSIS_DSP/Source/SVMFunctions/arm_svm_linear_predict_f32.c ****         sum += *pDualCoef++ * vecAddAcrossF32Mve(acc2);
 148:../Dave/Generated/CMSIS_DSP/Source/SVMFunctions/arm_svm_linear_predict_f32.c ****         sum += *pDualCoef++ * vecAddAcrossF32Mve(acc3);
 149:../Dave/Generated/CMSIS_DSP/Source/SVMFunctions/arm_svm_linear_predict_f32.c **** 
 150:../Dave/Generated/CMSIS_DSP/Source/SVMFunctions/arm_svm_linear_predict_f32.c ****         pSrcA += numCols * 4;
 151:../Dave/Generated/CMSIS_DSP/Source/SVMFunctions/arm_svm_linear_predict_f32.c ****         /*
 152:../Dave/Generated/CMSIS_DSP/Source/SVMFunctions/arm_svm_linear_predict_f32.c ****          * Decrement the row loop counter
 153:../Dave/Generated/CMSIS_DSP/Source/SVMFunctions/arm_svm_linear_predict_f32.c ****          */
 154:../Dave/Generated/CMSIS_DSP/Source/SVMFunctions/arm_svm_linear_predict_f32.c ****         row -= 4;
 155:../Dave/Generated/CMSIS_DSP/Source/SVMFunctions/arm_svm_linear_predict_f32.c ****     }
 156:../Dave/Generated/CMSIS_DSP/Source/SVMFunctions/arm_svm_linear_predict_f32.c **** 
 157:../Dave/Generated/CMSIS_DSP/Source/SVMFunctions/arm_svm_linear_predict_f32.c ****     /*
 158:../Dave/Generated/CMSIS_DSP/Source/SVMFunctions/arm_svm_linear_predict_f32.c ****      * compute 2 rows in parallel
 159:../Dave/Generated/CMSIS_DSP/Source/SVMFunctions/arm_svm_linear_predict_f32.c ****      */
 160:../Dave/Generated/CMSIS_DSP/Source/SVMFunctions/arm_svm_linear_predict_f32.c ****     if (row >= 2) {
 161:../Dave/Generated/CMSIS_DSP/Source/SVMFunctions/arm_svm_linear_predict_f32.c ****         float32_t const *pSrcA0Vec, *pSrcA1Vec, *pInVec;
 162:../Dave/Generated/CMSIS_DSP/Source/SVMFunctions/arm_svm_linear_predict_f32.c ****         f32x4_t         vecIn, acc0, acc1;
 163:../Dave/Generated/CMSIS_DSP/Source/SVMFunctions/arm_svm_linear_predict_f32.c ****         float32_t const *pSrcVecPtr = in;
 164:../Dave/Generated/CMSIS_DSP/Source/SVMFunctions/arm_svm_linear_predict_f32.c **** 
 165:../Dave/Generated/CMSIS_DSP/Source/SVMFunctions/arm_svm_linear_predict_f32.c ****         /*
 166:../Dave/Generated/CMSIS_DSP/Source/SVMFunctions/arm_svm_linear_predict_f32.c ****          * Initialize the pointers to 2 consecutive MatrixA rows
 167:../Dave/Generated/CMSIS_DSP/Source/SVMFunctions/arm_svm_linear_predict_f32.c ****          */
 168:../Dave/Generated/CMSIS_DSP/Source/SVMFunctions/arm_svm_linear_predict_f32.c ****         pInA0 = pSrcA;
 169:../Dave/Generated/CMSIS_DSP/Source/SVMFunctions/arm_svm_linear_predict_f32.c ****         pInA1 = pInA0 + numCols;
 170:../Dave/Generated/CMSIS_DSP/Source/SVMFunctions/arm_svm_linear_predict_f32.c ****         /*
 171:../Dave/Generated/CMSIS_DSP/Source/SVMFunctions/arm_svm_linear_predict_f32.c ****          * Initialize the vector pointer
 172:../Dave/Generated/CMSIS_DSP/Source/SVMFunctions/arm_svm_linear_predict_f32.c ****          */
 173:../Dave/Generated/CMSIS_DSP/Source/SVMFunctions/arm_svm_linear_predict_f32.c ****         pInVec = pSrcVecPtr;
 174:../Dave/Generated/CMSIS_DSP/Source/SVMFunctions/arm_svm_linear_predict_f32.c ****         /*
 175:../Dave/Generated/CMSIS_DSP/Source/SVMFunctions/arm_svm_linear_predict_f32.c ****          * reset accumulators
 176:../Dave/Generated/CMSIS_DSP/Source/SVMFunctions/arm_svm_linear_predict_f32.c ****          */
 177:../Dave/Generated/CMSIS_DSP/Source/SVMFunctions/arm_svm_linear_predict_f32.c ****         acc0 = vdupq_n_f32(0.0f);
 178:../Dave/Generated/CMSIS_DSP/Source/SVMFunctions/arm_svm_linear_predict_f32.c ****         acc1 = vdupq_n_f32(0.0f);
 179:../Dave/Generated/CMSIS_DSP/Source/SVMFunctions/arm_svm_linear_predict_f32.c ****         pSrcA0Vec = pInA0;
 180:../Dave/Generated/CMSIS_DSP/Source/SVMFunctions/arm_svm_linear_predict_f32.c ****         pSrcA1Vec = pInA1;
 181:../Dave/Generated/CMSIS_DSP/Source/SVMFunctions/arm_svm_linear_predict_f32.c **** 
 182:../Dave/Generated/CMSIS_DSP/Source/SVMFunctions/arm_svm_linear_predict_f32.c ****         blkCnt = numCols >> 2;
 183:../Dave/Generated/CMSIS_DSP/Source/SVMFunctions/arm_svm_linear_predict_f32.c ****         while (blkCnt > 0U) {
 184:../Dave/Generated/CMSIS_DSP/Source/SVMFunctions/arm_svm_linear_predict_f32.c ****             f32x4_t         vecA;
 185:../Dave/Generated/CMSIS_DSP/Source/SVMFunctions/arm_svm_linear_predict_f32.c **** 
 186:../Dave/Generated/CMSIS_DSP/Source/SVMFunctions/arm_svm_linear_predict_f32.c ****             vecIn = vld1q(pInVec);
 187:../Dave/Generated/CMSIS_DSP/Source/SVMFunctions/arm_svm_linear_predict_f32.c ****             pInVec += 4;
 188:../Dave/Generated/CMSIS_DSP/Source/SVMFunctions/arm_svm_linear_predict_f32.c ****             vecA = vld1q(pSrcA0Vec);
 189:../Dave/Generated/CMSIS_DSP/Source/SVMFunctions/arm_svm_linear_predict_f32.c ****             pSrcA0Vec += 4;
 190:../Dave/Generated/CMSIS_DSP/Source/SVMFunctions/arm_svm_linear_predict_f32.c ****             acc0 = vfmaq(acc0, vecIn, vecA);
 191:../Dave/Generated/CMSIS_DSP/Source/SVMFunctions/arm_svm_linear_predict_f32.c ****             vecA = vld1q(pSrcA1Vec);
 192:../Dave/Generated/CMSIS_DSP/Source/SVMFunctions/arm_svm_linear_predict_f32.c ****             pSrcA1Vec += 4;
 193:../Dave/Generated/CMSIS_DSP/Source/SVMFunctions/arm_svm_linear_predict_f32.c ****             acc1 = vfmaq(acc1, vecIn, vecA);
 194:../Dave/Generated/CMSIS_DSP/Source/SVMFunctions/arm_svm_linear_predict_f32.c **** 
 195:../Dave/Generated/CMSIS_DSP/Source/SVMFunctions/arm_svm_linear_predict_f32.c ****             blkCnt--;
 196:../Dave/Generated/CMSIS_DSP/Source/SVMFunctions/arm_svm_linear_predict_f32.c ****         }
 197:../Dave/Generated/CMSIS_DSP/Source/SVMFunctions/arm_svm_linear_predict_f32.c ****         /*
 198:../Dave/Generated/CMSIS_DSP/Source/SVMFunctions/arm_svm_linear_predict_f32.c ****          * tail
 199:../Dave/Generated/CMSIS_DSP/Source/SVMFunctions/arm_svm_linear_predict_f32.c ****          * (will be merged thru tail predication)
 200:../Dave/Generated/CMSIS_DSP/Source/SVMFunctions/arm_svm_linear_predict_f32.c ****          */
 201:../Dave/Generated/CMSIS_DSP/Source/SVMFunctions/arm_svm_linear_predict_f32.c ****         blkCnt = numCols & 3;
 202:../Dave/Generated/CMSIS_DSP/Source/SVMFunctions/arm_svm_linear_predict_f32.c ****         if (blkCnt > 0U) {
 203:../Dave/Generated/CMSIS_DSP/Source/SVMFunctions/arm_svm_linear_predict_f32.c ****             mve_pred16_t    p0 = vctp32q(blkCnt);
 204:../Dave/Generated/CMSIS_DSP/Source/SVMFunctions/arm_svm_linear_predict_f32.c ****             f32x4_t         vecA;
 205:../Dave/Generated/CMSIS_DSP/Source/SVMFunctions/arm_svm_linear_predict_f32.c **** 
 206:../Dave/Generated/CMSIS_DSP/Source/SVMFunctions/arm_svm_linear_predict_f32.c ****             vecIn = vldrwq_z_f32(pInVec, p0);
 207:../Dave/Generated/CMSIS_DSP/Source/SVMFunctions/arm_svm_linear_predict_f32.c ****             vecA = vldrwq_z_f32(pSrcA0Vec, p0);
 208:../Dave/Generated/CMSIS_DSP/Source/SVMFunctions/arm_svm_linear_predict_f32.c ****             acc0 = vfmaq(acc0, vecIn, vecA);
 209:../Dave/Generated/CMSIS_DSP/Source/SVMFunctions/arm_svm_linear_predict_f32.c ****             vecA = vldrwq_z_f32(pSrcA1Vec, p0);
 210:../Dave/Generated/CMSIS_DSP/Source/SVMFunctions/arm_svm_linear_predict_f32.c ****             acc1 = vfmaq(acc1, vecIn, vecA);
 211:../Dave/Generated/CMSIS_DSP/Source/SVMFunctions/arm_svm_linear_predict_f32.c ****         }
 212:../Dave/Generated/CMSIS_DSP/Source/SVMFunctions/arm_svm_linear_predict_f32.c ****         /*
 213:../Dave/Generated/CMSIS_DSP/Source/SVMFunctions/arm_svm_linear_predict_f32.c ****          * Sum the partial parts
 214:../Dave/Generated/CMSIS_DSP/Source/SVMFunctions/arm_svm_linear_predict_f32.c ****          */
 215:../Dave/Generated/CMSIS_DSP/Source/SVMFunctions/arm_svm_linear_predict_f32.c ****         sum += *pDualCoef++ * vecAddAcrossF32Mve(acc0);
 216:../Dave/Generated/CMSIS_DSP/Source/SVMFunctions/arm_svm_linear_predict_f32.c ****         sum += *pDualCoef++ * vecAddAcrossF32Mve(acc1);
 217:../Dave/Generated/CMSIS_DSP/Source/SVMFunctions/arm_svm_linear_predict_f32.c **** 
 218:../Dave/Generated/CMSIS_DSP/Source/SVMFunctions/arm_svm_linear_predict_f32.c ****         pSrcA += numCols * 2;
 219:../Dave/Generated/CMSIS_DSP/Source/SVMFunctions/arm_svm_linear_predict_f32.c ****         row -= 2;
 220:../Dave/Generated/CMSIS_DSP/Source/SVMFunctions/arm_svm_linear_predict_f32.c ****     }
 221:../Dave/Generated/CMSIS_DSP/Source/SVMFunctions/arm_svm_linear_predict_f32.c **** 
 222:../Dave/Generated/CMSIS_DSP/Source/SVMFunctions/arm_svm_linear_predict_f32.c ****     if (row >= 1) {
 223:../Dave/Generated/CMSIS_DSP/Source/SVMFunctions/arm_svm_linear_predict_f32.c ****         f32x4_t         vecIn, acc0;
 224:../Dave/Generated/CMSIS_DSP/Source/SVMFunctions/arm_svm_linear_predict_f32.c ****         float32_t const *pSrcA0Vec, *pInVec;
 225:../Dave/Generated/CMSIS_DSP/Source/SVMFunctions/arm_svm_linear_predict_f32.c ****         float32_t const *pSrcVecPtr = in;
 226:../Dave/Generated/CMSIS_DSP/Source/SVMFunctions/arm_svm_linear_predict_f32.c ****         /*
 227:../Dave/Generated/CMSIS_DSP/Source/SVMFunctions/arm_svm_linear_predict_f32.c ****          * Initialize the pointers to last MatrixA row
 228:../Dave/Generated/CMSIS_DSP/Source/SVMFunctions/arm_svm_linear_predict_f32.c ****          */
 229:../Dave/Generated/CMSIS_DSP/Source/SVMFunctions/arm_svm_linear_predict_f32.c ****         pInA0 = pSrcA;
 230:../Dave/Generated/CMSIS_DSP/Source/SVMFunctions/arm_svm_linear_predict_f32.c ****         /*
 231:../Dave/Generated/CMSIS_DSP/Source/SVMFunctions/arm_svm_linear_predict_f32.c ****          * Initialize the vector pointer
 232:../Dave/Generated/CMSIS_DSP/Source/SVMFunctions/arm_svm_linear_predict_f32.c ****          */
 233:../Dave/Generated/CMSIS_DSP/Source/SVMFunctions/arm_svm_linear_predict_f32.c ****         pInVec = pSrcVecPtr;
 234:../Dave/Generated/CMSIS_DSP/Source/SVMFunctions/arm_svm_linear_predict_f32.c ****         /*
 235:../Dave/Generated/CMSIS_DSP/Source/SVMFunctions/arm_svm_linear_predict_f32.c ****          * reset accumulators
 236:../Dave/Generated/CMSIS_DSP/Source/SVMFunctions/arm_svm_linear_predict_f32.c ****          */
 237:../Dave/Generated/CMSIS_DSP/Source/SVMFunctions/arm_svm_linear_predict_f32.c ****         acc0 = vdupq_n_f32(0.0f);
 238:../Dave/Generated/CMSIS_DSP/Source/SVMFunctions/arm_svm_linear_predict_f32.c **** 
 239:../Dave/Generated/CMSIS_DSP/Source/SVMFunctions/arm_svm_linear_predict_f32.c ****         pSrcA0Vec = pInA0;
 240:../Dave/Generated/CMSIS_DSP/Source/SVMFunctions/arm_svm_linear_predict_f32.c **** 
 241:../Dave/Generated/CMSIS_DSP/Source/SVMFunctions/arm_svm_linear_predict_f32.c ****         blkCnt = numCols >> 2;
 242:../Dave/Generated/CMSIS_DSP/Source/SVMFunctions/arm_svm_linear_predict_f32.c ****         while (blkCnt > 0U) {
 243:../Dave/Generated/CMSIS_DSP/Source/SVMFunctions/arm_svm_linear_predict_f32.c ****             f32x4_t         vecA;
 244:../Dave/Generated/CMSIS_DSP/Source/SVMFunctions/arm_svm_linear_predict_f32.c **** 
 245:../Dave/Generated/CMSIS_DSP/Source/SVMFunctions/arm_svm_linear_predict_f32.c ****             vecIn = vld1q(pInVec);
 246:../Dave/Generated/CMSIS_DSP/Source/SVMFunctions/arm_svm_linear_predict_f32.c ****             pInVec += 4;
 247:../Dave/Generated/CMSIS_DSP/Source/SVMFunctions/arm_svm_linear_predict_f32.c ****             vecA = vld1q(pSrcA0Vec);
 248:../Dave/Generated/CMSIS_DSP/Source/SVMFunctions/arm_svm_linear_predict_f32.c ****             pSrcA0Vec += 4;
 249:../Dave/Generated/CMSIS_DSP/Source/SVMFunctions/arm_svm_linear_predict_f32.c ****             acc0 = vfmaq(acc0, vecIn, vecA);
 250:../Dave/Generated/CMSIS_DSP/Source/SVMFunctions/arm_svm_linear_predict_f32.c **** 
 251:../Dave/Generated/CMSIS_DSP/Source/SVMFunctions/arm_svm_linear_predict_f32.c ****             blkCnt--;
 252:../Dave/Generated/CMSIS_DSP/Source/SVMFunctions/arm_svm_linear_predict_f32.c ****         }
 253:../Dave/Generated/CMSIS_DSP/Source/SVMFunctions/arm_svm_linear_predict_f32.c ****         /*
 254:../Dave/Generated/CMSIS_DSP/Source/SVMFunctions/arm_svm_linear_predict_f32.c ****          * tail
 255:../Dave/Generated/CMSIS_DSP/Source/SVMFunctions/arm_svm_linear_predict_f32.c ****          * (will be merged thru tail predication)
 256:../Dave/Generated/CMSIS_DSP/Source/SVMFunctions/arm_svm_linear_predict_f32.c ****          */
 257:../Dave/Generated/CMSIS_DSP/Source/SVMFunctions/arm_svm_linear_predict_f32.c ****         blkCnt = numCols & 3;
 258:../Dave/Generated/CMSIS_DSP/Source/SVMFunctions/arm_svm_linear_predict_f32.c ****         if (blkCnt > 0U) {
 259:../Dave/Generated/CMSIS_DSP/Source/SVMFunctions/arm_svm_linear_predict_f32.c ****             mve_pred16_t    p0 = vctp32q(blkCnt);
 260:../Dave/Generated/CMSIS_DSP/Source/SVMFunctions/arm_svm_linear_predict_f32.c ****             f32x4_t         vecA;
 261:../Dave/Generated/CMSIS_DSP/Source/SVMFunctions/arm_svm_linear_predict_f32.c **** 
 262:../Dave/Generated/CMSIS_DSP/Source/SVMFunctions/arm_svm_linear_predict_f32.c ****             vecIn = vldrwq_z_f32(pInVec, p0);
 263:../Dave/Generated/CMSIS_DSP/Source/SVMFunctions/arm_svm_linear_predict_f32.c ****             vecA = vldrwq_z_f32(pSrcA0Vec, p0);
 264:../Dave/Generated/CMSIS_DSP/Source/SVMFunctions/arm_svm_linear_predict_f32.c ****             acc0 = vfmaq(acc0, vecIn, vecA);
 265:../Dave/Generated/CMSIS_DSP/Source/SVMFunctions/arm_svm_linear_predict_f32.c ****         }
 266:../Dave/Generated/CMSIS_DSP/Source/SVMFunctions/arm_svm_linear_predict_f32.c ****         /*
 267:../Dave/Generated/CMSIS_DSP/Source/SVMFunctions/arm_svm_linear_predict_f32.c ****          * Sum the partial parts
 268:../Dave/Generated/CMSIS_DSP/Source/SVMFunctions/arm_svm_linear_predict_f32.c ****          */
 269:../Dave/Generated/CMSIS_DSP/Source/SVMFunctions/arm_svm_linear_predict_f32.c ****         sum += *pDualCoef++ * vecAddAcrossF32Mve(acc0);
 270:../Dave/Generated/CMSIS_DSP/Source/SVMFunctions/arm_svm_linear_predict_f32.c **** 
 271:../Dave/Generated/CMSIS_DSP/Source/SVMFunctions/arm_svm_linear_predict_f32.c ****     }
 272:../Dave/Generated/CMSIS_DSP/Source/SVMFunctions/arm_svm_linear_predict_f32.c **** 
 273:../Dave/Generated/CMSIS_DSP/Source/SVMFunctions/arm_svm_linear_predict_f32.c ****     *pResult = S->classes[STEP(sum)];
 274:../Dave/Generated/CMSIS_DSP/Source/SVMFunctions/arm_svm_linear_predict_f32.c **** }
 275:../Dave/Generated/CMSIS_DSP/Source/SVMFunctions/arm_svm_linear_predict_f32.c **** 
 276:../Dave/Generated/CMSIS_DSP/Source/SVMFunctions/arm_svm_linear_predict_f32.c **** #else
 277:../Dave/Generated/CMSIS_DSP/Source/SVMFunctions/arm_svm_linear_predict_f32.c **** #if defined(ARM_MATH_NEON)
 278:../Dave/Generated/CMSIS_DSP/Source/SVMFunctions/arm_svm_linear_predict_f32.c **** void arm_svm_linear_predict_f32(
 279:../Dave/Generated/CMSIS_DSP/Source/SVMFunctions/arm_svm_linear_predict_f32.c ****     const arm_svm_linear_instance_f32 *S,
 280:../Dave/Generated/CMSIS_DSP/Source/SVMFunctions/arm_svm_linear_predict_f32.c ****     const float32_t * in,
 281:../Dave/Generated/CMSIS_DSP/Source/SVMFunctions/arm_svm_linear_predict_f32.c ****     int32_t * pResult)
 282:../Dave/Generated/CMSIS_DSP/Source/SVMFunctions/arm_svm_linear_predict_f32.c **** {
 283:../Dave/Generated/CMSIS_DSP/Source/SVMFunctions/arm_svm_linear_predict_f32.c ****     float32_t sum = S->intercept;
 284:../Dave/Generated/CMSIS_DSP/Source/SVMFunctions/arm_svm_linear_predict_f32.c ****    
 285:../Dave/Generated/CMSIS_DSP/Source/SVMFunctions/arm_svm_linear_predict_f32.c ****     float32_t dot;
 286:../Dave/Generated/CMSIS_DSP/Source/SVMFunctions/arm_svm_linear_predict_f32.c ****     float32x4_t dotV; 
 287:../Dave/Generated/CMSIS_DSP/Source/SVMFunctions/arm_svm_linear_predict_f32.c **** 
 288:../Dave/Generated/CMSIS_DSP/Source/SVMFunctions/arm_svm_linear_predict_f32.c ****     float32x4_t accuma,accumb,accumc,accumd,accum;
 289:../Dave/Generated/CMSIS_DSP/Source/SVMFunctions/arm_svm_linear_predict_f32.c ****     float32x2_t accum2;
 290:../Dave/Generated/CMSIS_DSP/Source/SVMFunctions/arm_svm_linear_predict_f32.c ****     float32x4_t vec1;
 291:../Dave/Generated/CMSIS_DSP/Source/SVMFunctions/arm_svm_linear_predict_f32.c **** 
 292:../Dave/Generated/CMSIS_DSP/Source/SVMFunctions/arm_svm_linear_predict_f32.c ****     float32x4_t vec2,vec2a,vec2b,vec2c,vec2d;
 293:../Dave/Generated/CMSIS_DSP/Source/SVMFunctions/arm_svm_linear_predict_f32.c **** 
 294:../Dave/Generated/CMSIS_DSP/Source/SVMFunctions/arm_svm_linear_predict_f32.c ****     uint32_t blkCnt;   
 295:../Dave/Generated/CMSIS_DSP/Source/SVMFunctions/arm_svm_linear_predict_f32.c ****     uint32_t vectorBlkCnt;   
 296:../Dave/Generated/CMSIS_DSP/Source/SVMFunctions/arm_svm_linear_predict_f32.c **** 
 297:../Dave/Generated/CMSIS_DSP/Source/SVMFunctions/arm_svm_linear_predict_f32.c ****     const float32_t *pIn = in;
 298:../Dave/Generated/CMSIS_DSP/Source/SVMFunctions/arm_svm_linear_predict_f32.c **** 
 299:../Dave/Generated/CMSIS_DSP/Source/SVMFunctions/arm_svm_linear_predict_f32.c ****     const float32_t *pSupport = S->supportVectors;
 300:../Dave/Generated/CMSIS_DSP/Source/SVMFunctions/arm_svm_linear_predict_f32.c **** 
 301:../Dave/Generated/CMSIS_DSP/Source/SVMFunctions/arm_svm_linear_predict_f32.c ****     const float32_t *pSupporta = S->supportVectors;
 302:../Dave/Generated/CMSIS_DSP/Source/SVMFunctions/arm_svm_linear_predict_f32.c ****     const float32_t *pSupportb;
 303:../Dave/Generated/CMSIS_DSP/Source/SVMFunctions/arm_svm_linear_predict_f32.c ****     const float32_t *pSupportc;
 304:../Dave/Generated/CMSIS_DSP/Source/SVMFunctions/arm_svm_linear_predict_f32.c ****     const float32_t *pSupportd;
 305:../Dave/Generated/CMSIS_DSP/Source/SVMFunctions/arm_svm_linear_predict_f32.c **** 
 306:../Dave/Generated/CMSIS_DSP/Source/SVMFunctions/arm_svm_linear_predict_f32.c ****     pSupportb = pSupporta + S->vectorDimension;
 307:../Dave/Generated/CMSIS_DSP/Source/SVMFunctions/arm_svm_linear_predict_f32.c ****     pSupportc = pSupportb + S->vectorDimension;
 308:../Dave/Generated/CMSIS_DSP/Source/SVMFunctions/arm_svm_linear_predict_f32.c ****     pSupportd = pSupportc + S->vectorDimension;
 309:../Dave/Generated/CMSIS_DSP/Source/SVMFunctions/arm_svm_linear_predict_f32.c **** 
 310:../Dave/Generated/CMSIS_DSP/Source/SVMFunctions/arm_svm_linear_predict_f32.c ****     const float32_t *pDualCoefs = S->dualCoefficients;
 311:../Dave/Generated/CMSIS_DSP/Source/SVMFunctions/arm_svm_linear_predict_f32.c **** 
 312:../Dave/Generated/CMSIS_DSP/Source/SVMFunctions/arm_svm_linear_predict_f32.c ****     vectorBlkCnt = S->nbOfSupportVectors >> 2;
 313:../Dave/Generated/CMSIS_DSP/Source/SVMFunctions/arm_svm_linear_predict_f32.c **** 
 314:../Dave/Generated/CMSIS_DSP/Source/SVMFunctions/arm_svm_linear_predict_f32.c ****     while (vectorBlkCnt > 0U)
 315:../Dave/Generated/CMSIS_DSP/Source/SVMFunctions/arm_svm_linear_predict_f32.c ****     {
 316:../Dave/Generated/CMSIS_DSP/Source/SVMFunctions/arm_svm_linear_predict_f32.c ****         accuma = vdupq_n_f32(0);
 317:../Dave/Generated/CMSIS_DSP/Source/SVMFunctions/arm_svm_linear_predict_f32.c ****         accumb = vdupq_n_f32(0);
 318:../Dave/Generated/CMSIS_DSP/Source/SVMFunctions/arm_svm_linear_predict_f32.c ****         accumc = vdupq_n_f32(0);
 319:../Dave/Generated/CMSIS_DSP/Source/SVMFunctions/arm_svm_linear_predict_f32.c ****         accumd = vdupq_n_f32(0);
 320:../Dave/Generated/CMSIS_DSP/Source/SVMFunctions/arm_svm_linear_predict_f32.c **** 
 321:../Dave/Generated/CMSIS_DSP/Source/SVMFunctions/arm_svm_linear_predict_f32.c ****         pIn = in;
 322:../Dave/Generated/CMSIS_DSP/Source/SVMFunctions/arm_svm_linear_predict_f32.c **** 
 323:../Dave/Generated/CMSIS_DSP/Source/SVMFunctions/arm_svm_linear_predict_f32.c ****         blkCnt = S->vectorDimension >> 2;
 324:../Dave/Generated/CMSIS_DSP/Source/SVMFunctions/arm_svm_linear_predict_f32.c ****         while (blkCnt > 0U)
 325:../Dave/Generated/CMSIS_DSP/Source/SVMFunctions/arm_svm_linear_predict_f32.c ****         {
 326:../Dave/Generated/CMSIS_DSP/Source/SVMFunctions/arm_svm_linear_predict_f32.c ****         
 327:../Dave/Generated/CMSIS_DSP/Source/SVMFunctions/arm_svm_linear_predict_f32.c ****             vec1 = vld1q_f32(pIn);
 328:../Dave/Generated/CMSIS_DSP/Source/SVMFunctions/arm_svm_linear_predict_f32.c ****             vec2a = vld1q_f32(pSupporta);
 329:../Dave/Generated/CMSIS_DSP/Source/SVMFunctions/arm_svm_linear_predict_f32.c ****             vec2b = vld1q_f32(pSupportb);
 330:../Dave/Generated/CMSIS_DSP/Source/SVMFunctions/arm_svm_linear_predict_f32.c ****             vec2c = vld1q_f32(pSupportc);
 331:../Dave/Generated/CMSIS_DSP/Source/SVMFunctions/arm_svm_linear_predict_f32.c ****             vec2d = vld1q_f32(pSupportd);
 332:../Dave/Generated/CMSIS_DSP/Source/SVMFunctions/arm_svm_linear_predict_f32.c **** 
 333:../Dave/Generated/CMSIS_DSP/Source/SVMFunctions/arm_svm_linear_predict_f32.c ****             pIn += 4;
 334:../Dave/Generated/CMSIS_DSP/Source/SVMFunctions/arm_svm_linear_predict_f32.c ****             pSupporta += 4;
 335:../Dave/Generated/CMSIS_DSP/Source/SVMFunctions/arm_svm_linear_predict_f32.c ****             pSupportb += 4;
 336:../Dave/Generated/CMSIS_DSP/Source/SVMFunctions/arm_svm_linear_predict_f32.c ****             pSupportc += 4;
 337:../Dave/Generated/CMSIS_DSP/Source/SVMFunctions/arm_svm_linear_predict_f32.c ****             pSupportd += 4;
 338:../Dave/Generated/CMSIS_DSP/Source/SVMFunctions/arm_svm_linear_predict_f32.c **** 
 339:../Dave/Generated/CMSIS_DSP/Source/SVMFunctions/arm_svm_linear_predict_f32.c ****             accuma = vmlaq_f32(accuma, vec1,vec2a);
 340:../Dave/Generated/CMSIS_DSP/Source/SVMFunctions/arm_svm_linear_predict_f32.c ****             accumb = vmlaq_f32(accumb, vec1,vec2b);
 341:../Dave/Generated/CMSIS_DSP/Source/SVMFunctions/arm_svm_linear_predict_f32.c ****             accumc = vmlaq_f32(accumc, vec1,vec2c);
 342:../Dave/Generated/CMSIS_DSP/Source/SVMFunctions/arm_svm_linear_predict_f32.c ****             accumd = vmlaq_f32(accumd, vec1,vec2d);
 343:../Dave/Generated/CMSIS_DSP/Source/SVMFunctions/arm_svm_linear_predict_f32.c **** 
 344:../Dave/Generated/CMSIS_DSP/Source/SVMFunctions/arm_svm_linear_predict_f32.c ****             blkCnt -- ;
 345:../Dave/Generated/CMSIS_DSP/Source/SVMFunctions/arm_svm_linear_predict_f32.c ****         }
 346:../Dave/Generated/CMSIS_DSP/Source/SVMFunctions/arm_svm_linear_predict_f32.c ****         accum2 = vpadd_f32(vget_low_f32(accuma),vget_high_f32(accuma));
 347:../Dave/Generated/CMSIS_DSP/Source/SVMFunctions/arm_svm_linear_predict_f32.c ****         dotV = vsetq_lane_f32(vget_lane_f32(accum2, 0) + vget_lane_f32(accum2, 1),dotV,0);
 348:../Dave/Generated/CMSIS_DSP/Source/SVMFunctions/arm_svm_linear_predict_f32.c **** 
 349:../Dave/Generated/CMSIS_DSP/Source/SVMFunctions/arm_svm_linear_predict_f32.c ****         accum2 = vpadd_f32(vget_low_f32(accumb),vget_high_f32(accumb));
 350:../Dave/Generated/CMSIS_DSP/Source/SVMFunctions/arm_svm_linear_predict_f32.c ****         dotV = vsetq_lane_f32(vget_lane_f32(accum2, 0) + vget_lane_f32(accum2, 1),dotV,1);
 351:../Dave/Generated/CMSIS_DSP/Source/SVMFunctions/arm_svm_linear_predict_f32.c **** 
 352:../Dave/Generated/CMSIS_DSP/Source/SVMFunctions/arm_svm_linear_predict_f32.c ****         accum2 = vpadd_f32(vget_low_f32(accumc),vget_high_f32(accumc));
 353:../Dave/Generated/CMSIS_DSP/Source/SVMFunctions/arm_svm_linear_predict_f32.c ****         dotV = vsetq_lane_f32(vget_lane_f32(accum2, 0) + vget_lane_f32(accum2, 1),dotV,2);
 354:../Dave/Generated/CMSIS_DSP/Source/SVMFunctions/arm_svm_linear_predict_f32.c **** 
 355:../Dave/Generated/CMSIS_DSP/Source/SVMFunctions/arm_svm_linear_predict_f32.c ****         accum2 = vpadd_f32(vget_low_f32(accumd),vget_high_f32(accumd));
 356:../Dave/Generated/CMSIS_DSP/Source/SVMFunctions/arm_svm_linear_predict_f32.c ****         dotV = vsetq_lane_f32(vget_lane_f32(accum2, 0) + vget_lane_f32(accum2, 1),dotV,3);
 357:../Dave/Generated/CMSIS_DSP/Source/SVMFunctions/arm_svm_linear_predict_f32.c **** 
 358:../Dave/Generated/CMSIS_DSP/Source/SVMFunctions/arm_svm_linear_predict_f32.c **** 
 359:../Dave/Generated/CMSIS_DSP/Source/SVMFunctions/arm_svm_linear_predict_f32.c ****         blkCnt = S->vectorDimension & 3;
 360:../Dave/Generated/CMSIS_DSP/Source/SVMFunctions/arm_svm_linear_predict_f32.c ****         while (blkCnt > 0U)
 361:../Dave/Generated/CMSIS_DSP/Source/SVMFunctions/arm_svm_linear_predict_f32.c ****         {
 362:../Dave/Generated/CMSIS_DSP/Source/SVMFunctions/arm_svm_linear_predict_f32.c ****             dotV = vsetq_lane_f32(vgetq_lane_f32(dotV,0) + *pIn * *pSupporta++, dotV,0);
 363:../Dave/Generated/CMSIS_DSP/Source/SVMFunctions/arm_svm_linear_predict_f32.c ****             dotV = vsetq_lane_f32(vgetq_lane_f32(dotV,1) + *pIn * *pSupportb++, dotV,1);
 364:../Dave/Generated/CMSIS_DSP/Source/SVMFunctions/arm_svm_linear_predict_f32.c ****             dotV = vsetq_lane_f32(vgetq_lane_f32(dotV,2) + *pIn * *pSupportc++, dotV,2);
 365:../Dave/Generated/CMSIS_DSP/Source/SVMFunctions/arm_svm_linear_predict_f32.c ****             dotV = vsetq_lane_f32(vgetq_lane_f32(dotV,3) + *pIn * *pSupportd++, dotV,3);
 366:../Dave/Generated/CMSIS_DSP/Source/SVMFunctions/arm_svm_linear_predict_f32.c **** 
 367:../Dave/Generated/CMSIS_DSP/Source/SVMFunctions/arm_svm_linear_predict_f32.c ****             pIn++;
 368:../Dave/Generated/CMSIS_DSP/Source/SVMFunctions/arm_svm_linear_predict_f32.c **** 
 369:../Dave/Generated/CMSIS_DSP/Source/SVMFunctions/arm_svm_linear_predict_f32.c ****             blkCnt -- ;
 370:../Dave/Generated/CMSIS_DSP/Source/SVMFunctions/arm_svm_linear_predict_f32.c ****         }
 371:../Dave/Generated/CMSIS_DSP/Source/SVMFunctions/arm_svm_linear_predict_f32.c **** 
 372:../Dave/Generated/CMSIS_DSP/Source/SVMFunctions/arm_svm_linear_predict_f32.c ****         vec1 = vld1q_f32(pDualCoefs);
 373:../Dave/Generated/CMSIS_DSP/Source/SVMFunctions/arm_svm_linear_predict_f32.c ****         pDualCoefs += 4; 
 374:../Dave/Generated/CMSIS_DSP/Source/SVMFunctions/arm_svm_linear_predict_f32.c **** 
 375:../Dave/Generated/CMSIS_DSP/Source/SVMFunctions/arm_svm_linear_predict_f32.c ****         accum = vmulq_f32(vec1,dotV);
 376:../Dave/Generated/CMSIS_DSP/Source/SVMFunctions/arm_svm_linear_predict_f32.c ****         accum2 = vpadd_f32(vget_low_f32(accum),vget_high_f32(accum));
 377:../Dave/Generated/CMSIS_DSP/Source/SVMFunctions/arm_svm_linear_predict_f32.c ****         sum += vget_lane_f32(accum2, 0) + vget_lane_f32(accum2, 1);
 378:../Dave/Generated/CMSIS_DSP/Source/SVMFunctions/arm_svm_linear_predict_f32.c **** 
 379:../Dave/Generated/CMSIS_DSP/Source/SVMFunctions/arm_svm_linear_predict_f32.c ****         pSupporta += 3*S->vectorDimension;
 380:../Dave/Generated/CMSIS_DSP/Source/SVMFunctions/arm_svm_linear_predict_f32.c ****         pSupportb += 3*S->vectorDimension;
 381:../Dave/Generated/CMSIS_DSP/Source/SVMFunctions/arm_svm_linear_predict_f32.c ****         pSupportc += 3*S->vectorDimension;
 382:../Dave/Generated/CMSIS_DSP/Source/SVMFunctions/arm_svm_linear_predict_f32.c ****         pSupportd += 3*S->vectorDimension;
 383:../Dave/Generated/CMSIS_DSP/Source/SVMFunctions/arm_svm_linear_predict_f32.c **** 
 384:../Dave/Generated/CMSIS_DSP/Source/SVMFunctions/arm_svm_linear_predict_f32.c ****         vectorBlkCnt -- ;
 385:../Dave/Generated/CMSIS_DSP/Source/SVMFunctions/arm_svm_linear_predict_f32.c ****     }
 386:../Dave/Generated/CMSIS_DSP/Source/SVMFunctions/arm_svm_linear_predict_f32.c **** 
 387:../Dave/Generated/CMSIS_DSP/Source/SVMFunctions/arm_svm_linear_predict_f32.c ****     pSupport = pSupporta;
 388:../Dave/Generated/CMSIS_DSP/Source/SVMFunctions/arm_svm_linear_predict_f32.c ****     vectorBlkCnt = S->nbOfSupportVectors & 3;
 389:../Dave/Generated/CMSIS_DSP/Source/SVMFunctions/arm_svm_linear_predict_f32.c ****     while (vectorBlkCnt > 0U)
 390:../Dave/Generated/CMSIS_DSP/Source/SVMFunctions/arm_svm_linear_predict_f32.c ****     {
 391:../Dave/Generated/CMSIS_DSP/Source/SVMFunctions/arm_svm_linear_predict_f32.c ****         accum = vdupq_n_f32(0);
 392:../Dave/Generated/CMSIS_DSP/Source/SVMFunctions/arm_svm_linear_predict_f32.c ****         dot = 0.0f;
 393:../Dave/Generated/CMSIS_DSP/Source/SVMFunctions/arm_svm_linear_predict_f32.c ****         pIn = in;
 394:../Dave/Generated/CMSIS_DSP/Source/SVMFunctions/arm_svm_linear_predict_f32.c **** 
 395:../Dave/Generated/CMSIS_DSP/Source/SVMFunctions/arm_svm_linear_predict_f32.c ****         blkCnt = S->vectorDimension >> 2;
 396:../Dave/Generated/CMSIS_DSP/Source/SVMFunctions/arm_svm_linear_predict_f32.c ****         while (blkCnt > 0U)
 397:../Dave/Generated/CMSIS_DSP/Source/SVMFunctions/arm_svm_linear_predict_f32.c ****         {
 398:../Dave/Generated/CMSIS_DSP/Source/SVMFunctions/arm_svm_linear_predict_f32.c ****         
 399:../Dave/Generated/CMSIS_DSP/Source/SVMFunctions/arm_svm_linear_predict_f32.c ****             vec1 = vld1q_f32(pIn);
 400:../Dave/Generated/CMSIS_DSP/Source/SVMFunctions/arm_svm_linear_predict_f32.c ****             vec2 = vld1q_f32(pSupport);
 401:../Dave/Generated/CMSIS_DSP/Source/SVMFunctions/arm_svm_linear_predict_f32.c ****             pIn += 4;
 402:../Dave/Generated/CMSIS_DSP/Source/SVMFunctions/arm_svm_linear_predict_f32.c ****             pSupport += 4;
 403:../Dave/Generated/CMSIS_DSP/Source/SVMFunctions/arm_svm_linear_predict_f32.c **** 
 404:../Dave/Generated/CMSIS_DSP/Source/SVMFunctions/arm_svm_linear_predict_f32.c ****             accum = vmlaq_f32(accum, vec1,vec2);
 405:../Dave/Generated/CMSIS_DSP/Source/SVMFunctions/arm_svm_linear_predict_f32.c **** 
 406:../Dave/Generated/CMSIS_DSP/Source/SVMFunctions/arm_svm_linear_predict_f32.c ****             blkCnt -- ;
 407:../Dave/Generated/CMSIS_DSP/Source/SVMFunctions/arm_svm_linear_predict_f32.c ****         }
 408:../Dave/Generated/CMSIS_DSP/Source/SVMFunctions/arm_svm_linear_predict_f32.c ****         accum2 = vpadd_f32(vget_low_f32(accum),vget_high_f32(accum));
 409:../Dave/Generated/CMSIS_DSP/Source/SVMFunctions/arm_svm_linear_predict_f32.c ****         dot = vget_lane_f32(accum2, 0) + vget_lane_f32(accum2, 1);
 410:../Dave/Generated/CMSIS_DSP/Source/SVMFunctions/arm_svm_linear_predict_f32.c **** 
 411:../Dave/Generated/CMSIS_DSP/Source/SVMFunctions/arm_svm_linear_predict_f32.c **** 
 412:../Dave/Generated/CMSIS_DSP/Source/SVMFunctions/arm_svm_linear_predict_f32.c ****         blkCnt = S->vectorDimension & 3;
 413:../Dave/Generated/CMSIS_DSP/Source/SVMFunctions/arm_svm_linear_predict_f32.c ****         while (blkCnt > 0U)
 414:../Dave/Generated/CMSIS_DSP/Source/SVMFunctions/arm_svm_linear_predict_f32.c ****         {
 415:../Dave/Generated/CMSIS_DSP/Source/SVMFunctions/arm_svm_linear_predict_f32.c ****             dot = dot + *pIn++ * *pSupport++;
 416:../Dave/Generated/CMSIS_DSP/Source/SVMFunctions/arm_svm_linear_predict_f32.c **** 
 417:../Dave/Generated/CMSIS_DSP/Source/SVMFunctions/arm_svm_linear_predict_f32.c ****             blkCnt -- ;
 418:../Dave/Generated/CMSIS_DSP/Source/SVMFunctions/arm_svm_linear_predict_f32.c ****         }
 419:../Dave/Generated/CMSIS_DSP/Source/SVMFunctions/arm_svm_linear_predict_f32.c **** 
 420:../Dave/Generated/CMSIS_DSP/Source/SVMFunctions/arm_svm_linear_predict_f32.c ****         sum += *pDualCoefs++ * dot;
 421:../Dave/Generated/CMSIS_DSP/Source/SVMFunctions/arm_svm_linear_predict_f32.c ****         vectorBlkCnt -- ;
 422:../Dave/Generated/CMSIS_DSP/Source/SVMFunctions/arm_svm_linear_predict_f32.c ****     }
 423:../Dave/Generated/CMSIS_DSP/Source/SVMFunctions/arm_svm_linear_predict_f32.c **** 
 424:../Dave/Generated/CMSIS_DSP/Source/SVMFunctions/arm_svm_linear_predict_f32.c ****     *pResult=S->classes[STEP(sum)];
 425:../Dave/Generated/CMSIS_DSP/Source/SVMFunctions/arm_svm_linear_predict_f32.c **** }
 426:../Dave/Generated/CMSIS_DSP/Source/SVMFunctions/arm_svm_linear_predict_f32.c **** #else
 427:../Dave/Generated/CMSIS_DSP/Source/SVMFunctions/arm_svm_linear_predict_f32.c **** void arm_svm_linear_predict_f32(
 428:../Dave/Generated/CMSIS_DSP/Source/SVMFunctions/arm_svm_linear_predict_f32.c ****     const arm_svm_linear_instance_f32 *S,
 429:../Dave/Generated/CMSIS_DSP/Source/SVMFunctions/arm_svm_linear_predict_f32.c ****     const float32_t * in,
 430:../Dave/Generated/CMSIS_DSP/Source/SVMFunctions/arm_svm_linear_predict_f32.c ****     int32_t * pResult)
 431:../Dave/Generated/CMSIS_DSP/Source/SVMFunctions/arm_svm_linear_predict_f32.c **** {
  28              	 .loc 1 431 0
  29              	 .cfi_startproc
  30              	 
  31              	 
  32              	 
  33 0000 80B4     	 push {r7}
  34              	.LCFI0:
  35              	 .cfi_def_cfa_offset 4
  36              	 .cfi_offset 7,-4
  37 0002 8BB0     	 sub sp,sp,#44
  38              	.LCFI1:
  39              	 .cfi_def_cfa_offset 48
  40 0004 00AF     	 add r7,sp,#0
  41              	.LCFI2:
  42              	 .cfi_def_cfa_register 7
  43 0006 F860     	 str r0,[r7,#12]
  44 0008 B960     	 str r1,[r7,#8]
  45 000a 7A60     	 str r2,[r7,#4]
 432:../Dave/Generated/CMSIS_DSP/Source/SVMFunctions/arm_svm_linear_predict_f32.c ****     float32_t sum=S->intercept;
  46              	 .loc 1 432 0
  47 000c FB68     	 ldr r3,[r7,#12]
  48 000e 9B68     	 ldr r3,[r3,#8]
  49 0010 7B62     	 str r3,[r7,#36]
 433:../Dave/Generated/CMSIS_DSP/Source/SVMFunctions/arm_svm_linear_predict_f32.c ****     float32_t dot=0;
  50              	 .loc 1 433 0
  51 0012 4FF00003 	 mov r3,#0
  52 0016 3B62     	 str r3,[r7,#32]
 434:../Dave/Generated/CMSIS_DSP/Source/SVMFunctions/arm_svm_linear_predict_f32.c ****     uint32_t i,j;
 435:../Dave/Generated/CMSIS_DSP/Source/SVMFunctions/arm_svm_linear_predict_f32.c ****     const float32_t *pSupport = S->supportVectors;
  53              	 .loc 1 435 0
  54 0018 FB68     	 ldr r3,[r7,#12]
  55 001a 1B69     	 ldr r3,[r3,#16]
  56 001c 7B61     	 str r3,[r7,#20]
 436:../Dave/Generated/CMSIS_DSP/Source/SVMFunctions/arm_svm_linear_predict_f32.c **** 
 437:../Dave/Generated/CMSIS_DSP/Source/SVMFunctions/arm_svm_linear_predict_f32.c ****     for(i=0; i < S->nbOfSupportVectors; i++)
  57              	 .loc 1 437 0
  58 001e 0023     	 movs r3,#0
  59 0020 FB61     	 str r3,[r7,#28]
  60 0022 34E0     	 b .L2
  61              	.L5:
 438:../Dave/Generated/CMSIS_DSP/Source/SVMFunctions/arm_svm_linear_predict_f32.c ****     {
 439:../Dave/Generated/CMSIS_DSP/Source/SVMFunctions/arm_svm_linear_predict_f32.c ****         dot=0;
  62              	 .loc 1 439 0
  63 0024 4FF00003 	 mov r3,#0
  64 0028 3B62     	 str r3,[r7,#32]
 440:../Dave/Generated/CMSIS_DSP/Source/SVMFunctions/arm_svm_linear_predict_f32.c ****         for(j=0; j < S->vectorDimension; j++)
  65              	 .loc 1 440 0
  66 002a 0023     	 movs r3,#0
  67 002c BB61     	 str r3,[r7,#24]
  68 002e 15E0     	 b .L3
  69              	.L4:
 441:../Dave/Generated/CMSIS_DSP/Source/SVMFunctions/arm_svm_linear_predict_f32.c ****         {
 442:../Dave/Generated/CMSIS_DSP/Source/SVMFunctions/arm_svm_linear_predict_f32.c ****             dot = dot + in[j]* *pSupport++;
  70              	 .loc 1 442 0 discriminator 3
  71 0030 BB69     	 ldr r3,[r7,#24]
  72 0032 9B00     	 lsls r3,r3,#2
  73 0034 BA68     	 ldr r2,[r7,#8]
  74 0036 1344     	 add r3,r3,r2
  75 0038 93ED007A 	 flds s14,[r3]
  76 003c 7B69     	 ldr r3,[r7,#20]
  77 003e 1A1D     	 adds r2,r3,#4
  78 0040 7A61     	 str r2,[r7,#20]
  79 0042 D3ED007A 	 flds s15,[r3]
  80 0046 67EE277A 	 fmuls s15,s14,s15
  81 004a 97ED087A 	 flds s14,[r7,#32]
  82 004e 77EE277A 	 fadds s15,s14,s15
  83 0052 C7ED087A 	 fsts s15,[r7,#32]
 440:../Dave/Generated/CMSIS_DSP/Source/SVMFunctions/arm_svm_linear_predict_f32.c ****         for(j=0; j < S->vectorDimension; j++)
  84              	 .loc 1 440 0 discriminator 3
  85 0056 BB69     	 ldr r3,[r7,#24]
  86 0058 0133     	 adds r3,r3,#1
  87 005a BB61     	 str r3,[r7,#24]
  88              	.L3:
 440:../Dave/Generated/CMSIS_DSP/Source/SVMFunctions/arm_svm_linear_predict_f32.c ****         for(j=0; j < S->vectorDimension; j++)
  89              	 .loc 1 440 0 is_stmt 0 discriminator 1
  90 005c FB68     	 ldr r3,[r7,#12]
  91 005e 5A68     	 ldr r2,[r3,#4]
  92 0060 BB69     	 ldr r3,[r7,#24]
  93 0062 9A42     	 cmp r2,r3
  94 0064 E4D8     	 bhi .L4
 443:../Dave/Generated/CMSIS_DSP/Source/SVMFunctions/arm_svm_linear_predict_f32.c ****         }
 444:../Dave/Generated/CMSIS_DSP/Source/SVMFunctions/arm_svm_linear_predict_f32.c ****         sum += S->dualCoefficients[i] * dot;
  95              	 .loc 1 444 0 is_stmt 1 discriminator 2
  96 0066 FB68     	 ldr r3,[r7,#12]
  97 0068 DA68     	 ldr r2,[r3,#12]
  98 006a FB69     	 ldr r3,[r7,#28]
  99 006c 9B00     	 lsls r3,r3,#2
 100 006e 1344     	 add r3,r3,r2
 101 0070 93ED007A 	 flds s14,[r3]
 102 0074 D7ED087A 	 flds s15,[r7,#32]
 103 0078 67EE277A 	 fmuls s15,s14,s15
 104 007c 97ED097A 	 flds s14,[r7,#36]
 105 0080 77EE277A 	 fadds s15,s14,s15
 106 0084 C7ED097A 	 fsts s15,[r7,#36]
 437:../Dave/Generated/CMSIS_DSP/Source/SVMFunctions/arm_svm_linear_predict_f32.c ****     {
 107              	 .loc 1 437 0 discriminator 2
 108 0088 FB69     	 ldr r3,[r7,#28]
 109 008a 0133     	 adds r3,r3,#1
 110 008c FB61     	 str r3,[r7,#28]
 111              	.L2:
 437:../Dave/Generated/CMSIS_DSP/Source/SVMFunctions/arm_svm_linear_predict_f32.c ****     {
 112              	 .loc 1 437 0 is_stmt 0 discriminator 1
 113 008e FB68     	 ldr r3,[r7,#12]
 114 0090 1A68     	 ldr r2,[r3]
 115 0092 FB69     	 ldr r3,[r7,#28]
 116 0094 9A42     	 cmp r2,r3
 117 0096 C5D8     	 bhi .L5
 445:../Dave/Generated/CMSIS_DSP/Source/SVMFunctions/arm_svm_linear_predict_f32.c ****     }
 446:../Dave/Generated/CMSIS_DSP/Source/SVMFunctions/arm_svm_linear_predict_f32.c ****     *pResult=S->classes[STEP(sum)];
 118              	 .loc 1 446 0 is_stmt 1
 119 0098 FB68     	 ldr r3,[r7,#12]
 120 009a 5A69     	 ldr r2,[r3,#20]
 121 009c D7ED097A 	 flds s15,[r7,#36]
 122 00a0 F5EEC07A 	 fcmpezs s15
 123 00a4 F1EE10FA 	 fmstat
 124 00a8 94BF     	 ite ls
 125 00aa 0123     	 movls r3,#1
 126 00ac 0023     	 movhi r3,#0
 127 00ae DBB2     	 uxtb r3,r3
 128 00b0 83F00103 	 eor r3,r3,#1
 129 00b4 DBB2     	 uxtb r3,r3
 130 00b6 9B00     	 lsls r3,r3,#2
 131 00b8 1344     	 add r3,r3,r2
 132 00ba 1A68     	 ldr r2,[r3]
 133 00bc 7B68     	 ldr r3,[r7,#4]
 134 00be 1A60     	 str r2,[r3]
 447:../Dave/Generated/CMSIS_DSP/Source/SVMFunctions/arm_svm_linear_predict_f32.c **** }
 135              	 .loc 1 447 0
 136 00c0 2C37     	 adds r7,r7,#44
 137              	.LCFI3:
 138              	 .cfi_def_cfa_offset 4
 139 00c2 BD46     	 mov sp,r7
 140              	.LCFI4:
 141              	 .cfi_def_cfa_register 13
 142              	 
 143 00c4 5DF8047B 	 ldr r7,[sp],#4
 144              	.LCFI5:
 145              	 .cfi_restore 7
 146              	 .cfi_def_cfa_offset 0
 147 00c8 7047     	 bx lr
 148              	 .cfi_endproc
 149              	.LFE149:
 151 00ca 00BF     	 .text
 152              	.Letext0:
 153              	 .file 2 "c:\\infineon\\tools\\dave ide\\4.5.0.202105191637\\eclipse\\arm-gcc-49\\arm-none-eabi\\include\\machine\\_default_types.h"
 154              	 .file 3 "c:\\infineon\\tools\\dave ide\\4.5.0.202105191637\\eclipse\\arm-gcc-49\\arm-none-eabi\\include\\stdint.h"
 155              	 .file 4 "C:/Users/Rui Mendes/Desktop/DAVE/_Naive/_ForTesting/Dave/Generated/CMSIS_DSP/Include/arm_math.h"
 156              	 .file 5 "C:/Users/Rui Mendes/Desktop/DAVE/_Naive/_ForTesting/Libraries/CMSIS/Include/cmsis_gcc.h"