   1              	 .syntax unified
   2              	 .cpu cortex-m4
   3              	 .eabi_attribute 27,3
   4              	 .fpu fpv4-sp-d16
   5              	 .eabi_attribute 20,1
   6              	 .eabi_attribute 21,1
   7              	 .eabi_attribute 23,3
   8              	 .eabi_attribute 24,1
   9              	 .eabi_attribute 25,1
  10              	 .eabi_attribute 26,1
  11              	 .eabi_attribute 30,6
  12              	 .eabi_attribute 34,1
  13              	 .eabi_attribute 18,4
  14              	 .thumb
  15              	 .file "arm_jaccard_distance.c"
  16              	 .text
  17              	.Ltext0:
  18              	 .cfi_sections .debug_frame
  19              	 .global __aeabi_ui2d
  20              	 .global __aeabi_ddiv
  21              	 .global __aeabi_d2f
  22              	 .section .text.arm_jaccard_distance,"ax",%progbits
  23              	 .align 2
  24              	 .global arm_jaccard_distance
  25              	 .thumb
  26              	 .thumb_func
  28              	arm_jaccard_distance:
  29              	.LFB149:
  30              	 .file 1 "../Dave/Generated/CMSIS_DSP/Source/DistanceFunctions/arm_jaccard_distance.c"
   1:../Dave/Generated/CMSIS_DSP/Source/DistanceFunctions/arm_jaccard_distance.c **** 
   2:../Dave/Generated/CMSIS_DSP/Source/DistanceFunctions/arm_jaccard_distance.c **** /* ----------------------------------------------------------------------
   3:../Dave/Generated/CMSIS_DSP/Source/DistanceFunctions/arm_jaccard_distance.c ****  * Project:      CMSIS DSP Library
   4:../Dave/Generated/CMSIS_DSP/Source/DistanceFunctions/arm_jaccard_distance.c ****  * Title:        arm_jaccard_distance.c
   5:../Dave/Generated/CMSIS_DSP/Source/DistanceFunctions/arm_jaccard_distance.c ****  * Description:  Jaccard distance between two vectors
   6:../Dave/Generated/CMSIS_DSP/Source/DistanceFunctions/arm_jaccard_distance.c ****  *
   7:../Dave/Generated/CMSIS_DSP/Source/DistanceFunctions/arm_jaccard_distance.c ****  *
   8:../Dave/Generated/CMSIS_DSP/Source/DistanceFunctions/arm_jaccard_distance.c ****  * Target Processor: Cortex-M cores
   9:../Dave/Generated/CMSIS_DSP/Source/DistanceFunctions/arm_jaccard_distance.c ****  * -------------------------------------------------------------------- */
  10:../Dave/Generated/CMSIS_DSP/Source/DistanceFunctions/arm_jaccard_distance.c **** /*
  11:../Dave/Generated/CMSIS_DSP/Source/DistanceFunctions/arm_jaccard_distance.c ****  * Copyright (C) 2010-2019 ARM Limited or its affiliates. All rights reserved.
  12:../Dave/Generated/CMSIS_DSP/Source/DistanceFunctions/arm_jaccard_distance.c ****  *
  13:../Dave/Generated/CMSIS_DSP/Source/DistanceFunctions/arm_jaccard_distance.c ****  * SPDX-License-Identifier: Apache-2.0
  14:../Dave/Generated/CMSIS_DSP/Source/DistanceFunctions/arm_jaccard_distance.c ****  *
  15:../Dave/Generated/CMSIS_DSP/Source/DistanceFunctions/arm_jaccard_distance.c ****  * Licensed under the Apache License, Version 2.0 (the License); you may
  16:../Dave/Generated/CMSIS_DSP/Source/DistanceFunctions/arm_jaccard_distance.c ****  * not use this file except in compliance with the License.
  17:../Dave/Generated/CMSIS_DSP/Source/DistanceFunctions/arm_jaccard_distance.c ****  * You may obtain a copy of the License at
  18:../Dave/Generated/CMSIS_DSP/Source/DistanceFunctions/arm_jaccard_distance.c ****  *
  19:../Dave/Generated/CMSIS_DSP/Source/DistanceFunctions/arm_jaccard_distance.c ****  * www.apache.org/licenses/LICENSE-2.0
  20:../Dave/Generated/CMSIS_DSP/Source/DistanceFunctions/arm_jaccard_distance.c ****  *
  21:../Dave/Generated/CMSIS_DSP/Source/DistanceFunctions/arm_jaccard_distance.c ****  * Unless required by applicable law or agreed to in writing, software
  22:../Dave/Generated/CMSIS_DSP/Source/DistanceFunctions/arm_jaccard_distance.c ****  * distributed under the License is distributed on an AS IS BASIS, WITHOUT
  23:../Dave/Generated/CMSIS_DSP/Source/DistanceFunctions/arm_jaccard_distance.c ****  * WARRANTIES OR CONDITIONS OF ANY KIND, either express or implied.
  24:../Dave/Generated/CMSIS_DSP/Source/DistanceFunctions/arm_jaccard_distance.c ****  * See the License for the specific language governing permissions and
  25:../Dave/Generated/CMSIS_DSP/Source/DistanceFunctions/arm_jaccard_distance.c ****  * limitations under the License.
  26:../Dave/Generated/CMSIS_DSP/Source/DistanceFunctions/arm_jaccard_distance.c ****  */
  27:../Dave/Generated/CMSIS_DSP/Source/DistanceFunctions/arm_jaccard_distance.c **** 
  28:../Dave/Generated/CMSIS_DSP/Source/DistanceFunctions/arm_jaccard_distance.c **** #include "CMSIS_DSP/cmsis_dsp.h"
  29:../Dave/Generated/CMSIS_DSP/Source/DistanceFunctions/arm_jaccard_distance.c **** #include <limits.h>
  30:../Dave/Generated/CMSIS_DSP/Source/DistanceFunctions/arm_jaccard_distance.c **** #include <math.h>
  31:../Dave/Generated/CMSIS_DSP/Source/DistanceFunctions/arm_jaccard_distance.c **** 
  32:../Dave/Generated/CMSIS_DSP/Source/DistanceFunctions/arm_jaccard_distance.c **** 
  33:../Dave/Generated/CMSIS_DSP/Source/DistanceFunctions/arm_jaccard_distance.c **** 
  34:../Dave/Generated/CMSIS_DSP/Source/DistanceFunctions/arm_jaccard_distance.c **** extern void arm_boolean_distance_TT_TF_FT(const uint32_t *pA
  35:../Dave/Generated/CMSIS_DSP/Source/DistanceFunctions/arm_jaccard_distance.c ****        , const uint32_t *pB
  36:../Dave/Generated/CMSIS_DSP/Source/DistanceFunctions/arm_jaccard_distance.c ****        , uint32_t numberOfBools
  37:../Dave/Generated/CMSIS_DSP/Source/DistanceFunctions/arm_jaccard_distance.c ****        , uint32_t *cTT
  38:../Dave/Generated/CMSIS_DSP/Source/DistanceFunctions/arm_jaccard_distance.c ****        , uint32_t *cTF
  39:../Dave/Generated/CMSIS_DSP/Source/DistanceFunctions/arm_jaccard_distance.c ****        , uint32_t *cFT
  40:../Dave/Generated/CMSIS_DSP/Source/DistanceFunctions/arm_jaccard_distance.c ****        );
  41:../Dave/Generated/CMSIS_DSP/Source/DistanceFunctions/arm_jaccard_distance.c **** 
  42:../Dave/Generated/CMSIS_DSP/Source/DistanceFunctions/arm_jaccard_distance.c **** 
  43:../Dave/Generated/CMSIS_DSP/Source/DistanceFunctions/arm_jaccard_distance.c **** /**
  44:../Dave/Generated/CMSIS_DSP/Source/DistanceFunctions/arm_jaccard_distance.c ****   @addtogroup BoolDist
  45:../Dave/Generated/CMSIS_DSP/Source/DistanceFunctions/arm_jaccard_distance.c ****   @{
  46:../Dave/Generated/CMSIS_DSP/Source/DistanceFunctions/arm_jaccard_distance.c ****  */
  47:../Dave/Generated/CMSIS_DSP/Source/DistanceFunctions/arm_jaccard_distance.c **** 
  48:../Dave/Generated/CMSIS_DSP/Source/DistanceFunctions/arm_jaccard_distance.c **** /**
  49:../Dave/Generated/CMSIS_DSP/Source/DistanceFunctions/arm_jaccard_distance.c ****  * @brief        Jaccard distance between two vectors
  50:../Dave/Generated/CMSIS_DSP/Source/DistanceFunctions/arm_jaccard_distance.c ****  *
  51:../Dave/Generated/CMSIS_DSP/Source/DistanceFunctions/arm_jaccard_distance.c ****  * @param[in]    pA              First vector of packed booleans
  52:../Dave/Generated/CMSIS_DSP/Source/DistanceFunctions/arm_jaccard_distance.c ****  * @param[in]    pB              Second vector of packed booleans
  53:../Dave/Generated/CMSIS_DSP/Source/DistanceFunctions/arm_jaccard_distance.c ****  * @param[in]    numberOfBools   Number of booleans
  54:../Dave/Generated/CMSIS_DSP/Source/DistanceFunctions/arm_jaccard_distance.c ****  * @return distance
  55:../Dave/Generated/CMSIS_DSP/Source/DistanceFunctions/arm_jaccard_distance.c ****  *
  56:../Dave/Generated/CMSIS_DSP/Source/DistanceFunctions/arm_jaccard_distance.c ****  */
  57:../Dave/Generated/CMSIS_DSP/Source/DistanceFunctions/arm_jaccard_distance.c **** 
  58:../Dave/Generated/CMSIS_DSP/Source/DistanceFunctions/arm_jaccard_distance.c **** float32_t arm_jaccard_distance(const uint32_t *pA, const uint32_t *pB, uint32_t numberOfBools)
  59:../Dave/Generated/CMSIS_DSP/Source/DistanceFunctions/arm_jaccard_distance.c **** {
  31              	 .loc 1 59 0
  32              	 .cfi_startproc
  33              	 
  34              	 
  35 0000 B0B5     	 push {r4,r5,r7,lr}
  36              	.LCFI0:
  37              	 .cfi_def_cfa_offset 16
  38              	 .cfi_offset 4,-16
  39              	 .cfi_offset 5,-12
  40              	 .cfi_offset 7,-8
  41              	 .cfi_offset 14,-4
  42 0002 8AB0     	 sub sp,sp,#40
  43              	.LCFI1:
  44              	 .cfi_def_cfa_offset 56
  45 0004 02AF     	 add r7,sp,#8
  46              	.LCFI2:
  47              	 .cfi_def_cfa 7,48
  48 0006 F860     	 str r0,[r7,#12]
  49 0008 B960     	 str r1,[r7,#8]
  50 000a 7A60     	 str r2,[r7,#4]
  60:../Dave/Generated/CMSIS_DSP/Source/DistanceFunctions/arm_jaccard_distance.c ****     uint32_t ctt=0,ctf=0,cft=0;
  51              	 .loc 1 60 0
  52 000c 0023     	 movs r3,#0
  53 000e FB61     	 str r3,[r7,#28]
  54 0010 0023     	 movs r3,#0
  55 0012 BB61     	 str r3,[r7,#24]
  56 0014 0023     	 movs r3,#0
  57 0016 7B61     	 str r3,[r7,#20]
  61:../Dave/Generated/CMSIS_DSP/Source/DistanceFunctions/arm_jaccard_distance.c **** 
  62:../Dave/Generated/CMSIS_DSP/Source/DistanceFunctions/arm_jaccard_distance.c ****     arm_boolean_distance_TT_TF_FT(pA, pB, numberOfBools, &ctt, &ctf, &cft);
  58              	 .loc 1 62 0
  59 0018 07F11C04 	 add r4,r7,#28
  60 001c 07F11803 	 add r3,r7,#24
  61 0020 0093     	 str r3,[sp]
  62 0022 07F11403 	 add r3,r7,#20
  63 0026 0193     	 str r3,[sp,#4]
  64 0028 F868     	 ldr r0,[r7,#12]
  65 002a B968     	 ldr r1,[r7,#8]
  66 002c 7A68     	 ldr r2,[r7,#4]
  67 002e 2346     	 mov r3,r4
  68 0030 FFF7FEFF 	 bl arm_boolean_distance_TT_TF_FT
  63:../Dave/Generated/CMSIS_DSP/Source/DistanceFunctions/arm_jaccard_distance.c **** 
  64:../Dave/Generated/CMSIS_DSP/Source/DistanceFunctions/arm_jaccard_distance.c ****     return(1.0*(ctf + cft) / (ctt + cft + ctf));
  69              	 .loc 1 64 0
  70 0034 BA69     	 ldr r2,[r7,#24]
  71 0036 7B69     	 ldr r3,[r7,#20]
  72 0038 1344     	 add r3,r3,r2
  73 003a 1846     	 mov r0,r3
  74 003c FFF7FEFF 	 bl __aeabi_ui2d
  75 0040 0446     	 mov r4,r0
  76 0042 0D46     	 mov r5,r1
  77 0044 FA69     	 ldr r2,[r7,#28]
  78 0046 7B69     	 ldr r3,[r7,#20]
  79 0048 1A44     	 add r2,r2,r3
  80 004a BB69     	 ldr r3,[r7,#24]
  81 004c 1344     	 add r3,r3,r2
  82 004e 1846     	 mov r0,r3
  83 0050 FFF7FEFF 	 bl __aeabi_ui2d
  84 0054 0246     	 mov r2,r0
  85 0056 0B46     	 mov r3,r1
  86 0058 2046     	 mov r0,r4
  87 005a 2946     	 mov r1,r5
  88 005c FFF7FEFF 	 bl __aeabi_ddiv
  89 0060 0246     	 mov r2,r0
  90 0062 0B46     	 mov r3,r1
  91 0064 1046     	 mov r0,r2
  92 0066 1946     	 mov r1,r3
  93 0068 FFF7FEFF 	 bl __aeabi_d2f
  94 006c 0346     	 mov r3,r0
  65:../Dave/Generated/CMSIS_DSP/Source/DistanceFunctions/arm_jaccard_distance.c **** }
  95              	 .loc 1 65 0
  96 006e 1846     	 mov r0,r3
  97 0070 2037     	 adds r7,r7,#32
  98              	.LCFI3:
  99              	 .cfi_def_cfa_offset 16
 100 0072 BD46     	 mov sp,r7
 101              	.LCFI4:
 102              	 .cfi_def_cfa_register 13
 103              	 
 104 0074 B0BD     	 pop {r4,r5,r7,pc}
 105              	 .cfi_endproc
 106              	.LFE149:
 108 0076 00BF     	 .text
 109              	.Letext0:
 110              	 .file 2 "c:\\infineon\\tools\\dave ide\\4.5.0.202105191637\\eclipse\\arm-gcc-49\\arm-none-eabi\\include\\machine\\_default_types.h"
 111              	 .file 3 "c:\\infineon\\tools\\dave ide\\4.5.0.202105191637\\eclipse\\arm-gcc-49\\arm-none-eabi\\include\\stdint.h"
 112              	 .file 4 "C:/Users/Rui Mendes/Desktop/DAVE/_Naive/_ForTesting/Dave/Generated/CMSIS_DSP/Include/arm_math.h"
 113              	 .file 5 "C:/Users/Rui Mendes/Desktop/DAVE/_Naive/_ForTesting/Libraries/CMSIS/Include/cmsis_gcc.h"