   1              	 .syntax unified
   2              	 .cpu cortex-m4
   3              	 .eabi_attribute 27,3
   4              	 .fpu fpv4-sp-d16
   5              	 .eabi_attribute 20,1
   6              	 .eabi_attribute 21,1
   7              	 .eabi_attribute 23,3
   8              	 .eabi_attribute 24,1
   9              	 .eabi_attribute 25,1
  10              	 .eabi_attribute 26,1
  11              	 .eabi_attribute 30,6
  12              	 .eabi_attribute 34,1
  13              	 .eabi_attribute 18,4
  14              	 .thumb
  15              	 .file "arm_boolean_distance.c"
  16              	 .text
  17              	.Ltext0:
  18              	 .cfi_sections .debug_frame
  19              	 .section .text.arm_boolean_distance_TT_TF_FT,"ax",%progbits
  20              	 .align 2
  21              	 .global arm_boolean_distance_TT_TF_FT
  22              	 .thumb
  23              	 .thumb_func
  25              	arm_boolean_distance_TT_TF_FT:
  26              	.LFB149:
  27              	 .file 1 "../Dave/Generated/CMSIS_DSP/Source/DistanceFunctions/arm_boolean_distance_template.h"
   1:../Dave/Generated/CMSIS_DSP/Source/DistanceFunctions/arm_boolean_distance_template.h **** 
   2:../Dave/Generated/CMSIS_DSP/Source/DistanceFunctions/arm_boolean_distance_template.h **** /* ----------------------------------------------------------------------
   3:../Dave/Generated/CMSIS_DSP/Source/DistanceFunctions/arm_boolean_distance_template.h ****  * Project:      CMSIS DSP Library
   4:../Dave/Generated/CMSIS_DSP/Source/DistanceFunctions/arm_boolean_distance_template.h ****  * Title:        arm_boolean_distance.c
   5:../Dave/Generated/CMSIS_DSP/Source/DistanceFunctions/arm_boolean_distance_template.h ****  * Description:  Templates for boolean distances
   6:../Dave/Generated/CMSIS_DSP/Source/DistanceFunctions/arm_boolean_distance_template.h ****  *
   7:../Dave/Generated/CMSIS_DSP/Source/DistanceFunctions/arm_boolean_distance_template.h ****  *
   8:../Dave/Generated/CMSIS_DSP/Source/DistanceFunctions/arm_boolean_distance_template.h ****  * Target Processor: Cortex-M cores
   9:../Dave/Generated/CMSIS_DSP/Source/DistanceFunctions/arm_boolean_distance_template.h ****  * -------------------------------------------------------------------- */
  10:../Dave/Generated/CMSIS_DSP/Source/DistanceFunctions/arm_boolean_distance_template.h **** /*
  11:../Dave/Generated/CMSIS_DSP/Source/DistanceFunctions/arm_boolean_distance_template.h ****  * Copyright (C) 2010-2019 ARM Limited or its affiliates. All rights reserved.
  12:../Dave/Generated/CMSIS_DSP/Source/DistanceFunctions/arm_boolean_distance_template.h ****  *
  13:../Dave/Generated/CMSIS_DSP/Source/DistanceFunctions/arm_boolean_distance_template.h ****  * SPDX-License-Identifier: Apache-2.0
  14:../Dave/Generated/CMSIS_DSP/Source/DistanceFunctions/arm_boolean_distance_template.h ****  *
  15:../Dave/Generated/CMSIS_DSP/Source/DistanceFunctions/arm_boolean_distance_template.h ****  * Licensed under the Apache License, Version 2.0 (the License); you may
  16:../Dave/Generated/CMSIS_DSP/Source/DistanceFunctions/arm_boolean_distance_template.h ****  * not use this file except in compliance with the License.
  17:../Dave/Generated/CMSIS_DSP/Source/DistanceFunctions/arm_boolean_distance_template.h ****  * You may obtain a copy of the License at
  18:../Dave/Generated/CMSIS_DSP/Source/DistanceFunctions/arm_boolean_distance_template.h ****  *
  19:../Dave/Generated/CMSIS_DSP/Source/DistanceFunctions/arm_boolean_distance_template.h ****  * www.apache.org/licenses/LICENSE-2.0
  20:../Dave/Generated/CMSIS_DSP/Source/DistanceFunctions/arm_boolean_distance_template.h ****  *
  21:../Dave/Generated/CMSIS_DSP/Source/DistanceFunctions/arm_boolean_distance_template.h ****  * Unless required by applicable law or agreed to in writing, software
  22:../Dave/Generated/CMSIS_DSP/Source/DistanceFunctions/arm_boolean_distance_template.h ****  * distributed under the License is distributed on an AS IS BASIS, WITHOUT
  23:../Dave/Generated/CMSIS_DSP/Source/DistanceFunctions/arm_boolean_distance_template.h ****  * WARRANTIES OR CONDITIONS OF ANY KIND, either express or implied.
  24:../Dave/Generated/CMSIS_DSP/Source/DistanceFunctions/arm_boolean_distance_template.h ****  * See the License for the specific language governing permissions and
  25:../Dave/Generated/CMSIS_DSP/Source/DistanceFunctions/arm_boolean_distance_template.h ****  * limitations under the License.
  26:../Dave/Generated/CMSIS_DSP/Source/DistanceFunctions/arm_boolean_distance_template.h ****  */
  27:../Dave/Generated/CMSIS_DSP/Source/DistanceFunctions/arm_boolean_distance_template.h **** 
  28:../Dave/Generated/CMSIS_DSP/Source/DistanceFunctions/arm_boolean_distance_template.h **** 
  29:../Dave/Generated/CMSIS_DSP/Source/DistanceFunctions/arm_boolean_distance_template.h **** 
  30:../Dave/Generated/CMSIS_DSP/Source/DistanceFunctions/arm_boolean_distance_template.h **** 
  31:../Dave/Generated/CMSIS_DSP/Source/DistanceFunctions/arm_boolean_distance_template.h **** /**
  32:../Dave/Generated/CMSIS_DSP/Source/DistanceFunctions/arm_boolean_distance_template.h ****  * @defgroup DISTANCEF Distance Functions
  33:../Dave/Generated/CMSIS_DSP/Source/DistanceFunctions/arm_boolean_distance_template.h ****  *
  34:../Dave/Generated/CMSIS_DSP/Source/DistanceFunctions/arm_boolean_distance_template.h ****  * Computes Distances between vectors. 
  35:../Dave/Generated/CMSIS_DSP/Source/DistanceFunctions/arm_boolean_distance_template.h ****  *
  36:../Dave/Generated/CMSIS_DSP/Source/DistanceFunctions/arm_boolean_distance_template.h ****  * Distance functions are useful in a lot of algorithms.
  37:../Dave/Generated/CMSIS_DSP/Source/DistanceFunctions/arm_boolean_distance_template.h ****  *
  38:../Dave/Generated/CMSIS_DSP/Source/DistanceFunctions/arm_boolean_distance_template.h ****  */
  39:../Dave/Generated/CMSIS_DSP/Source/DistanceFunctions/arm_boolean_distance_template.h **** 
  40:../Dave/Generated/CMSIS_DSP/Source/DistanceFunctions/arm_boolean_distance_template.h **** 
  41:../Dave/Generated/CMSIS_DSP/Source/DistanceFunctions/arm_boolean_distance_template.h **** /**
  42:../Dave/Generated/CMSIS_DSP/Source/DistanceFunctions/arm_boolean_distance_template.h ****  * @addtogroup DISTANCEF
  43:../Dave/Generated/CMSIS_DSP/Source/DistanceFunctions/arm_boolean_distance_template.h ****  * @{
  44:../Dave/Generated/CMSIS_DSP/Source/DistanceFunctions/arm_boolean_distance_template.h ****  */
  45:../Dave/Generated/CMSIS_DSP/Source/DistanceFunctions/arm_boolean_distance_template.h **** 
  46:../Dave/Generated/CMSIS_DSP/Source/DistanceFunctions/arm_boolean_distance_template.h **** 
  47:../Dave/Generated/CMSIS_DSP/Source/DistanceFunctions/arm_boolean_distance_template.h **** /**
  48:../Dave/Generated/CMSIS_DSP/Source/DistanceFunctions/arm_boolean_distance_template.h ****  * @brief        Elements of boolean distances
  49:../Dave/Generated/CMSIS_DSP/Source/DistanceFunctions/arm_boolean_distance_template.h ****  *
  50:../Dave/Generated/CMSIS_DSP/Source/DistanceFunctions/arm_boolean_distance_template.h ****  * Different values which are used to compute boolean distances
  51:../Dave/Generated/CMSIS_DSP/Source/DistanceFunctions/arm_boolean_distance_template.h ****  *
  52:../Dave/Generated/CMSIS_DSP/Source/DistanceFunctions/arm_boolean_distance_template.h ****  * @param[in]    pA              First vector of packed booleans
  53:../Dave/Generated/CMSIS_DSP/Source/DistanceFunctions/arm_boolean_distance_template.h ****  * @param[in]    pB              Second vector of packed booleans
  54:../Dave/Generated/CMSIS_DSP/Source/DistanceFunctions/arm_boolean_distance_template.h ****  * @param[in]    numberOfBools   Number of booleans
  55:../Dave/Generated/CMSIS_DSP/Source/DistanceFunctions/arm_boolean_distance_template.h ****  * @param[out]   cTT             cTT value
  56:../Dave/Generated/CMSIS_DSP/Source/DistanceFunctions/arm_boolean_distance_template.h ****  * @param[out]   cTF             cTF value
  57:../Dave/Generated/CMSIS_DSP/Source/DistanceFunctions/arm_boolean_distance_template.h ****  * @param[out]   cFT             cFT value
  58:../Dave/Generated/CMSIS_DSP/Source/DistanceFunctions/arm_boolean_distance_template.h ****  * @return None
  59:../Dave/Generated/CMSIS_DSP/Source/DistanceFunctions/arm_boolean_distance_template.h ****  *
  60:../Dave/Generated/CMSIS_DSP/Source/DistanceFunctions/arm_boolean_distance_template.h ****  */
  61:../Dave/Generated/CMSIS_DSP/Source/DistanceFunctions/arm_boolean_distance_template.h **** 
  62:../Dave/Generated/CMSIS_DSP/Source/DistanceFunctions/arm_boolean_distance_template.h **** #define _FUNC(A,B) A##B 
  63:../Dave/Generated/CMSIS_DSP/Source/DistanceFunctions/arm_boolean_distance_template.h **** 
  64:../Dave/Generated/CMSIS_DSP/Source/DistanceFunctions/arm_boolean_distance_template.h **** #define FUNC(EXT) _FUNC(arm_boolean_distance, EXT)
  65:../Dave/Generated/CMSIS_DSP/Source/DistanceFunctions/arm_boolean_distance_template.h **** 
  66:../Dave/Generated/CMSIS_DSP/Source/DistanceFunctions/arm_boolean_distance_template.h **** #if defined(ARM_MATH_MVEI)
  67:../Dave/Generated/CMSIS_DSP/Source/DistanceFunctions/arm_boolean_distance_template.h **** 
  68:../Dave/Generated/CMSIS_DSP/Source/DistanceFunctions/arm_boolean_distance_template.h **** #include "arm_common_tables.h"
  69:../Dave/Generated/CMSIS_DSP/Source/DistanceFunctions/arm_boolean_distance_template.h **** 
  70:../Dave/Generated/CMSIS_DSP/Source/DistanceFunctions/arm_boolean_distance_template.h **** void FUNC(EXT)(const uint32_t *pA
  71:../Dave/Generated/CMSIS_DSP/Source/DistanceFunctions/arm_boolean_distance_template.h ****        , const uint32_t *pB
  72:../Dave/Generated/CMSIS_DSP/Source/DistanceFunctions/arm_boolean_distance_template.h ****        , uint32_t numberOfBools
  73:../Dave/Generated/CMSIS_DSP/Source/DistanceFunctions/arm_boolean_distance_template.h **** #ifdef TT
  74:../Dave/Generated/CMSIS_DSP/Source/DistanceFunctions/arm_boolean_distance_template.h ****        , uint32_t *cTT
  75:../Dave/Generated/CMSIS_DSP/Source/DistanceFunctions/arm_boolean_distance_template.h **** #endif
  76:../Dave/Generated/CMSIS_DSP/Source/DistanceFunctions/arm_boolean_distance_template.h **** #ifdef FF
  77:../Dave/Generated/CMSIS_DSP/Source/DistanceFunctions/arm_boolean_distance_template.h ****        , uint32_t *cFF
  78:../Dave/Generated/CMSIS_DSP/Source/DistanceFunctions/arm_boolean_distance_template.h **** #endif
  79:../Dave/Generated/CMSIS_DSP/Source/DistanceFunctions/arm_boolean_distance_template.h **** #ifdef TF
  80:../Dave/Generated/CMSIS_DSP/Source/DistanceFunctions/arm_boolean_distance_template.h ****        , uint32_t *cTF
  81:../Dave/Generated/CMSIS_DSP/Source/DistanceFunctions/arm_boolean_distance_template.h **** #endif
  82:../Dave/Generated/CMSIS_DSP/Source/DistanceFunctions/arm_boolean_distance_template.h **** #ifdef FT
  83:../Dave/Generated/CMSIS_DSP/Source/DistanceFunctions/arm_boolean_distance_template.h ****        , uint32_t *cFT
  84:../Dave/Generated/CMSIS_DSP/Source/DistanceFunctions/arm_boolean_distance_template.h **** #endif
  85:../Dave/Generated/CMSIS_DSP/Source/DistanceFunctions/arm_boolean_distance_template.h ****        )
  86:../Dave/Generated/CMSIS_DSP/Source/DistanceFunctions/arm_boolean_distance_template.h **** {
  87:../Dave/Generated/CMSIS_DSP/Source/DistanceFunctions/arm_boolean_distance_template.h **** 
  88:../Dave/Generated/CMSIS_DSP/Source/DistanceFunctions/arm_boolean_distance_template.h **** #ifdef TT
  89:../Dave/Generated/CMSIS_DSP/Source/DistanceFunctions/arm_boolean_distance_template.h ****     uint32_t _ctt=0;
  90:../Dave/Generated/CMSIS_DSP/Source/DistanceFunctions/arm_boolean_distance_template.h **** #endif
  91:../Dave/Generated/CMSIS_DSP/Source/DistanceFunctions/arm_boolean_distance_template.h **** #ifdef FF
  92:../Dave/Generated/CMSIS_DSP/Source/DistanceFunctions/arm_boolean_distance_template.h ****     uint32_t _cff=0;
  93:../Dave/Generated/CMSIS_DSP/Source/DistanceFunctions/arm_boolean_distance_template.h **** #endif
  94:../Dave/Generated/CMSIS_DSP/Source/DistanceFunctions/arm_boolean_distance_template.h **** #ifdef TF
  95:../Dave/Generated/CMSIS_DSP/Source/DistanceFunctions/arm_boolean_distance_template.h ****     uint32_t _ctf=0;
  96:../Dave/Generated/CMSIS_DSP/Source/DistanceFunctions/arm_boolean_distance_template.h **** #endif
  97:../Dave/Generated/CMSIS_DSP/Source/DistanceFunctions/arm_boolean_distance_template.h **** #ifdef FT
  98:../Dave/Generated/CMSIS_DSP/Source/DistanceFunctions/arm_boolean_distance_template.h ****     uint32_t _cft=0;
  99:../Dave/Generated/CMSIS_DSP/Source/DistanceFunctions/arm_boolean_distance_template.h **** #endif
 100:../Dave/Generated/CMSIS_DSP/Source/DistanceFunctions/arm_boolean_distance_template.h ****     uint32_t        a, b, ba, bb;
 101:../Dave/Generated/CMSIS_DSP/Source/DistanceFunctions/arm_boolean_distance_template.h ****     int shift;
 102:../Dave/Generated/CMSIS_DSP/Source/DistanceFunctions/arm_boolean_distance_template.h ****     const uint8_t  *pA8 = (const uint8_t *) pA;
 103:../Dave/Generated/CMSIS_DSP/Source/DistanceFunctions/arm_boolean_distance_template.h ****     const uint8_t  *pB8 = (const uint8_t *) pB;
 104:../Dave/Generated/CMSIS_DSP/Source/DistanceFunctions/arm_boolean_distance_template.h **** 
 105:../Dave/Generated/CMSIS_DSP/Source/DistanceFunctions/arm_boolean_distance_template.h ****     /* handle vector blocks */
 106:../Dave/Generated/CMSIS_DSP/Source/DistanceFunctions/arm_boolean_distance_template.h ****     uint32_t         blkCnt = numberOfBools / 128;
 107:../Dave/Generated/CMSIS_DSP/Source/DistanceFunctions/arm_boolean_distance_template.h **** 
 108:../Dave/Generated/CMSIS_DSP/Source/DistanceFunctions/arm_boolean_distance_template.h **** 
 109:../Dave/Generated/CMSIS_DSP/Source/DistanceFunctions/arm_boolean_distance_template.h **** 
 110:../Dave/Generated/CMSIS_DSP/Source/DistanceFunctions/arm_boolean_distance_template.h ****     while (blkCnt > 0U) {
 111:../Dave/Generated/CMSIS_DSP/Source/DistanceFunctions/arm_boolean_distance_template.h ****         uint8x16_t      vecA = vld1q((const uint8_t *) pA8);
 112:../Dave/Generated/CMSIS_DSP/Source/DistanceFunctions/arm_boolean_distance_template.h ****         uint8x16_t      vecB = vld1q((const uint8_t *) pB8);
 113:../Dave/Generated/CMSIS_DSP/Source/DistanceFunctions/arm_boolean_distance_template.h **** 
 114:../Dave/Generated/CMSIS_DSP/Source/DistanceFunctions/arm_boolean_distance_template.h **** #ifdef TT
 115:../Dave/Generated/CMSIS_DSP/Source/DistanceFunctions/arm_boolean_distance_template.h ****         uint8x16_t      vecTT = vecA & vecB;
 116:../Dave/Generated/CMSIS_DSP/Source/DistanceFunctions/arm_boolean_distance_template.h ****         vecTT = vldrbq_gather_offset_u8(hwLUT, vecTT);
 117:../Dave/Generated/CMSIS_DSP/Source/DistanceFunctions/arm_boolean_distance_template.h ****         _ctt += vaddvq(vecTT);
 118:../Dave/Generated/CMSIS_DSP/Source/DistanceFunctions/arm_boolean_distance_template.h **** #endif
 119:../Dave/Generated/CMSIS_DSP/Source/DistanceFunctions/arm_boolean_distance_template.h **** #ifdef FF
 120:../Dave/Generated/CMSIS_DSP/Source/DistanceFunctions/arm_boolean_distance_template.h ****         uint8x16_t      vecFF = vmvnq(vecA) & vmvnq(vecB);
 121:../Dave/Generated/CMSIS_DSP/Source/DistanceFunctions/arm_boolean_distance_template.h ****         vecFF = vldrbq_gather_offset_u8(hwLUT, vecFF);
 122:../Dave/Generated/CMSIS_DSP/Source/DistanceFunctions/arm_boolean_distance_template.h ****         _cff += vaddvq(vecFF);
 123:../Dave/Generated/CMSIS_DSP/Source/DistanceFunctions/arm_boolean_distance_template.h **** #endif
 124:../Dave/Generated/CMSIS_DSP/Source/DistanceFunctions/arm_boolean_distance_template.h **** #ifdef TF
 125:../Dave/Generated/CMSIS_DSP/Source/DistanceFunctions/arm_boolean_distance_template.h ****         uint8x16_t      vecTF = vecA & vmvnq(vecB);
 126:../Dave/Generated/CMSIS_DSP/Source/DistanceFunctions/arm_boolean_distance_template.h ****         vecTF = vldrbq_gather_offset_u8(hwLUT, vecTF);
 127:../Dave/Generated/CMSIS_DSP/Source/DistanceFunctions/arm_boolean_distance_template.h ****         _ctf += vaddvq(vecTF);
 128:../Dave/Generated/CMSIS_DSP/Source/DistanceFunctions/arm_boolean_distance_template.h **** #endif
 129:../Dave/Generated/CMSIS_DSP/Source/DistanceFunctions/arm_boolean_distance_template.h **** #ifdef FT
 130:../Dave/Generated/CMSIS_DSP/Source/DistanceFunctions/arm_boolean_distance_template.h ****         uint8x16_t      vecFT = vmvnq(vecA) & vecB;
 131:../Dave/Generated/CMSIS_DSP/Source/DistanceFunctions/arm_boolean_distance_template.h ****         vecFT = vldrbq_gather_offset_u8(hwLUT, vecFT);
 132:../Dave/Generated/CMSIS_DSP/Source/DistanceFunctions/arm_boolean_distance_template.h ****         _cft += vaddvq(vecFT);
 133:../Dave/Generated/CMSIS_DSP/Source/DistanceFunctions/arm_boolean_distance_template.h **** #endif
 134:../Dave/Generated/CMSIS_DSP/Source/DistanceFunctions/arm_boolean_distance_template.h **** 
 135:../Dave/Generated/CMSIS_DSP/Source/DistanceFunctions/arm_boolean_distance_template.h ****         pA8 += 16;
 136:../Dave/Generated/CMSIS_DSP/Source/DistanceFunctions/arm_boolean_distance_template.h ****         pB8 += 16;
 137:../Dave/Generated/CMSIS_DSP/Source/DistanceFunctions/arm_boolean_distance_template.h ****         blkCnt--;
 138:../Dave/Generated/CMSIS_DSP/Source/DistanceFunctions/arm_boolean_distance_template.h **** 
 139:../Dave/Generated/CMSIS_DSP/Source/DistanceFunctions/arm_boolean_distance_template.h ****     }
 140:../Dave/Generated/CMSIS_DSP/Source/DistanceFunctions/arm_boolean_distance_template.h **** 
 141:../Dave/Generated/CMSIS_DSP/Source/DistanceFunctions/arm_boolean_distance_template.h ****     pA = (const uint32_t *)pA8;
 142:../Dave/Generated/CMSIS_DSP/Source/DistanceFunctions/arm_boolean_distance_template.h ****     pB = (const uint32_t *)pB8;
 143:../Dave/Generated/CMSIS_DSP/Source/DistanceFunctions/arm_boolean_distance_template.h **** 
 144:../Dave/Generated/CMSIS_DSP/Source/DistanceFunctions/arm_boolean_distance_template.h ****     blkCnt = numberOfBools & 0x7F;
 145:../Dave/Generated/CMSIS_DSP/Source/DistanceFunctions/arm_boolean_distance_template.h ****     while(blkCnt >= 32)
 146:../Dave/Generated/CMSIS_DSP/Source/DistanceFunctions/arm_boolean_distance_template.h ****     {
 147:../Dave/Generated/CMSIS_DSP/Source/DistanceFunctions/arm_boolean_distance_template.h ****        a = *pA++;
 148:../Dave/Generated/CMSIS_DSP/Source/DistanceFunctions/arm_boolean_distance_template.h ****        b = *pB++;
 149:../Dave/Generated/CMSIS_DSP/Source/DistanceFunctions/arm_boolean_distance_template.h ****        shift = 0;
 150:../Dave/Generated/CMSIS_DSP/Source/DistanceFunctions/arm_boolean_distance_template.h ****        while(shift < 32)
 151:../Dave/Generated/CMSIS_DSP/Source/DistanceFunctions/arm_boolean_distance_template.h ****        {
 152:../Dave/Generated/CMSIS_DSP/Source/DistanceFunctions/arm_boolean_distance_template.h ****           ba = a & 1;
 153:../Dave/Generated/CMSIS_DSP/Source/DistanceFunctions/arm_boolean_distance_template.h ****           bb = b & 1;
 154:../Dave/Generated/CMSIS_DSP/Source/DistanceFunctions/arm_boolean_distance_template.h ****           a = a >> 1;
 155:../Dave/Generated/CMSIS_DSP/Source/DistanceFunctions/arm_boolean_distance_template.h ****           b = b >> 1;
 156:../Dave/Generated/CMSIS_DSP/Source/DistanceFunctions/arm_boolean_distance_template.h **** 
 157:../Dave/Generated/CMSIS_DSP/Source/DistanceFunctions/arm_boolean_distance_template.h **** #ifdef TT
 158:../Dave/Generated/CMSIS_DSP/Source/DistanceFunctions/arm_boolean_distance_template.h ****           _ctt += (ba && bb);
 159:../Dave/Generated/CMSIS_DSP/Source/DistanceFunctions/arm_boolean_distance_template.h **** #endif
 160:../Dave/Generated/CMSIS_DSP/Source/DistanceFunctions/arm_boolean_distance_template.h **** #ifdef FF
 161:../Dave/Generated/CMSIS_DSP/Source/DistanceFunctions/arm_boolean_distance_template.h ****           _cff += ((1 ^ ba) && (1 ^ bb));
 162:../Dave/Generated/CMSIS_DSP/Source/DistanceFunctions/arm_boolean_distance_template.h **** #endif
 163:../Dave/Generated/CMSIS_DSP/Source/DistanceFunctions/arm_boolean_distance_template.h **** #ifdef TF
 164:../Dave/Generated/CMSIS_DSP/Source/DistanceFunctions/arm_boolean_distance_template.h ****           _ctf += (ba && (1 ^ bb));
 165:../Dave/Generated/CMSIS_DSP/Source/DistanceFunctions/arm_boolean_distance_template.h **** #endif
 166:../Dave/Generated/CMSIS_DSP/Source/DistanceFunctions/arm_boolean_distance_template.h **** #ifdef FT
 167:../Dave/Generated/CMSIS_DSP/Source/DistanceFunctions/arm_boolean_distance_template.h ****           _cft += ((1 ^ ba) && bb);
 168:../Dave/Generated/CMSIS_DSP/Source/DistanceFunctions/arm_boolean_distance_template.h **** #endif
 169:../Dave/Generated/CMSIS_DSP/Source/DistanceFunctions/arm_boolean_distance_template.h ****           shift ++;
 170:../Dave/Generated/CMSIS_DSP/Source/DistanceFunctions/arm_boolean_distance_template.h ****        }
 171:../Dave/Generated/CMSIS_DSP/Source/DistanceFunctions/arm_boolean_distance_template.h **** 
 172:../Dave/Generated/CMSIS_DSP/Source/DistanceFunctions/arm_boolean_distance_template.h ****        blkCnt -= 32;
 173:../Dave/Generated/CMSIS_DSP/Source/DistanceFunctions/arm_boolean_distance_template.h ****     }
 174:../Dave/Generated/CMSIS_DSP/Source/DistanceFunctions/arm_boolean_distance_template.h **** 
 175:../Dave/Generated/CMSIS_DSP/Source/DistanceFunctions/arm_boolean_distance_template.h ****     a = *pA++;
 176:../Dave/Generated/CMSIS_DSP/Source/DistanceFunctions/arm_boolean_distance_template.h ****     b = *pB++;
 177:../Dave/Generated/CMSIS_DSP/Source/DistanceFunctions/arm_boolean_distance_template.h **** 
 178:../Dave/Generated/CMSIS_DSP/Source/DistanceFunctions/arm_boolean_distance_template.h ****     a = a >> (32 - blkCnt);
 179:../Dave/Generated/CMSIS_DSP/Source/DistanceFunctions/arm_boolean_distance_template.h ****     b = b >> (32 - blkCnt);
 180:../Dave/Generated/CMSIS_DSP/Source/DistanceFunctions/arm_boolean_distance_template.h **** 
 181:../Dave/Generated/CMSIS_DSP/Source/DistanceFunctions/arm_boolean_distance_template.h ****     while(blkCnt > 0)
 182:../Dave/Generated/CMSIS_DSP/Source/DistanceFunctions/arm_boolean_distance_template.h ****     {
 183:../Dave/Generated/CMSIS_DSP/Source/DistanceFunctions/arm_boolean_distance_template.h ****           ba = a & 1;
 184:../Dave/Generated/CMSIS_DSP/Source/DistanceFunctions/arm_boolean_distance_template.h ****           bb = b & 1;
 185:../Dave/Generated/CMSIS_DSP/Source/DistanceFunctions/arm_boolean_distance_template.h ****           a = a >> 1;
 186:../Dave/Generated/CMSIS_DSP/Source/DistanceFunctions/arm_boolean_distance_template.h **** 
 187:../Dave/Generated/CMSIS_DSP/Source/DistanceFunctions/arm_boolean_distance_template.h ****           b = b >> 1;
 188:../Dave/Generated/CMSIS_DSP/Source/DistanceFunctions/arm_boolean_distance_template.h **** #ifdef TT
 189:../Dave/Generated/CMSIS_DSP/Source/DistanceFunctions/arm_boolean_distance_template.h ****           _ctt += (ba && bb);
 190:../Dave/Generated/CMSIS_DSP/Source/DistanceFunctions/arm_boolean_distance_template.h **** #endif
 191:../Dave/Generated/CMSIS_DSP/Source/DistanceFunctions/arm_boolean_distance_template.h **** #ifdef FF
 192:../Dave/Generated/CMSIS_DSP/Source/DistanceFunctions/arm_boolean_distance_template.h ****           _cff += ((1 ^ ba) && (1 ^ bb));
 193:../Dave/Generated/CMSIS_DSP/Source/DistanceFunctions/arm_boolean_distance_template.h **** #endif
 194:../Dave/Generated/CMSIS_DSP/Source/DistanceFunctions/arm_boolean_distance_template.h **** #ifdef TF
 195:../Dave/Generated/CMSIS_DSP/Source/DistanceFunctions/arm_boolean_distance_template.h ****           _ctf += (ba && (1 ^ bb));
 196:../Dave/Generated/CMSIS_DSP/Source/DistanceFunctions/arm_boolean_distance_template.h **** #endif
 197:../Dave/Generated/CMSIS_DSP/Source/DistanceFunctions/arm_boolean_distance_template.h **** #ifdef FT
 198:../Dave/Generated/CMSIS_DSP/Source/DistanceFunctions/arm_boolean_distance_template.h ****           _cft += ((1 ^ ba) && bb);
 199:../Dave/Generated/CMSIS_DSP/Source/DistanceFunctions/arm_boolean_distance_template.h **** #endif
 200:../Dave/Generated/CMSIS_DSP/Source/DistanceFunctions/arm_boolean_distance_template.h ****           blkCnt --;
 201:../Dave/Generated/CMSIS_DSP/Source/DistanceFunctions/arm_boolean_distance_template.h ****     }
 202:../Dave/Generated/CMSIS_DSP/Source/DistanceFunctions/arm_boolean_distance_template.h **** 
 203:../Dave/Generated/CMSIS_DSP/Source/DistanceFunctions/arm_boolean_distance_template.h **** #ifdef TT
 204:../Dave/Generated/CMSIS_DSP/Source/DistanceFunctions/arm_boolean_distance_template.h ****     *cTT = _ctt;
 205:../Dave/Generated/CMSIS_DSP/Source/DistanceFunctions/arm_boolean_distance_template.h **** #endif
 206:../Dave/Generated/CMSIS_DSP/Source/DistanceFunctions/arm_boolean_distance_template.h **** #ifdef FF
 207:../Dave/Generated/CMSIS_DSP/Source/DistanceFunctions/arm_boolean_distance_template.h ****     *cFF = _cff;
 208:../Dave/Generated/CMSIS_DSP/Source/DistanceFunctions/arm_boolean_distance_template.h **** #endif
 209:../Dave/Generated/CMSIS_DSP/Source/DistanceFunctions/arm_boolean_distance_template.h **** #ifdef TF
 210:../Dave/Generated/CMSIS_DSP/Source/DistanceFunctions/arm_boolean_distance_template.h ****     *cTF = _ctf;
 211:../Dave/Generated/CMSIS_DSP/Source/DistanceFunctions/arm_boolean_distance_template.h **** #endif
 212:../Dave/Generated/CMSIS_DSP/Source/DistanceFunctions/arm_boolean_distance_template.h **** #ifdef FT
 213:../Dave/Generated/CMSIS_DSP/Source/DistanceFunctions/arm_boolean_distance_template.h ****     *cFT = _cft;
 214:../Dave/Generated/CMSIS_DSP/Source/DistanceFunctions/arm_boolean_distance_template.h **** #endif
 215:../Dave/Generated/CMSIS_DSP/Source/DistanceFunctions/arm_boolean_distance_template.h **** }
 216:../Dave/Generated/CMSIS_DSP/Source/DistanceFunctions/arm_boolean_distance_template.h **** 
 217:../Dave/Generated/CMSIS_DSP/Source/DistanceFunctions/arm_boolean_distance_template.h **** #else
 218:../Dave/Generated/CMSIS_DSP/Source/DistanceFunctions/arm_boolean_distance_template.h **** #if defined(ARM_MATH_NEON)
 219:../Dave/Generated/CMSIS_DSP/Source/DistanceFunctions/arm_boolean_distance_template.h **** 
 220:../Dave/Generated/CMSIS_DSP/Source/DistanceFunctions/arm_boolean_distance_template.h **** 
 221:../Dave/Generated/CMSIS_DSP/Source/DistanceFunctions/arm_boolean_distance_template.h **** void FUNC(EXT)(const uint32_t *pA
 222:../Dave/Generated/CMSIS_DSP/Source/DistanceFunctions/arm_boolean_distance_template.h ****        , const uint32_t *pB
 223:../Dave/Generated/CMSIS_DSP/Source/DistanceFunctions/arm_boolean_distance_template.h ****        , uint32_t numberOfBools
 224:../Dave/Generated/CMSIS_DSP/Source/DistanceFunctions/arm_boolean_distance_template.h **** #ifdef TT
 225:../Dave/Generated/CMSIS_DSP/Source/DistanceFunctions/arm_boolean_distance_template.h ****        , uint32_t *cTT
 226:../Dave/Generated/CMSIS_DSP/Source/DistanceFunctions/arm_boolean_distance_template.h **** #endif
 227:../Dave/Generated/CMSIS_DSP/Source/DistanceFunctions/arm_boolean_distance_template.h **** #ifdef FF
 228:../Dave/Generated/CMSIS_DSP/Source/DistanceFunctions/arm_boolean_distance_template.h ****        , uint32_t *cFF
 229:../Dave/Generated/CMSIS_DSP/Source/DistanceFunctions/arm_boolean_distance_template.h **** #endif
 230:../Dave/Generated/CMSIS_DSP/Source/DistanceFunctions/arm_boolean_distance_template.h **** #ifdef TF
 231:../Dave/Generated/CMSIS_DSP/Source/DistanceFunctions/arm_boolean_distance_template.h ****        , uint32_t *cTF
 232:../Dave/Generated/CMSIS_DSP/Source/DistanceFunctions/arm_boolean_distance_template.h **** #endif
 233:../Dave/Generated/CMSIS_DSP/Source/DistanceFunctions/arm_boolean_distance_template.h **** #ifdef FT
 234:../Dave/Generated/CMSIS_DSP/Source/DistanceFunctions/arm_boolean_distance_template.h ****        , uint32_t *cFT
 235:../Dave/Generated/CMSIS_DSP/Source/DistanceFunctions/arm_boolean_distance_template.h **** #endif
 236:../Dave/Generated/CMSIS_DSP/Source/DistanceFunctions/arm_boolean_distance_template.h ****        )
 237:../Dave/Generated/CMSIS_DSP/Source/DistanceFunctions/arm_boolean_distance_template.h **** {
 238:../Dave/Generated/CMSIS_DSP/Source/DistanceFunctions/arm_boolean_distance_template.h **** #ifdef TT
 239:../Dave/Generated/CMSIS_DSP/Source/DistanceFunctions/arm_boolean_distance_template.h ****     uint32_t _ctt=0;
 240:../Dave/Generated/CMSIS_DSP/Source/DistanceFunctions/arm_boolean_distance_template.h **** #endif
 241:../Dave/Generated/CMSIS_DSP/Source/DistanceFunctions/arm_boolean_distance_template.h **** #ifdef FF
 242:../Dave/Generated/CMSIS_DSP/Source/DistanceFunctions/arm_boolean_distance_template.h ****     uint32_t _cff=0;
 243:../Dave/Generated/CMSIS_DSP/Source/DistanceFunctions/arm_boolean_distance_template.h **** #endif
 244:../Dave/Generated/CMSIS_DSP/Source/DistanceFunctions/arm_boolean_distance_template.h **** #ifdef TF
 245:../Dave/Generated/CMSIS_DSP/Source/DistanceFunctions/arm_boolean_distance_template.h ****     uint32_t _ctf=0;
 246:../Dave/Generated/CMSIS_DSP/Source/DistanceFunctions/arm_boolean_distance_template.h **** #endif
 247:../Dave/Generated/CMSIS_DSP/Source/DistanceFunctions/arm_boolean_distance_template.h **** #ifdef FT
 248:../Dave/Generated/CMSIS_DSP/Source/DistanceFunctions/arm_boolean_distance_template.h ****     uint32_t _cft=0;
 249:../Dave/Generated/CMSIS_DSP/Source/DistanceFunctions/arm_boolean_distance_template.h **** #endif
 250:../Dave/Generated/CMSIS_DSP/Source/DistanceFunctions/arm_boolean_distance_template.h ****     uint32_t nbBoolBlock;
 251:../Dave/Generated/CMSIS_DSP/Source/DistanceFunctions/arm_boolean_distance_template.h ****     uint32_t a,b,ba,bb;
 252:../Dave/Generated/CMSIS_DSP/Source/DistanceFunctions/arm_boolean_distance_template.h ****     int shift;
 253:../Dave/Generated/CMSIS_DSP/Source/DistanceFunctions/arm_boolean_distance_template.h ****     uint32x4_t aV, bV;
 254:../Dave/Generated/CMSIS_DSP/Source/DistanceFunctions/arm_boolean_distance_template.h **** #ifdef TT
 255:../Dave/Generated/CMSIS_DSP/Source/DistanceFunctions/arm_boolean_distance_template.h ****     uint32x4_t cttV;
 256:../Dave/Generated/CMSIS_DSP/Source/DistanceFunctions/arm_boolean_distance_template.h **** #endif
 257:../Dave/Generated/CMSIS_DSP/Source/DistanceFunctions/arm_boolean_distance_template.h **** #ifdef FF
 258:../Dave/Generated/CMSIS_DSP/Source/DistanceFunctions/arm_boolean_distance_template.h ****     uint32x4_t cffV;
 259:../Dave/Generated/CMSIS_DSP/Source/DistanceFunctions/arm_boolean_distance_template.h **** #endif
 260:../Dave/Generated/CMSIS_DSP/Source/DistanceFunctions/arm_boolean_distance_template.h **** #ifdef TF
 261:../Dave/Generated/CMSIS_DSP/Source/DistanceFunctions/arm_boolean_distance_template.h ****     uint32x4_t ctfV;
 262:../Dave/Generated/CMSIS_DSP/Source/DistanceFunctions/arm_boolean_distance_template.h **** #endif
 263:../Dave/Generated/CMSIS_DSP/Source/DistanceFunctions/arm_boolean_distance_template.h **** #ifdef FT
 264:../Dave/Generated/CMSIS_DSP/Source/DistanceFunctions/arm_boolean_distance_template.h ****     uint32x4_t cftV;
 265:../Dave/Generated/CMSIS_DSP/Source/DistanceFunctions/arm_boolean_distance_template.h **** #endif
 266:../Dave/Generated/CMSIS_DSP/Source/DistanceFunctions/arm_boolean_distance_template.h ****     uint8x16_t tmp;
 267:../Dave/Generated/CMSIS_DSP/Source/DistanceFunctions/arm_boolean_distance_template.h ****     uint16x8_t tmp2;
 268:../Dave/Generated/CMSIS_DSP/Source/DistanceFunctions/arm_boolean_distance_template.h ****     uint32x4_t tmp3;
 269:../Dave/Generated/CMSIS_DSP/Source/DistanceFunctions/arm_boolean_distance_template.h ****     uint64x2_t tmp4;
 270:../Dave/Generated/CMSIS_DSP/Source/DistanceFunctions/arm_boolean_distance_template.h **** #ifdef TT
 271:../Dave/Generated/CMSIS_DSP/Source/DistanceFunctions/arm_boolean_distance_template.h ****     uint64x2_t tmp4tt;
 272:../Dave/Generated/CMSIS_DSP/Source/DistanceFunctions/arm_boolean_distance_template.h **** #endif
 273:../Dave/Generated/CMSIS_DSP/Source/DistanceFunctions/arm_boolean_distance_template.h **** #ifdef FF
 274:../Dave/Generated/CMSIS_DSP/Source/DistanceFunctions/arm_boolean_distance_template.h ****     uint64x2_t tmp4ff;
 275:../Dave/Generated/CMSIS_DSP/Source/DistanceFunctions/arm_boolean_distance_template.h **** #endif
 276:../Dave/Generated/CMSIS_DSP/Source/DistanceFunctions/arm_boolean_distance_template.h **** #ifdef TF
 277:../Dave/Generated/CMSIS_DSP/Source/DistanceFunctions/arm_boolean_distance_template.h ****     uint64x2_t tmp4tf;
 278:../Dave/Generated/CMSIS_DSP/Source/DistanceFunctions/arm_boolean_distance_template.h **** #endif
 279:../Dave/Generated/CMSIS_DSP/Source/DistanceFunctions/arm_boolean_distance_template.h **** #ifdef FT
 280:../Dave/Generated/CMSIS_DSP/Source/DistanceFunctions/arm_boolean_distance_template.h ****     uint64x2_t tmp4ft;
 281:../Dave/Generated/CMSIS_DSP/Source/DistanceFunctions/arm_boolean_distance_template.h **** #endif
 282:../Dave/Generated/CMSIS_DSP/Source/DistanceFunctions/arm_boolean_distance_template.h **** 
 283:../Dave/Generated/CMSIS_DSP/Source/DistanceFunctions/arm_boolean_distance_template.h **** #ifdef TT
 284:../Dave/Generated/CMSIS_DSP/Source/DistanceFunctions/arm_boolean_distance_template.h ****     tmp4tt = vdupq_n_u64(0);
 285:../Dave/Generated/CMSIS_DSP/Source/DistanceFunctions/arm_boolean_distance_template.h **** #endif
 286:../Dave/Generated/CMSIS_DSP/Source/DistanceFunctions/arm_boolean_distance_template.h **** #ifdef FF
 287:../Dave/Generated/CMSIS_DSP/Source/DistanceFunctions/arm_boolean_distance_template.h ****     tmp4ff = vdupq_n_u64(0);
 288:../Dave/Generated/CMSIS_DSP/Source/DistanceFunctions/arm_boolean_distance_template.h **** #endif
 289:../Dave/Generated/CMSIS_DSP/Source/DistanceFunctions/arm_boolean_distance_template.h **** #ifdef TF
 290:../Dave/Generated/CMSIS_DSP/Source/DistanceFunctions/arm_boolean_distance_template.h ****     tmp4tf = vdupq_n_u64(0);
 291:../Dave/Generated/CMSIS_DSP/Source/DistanceFunctions/arm_boolean_distance_template.h **** #endif
 292:../Dave/Generated/CMSIS_DSP/Source/DistanceFunctions/arm_boolean_distance_template.h **** #ifdef FT
 293:../Dave/Generated/CMSIS_DSP/Source/DistanceFunctions/arm_boolean_distance_template.h ****     tmp4ft = vdupq_n_u64(0);
 294:../Dave/Generated/CMSIS_DSP/Source/DistanceFunctions/arm_boolean_distance_template.h **** #endif
 295:../Dave/Generated/CMSIS_DSP/Source/DistanceFunctions/arm_boolean_distance_template.h **** 
 296:../Dave/Generated/CMSIS_DSP/Source/DistanceFunctions/arm_boolean_distance_template.h ****     nbBoolBlock = numberOfBools >> 7;
 297:../Dave/Generated/CMSIS_DSP/Source/DistanceFunctions/arm_boolean_distance_template.h ****     while(nbBoolBlock > 0)
 298:../Dave/Generated/CMSIS_DSP/Source/DistanceFunctions/arm_boolean_distance_template.h ****     {
 299:../Dave/Generated/CMSIS_DSP/Source/DistanceFunctions/arm_boolean_distance_template.h ****        aV = vld1q_u32(pA);
 300:../Dave/Generated/CMSIS_DSP/Source/DistanceFunctions/arm_boolean_distance_template.h ****        bV = vld1q_u32(pB);
 301:../Dave/Generated/CMSIS_DSP/Source/DistanceFunctions/arm_boolean_distance_template.h ****        pA += 4;
 302:../Dave/Generated/CMSIS_DSP/Source/DistanceFunctions/arm_boolean_distance_template.h ****        pB += 4;
 303:../Dave/Generated/CMSIS_DSP/Source/DistanceFunctions/arm_boolean_distance_template.h **** 
 304:../Dave/Generated/CMSIS_DSP/Source/DistanceFunctions/arm_boolean_distance_template.h **** #ifdef TT
 305:../Dave/Generated/CMSIS_DSP/Source/DistanceFunctions/arm_boolean_distance_template.h ****        cttV = vandq_u32(aV,bV);
 306:../Dave/Generated/CMSIS_DSP/Source/DistanceFunctions/arm_boolean_distance_template.h **** #endif
 307:../Dave/Generated/CMSIS_DSP/Source/DistanceFunctions/arm_boolean_distance_template.h **** #ifdef FF
 308:../Dave/Generated/CMSIS_DSP/Source/DistanceFunctions/arm_boolean_distance_template.h ****        cffV = vandq_u32(vmvnq_u32(aV),vmvnq_u32(bV));
 309:../Dave/Generated/CMSIS_DSP/Source/DistanceFunctions/arm_boolean_distance_template.h **** #endif
 310:../Dave/Generated/CMSIS_DSP/Source/DistanceFunctions/arm_boolean_distance_template.h **** #ifdef TF
 311:../Dave/Generated/CMSIS_DSP/Source/DistanceFunctions/arm_boolean_distance_template.h ****        ctfV = vandq_u32(aV,vmvnq_u32(bV));
 312:../Dave/Generated/CMSIS_DSP/Source/DistanceFunctions/arm_boolean_distance_template.h **** #endif
 313:../Dave/Generated/CMSIS_DSP/Source/DistanceFunctions/arm_boolean_distance_template.h **** #ifdef FT
 314:../Dave/Generated/CMSIS_DSP/Source/DistanceFunctions/arm_boolean_distance_template.h ****        cftV = vandq_u32(vmvnq_u32(aV),bV);
 315:../Dave/Generated/CMSIS_DSP/Source/DistanceFunctions/arm_boolean_distance_template.h **** #endif
 316:../Dave/Generated/CMSIS_DSP/Source/DistanceFunctions/arm_boolean_distance_template.h **** 
 317:../Dave/Generated/CMSIS_DSP/Source/DistanceFunctions/arm_boolean_distance_template.h **** #ifdef TT
 318:../Dave/Generated/CMSIS_DSP/Source/DistanceFunctions/arm_boolean_distance_template.h ****        tmp = vcntq_u8(vreinterpretq_u8_u32(cttV));
 319:../Dave/Generated/CMSIS_DSP/Source/DistanceFunctions/arm_boolean_distance_template.h ****        tmp2 = vpaddlq_u8(tmp);
 320:../Dave/Generated/CMSIS_DSP/Source/DistanceFunctions/arm_boolean_distance_template.h ****        tmp3 = vpaddlq_u16(tmp2);
 321:../Dave/Generated/CMSIS_DSP/Source/DistanceFunctions/arm_boolean_distance_template.h ****        tmp4 = vpaddlq_u32(tmp3);
 322:../Dave/Generated/CMSIS_DSP/Source/DistanceFunctions/arm_boolean_distance_template.h ****        tmp4tt = vaddq_u64(tmp4tt, tmp4);
 323:../Dave/Generated/CMSIS_DSP/Source/DistanceFunctions/arm_boolean_distance_template.h **** #endif
 324:../Dave/Generated/CMSIS_DSP/Source/DistanceFunctions/arm_boolean_distance_template.h **** 
 325:../Dave/Generated/CMSIS_DSP/Source/DistanceFunctions/arm_boolean_distance_template.h **** #ifdef FF
 326:../Dave/Generated/CMSIS_DSP/Source/DistanceFunctions/arm_boolean_distance_template.h ****        tmp = vcntq_u8(vreinterpretq_u8_u32(cffV));
 327:../Dave/Generated/CMSIS_DSP/Source/DistanceFunctions/arm_boolean_distance_template.h ****        tmp2 = vpaddlq_u8(tmp);
 328:../Dave/Generated/CMSIS_DSP/Source/DistanceFunctions/arm_boolean_distance_template.h ****        tmp3 = vpaddlq_u16(tmp2);
 329:../Dave/Generated/CMSIS_DSP/Source/DistanceFunctions/arm_boolean_distance_template.h ****        tmp4 = vpaddlq_u32(tmp3);
 330:../Dave/Generated/CMSIS_DSP/Source/DistanceFunctions/arm_boolean_distance_template.h ****        tmp4ff = vaddq_u64(tmp4ff, tmp4);
 331:../Dave/Generated/CMSIS_DSP/Source/DistanceFunctions/arm_boolean_distance_template.h **** #endif
 332:../Dave/Generated/CMSIS_DSP/Source/DistanceFunctions/arm_boolean_distance_template.h **** 
 333:../Dave/Generated/CMSIS_DSP/Source/DistanceFunctions/arm_boolean_distance_template.h **** #ifdef TF
 334:../Dave/Generated/CMSIS_DSP/Source/DistanceFunctions/arm_boolean_distance_template.h ****        tmp = vcntq_u8(vreinterpretq_u8_u32(ctfV));
 335:../Dave/Generated/CMSIS_DSP/Source/DistanceFunctions/arm_boolean_distance_template.h ****        tmp2 = vpaddlq_u8(tmp);
 336:../Dave/Generated/CMSIS_DSP/Source/DistanceFunctions/arm_boolean_distance_template.h ****        tmp3 = vpaddlq_u16(tmp2);
 337:../Dave/Generated/CMSIS_DSP/Source/DistanceFunctions/arm_boolean_distance_template.h ****        tmp4 = vpaddlq_u32(tmp3);
 338:../Dave/Generated/CMSIS_DSP/Source/DistanceFunctions/arm_boolean_distance_template.h ****        tmp4tf = vaddq_u64(tmp4tf, tmp4);
 339:../Dave/Generated/CMSIS_DSP/Source/DistanceFunctions/arm_boolean_distance_template.h **** #endif 
 340:../Dave/Generated/CMSIS_DSP/Source/DistanceFunctions/arm_boolean_distance_template.h **** 
 341:../Dave/Generated/CMSIS_DSP/Source/DistanceFunctions/arm_boolean_distance_template.h **** #ifdef FT
 342:../Dave/Generated/CMSIS_DSP/Source/DistanceFunctions/arm_boolean_distance_template.h ****        tmp = vcntq_u8(vreinterpretq_u8_u32(cftV));
 343:../Dave/Generated/CMSIS_DSP/Source/DistanceFunctions/arm_boolean_distance_template.h ****        tmp2 = vpaddlq_u8(tmp);
 344:../Dave/Generated/CMSIS_DSP/Source/DistanceFunctions/arm_boolean_distance_template.h ****        tmp3 = vpaddlq_u16(tmp2);
 345:../Dave/Generated/CMSIS_DSP/Source/DistanceFunctions/arm_boolean_distance_template.h ****        tmp4 = vpaddlq_u32(tmp3);
 346:../Dave/Generated/CMSIS_DSP/Source/DistanceFunctions/arm_boolean_distance_template.h ****        tmp4ft = vaddq_u64(tmp4ft, tmp4);
 347:../Dave/Generated/CMSIS_DSP/Source/DistanceFunctions/arm_boolean_distance_template.h **** #endif
 348:../Dave/Generated/CMSIS_DSP/Source/DistanceFunctions/arm_boolean_distance_template.h **** 
 349:../Dave/Generated/CMSIS_DSP/Source/DistanceFunctions/arm_boolean_distance_template.h **** 
 350:../Dave/Generated/CMSIS_DSP/Source/DistanceFunctions/arm_boolean_distance_template.h ****        nbBoolBlock --;
 351:../Dave/Generated/CMSIS_DSP/Source/DistanceFunctions/arm_boolean_distance_template.h ****     }
 352:../Dave/Generated/CMSIS_DSP/Source/DistanceFunctions/arm_boolean_distance_template.h **** 
 353:../Dave/Generated/CMSIS_DSP/Source/DistanceFunctions/arm_boolean_distance_template.h **** #ifdef TT
 354:../Dave/Generated/CMSIS_DSP/Source/DistanceFunctions/arm_boolean_distance_template.h ****     _ctt += vgetq_lane_u64(tmp4tt, 0) + vgetq_lane_u64(tmp4tt, 1);
 355:../Dave/Generated/CMSIS_DSP/Source/DistanceFunctions/arm_boolean_distance_template.h **** #endif
 356:../Dave/Generated/CMSIS_DSP/Source/DistanceFunctions/arm_boolean_distance_template.h **** #ifdef FF
 357:../Dave/Generated/CMSIS_DSP/Source/DistanceFunctions/arm_boolean_distance_template.h ****     _cff +=vgetq_lane_u64(tmp4ff, 0) + vgetq_lane_u64(tmp4ff, 1);
 358:../Dave/Generated/CMSIS_DSP/Source/DistanceFunctions/arm_boolean_distance_template.h **** #endif
 359:../Dave/Generated/CMSIS_DSP/Source/DistanceFunctions/arm_boolean_distance_template.h **** #ifdef TF
 360:../Dave/Generated/CMSIS_DSP/Source/DistanceFunctions/arm_boolean_distance_template.h ****     _ctf += vgetq_lane_u64(tmp4tf, 0) + vgetq_lane_u64(tmp4tf, 1);
 361:../Dave/Generated/CMSIS_DSP/Source/DistanceFunctions/arm_boolean_distance_template.h **** #endif
 362:../Dave/Generated/CMSIS_DSP/Source/DistanceFunctions/arm_boolean_distance_template.h **** #ifdef FT
 363:../Dave/Generated/CMSIS_DSP/Source/DistanceFunctions/arm_boolean_distance_template.h ****     _cft += vgetq_lane_u64(tmp4ft, 0) + vgetq_lane_u64(tmp4ft, 1);
 364:../Dave/Generated/CMSIS_DSP/Source/DistanceFunctions/arm_boolean_distance_template.h **** #endif
 365:../Dave/Generated/CMSIS_DSP/Source/DistanceFunctions/arm_boolean_distance_template.h **** 
 366:../Dave/Generated/CMSIS_DSP/Source/DistanceFunctions/arm_boolean_distance_template.h ****     nbBoolBlock = numberOfBools & 0x7F;
 367:../Dave/Generated/CMSIS_DSP/Source/DistanceFunctions/arm_boolean_distance_template.h ****     while(nbBoolBlock >= 32)
 368:../Dave/Generated/CMSIS_DSP/Source/DistanceFunctions/arm_boolean_distance_template.h ****     {
 369:../Dave/Generated/CMSIS_DSP/Source/DistanceFunctions/arm_boolean_distance_template.h ****        a = *pA++;
 370:../Dave/Generated/CMSIS_DSP/Source/DistanceFunctions/arm_boolean_distance_template.h ****        b = *pB++;
 371:../Dave/Generated/CMSIS_DSP/Source/DistanceFunctions/arm_boolean_distance_template.h ****        shift = 0;
 372:../Dave/Generated/CMSIS_DSP/Source/DistanceFunctions/arm_boolean_distance_template.h ****        while(shift < 32)
 373:../Dave/Generated/CMSIS_DSP/Source/DistanceFunctions/arm_boolean_distance_template.h ****        {
 374:../Dave/Generated/CMSIS_DSP/Source/DistanceFunctions/arm_boolean_distance_template.h ****           ba = a & 1;
 375:../Dave/Generated/CMSIS_DSP/Source/DistanceFunctions/arm_boolean_distance_template.h ****           bb = b & 1;
 376:../Dave/Generated/CMSIS_DSP/Source/DistanceFunctions/arm_boolean_distance_template.h ****           a = a >> 1;
 377:../Dave/Generated/CMSIS_DSP/Source/DistanceFunctions/arm_boolean_distance_template.h ****           b = b >> 1;
 378:../Dave/Generated/CMSIS_DSP/Source/DistanceFunctions/arm_boolean_distance_template.h **** 
 379:../Dave/Generated/CMSIS_DSP/Source/DistanceFunctions/arm_boolean_distance_template.h **** #ifdef TT
 380:../Dave/Generated/CMSIS_DSP/Source/DistanceFunctions/arm_boolean_distance_template.h ****           _ctt += (ba && bb);
 381:../Dave/Generated/CMSIS_DSP/Source/DistanceFunctions/arm_boolean_distance_template.h **** #endif
 382:../Dave/Generated/CMSIS_DSP/Source/DistanceFunctions/arm_boolean_distance_template.h **** #ifdef FF
 383:../Dave/Generated/CMSIS_DSP/Source/DistanceFunctions/arm_boolean_distance_template.h ****           _cff += ((1 ^ ba) && (1 ^ bb));
 384:../Dave/Generated/CMSIS_DSP/Source/DistanceFunctions/arm_boolean_distance_template.h **** #endif
 385:../Dave/Generated/CMSIS_DSP/Source/DistanceFunctions/arm_boolean_distance_template.h **** #ifdef TF
 386:../Dave/Generated/CMSIS_DSP/Source/DistanceFunctions/arm_boolean_distance_template.h ****           _ctf += (ba && (1 ^ bb));
 387:../Dave/Generated/CMSIS_DSP/Source/DistanceFunctions/arm_boolean_distance_template.h **** #endif
 388:../Dave/Generated/CMSIS_DSP/Source/DistanceFunctions/arm_boolean_distance_template.h **** #ifdef FT
 389:../Dave/Generated/CMSIS_DSP/Source/DistanceFunctions/arm_boolean_distance_template.h ****           _cft += ((1 ^ ba) && bb);
 390:../Dave/Generated/CMSIS_DSP/Source/DistanceFunctions/arm_boolean_distance_template.h **** #endif
 391:../Dave/Generated/CMSIS_DSP/Source/DistanceFunctions/arm_boolean_distance_template.h ****           shift ++;
 392:../Dave/Generated/CMSIS_DSP/Source/DistanceFunctions/arm_boolean_distance_template.h ****        }
 393:../Dave/Generated/CMSIS_DSP/Source/DistanceFunctions/arm_boolean_distance_template.h **** 
 394:../Dave/Generated/CMSIS_DSP/Source/DistanceFunctions/arm_boolean_distance_template.h ****        nbBoolBlock -= 32;
 395:../Dave/Generated/CMSIS_DSP/Source/DistanceFunctions/arm_boolean_distance_template.h ****     }
 396:../Dave/Generated/CMSIS_DSP/Source/DistanceFunctions/arm_boolean_distance_template.h **** 
 397:../Dave/Generated/CMSIS_DSP/Source/DistanceFunctions/arm_boolean_distance_template.h ****     a = *pA++;
 398:../Dave/Generated/CMSIS_DSP/Source/DistanceFunctions/arm_boolean_distance_template.h ****     b = *pB++;
 399:../Dave/Generated/CMSIS_DSP/Source/DistanceFunctions/arm_boolean_distance_template.h **** 
 400:../Dave/Generated/CMSIS_DSP/Source/DistanceFunctions/arm_boolean_distance_template.h ****     a = a >> (32 - nbBoolBlock);
 401:../Dave/Generated/CMSIS_DSP/Source/DistanceFunctions/arm_boolean_distance_template.h ****     b = b >> (32 - nbBoolBlock);
 402:../Dave/Generated/CMSIS_DSP/Source/DistanceFunctions/arm_boolean_distance_template.h **** 
 403:../Dave/Generated/CMSIS_DSP/Source/DistanceFunctions/arm_boolean_distance_template.h ****     while(nbBoolBlock > 0)
 404:../Dave/Generated/CMSIS_DSP/Source/DistanceFunctions/arm_boolean_distance_template.h ****     {
 405:../Dave/Generated/CMSIS_DSP/Source/DistanceFunctions/arm_boolean_distance_template.h ****           ba = a & 1;
 406:../Dave/Generated/CMSIS_DSP/Source/DistanceFunctions/arm_boolean_distance_template.h ****           bb = b & 1;
 407:../Dave/Generated/CMSIS_DSP/Source/DistanceFunctions/arm_boolean_distance_template.h ****           a = a >> 1;
 408:../Dave/Generated/CMSIS_DSP/Source/DistanceFunctions/arm_boolean_distance_template.h **** 
 409:../Dave/Generated/CMSIS_DSP/Source/DistanceFunctions/arm_boolean_distance_template.h ****           b = b >> 1;
 410:../Dave/Generated/CMSIS_DSP/Source/DistanceFunctions/arm_boolean_distance_template.h **** #ifdef TT
 411:../Dave/Generated/CMSIS_DSP/Source/DistanceFunctions/arm_boolean_distance_template.h ****           _ctt += (ba && bb);
 412:../Dave/Generated/CMSIS_DSP/Source/DistanceFunctions/arm_boolean_distance_template.h **** #endif
 413:../Dave/Generated/CMSIS_DSP/Source/DistanceFunctions/arm_boolean_distance_template.h **** #ifdef FF
 414:../Dave/Generated/CMSIS_DSP/Source/DistanceFunctions/arm_boolean_distance_template.h ****           _cff += ((1 ^ ba) && (1 ^ bb));
 415:../Dave/Generated/CMSIS_DSP/Source/DistanceFunctions/arm_boolean_distance_template.h **** #endif
 416:../Dave/Generated/CMSIS_DSP/Source/DistanceFunctions/arm_boolean_distance_template.h **** #ifdef TF
 417:../Dave/Generated/CMSIS_DSP/Source/DistanceFunctions/arm_boolean_distance_template.h ****           _ctf += (ba && (1 ^ bb));
 418:../Dave/Generated/CMSIS_DSP/Source/DistanceFunctions/arm_boolean_distance_template.h **** #endif
 419:../Dave/Generated/CMSIS_DSP/Source/DistanceFunctions/arm_boolean_distance_template.h **** #ifdef FT
 420:../Dave/Generated/CMSIS_DSP/Source/DistanceFunctions/arm_boolean_distance_template.h ****           _cft += ((1 ^ ba) && bb);
 421:../Dave/Generated/CMSIS_DSP/Source/DistanceFunctions/arm_boolean_distance_template.h **** #endif
 422:../Dave/Generated/CMSIS_DSP/Source/DistanceFunctions/arm_boolean_distance_template.h ****           nbBoolBlock --;
 423:../Dave/Generated/CMSIS_DSP/Source/DistanceFunctions/arm_boolean_distance_template.h ****     }
 424:../Dave/Generated/CMSIS_DSP/Source/DistanceFunctions/arm_boolean_distance_template.h **** 
 425:../Dave/Generated/CMSIS_DSP/Source/DistanceFunctions/arm_boolean_distance_template.h **** #ifdef TT
 426:../Dave/Generated/CMSIS_DSP/Source/DistanceFunctions/arm_boolean_distance_template.h ****     *cTT = _ctt;
 427:../Dave/Generated/CMSIS_DSP/Source/DistanceFunctions/arm_boolean_distance_template.h **** #endif
 428:../Dave/Generated/CMSIS_DSP/Source/DistanceFunctions/arm_boolean_distance_template.h **** #ifdef FF
 429:../Dave/Generated/CMSIS_DSP/Source/DistanceFunctions/arm_boolean_distance_template.h ****     *cFF = _cff;
 430:../Dave/Generated/CMSIS_DSP/Source/DistanceFunctions/arm_boolean_distance_template.h **** #endif
 431:../Dave/Generated/CMSIS_DSP/Source/DistanceFunctions/arm_boolean_distance_template.h **** #ifdef TF
 432:../Dave/Generated/CMSIS_DSP/Source/DistanceFunctions/arm_boolean_distance_template.h ****     *cTF = _ctf;
 433:../Dave/Generated/CMSIS_DSP/Source/DistanceFunctions/arm_boolean_distance_template.h **** #endif
 434:../Dave/Generated/CMSIS_DSP/Source/DistanceFunctions/arm_boolean_distance_template.h **** #ifdef FT
 435:../Dave/Generated/CMSIS_DSP/Source/DistanceFunctions/arm_boolean_distance_template.h ****     *cFT = _cft;
 436:../Dave/Generated/CMSIS_DSP/Source/DistanceFunctions/arm_boolean_distance_template.h **** #endif
 437:../Dave/Generated/CMSIS_DSP/Source/DistanceFunctions/arm_boolean_distance_template.h **** }
 438:../Dave/Generated/CMSIS_DSP/Source/DistanceFunctions/arm_boolean_distance_template.h **** 
 439:../Dave/Generated/CMSIS_DSP/Source/DistanceFunctions/arm_boolean_distance_template.h **** #else
 440:../Dave/Generated/CMSIS_DSP/Source/DistanceFunctions/arm_boolean_distance_template.h **** 
 441:../Dave/Generated/CMSIS_DSP/Source/DistanceFunctions/arm_boolean_distance_template.h **** void FUNC(EXT)(const uint32_t *pA
 442:../Dave/Generated/CMSIS_DSP/Source/DistanceFunctions/arm_boolean_distance_template.h ****        , const uint32_t *pB
 443:../Dave/Generated/CMSIS_DSP/Source/DistanceFunctions/arm_boolean_distance_template.h ****        , uint32_t numberOfBools
 444:../Dave/Generated/CMSIS_DSP/Source/DistanceFunctions/arm_boolean_distance_template.h **** #ifdef TT
 445:../Dave/Generated/CMSIS_DSP/Source/DistanceFunctions/arm_boolean_distance_template.h ****        , uint32_t *cTT
 446:../Dave/Generated/CMSIS_DSP/Source/DistanceFunctions/arm_boolean_distance_template.h **** #endif
 447:../Dave/Generated/CMSIS_DSP/Source/DistanceFunctions/arm_boolean_distance_template.h **** #ifdef FF
 448:../Dave/Generated/CMSIS_DSP/Source/DistanceFunctions/arm_boolean_distance_template.h ****        , uint32_t *cFF
 449:../Dave/Generated/CMSIS_DSP/Source/DistanceFunctions/arm_boolean_distance_template.h **** #endif
 450:../Dave/Generated/CMSIS_DSP/Source/DistanceFunctions/arm_boolean_distance_template.h **** #ifdef TF
 451:../Dave/Generated/CMSIS_DSP/Source/DistanceFunctions/arm_boolean_distance_template.h ****        , uint32_t *cTF
 452:../Dave/Generated/CMSIS_DSP/Source/DistanceFunctions/arm_boolean_distance_template.h **** #endif
 453:../Dave/Generated/CMSIS_DSP/Source/DistanceFunctions/arm_boolean_distance_template.h **** #ifdef FT
 454:../Dave/Generated/CMSIS_DSP/Source/DistanceFunctions/arm_boolean_distance_template.h ****        , uint32_t *cFT
 455:../Dave/Generated/CMSIS_DSP/Source/DistanceFunctions/arm_boolean_distance_template.h **** #endif
 456:../Dave/Generated/CMSIS_DSP/Source/DistanceFunctions/arm_boolean_distance_template.h ****        )
 457:../Dave/Generated/CMSIS_DSP/Source/DistanceFunctions/arm_boolean_distance_template.h **** {
  28              	 .loc 1 457 0
  29              	 .cfi_startproc
  30              	 
  31              	 
  32              	 
  33 0000 80B4     	 push {r7}
  34              	.LCFI0:
  35              	 .cfi_def_cfa_offset 4
  36              	 .cfi_offset 7,-4
  37 0002 8DB0     	 sub sp,sp,#52
  38              	.LCFI1:
  39              	 .cfi_def_cfa_offset 56
  40 0004 00AF     	 add r7,sp,#0
  41              	.LCFI2:
  42              	 .cfi_def_cfa_register 7
  43 0006 F860     	 str r0,[r7,#12]
  44 0008 B960     	 str r1,[r7,#8]
  45 000a 7A60     	 str r2,[r7,#4]
  46 000c 3B60     	 str r3,[r7]
 458:../Dave/Generated/CMSIS_DSP/Source/DistanceFunctions/arm_boolean_distance_template.h ****   
 459:../Dave/Generated/CMSIS_DSP/Source/DistanceFunctions/arm_boolean_distance_template.h **** #ifdef TT
 460:../Dave/Generated/CMSIS_DSP/Source/DistanceFunctions/arm_boolean_distance_template.h ****     uint32_t _ctt=0;
  47              	 .loc 1 460 0
  48 000e 0023     	 movs r3,#0
  49 0010 FB62     	 str r3,[r7,#44]
 461:../Dave/Generated/CMSIS_DSP/Source/DistanceFunctions/arm_boolean_distance_template.h **** #endif
 462:../Dave/Generated/CMSIS_DSP/Source/DistanceFunctions/arm_boolean_distance_template.h **** #ifdef FF
 463:../Dave/Generated/CMSIS_DSP/Source/DistanceFunctions/arm_boolean_distance_template.h ****     uint32_t _cff=0;
 464:../Dave/Generated/CMSIS_DSP/Source/DistanceFunctions/arm_boolean_distance_template.h **** #endif
 465:../Dave/Generated/CMSIS_DSP/Source/DistanceFunctions/arm_boolean_distance_template.h **** #ifdef TF
 466:../Dave/Generated/CMSIS_DSP/Source/DistanceFunctions/arm_boolean_distance_template.h ****     uint32_t _ctf=0;
  50              	 .loc 1 466 0
  51 0012 0023     	 movs r3,#0
  52 0014 BB62     	 str r3,[r7,#40]
 467:../Dave/Generated/CMSIS_DSP/Source/DistanceFunctions/arm_boolean_distance_template.h **** #endif
 468:../Dave/Generated/CMSIS_DSP/Source/DistanceFunctions/arm_boolean_distance_template.h **** #ifdef FT
 469:../Dave/Generated/CMSIS_DSP/Source/DistanceFunctions/arm_boolean_distance_template.h ****     uint32_t _cft=0;
  53              	 .loc 1 469 0
  54 0016 0023     	 movs r3,#0
  55 0018 7B62     	 str r3,[r7,#36]
 470:../Dave/Generated/CMSIS_DSP/Source/DistanceFunctions/arm_boolean_distance_template.h **** #endif
 471:../Dave/Generated/CMSIS_DSP/Source/DistanceFunctions/arm_boolean_distance_template.h ****     uint32_t a,b,ba,bb;
 472:../Dave/Generated/CMSIS_DSP/Source/DistanceFunctions/arm_boolean_distance_template.h ****     int shift;
 473:../Dave/Generated/CMSIS_DSP/Source/DistanceFunctions/arm_boolean_distance_template.h **** 
 474:../Dave/Generated/CMSIS_DSP/Source/DistanceFunctions/arm_boolean_distance_template.h ****     while(numberOfBools >= 32)
  56              	 .loc 1 474 0
  57 001a 4AE0     	 b .L2
  58              	.L11:
 475:../Dave/Generated/CMSIS_DSP/Source/DistanceFunctions/arm_boolean_distance_template.h ****     {
 476:../Dave/Generated/CMSIS_DSP/Source/DistanceFunctions/arm_boolean_distance_template.h ****        a = *pA++;
  59              	 .loc 1 476 0
  60 001c FB68     	 ldr r3,[r7,#12]
  61 001e 1A1D     	 adds r2,r3,#4
  62 0020 FA60     	 str r2,[r7,#12]
  63 0022 1B68     	 ldr r3,[r3]
  64 0024 3B62     	 str r3,[r7,#32]
 477:../Dave/Generated/CMSIS_DSP/Source/DistanceFunctions/arm_boolean_distance_template.h ****        b = *pB++;
  65              	 .loc 1 477 0
  66 0026 BB68     	 ldr r3,[r7,#8]
  67 0028 1A1D     	 adds r2,r3,#4
  68 002a BA60     	 str r2,[r7,#8]
  69 002c 1B68     	 ldr r3,[r3]
  70 002e FB61     	 str r3,[r7,#28]
 478:../Dave/Generated/CMSIS_DSP/Source/DistanceFunctions/arm_boolean_distance_template.h ****        shift = 0;
  71              	 .loc 1 478 0
  72 0030 0023     	 movs r3,#0
  73 0032 BB61     	 str r3,[r7,#24]
 479:../Dave/Generated/CMSIS_DSP/Source/DistanceFunctions/arm_boolean_distance_template.h ****        while(shift < 32)
  74              	 .loc 1 479 0
  75 0034 37E0     	 b .L3
  76              	.L10:
 480:../Dave/Generated/CMSIS_DSP/Source/DistanceFunctions/arm_boolean_distance_template.h ****        {
 481:../Dave/Generated/CMSIS_DSP/Source/DistanceFunctions/arm_boolean_distance_template.h ****           ba = a & 1;
  77              	 .loc 1 481 0
  78 0036 3B6A     	 ldr r3,[r7,#32]
  79 0038 03F00103 	 and r3,r3,#1
  80 003c 7B61     	 str r3,[r7,#20]
 482:../Dave/Generated/CMSIS_DSP/Source/DistanceFunctions/arm_boolean_distance_template.h ****           bb = b & 1;
  81              	 .loc 1 482 0
  82 003e FB69     	 ldr r3,[r7,#28]
  83 0040 03F00103 	 and r3,r3,#1
  84 0044 3B61     	 str r3,[r7,#16]
 483:../Dave/Generated/CMSIS_DSP/Source/DistanceFunctions/arm_boolean_distance_template.h ****           a = a >> 1;
  85              	 .loc 1 483 0
  86 0046 3B6A     	 ldr r3,[r7,#32]
  87 0048 5B08     	 lsrs r3,r3,#1
  88 004a 3B62     	 str r3,[r7,#32]
 484:../Dave/Generated/CMSIS_DSP/Source/DistanceFunctions/arm_boolean_distance_template.h ****           b = b >> 1;
  89              	 .loc 1 484 0
  90 004c FB69     	 ldr r3,[r7,#28]
  91 004e 5B08     	 lsrs r3,r3,#1
  92 0050 FB61     	 str r3,[r7,#28]
 485:../Dave/Generated/CMSIS_DSP/Source/DistanceFunctions/arm_boolean_distance_template.h **** #ifdef TT
 486:../Dave/Generated/CMSIS_DSP/Source/DistanceFunctions/arm_boolean_distance_template.h ****           _ctt += (ba && bb);
  93              	 .loc 1 486 0
  94 0052 7B69     	 ldr r3,[r7,#20]
  95 0054 002B     	 cmp r3,#0
  96 0056 04D0     	 beq .L4
  97              	 .loc 1 486 0 is_stmt 0 discriminator 1
  98 0058 3B69     	 ldr r3,[r7,#16]
  99 005a 002B     	 cmp r3,#0
 100 005c 01D0     	 beq .L4
 101              	 .loc 1 486 0 discriminator 3
 102 005e 0123     	 movs r3,#1
 103 0060 00E0     	 b .L5
 104              	.L4:
 105              	 .loc 1 486 0 discriminator 4
 106 0062 0023     	 movs r3,#0
 107              	.L5:
 108              	 .loc 1 486 0 discriminator 6
 109 0064 1A46     	 mov r2,r3
 110 0066 FB6A     	 ldr r3,[r7,#44]
 111 0068 1344     	 add r3,r3,r2
 112 006a FB62     	 str r3,[r7,#44]
 487:../Dave/Generated/CMSIS_DSP/Source/DistanceFunctions/arm_boolean_distance_template.h **** #endif
 488:../Dave/Generated/CMSIS_DSP/Source/DistanceFunctions/arm_boolean_distance_template.h **** #ifdef FF
 489:../Dave/Generated/CMSIS_DSP/Source/DistanceFunctions/arm_boolean_distance_template.h ****           _cff += ((1 ^ ba) && (1 ^ bb));
 490:../Dave/Generated/CMSIS_DSP/Source/DistanceFunctions/arm_boolean_distance_template.h **** #endif
 491:../Dave/Generated/CMSIS_DSP/Source/DistanceFunctions/arm_boolean_distance_template.h **** #ifdef TF
 492:../Dave/Generated/CMSIS_DSP/Source/DistanceFunctions/arm_boolean_distance_template.h ****           _ctf += (ba && (1 ^ bb));
 113              	 .loc 1 492 0 is_stmt 1 discriminator 6
 114 006c 7B69     	 ldr r3,[r7,#20]
 115 006e 002B     	 cmp r3,#0
 116 0070 04D0     	 beq .L6
 117              	 .loc 1 492 0 is_stmt 0 discriminator 1
 118 0072 3B69     	 ldr r3,[r7,#16]
 119 0074 012B     	 cmp r3,#1
 120 0076 01D0     	 beq .L6
 121              	 .loc 1 492 0 discriminator 3
 122 0078 0123     	 movs r3,#1
 123 007a 00E0     	 b .L7
 124              	.L6:
 125              	 .loc 1 492 0 discriminator 4
 126 007c 0023     	 movs r3,#0
 127              	.L7:
 128              	 .loc 1 492 0 discriminator 6
 129 007e 1A46     	 mov r2,r3
 130 0080 BB6A     	 ldr r3,[r7,#40]
 131 0082 1344     	 add r3,r3,r2
 132 0084 BB62     	 str r3,[r7,#40]
 493:../Dave/Generated/CMSIS_DSP/Source/DistanceFunctions/arm_boolean_distance_template.h **** #endif
 494:../Dave/Generated/CMSIS_DSP/Source/DistanceFunctions/arm_boolean_distance_template.h **** #ifdef FT
 495:../Dave/Generated/CMSIS_DSP/Source/DistanceFunctions/arm_boolean_distance_template.h ****           _cft += ((1 ^ ba) && bb);
 133              	 .loc 1 495 0 is_stmt 1 discriminator 6
 134 0086 7B69     	 ldr r3,[r7,#20]
 135 0088 012B     	 cmp r3,#1
 136 008a 04D0     	 beq .L8
 137              	 .loc 1 495 0 is_stmt 0 discriminator 1
 138 008c 3B69     	 ldr r3,[r7,#16]
 139 008e 002B     	 cmp r3,#0
 140 0090 01D0     	 beq .L8
 141              	 .loc 1 495 0 discriminator 3
 142 0092 0123     	 movs r3,#1
 143 0094 00E0     	 b .L9
 144              	.L8:
 145              	 .loc 1 495 0 discriminator 4
 146 0096 0023     	 movs r3,#0
 147              	.L9:
 148              	 .loc 1 495 0 discriminator 6
 149 0098 1A46     	 mov r2,r3
 150 009a 7B6A     	 ldr r3,[r7,#36]
 151 009c 1344     	 add r3,r3,r2
 152 009e 7B62     	 str r3,[r7,#36]
 496:../Dave/Generated/CMSIS_DSP/Source/DistanceFunctions/arm_boolean_distance_template.h **** #endif
 497:../Dave/Generated/CMSIS_DSP/Source/DistanceFunctions/arm_boolean_distance_template.h ****           shift ++;
 153              	 .loc 1 497 0 is_stmt 1 discriminator 6
 154 00a0 BB69     	 ldr r3,[r7,#24]
 155 00a2 0133     	 adds r3,r3,#1
 156 00a4 BB61     	 str r3,[r7,#24]
 157              	.L3:
 479:../Dave/Generated/CMSIS_DSP/Source/DistanceFunctions/arm_boolean_distance_template.h ****        {
 158              	 .loc 1 479 0
 159 00a6 BB69     	 ldr r3,[r7,#24]
 160 00a8 1F2B     	 cmp r3,#31
 161 00aa C4DD     	 ble .L10
 498:../Dave/Generated/CMSIS_DSP/Source/DistanceFunctions/arm_boolean_distance_template.h ****        }
 499:../Dave/Generated/CMSIS_DSP/Source/DistanceFunctions/arm_boolean_distance_template.h **** 
 500:../Dave/Generated/CMSIS_DSP/Source/DistanceFunctions/arm_boolean_distance_template.h ****        numberOfBools -= 32;
 162              	 .loc 1 500 0
 163 00ac 7B68     	 ldr r3,[r7,#4]
 164 00ae 203B     	 subs r3,r3,#32
 165 00b0 7B60     	 str r3,[r7,#4]
 166              	.L2:
 474:../Dave/Generated/CMSIS_DSP/Source/DistanceFunctions/arm_boolean_distance_template.h ****     {
 167              	 .loc 1 474 0
 168 00b2 7B68     	 ldr r3,[r7,#4]
 169 00b4 1F2B     	 cmp r3,#31
 170 00b6 B1D8     	 bhi .L11
 501:../Dave/Generated/CMSIS_DSP/Source/DistanceFunctions/arm_boolean_distance_template.h ****     }
 502:../Dave/Generated/CMSIS_DSP/Source/DistanceFunctions/arm_boolean_distance_template.h **** 
 503:../Dave/Generated/CMSIS_DSP/Source/DistanceFunctions/arm_boolean_distance_template.h ****     a = *pA++;
 171              	 .loc 1 503 0
 172 00b8 FB68     	 ldr r3,[r7,#12]
 173 00ba 1A1D     	 adds r2,r3,#4
 174 00bc FA60     	 str r2,[r7,#12]
 175 00be 1B68     	 ldr r3,[r3]
 176 00c0 3B62     	 str r3,[r7,#32]
 504:../Dave/Generated/CMSIS_DSP/Source/DistanceFunctions/arm_boolean_distance_template.h ****     b = *pB++;
 177              	 .loc 1 504 0
 178 00c2 BB68     	 ldr r3,[r7,#8]
 179 00c4 1A1D     	 adds r2,r3,#4
 180 00c6 BA60     	 str r2,[r7,#8]
 181 00c8 1B68     	 ldr r3,[r3]
 182 00ca FB61     	 str r3,[r7,#28]
 505:../Dave/Generated/CMSIS_DSP/Source/DistanceFunctions/arm_boolean_distance_template.h **** 
 506:../Dave/Generated/CMSIS_DSP/Source/DistanceFunctions/arm_boolean_distance_template.h ****     a = a >> (32 - numberOfBools);
 183              	 .loc 1 506 0
 184 00cc 7B68     	 ldr r3,[r7,#4]
 185 00ce C3F12003 	 rsb r3,r3,#32
 186 00d2 1A46     	 mov r2,r3
 187 00d4 3B6A     	 ldr r3,[r7,#32]
 188 00d6 D340     	 lsrs r3,r3,r2
 189 00d8 3B62     	 str r3,[r7,#32]
 507:../Dave/Generated/CMSIS_DSP/Source/DistanceFunctions/arm_boolean_distance_template.h ****     b = b >> (32 - numberOfBools);
 190              	 .loc 1 507 0
 191 00da 7B68     	 ldr r3,[r7,#4]
 192 00dc C3F12003 	 rsb r3,r3,#32
 193 00e0 1A46     	 mov r2,r3
 194 00e2 FB69     	 ldr r3,[r7,#28]
 195 00e4 D340     	 lsrs r3,r3,r2
 196 00e6 FB61     	 str r3,[r7,#28]
 508:../Dave/Generated/CMSIS_DSP/Source/DistanceFunctions/arm_boolean_distance_template.h **** 
 509:../Dave/Generated/CMSIS_DSP/Source/DistanceFunctions/arm_boolean_distance_template.h ****     while(numberOfBools > 0)
 197              	 .loc 1 509 0
 198 00e8 37E0     	 b .L12
 199              	.L19:
 510:../Dave/Generated/CMSIS_DSP/Source/DistanceFunctions/arm_boolean_distance_template.h ****     {
 511:../Dave/Generated/CMSIS_DSP/Source/DistanceFunctions/arm_boolean_distance_template.h ****           ba = a & 1;
 200              	 .loc 1 511 0
 201 00ea 3B6A     	 ldr r3,[r7,#32]
 202 00ec 03F00103 	 and r3,r3,#1
 203 00f0 7B61     	 str r3,[r7,#20]
 512:../Dave/Generated/CMSIS_DSP/Source/DistanceFunctions/arm_boolean_distance_template.h ****           bb = b & 1;
 204              	 .loc 1 512 0
 205 00f2 FB69     	 ldr r3,[r7,#28]
 206 00f4 03F00103 	 and r3,r3,#1
 207 00f8 3B61     	 str r3,[r7,#16]
 513:../Dave/Generated/CMSIS_DSP/Source/DistanceFunctions/arm_boolean_distance_template.h ****           a = a >> 1;
 208              	 .loc 1 513 0
 209 00fa 3B6A     	 ldr r3,[r7,#32]
 210 00fc 5B08     	 lsrs r3,r3,#1
 211 00fe 3B62     	 str r3,[r7,#32]
 514:../Dave/Generated/CMSIS_DSP/Source/DistanceFunctions/arm_boolean_distance_template.h ****           b = b >> 1;
 212              	 .loc 1 514 0
 213 0100 FB69     	 ldr r3,[r7,#28]
 214 0102 5B08     	 lsrs r3,r3,#1
 215 0104 FB61     	 str r3,[r7,#28]
 515:../Dave/Generated/CMSIS_DSP/Source/DistanceFunctions/arm_boolean_distance_template.h **** 
 516:../Dave/Generated/CMSIS_DSP/Source/DistanceFunctions/arm_boolean_distance_template.h **** #ifdef TT
 517:../Dave/Generated/CMSIS_DSP/Source/DistanceFunctions/arm_boolean_distance_template.h ****           _ctt += (ba && bb);
 216              	 .loc 1 517 0
 217 0106 7B69     	 ldr r3,[r7,#20]
 218 0108 002B     	 cmp r3,#0
 219 010a 04D0     	 beq .L13
 220              	 .loc 1 517 0 is_stmt 0 discriminator 1
 221 010c 3B69     	 ldr r3,[r7,#16]
 222 010e 002B     	 cmp r3,#0
 223 0110 01D0     	 beq .L13
 224              	 .loc 1 517 0 discriminator 3
 225 0112 0123     	 movs r3,#1
 226 0114 00E0     	 b .L14
 227              	.L13:
 228              	 .loc 1 517 0 discriminator 4
 229 0116 0023     	 movs r3,#0
 230              	.L14:
 231              	 .loc 1 517 0 discriminator 6
 232 0118 1A46     	 mov r2,r3
 233 011a FB6A     	 ldr r3,[r7,#44]
 234 011c 1344     	 add r3,r3,r2
 235 011e FB62     	 str r3,[r7,#44]
 518:../Dave/Generated/CMSIS_DSP/Source/DistanceFunctions/arm_boolean_distance_template.h **** #endif
 519:../Dave/Generated/CMSIS_DSP/Source/DistanceFunctions/arm_boolean_distance_template.h **** #ifdef FF
 520:../Dave/Generated/CMSIS_DSP/Source/DistanceFunctions/arm_boolean_distance_template.h ****           _cff += ((1 ^ ba) && (1 ^ bb));
 521:../Dave/Generated/CMSIS_DSP/Source/DistanceFunctions/arm_boolean_distance_template.h **** #endif
 522:../Dave/Generated/CMSIS_DSP/Source/DistanceFunctions/arm_boolean_distance_template.h **** #ifdef TF
 523:../Dave/Generated/CMSIS_DSP/Source/DistanceFunctions/arm_boolean_distance_template.h ****           _ctf += (ba && (1 ^ bb));
 236              	 .loc 1 523 0 is_stmt 1 discriminator 6
 237 0120 7B69     	 ldr r3,[r7,#20]
 238 0122 002B     	 cmp r3,#0
 239 0124 04D0     	 beq .L15
 240              	 .loc 1 523 0 is_stmt 0 discriminator 1
 241 0126 3B69     	 ldr r3,[r7,#16]
 242 0128 012B     	 cmp r3,#1
 243 012a 01D0     	 beq .L15
 244              	 .loc 1 523 0 discriminator 3
 245 012c 0123     	 movs r3,#1
 246 012e 00E0     	 b .L16
 247              	.L15:
 248              	 .loc 1 523 0 discriminator 4
 249 0130 0023     	 movs r3,#0
 250              	.L16:
 251              	 .loc 1 523 0 discriminator 6
 252 0132 1A46     	 mov r2,r3
 253 0134 BB6A     	 ldr r3,[r7,#40]
 254 0136 1344     	 add r3,r3,r2
 255 0138 BB62     	 str r3,[r7,#40]
 524:../Dave/Generated/CMSIS_DSP/Source/DistanceFunctions/arm_boolean_distance_template.h **** #endif
 525:../Dave/Generated/CMSIS_DSP/Source/DistanceFunctions/arm_boolean_distance_template.h **** #ifdef FT
 526:../Dave/Generated/CMSIS_DSP/Source/DistanceFunctions/arm_boolean_distance_template.h ****           _cft += ((1 ^ ba) && bb);
 256              	 .loc 1 526 0 is_stmt 1 discriminator 6
 257 013a 7B69     	 ldr r3,[r7,#20]
 258 013c 012B     	 cmp r3,#1
 259 013e 04D0     	 beq .L17
 260              	 .loc 1 526 0 is_stmt 0 discriminator 1
 261 0140 3B69     	 ldr r3,[r7,#16]
 262 0142 002B     	 cmp r3,#0
 263 0144 01D0     	 beq .L17
 264              	 .loc 1 526 0 discriminator 3
 265 0146 0123     	 movs r3,#1
 266 0148 00E0     	 b .L18
 267              	.L17:
 268              	 .loc 1 526 0 discriminator 4
 269 014a 0023     	 movs r3,#0
 270              	.L18:
 271              	 .loc 1 526 0 discriminator 6
 272 014c 1A46     	 mov r2,r3
 273 014e 7B6A     	 ldr r3,[r7,#36]
 274 0150 1344     	 add r3,r3,r2
 275 0152 7B62     	 str r3,[r7,#36]
 527:../Dave/Generated/CMSIS_DSP/Source/DistanceFunctions/arm_boolean_distance_template.h **** #endif
 528:../Dave/Generated/CMSIS_DSP/Source/DistanceFunctions/arm_boolean_distance_template.h ****           numberOfBools --;
 276              	 .loc 1 528 0 is_stmt 1 discriminator 6
 277 0154 7B68     	 ldr r3,[r7,#4]
 278 0156 013B     	 subs r3,r3,#1
 279 0158 7B60     	 str r3,[r7,#4]
 280              	.L12:
 509:../Dave/Generated/CMSIS_DSP/Source/DistanceFunctions/arm_boolean_distance_template.h ****     {
 281              	 .loc 1 509 0
 282 015a 7B68     	 ldr r3,[r7,#4]
 283 015c 002B     	 cmp r3,#0
 284 015e C4D1     	 bne .L19
 529:../Dave/Generated/CMSIS_DSP/Source/DistanceFunctions/arm_boolean_distance_template.h ****     }
 530:../Dave/Generated/CMSIS_DSP/Source/DistanceFunctions/arm_boolean_distance_template.h **** 
 531:../Dave/Generated/CMSIS_DSP/Source/DistanceFunctions/arm_boolean_distance_template.h **** #ifdef TT
 532:../Dave/Generated/CMSIS_DSP/Source/DistanceFunctions/arm_boolean_distance_template.h ****     *cTT = _ctt;
 285              	 .loc 1 532 0
 286 0160 3B68     	 ldr r3,[r7]
 287 0162 FA6A     	 ldr r2,[r7,#44]
 288 0164 1A60     	 str r2,[r3]
 533:../Dave/Generated/CMSIS_DSP/Source/DistanceFunctions/arm_boolean_distance_template.h **** #endif
 534:../Dave/Generated/CMSIS_DSP/Source/DistanceFunctions/arm_boolean_distance_template.h **** #ifdef FF
 535:../Dave/Generated/CMSIS_DSP/Source/DistanceFunctions/arm_boolean_distance_template.h ****     *cFF = _cff;
 536:../Dave/Generated/CMSIS_DSP/Source/DistanceFunctions/arm_boolean_distance_template.h **** #endif
 537:../Dave/Generated/CMSIS_DSP/Source/DistanceFunctions/arm_boolean_distance_template.h **** #ifdef TF 
 538:../Dave/Generated/CMSIS_DSP/Source/DistanceFunctions/arm_boolean_distance_template.h ****     *cTF = _ctf;
 289              	 .loc 1 538 0
 290 0166 BB6B     	 ldr r3,[r7,#56]
 291 0168 BA6A     	 ldr r2,[r7,#40]
 292 016a 1A60     	 str r2,[r3]
 539:../Dave/Generated/CMSIS_DSP/Source/DistanceFunctions/arm_boolean_distance_template.h **** #endif
 540:../Dave/Generated/CMSIS_DSP/Source/DistanceFunctions/arm_boolean_distance_template.h **** #ifdef FT
 541:../Dave/Generated/CMSIS_DSP/Source/DistanceFunctions/arm_boolean_distance_template.h ****     *cFT = _cft;
 293              	 .loc 1 541 0
 294 016c FB6B     	 ldr r3,[r7,#60]
 295 016e 7A6A     	 ldr r2,[r7,#36]
 296 0170 1A60     	 str r2,[r3]
 542:../Dave/Generated/CMSIS_DSP/Source/DistanceFunctions/arm_boolean_distance_template.h **** #endif
 543:../Dave/Generated/CMSIS_DSP/Source/DistanceFunctions/arm_boolean_distance_template.h **** }
 297              	 .loc 1 543 0
 298 0172 3437     	 adds r7,r7,#52
 299              	.LCFI3:
 300              	 .cfi_def_cfa_offset 4
 301 0174 BD46     	 mov sp,r7
 302              	.LCFI4:
 303              	 .cfi_def_cfa_register 13
 304              	 
 305 0176 5DF8047B 	 ldr r7,[sp],#4
 306              	.LCFI5:
 307              	 .cfi_restore 7
 308              	 .cfi_def_cfa_offset 0
 309 017a 7047     	 bx lr
 310              	 .cfi_endproc
 311              	.LFE149:
 313              	 .section .text.arm_boolean_distance_TF_FT,"ax",%progbits
 314              	 .align 2
 315              	 .global arm_boolean_distance_TF_FT
 316              	 .thumb
 317              	 .thumb_func
 319              	arm_boolean_distance_TF_FT:
 320              	.LFB150:
 457:../Dave/Generated/CMSIS_DSP/Source/DistanceFunctions/arm_boolean_distance_template.h ****   
 321              	 .loc 1 457 0
 322              	 .cfi_startproc
 323              	 
 324              	 
 325              	 
 326 0000 80B4     	 push {r7}
 327              	.LCFI6:
 328              	 .cfi_def_cfa_offset 4
 329              	 .cfi_offset 7,-4
 330 0002 8DB0     	 sub sp,sp,#52
 331              	.LCFI7:
 332              	 .cfi_def_cfa_offset 56
 333 0004 00AF     	 add r7,sp,#0
 334              	.LCFI8:
 335              	 .cfi_def_cfa_register 7
 336 0006 F860     	 str r0,[r7,#12]
 337 0008 B960     	 str r1,[r7,#8]
 338 000a 7A60     	 str r2,[r7,#4]
 339 000c 3B60     	 str r3,[r7]
 466:../Dave/Generated/CMSIS_DSP/Source/DistanceFunctions/arm_boolean_distance_template.h **** #endif
 340              	 .loc 1 466 0
 341 000e 0023     	 movs r3,#0
 342 0010 FB62     	 str r3,[r7,#44]
 469:../Dave/Generated/CMSIS_DSP/Source/DistanceFunctions/arm_boolean_distance_template.h **** #endif
 343              	 .loc 1 469 0
 344 0012 0023     	 movs r3,#0
 345 0014 BB62     	 str r3,[r7,#40]
 474:../Dave/Generated/CMSIS_DSP/Source/DistanceFunctions/arm_boolean_distance_template.h ****     {
 346              	 .loc 1 474 0
 347 0016 3DE0     	 b .L21
 348              	.L28:
 476:../Dave/Generated/CMSIS_DSP/Source/DistanceFunctions/arm_boolean_distance_template.h ****        b = *pB++;
 349              	 .loc 1 476 0
 350 0018 FB68     	 ldr r3,[r7,#12]
 351 001a 1A1D     	 adds r2,r3,#4
 352 001c FA60     	 str r2,[r7,#12]
 353 001e 1B68     	 ldr r3,[r3]
 354 0020 7B62     	 str r3,[r7,#36]
 477:../Dave/Generated/CMSIS_DSP/Source/DistanceFunctions/arm_boolean_distance_template.h ****        shift = 0;
 355              	 .loc 1 477 0
 356 0022 BB68     	 ldr r3,[r7,#8]
 357 0024 1A1D     	 adds r2,r3,#4
 358 0026 BA60     	 str r2,[r7,#8]
 359 0028 1B68     	 ldr r3,[r3]
 360 002a 3B62     	 str r3,[r7,#32]
 478:../Dave/Generated/CMSIS_DSP/Source/DistanceFunctions/arm_boolean_distance_template.h ****        while(shift < 32)
 361              	 .loc 1 478 0
 362 002c 0023     	 movs r3,#0
 363 002e FB61     	 str r3,[r7,#28]
 479:../Dave/Generated/CMSIS_DSP/Source/DistanceFunctions/arm_boolean_distance_template.h ****        {
 364              	 .loc 1 479 0
 365 0030 2AE0     	 b .L22
 366              	.L27:
 481:../Dave/Generated/CMSIS_DSP/Source/DistanceFunctions/arm_boolean_distance_template.h ****           bb = b & 1;
 367              	 .loc 1 481 0
 368 0032 7B6A     	 ldr r3,[r7,#36]
 369 0034 03F00103 	 and r3,r3,#1
 370 0038 BB61     	 str r3,[r7,#24]
 482:../Dave/Generated/CMSIS_DSP/Source/DistanceFunctions/arm_boolean_distance_template.h ****           a = a >> 1;
 371              	 .loc 1 482 0
 372 003a 3B6A     	 ldr r3,[r7,#32]
 373 003c 03F00103 	 and r3,r3,#1
 374 0040 7B61     	 str r3,[r7,#20]
 483:../Dave/Generated/CMSIS_DSP/Source/DistanceFunctions/arm_boolean_distance_template.h ****           b = b >> 1;
 375              	 .loc 1 483 0
 376 0042 7B6A     	 ldr r3,[r7,#36]
 377 0044 5B08     	 lsrs r3,r3,#1
 378 0046 7B62     	 str r3,[r7,#36]
 484:../Dave/Generated/CMSIS_DSP/Source/DistanceFunctions/arm_boolean_distance_template.h **** #ifdef TT
 379              	 .loc 1 484 0
 380 0048 3B6A     	 ldr r3,[r7,#32]
 381 004a 5B08     	 lsrs r3,r3,#1
 382 004c 3B62     	 str r3,[r7,#32]
 492:../Dave/Generated/CMSIS_DSP/Source/DistanceFunctions/arm_boolean_distance_template.h **** #endif
 383              	 .loc 1 492 0
 384 004e BB69     	 ldr r3,[r7,#24]
 385 0050 002B     	 cmp r3,#0
 386 0052 04D0     	 beq .L23
 492:../Dave/Generated/CMSIS_DSP/Source/DistanceFunctions/arm_boolean_distance_template.h **** #endif
 387              	 .loc 1 492 0 is_stmt 0 discriminator 1
 388 0054 7B69     	 ldr r3,[r7,#20]
 389 0056 012B     	 cmp r3,#1
 390 0058 01D0     	 beq .L23
 492:../Dave/Generated/CMSIS_DSP/Source/DistanceFunctions/arm_boolean_distance_template.h **** #endif
 391              	 .loc 1 492 0 discriminator 3
 392 005a 0123     	 movs r3,#1
 393 005c 00E0     	 b .L24
 394              	.L23:
 492:../Dave/Generated/CMSIS_DSP/Source/DistanceFunctions/arm_boolean_distance_template.h **** #endif
 395              	 .loc 1 492 0 discriminator 4
 396 005e 0023     	 movs r3,#0
 397              	.L24:
 492:../Dave/Generated/CMSIS_DSP/Source/DistanceFunctions/arm_boolean_distance_template.h **** #endif
 398              	 .loc 1 492 0 discriminator 6
 399 0060 1A46     	 mov r2,r3
 400 0062 FB6A     	 ldr r3,[r7,#44]
 401 0064 1344     	 add r3,r3,r2
 402 0066 FB62     	 str r3,[r7,#44]
 495:../Dave/Generated/CMSIS_DSP/Source/DistanceFunctions/arm_boolean_distance_template.h **** #endif
 403              	 .loc 1 495 0 is_stmt 1 discriminator 6
 404 0068 BB69     	 ldr r3,[r7,#24]
 405 006a 012B     	 cmp r3,#1
 406 006c 04D0     	 beq .L25
 495:../Dave/Generated/CMSIS_DSP/Source/DistanceFunctions/arm_boolean_distance_template.h **** #endif
 407              	 .loc 1 495 0 is_stmt 0 discriminator 1
 408 006e 7B69     	 ldr r3,[r7,#20]
 409 0070 002B     	 cmp r3,#0
 410 0072 01D0     	 beq .L25
 495:../Dave/Generated/CMSIS_DSP/Source/DistanceFunctions/arm_boolean_distance_template.h **** #endif
 411              	 .loc 1 495 0 discriminator 3
 412 0074 0123     	 movs r3,#1
 413 0076 00E0     	 b .L26
 414              	.L25:
 495:../Dave/Generated/CMSIS_DSP/Source/DistanceFunctions/arm_boolean_distance_template.h **** #endif
 415              	 .loc 1 495 0 discriminator 4
 416 0078 0023     	 movs r3,#0
 417              	.L26:
 495:../Dave/Generated/CMSIS_DSP/Source/DistanceFunctions/arm_boolean_distance_template.h **** #endif
 418              	 .loc 1 495 0 discriminator 6
 419 007a 1A46     	 mov r2,r3
 420 007c BB6A     	 ldr r3,[r7,#40]
 421 007e 1344     	 add r3,r3,r2
 422 0080 BB62     	 str r3,[r7,#40]
 497:../Dave/Generated/CMSIS_DSP/Source/DistanceFunctions/arm_boolean_distance_template.h ****        }
 423              	 .loc 1 497 0 is_stmt 1 discriminator 6
 424 0082 FB69     	 ldr r3,[r7,#28]
 425 0084 0133     	 adds r3,r3,#1
 426 0086 FB61     	 str r3,[r7,#28]
 427              	.L22:
 479:../Dave/Generated/CMSIS_DSP/Source/DistanceFunctions/arm_boolean_distance_template.h ****        {
 428              	 .loc 1 479 0
 429 0088 FB69     	 ldr r3,[r7,#28]
 430 008a 1F2B     	 cmp r3,#31
 431 008c D1DD     	 ble .L27
 500:../Dave/Generated/CMSIS_DSP/Source/DistanceFunctions/arm_boolean_distance_template.h ****     }
 432              	 .loc 1 500 0
 433 008e 7B68     	 ldr r3,[r7,#4]
 434 0090 203B     	 subs r3,r3,#32
 435 0092 7B60     	 str r3,[r7,#4]
 436              	.L21:
 474:../Dave/Generated/CMSIS_DSP/Source/DistanceFunctions/arm_boolean_distance_template.h ****     {
 437              	 .loc 1 474 0
 438 0094 7B68     	 ldr r3,[r7,#4]
 439 0096 1F2B     	 cmp r3,#31
 440 0098 BED8     	 bhi .L28
 503:../Dave/Generated/CMSIS_DSP/Source/DistanceFunctions/arm_boolean_distance_template.h ****     b = *pB++;
 441              	 .loc 1 503 0
 442 009a FB68     	 ldr r3,[r7,#12]
 443 009c 1A1D     	 adds r2,r3,#4
 444 009e FA60     	 str r2,[r7,#12]
 445 00a0 1B68     	 ldr r3,[r3]
 446 00a2 7B62     	 str r3,[r7,#36]
 504:../Dave/Generated/CMSIS_DSP/Source/DistanceFunctions/arm_boolean_distance_template.h **** 
 447              	 .loc 1 504 0
 448 00a4 BB68     	 ldr r3,[r7,#8]
 449 00a6 1A1D     	 adds r2,r3,#4
 450 00a8 BA60     	 str r2,[r7,#8]
 451 00aa 1B68     	 ldr r3,[r3]
 452 00ac 3B62     	 str r3,[r7,#32]
 506:../Dave/Generated/CMSIS_DSP/Source/DistanceFunctions/arm_boolean_distance_template.h ****     b = b >> (32 - numberOfBools);
 453              	 .loc 1 506 0
 454 00ae 7B68     	 ldr r3,[r7,#4]
 455 00b0 C3F12003 	 rsb r3,r3,#32
 456 00b4 1A46     	 mov r2,r3
 457 00b6 7B6A     	 ldr r3,[r7,#36]
 458 00b8 D340     	 lsrs r3,r3,r2
 459 00ba 7B62     	 str r3,[r7,#36]
 507:../Dave/Generated/CMSIS_DSP/Source/DistanceFunctions/arm_boolean_distance_template.h **** 
 460              	 .loc 1 507 0
 461 00bc 7B68     	 ldr r3,[r7,#4]
 462 00be C3F12003 	 rsb r3,r3,#32
 463 00c2 1A46     	 mov r2,r3
 464 00c4 3B6A     	 ldr r3,[r7,#32]
 465 00c6 D340     	 lsrs r3,r3,r2
 466 00c8 3B62     	 str r3,[r7,#32]
 509:../Dave/Generated/CMSIS_DSP/Source/DistanceFunctions/arm_boolean_distance_template.h ****     {
 467              	 .loc 1 509 0
 468 00ca 2AE0     	 b .L29
 469              	.L34:
 511:../Dave/Generated/CMSIS_DSP/Source/DistanceFunctions/arm_boolean_distance_template.h ****           bb = b & 1;
 470              	 .loc 1 511 0
 471 00cc 7B6A     	 ldr r3,[r7,#36]
 472 00ce 03F00103 	 and r3,r3,#1
 473 00d2 BB61     	 str r3,[r7,#24]
 512:../Dave/Generated/CMSIS_DSP/Source/DistanceFunctions/arm_boolean_distance_template.h ****           a = a >> 1;
 474              	 .loc 1 512 0
 475 00d4 3B6A     	 ldr r3,[r7,#32]
 476 00d6 03F00103 	 and r3,r3,#1
 477 00da 7B61     	 str r3,[r7,#20]
 513:../Dave/Generated/CMSIS_DSP/Source/DistanceFunctions/arm_boolean_distance_template.h ****           b = b >> 1;
 478              	 .loc 1 513 0
 479 00dc 7B6A     	 ldr r3,[r7,#36]
 480 00de 5B08     	 lsrs r3,r3,#1
 481 00e0 7B62     	 str r3,[r7,#36]
 514:../Dave/Generated/CMSIS_DSP/Source/DistanceFunctions/arm_boolean_distance_template.h **** 
 482              	 .loc 1 514 0
 483 00e2 3B6A     	 ldr r3,[r7,#32]
 484 00e4 5B08     	 lsrs r3,r3,#1
 485 00e6 3B62     	 str r3,[r7,#32]
 523:../Dave/Generated/CMSIS_DSP/Source/DistanceFunctions/arm_boolean_distance_template.h **** #endif
 486              	 .loc 1 523 0
 487 00e8 BB69     	 ldr r3,[r7,#24]
 488 00ea 002B     	 cmp r3,#0
 489 00ec 04D0     	 beq .L30
 523:../Dave/Generated/CMSIS_DSP/Source/DistanceFunctions/arm_boolean_distance_template.h **** #endif
 490              	 .loc 1 523 0 is_stmt 0 discriminator 1
 491 00ee 7B69     	 ldr r3,[r7,#20]
 492 00f0 012B     	 cmp r3,#1
 493 00f2 01D0     	 beq .L30
 523:../Dave/Generated/CMSIS_DSP/Source/DistanceFunctions/arm_boolean_distance_template.h **** #endif
 494              	 .loc 1 523 0 discriminator 3
 495 00f4 0123     	 movs r3,#1
 496 00f6 00E0     	 b .L31
 497              	.L30:
 523:../Dave/Generated/CMSIS_DSP/Source/DistanceFunctions/arm_boolean_distance_template.h **** #endif
 498              	 .loc 1 523 0 discriminator 4
 499 00f8 0023     	 movs r3,#0
 500              	.L31:
 523:../Dave/Generated/CMSIS_DSP/Source/DistanceFunctions/arm_boolean_distance_template.h **** #endif
 501              	 .loc 1 523 0 discriminator 6
 502 00fa 1A46     	 mov r2,r3
 503 00fc FB6A     	 ldr r3,[r7,#44]
 504 00fe 1344     	 add r3,r3,r2
 505 0100 FB62     	 str r3,[r7,#44]
 526:../Dave/Generated/CMSIS_DSP/Source/DistanceFunctions/arm_boolean_distance_template.h **** #endif
 506              	 .loc 1 526 0 is_stmt 1 discriminator 6
 507 0102 BB69     	 ldr r3,[r7,#24]
 508 0104 012B     	 cmp r3,#1
 509 0106 04D0     	 beq .L32
 526:../Dave/Generated/CMSIS_DSP/Source/DistanceFunctions/arm_boolean_distance_template.h **** #endif
 510              	 .loc 1 526 0 is_stmt 0 discriminator 1
 511 0108 7B69     	 ldr r3,[r7,#20]
 512 010a 002B     	 cmp r3,#0
 513 010c 01D0     	 beq .L32
 526:../Dave/Generated/CMSIS_DSP/Source/DistanceFunctions/arm_boolean_distance_template.h **** #endif
 514              	 .loc 1 526 0 discriminator 3
 515 010e 0123     	 movs r3,#1
 516 0110 00E0     	 b .L33
 517              	.L32:
 526:../Dave/Generated/CMSIS_DSP/Source/DistanceFunctions/arm_boolean_distance_template.h **** #endif
 518              	 .loc 1 526 0 discriminator 4
 519 0112 0023     	 movs r3,#0
 520              	.L33:
 526:../Dave/Generated/CMSIS_DSP/Source/DistanceFunctions/arm_boolean_distance_template.h **** #endif
 521              	 .loc 1 526 0 discriminator 6
 522 0114 1A46     	 mov r2,r3
 523 0116 BB6A     	 ldr r3,[r7,#40]
 524 0118 1344     	 add r3,r3,r2
 525 011a BB62     	 str r3,[r7,#40]
 528:../Dave/Generated/CMSIS_DSP/Source/DistanceFunctions/arm_boolean_distance_template.h ****     }
 526              	 .loc 1 528 0 is_stmt 1 discriminator 6
 527 011c 7B68     	 ldr r3,[r7,#4]
 528 011e 013B     	 subs r3,r3,#1
 529 0120 7B60     	 str r3,[r7,#4]
 530              	.L29:
 509:../Dave/Generated/CMSIS_DSP/Source/DistanceFunctions/arm_boolean_distance_template.h ****     {
 531              	 .loc 1 509 0
 532 0122 7B68     	 ldr r3,[r7,#4]
 533 0124 002B     	 cmp r3,#0
 534 0126 D1D1     	 bne .L34
 538:../Dave/Generated/CMSIS_DSP/Source/DistanceFunctions/arm_boolean_distance_template.h **** #endif
 535              	 .loc 1 538 0
 536 0128 3B68     	 ldr r3,[r7]
 537 012a FA6A     	 ldr r2,[r7,#44]
 538 012c 1A60     	 str r2,[r3]
 541:../Dave/Generated/CMSIS_DSP/Source/DistanceFunctions/arm_boolean_distance_template.h **** #endif
 539              	 .loc 1 541 0
 540 012e BB6B     	 ldr r3,[r7,#56]
 541 0130 BA6A     	 ldr r2,[r7,#40]
 542 0132 1A60     	 str r2,[r3]
 543              	 .loc 1 543 0
 544 0134 3437     	 adds r7,r7,#52
 545              	.LCFI9:
 546              	 .cfi_def_cfa_offset 4
 547 0136 BD46     	 mov sp,r7
 548              	.LCFI10:
 549              	 .cfi_def_cfa_register 13
 550              	 
 551 0138 5DF8047B 	 ldr r7,[sp],#4
 552              	.LCFI11:
 553              	 .cfi_restore 7
 554              	 .cfi_def_cfa_offset 0
 555 013c 7047     	 bx lr
 556              	 .cfi_endproc
 557              	.LFE150:
 559 013e 00BF     	 .section .text.arm_boolean_distance_TT_FF_TF_FT,"ax",%progbits
 560              	 .align 2
 561              	 .global arm_boolean_distance_TT_FF_TF_FT
 562              	 .thumb
 563              	 .thumb_func
 565              	arm_boolean_distance_TT_FF_TF_FT:
 566              	.LFB151:
 457:../Dave/Generated/CMSIS_DSP/Source/DistanceFunctions/arm_boolean_distance_template.h ****   
 567              	 .loc 1 457 0
 568              	 .cfi_startproc
 569              	 
 570              	 
 571              	 
 572 0000 80B4     	 push {r7}
 573              	.LCFI12:
 574              	 .cfi_def_cfa_offset 4
 575              	 .cfi_offset 7,-4
 576 0002 8FB0     	 sub sp,sp,#60
 577              	.LCFI13:
 578              	 .cfi_def_cfa_offset 64
 579 0004 00AF     	 add r7,sp,#0
 580              	.LCFI14:
 581              	 .cfi_def_cfa_register 7
 582 0006 F860     	 str r0,[r7,#12]
 583 0008 B960     	 str r1,[r7,#8]
 584 000a 7A60     	 str r2,[r7,#4]
 585 000c 3B60     	 str r3,[r7]
 460:../Dave/Generated/CMSIS_DSP/Source/DistanceFunctions/arm_boolean_distance_template.h **** #endif
 586              	 .loc 1 460 0
 587 000e 0023     	 movs r3,#0
 588 0010 7B63     	 str r3,[r7,#52]
 463:../Dave/Generated/CMSIS_DSP/Source/DistanceFunctions/arm_boolean_distance_template.h **** #endif
 589              	 .loc 1 463 0
 590 0012 0023     	 movs r3,#0
 591 0014 3B63     	 str r3,[r7,#48]
 466:../Dave/Generated/CMSIS_DSP/Source/DistanceFunctions/arm_boolean_distance_template.h **** #endif
 592              	 .loc 1 466 0
 593 0016 0023     	 movs r3,#0
 594 0018 FB62     	 str r3,[r7,#44]
 469:../Dave/Generated/CMSIS_DSP/Source/DistanceFunctions/arm_boolean_distance_template.h **** #endif
 595              	 .loc 1 469 0
 596 001a 0023     	 movs r3,#0
 597 001c BB62     	 str r3,[r7,#40]
 474:../Dave/Generated/CMSIS_DSP/Source/DistanceFunctions/arm_boolean_distance_template.h ****     {
 598              	 .loc 1 474 0
 599 001e 57E0     	 b .L36
 600              	.L47:
 476:../Dave/Generated/CMSIS_DSP/Source/DistanceFunctions/arm_boolean_distance_template.h ****        b = *pB++;
 601              	 .loc 1 476 0
 602 0020 FB68     	 ldr r3,[r7,#12]
 603 0022 1A1D     	 adds r2,r3,#4
 604 0024 FA60     	 str r2,[r7,#12]
 605 0026 1B68     	 ldr r3,[r3]
 606 0028 7B62     	 str r3,[r7,#36]
 477:../Dave/Generated/CMSIS_DSP/Source/DistanceFunctions/arm_boolean_distance_template.h ****        shift = 0;
 607              	 .loc 1 477 0
 608 002a BB68     	 ldr r3,[r7,#8]
 609 002c 1A1D     	 adds r2,r3,#4
 610 002e BA60     	 str r2,[r7,#8]
 611 0030 1B68     	 ldr r3,[r3]
 612 0032 3B62     	 str r3,[r7,#32]
 478:../Dave/Generated/CMSIS_DSP/Source/DistanceFunctions/arm_boolean_distance_template.h ****        while(shift < 32)
 613              	 .loc 1 478 0
 614 0034 0023     	 movs r3,#0
 615 0036 FB61     	 str r3,[r7,#28]
 479:../Dave/Generated/CMSIS_DSP/Source/DistanceFunctions/arm_boolean_distance_template.h ****        {
 616              	 .loc 1 479 0
 617 0038 44E0     	 b .L37
 618              	.L46:
 481:../Dave/Generated/CMSIS_DSP/Source/DistanceFunctions/arm_boolean_distance_template.h ****           bb = b & 1;
 619              	 .loc 1 481 0
 620 003a 7B6A     	 ldr r3,[r7,#36]
 621 003c 03F00103 	 and r3,r3,#1
 622 0040 BB61     	 str r3,[r7,#24]
 482:../Dave/Generated/CMSIS_DSP/Source/DistanceFunctions/arm_boolean_distance_template.h ****           a = a >> 1;
 623              	 .loc 1 482 0
 624 0042 3B6A     	 ldr r3,[r7,#32]
 625 0044 03F00103 	 and r3,r3,#1
 626 0048 7B61     	 str r3,[r7,#20]
 483:../Dave/Generated/CMSIS_DSP/Source/DistanceFunctions/arm_boolean_distance_template.h ****           b = b >> 1;
 627              	 .loc 1 483 0
 628 004a 7B6A     	 ldr r3,[r7,#36]
 629 004c 5B08     	 lsrs r3,r3,#1
 630 004e 7B62     	 str r3,[r7,#36]
 484:../Dave/Generated/CMSIS_DSP/Source/DistanceFunctions/arm_boolean_distance_template.h **** #ifdef TT
 631              	 .loc 1 484 0
 632 0050 3B6A     	 ldr r3,[r7,#32]
 633 0052 5B08     	 lsrs r3,r3,#1
 634 0054 3B62     	 str r3,[r7,#32]
 486:../Dave/Generated/CMSIS_DSP/Source/DistanceFunctions/arm_boolean_distance_template.h **** #endif
 635              	 .loc 1 486 0
 636 0056 BB69     	 ldr r3,[r7,#24]
 637 0058 002B     	 cmp r3,#0
 638 005a 04D0     	 beq .L38
 486:../Dave/Generated/CMSIS_DSP/Source/DistanceFunctions/arm_boolean_distance_template.h **** #endif
 639              	 .loc 1 486 0 is_stmt 0 discriminator 1
 640 005c 7B69     	 ldr r3,[r7,#20]
 641 005e 002B     	 cmp r3,#0
 642 0060 01D0     	 beq .L38
 486:../Dave/Generated/CMSIS_DSP/Source/DistanceFunctions/arm_boolean_distance_template.h **** #endif
 643              	 .loc 1 486 0 discriminator 3
 644 0062 0123     	 movs r3,#1
 645 0064 00E0     	 b .L39
 646              	.L38:
 486:../Dave/Generated/CMSIS_DSP/Source/DistanceFunctions/arm_boolean_distance_template.h **** #endif
 647              	 .loc 1 486 0 discriminator 4
 648 0066 0023     	 movs r3,#0
 649              	.L39:
 486:../Dave/Generated/CMSIS_DSP/Source/DistanceFunctions/arm_boolean_distance_template.h **** #endif
 650              	 .loc 1 486 0 discriminator 6
 651 0068 1A46     	 mov r2,r3
 652 006a 7B6B     	 ldr r3,[r7,#52]
 653 006c 1344     	 add r3,r3,r2
 654 006e 7B63     	 str r3,[r7,#52]
 489:../Dave/Generated/CMSIS_DSP/Source/DistanceFunctions/arm_boolean_distance_template.h **** #endif
 655              	 .loc 1 489 0 is_stmt 1 discriminator 6
 656 0070 BB69     	 ldr r3,[r7,#24]
 657 0072 012B     	 cmp r3,#1
 658 0074 04D0     	 beq .L40
 489:../Dave/Generated/CMSIS_DSP/Source/DistanceFunctions/arm_boolean_distance_template.h **** #endif
 659              	 .loc 1 489 0 is_stmt 0 discriminator 1
 660 0076 7B69     	 ldr r3,[r7,#20]
 661 0078 012B     	 cmp r3,#1
 662 007a 01D0     	 beq .L40
 489:../Dave/Generated/CMSIS_DSP/Source/DistanceFunctions/arm_boolean_distance_template.h **** #endif
 663              	 .loc 1 489 0 discriminator 3
 664 007c 0123     	 movs r3,#1
 665 007e 00E0     	 b .L41
 666              	.L40:
 489:../Dave/Generated/CMSIS_DSP/Source/DistanceFunctions/arm_boolean_distance_template.h **** #endif
 667              	 .loc 1 489 0 discriminator 4
 668 0080 0023     	 movs r3,#0
 669              	.L41:
 489:../Dave/Generated/CMSIS_DSP/Source/DistanceFunctions/arm_boolean_distance_template.h **** #endif
 670              	 .loc 1 489 0 discriminator 6
 671 0082 1A46     	 mov r2,r3
 672 0084 3B6B     	 ldr r3,[r7,#48]
 673 0086 1344     	 add r3,r3,r2
 674 0088 3B63     	 str r3,[r7,#48]
 492:../Dave/Generated/CMSIS_DSP/Source/DistanceFunctions/arm_boolean_distance_template.h **** #endif
 675              	 .loc 1 492 0 is_stmt 1 discriminator 6
 676 008a BB69     	 ldr r3,[r7,#24]
 677 008c 002B     	 cmp r3,#0
 678 008e 04D0     	 beq .L42
 492:../Dave/Generated/CMSIS_DSP/Source/DistanceFunctions/arm_boolean_distance_template.h **** #endif
 679              	 .loc 1 492 0 is_stmt 0 discriminator 1
 680 0090 7B69     	 ldr r3,[r7,#20]
 681 0092 012B     	 cmp r3,#1
 682 0094 01D0     	 beq .L42
 492:../Dave/Generated/CMSIS_DSP/Source/DistanceFunctions/arm_boolean_distance_template.h **** #endif
 683              	 .loc 1 492 0 discriminator 3
 684 0096 0123     	 movs r3,#1
 685 0098 00E0     	 b .L43
 686              	.L42:
 492:../Dave/Generated/CMSIS_DSP/Source/DistanceFunctions/arm_boolean_distance_template.h **** #endif
 687              	 .loc 1 492 0 discriminator 4
 688 009a 0023     	 movs r3,#0
 689              	.L43:
 492:../Dave/Generated/CMSIS_DSP/Source/DistanceFunctions/arm_boolean_distance_template.h **** #endif
 690              	 .loc 1 492 0 discriminator 6
 691 009c 1A46     	 mov r2,r3
 692 009e FB6A     	 ldr r3,[r7,#44]
 693 00a0 1344     	 add r3,r3,r2
 694 00a2 FB62     	 str r3,[r7,#44]
 495:../Dave/Generated/CMSIS_DSP/Source/DistanceFunctions/arm_boolean_distance_template.h **** #endif
 695              	 .loc 1 495 0 is_stmt 1 discriminator 6
 696 00a4 BB69     	 ldr r3,[r7,#24]
 697 00a6 012B     	 cmp r3,#1
 698 00a8 04D0     	 beq .L44
 495:../Dave/Generated/CMSIS_DSP/Source/DistanceFunctions/arm_boolean_distance_template.h **** #endif
 699              	 .loc 1 495 0 is_stmt 0 discriminator 1
 700 00aa 7B69     	 ldr r3,[r7,#20]
 701 00ac 002B     	 cmp r3,#0
 702 00ae 01D0     	 beq .L44
 495:../Dave/Generated/CMSIS_DSP/Source/DistanceFunctions/arm_boolean_distance_template.h **** #endif
 703              	 .loc 1 495 0 discriminator 3
 704 00b0 0123     	 movs r3,#1
 705 00b2 00E0     	 b .L45
 706              	.L44:
 495:../Dave/Generated/CMSIS_DSP/Source/DistanceFunctions/arm_boolean_distance_template.h **** #endif
 707              	 .loc 1 495 0 discriminator 4
 708 00b4 0023     	 movs r3,#0
 709              	.L45:
 495:../Dave/Generated/CMSIS_DSP/Source/DistanceFunctions/arm_boolean_distance_template.h **** #endif
 710              	 .loc 1 495 0 discriminator 6
 711 00b6 1A46     	 mov r2,r3
 712 00b8 BB6A     	 ldr r3,[r7,#40]
 713 00ba 1344     	 add r3,r3,r2
 714 00bc BB62     	 str r3,[r7,#40]
 497:../Dave/Generated/CMSIS_DSP/Source/DistanceFunctions/arm_boolean_distance_template.h ****        }
 715              	 .loc 1 497 0 is_stmt 1 discriminator 6
 716 00be FB69     	 ldr r3,[r7,#28]
 717 00c0 0133     	 adds r3,r3,#1
 718 00c2 FB61     	 str r3,[r7,#28]
 719              	.L37:
 479:../Dave/Generated/CMSIS_DSP/Source/DistanceFunctions/arm_boolean_distance_template.h ****        {
 720              	 .loc 1 479 0
 721 00c4 FB69     	 ldr r3,[r7,#28]
 722 00c6 1F2B     	 cmp r3,#31
 723 00c8 B7DD     	 ble .L46
 500:../Dave/Generated/CMSIS_DSP/Source/DistanceFunctions/arm_boolean_distance_template.h ****     }
 724              	 .loc 1 500 0
 725 00ca 7B68     	 ldr r3,[r7,#4]
 726 00cc 203B     	 subs r3,r3,#32
 727 00ce 7B60     	 str r3,[r7,#4]
 728              	.L36:
 474:../Dave/Generated/CMSIS_DSP/Source/DistanceFunctions/arm_boolean_distance_template.h ****     {
 729              	 .loc 1 474 0
 730 00d0 7B68     	 ldr r3,[r7,#4]
 731 00d2 1F2B     	 cmp r3,#31
 732 00d4 A4D8     	 bhi .L47
 503:../Dave/Generated/CMSIS_DSP/Source/DistanceFunctions/arm_boolean_distance_template.h ****     b = *pB++;
 733              	 .loc 1 503 0
 734 00d6 FB68     	 ldr r3,[r7,#12]
 735 00d8 1A1D     	 adds r2,r3,#4
 736 00da FA60     	 str r2,[r7,#12]
 737 00dc 1B68     	 ldr r3,[r3]
 738 00de 7B62     	 str r3,[r7,#36]
 504:../Dave/Generated/CMSIS_DSP/Source/DistanceFunctions/arm_boolean_distance_template.h **** 
 739              	 .loc 1 504 0
 740 00e0 BB68     	 ldr r3,[r7,#8]
 741 00e2 1A1D     	 adds r2,r3,#4
 742 00e4 BA60     	 str r2,[r7,#8]
 743 00e6 1B68     	 ldr r3,[r3]
 744 00e8 3B62     	 str r3,[r7,#32]
 506:../Dave/Generated/CMSIS_DSP/Source/DistanceFunctions/arm_boolean_distance_template.h ****     b = b >> (32 - numberOfBools);
 745              	 .loc 1 506 0
 746 00ea 7B68     	 ldr r3,[r7,#4]
 747 00ec C3F12003 	 rsb r3,r3,#32
 748 00f0 1A46     	 mov r2,r3
 749 00f2 7B6A     	 ldr r3,[r7,#36]
 750 00f4 D340     	 lsrs r3,r3,r2
 751 00f6 7B62     	 str r3,[r7,#36]
 507:../Dave/Generated/CMSIS_DSP/Source/DistanceFunctions/arm_boolean_distance_template.h **** 
 752              	 .loc 1 507 0
 753 00f8 7B68     	 ldr r3,[r7,#4]
 754 00fa C3F12003 	 rsb r3,r3,#32
 755 00fe 1A46     	 mov r2,r3
 756 0100 3B6A     	 ldr r3,[r7,#32]
 757 0102 D340     	 lsrs r3,r3,r2
 758 0104 3B62     	 str r3,[r7,#32]
 509:../Dave/Generated/CMSIS_DSP/Source/DistanceFunctions/arm_boolean_distance_template.h ****     {
 759              	 .loc 1 509 0
 760 0106 44E0     	 b .L48
 761              	.L57:
 511:../Dave/Generated/CMSIS_DSP/Source/DistanceFunctions/arm_boolean_distance_template.h ****           bb = b & 1;
 762              	 .loc 1 511 0
 763 0108 7B6A     	 ldr r3,[r7,#36]
 764 010a 03F00103 	 and r3,r3,#1
 765 010e BB61     	 str r3,[r7,#24]
 512:../Dave/Generated/CMSIS_DSP/Source/DistanceFunctions/arm_boolean_distance_template.h ****           a = a >> 1;
 766              	 .loc 1 512 0
 767 0110 3B6A     	 ldr r3,[r7,#32]
 768 0112 03F00103 	 and r3,r3,#1
 769 0116 7B61     	 str r3,[r7,#20]
 513:../Dave/Generated/CMSIS_DSP/Source/DistanceFunctions/arm_boolean_distance_template.h ****           b = b >> 1;
 770              	 .loc 1 513 0
 771 0118 7B6A     	 ldr r3,[r7,#36]
 772 011a 5B08     	 lsrs r3,r3,#1
 773 011c 7B62     	 str r3,[r7,#36]
 514:../Dave/Generated/CMSIS_DSP/Source/DistanceFunctions/arm_boolean_distance_template.h **** 
 774              	 .loc 1 514 0
 775 011e 3B6A     	 ldr r3,[r7,#32]
 776 0120 5B08     	 lsrs r3,r3,#1
 777 0122 3B62     	 str r3,[r7,#32]
 517:../Dave/Generated/CMSIS_DSP/Source/DistanceFunctions/arm_boolean_distance_template.h **** #endif
 778              	 .loc 1 517 0
 779 0124 BB69     	 ldr r3,[r7,#24]
 780 0126 002B     	 cmp r3,#0
 781 0128 04D0     	 beq .L49
 517:../Dave/Generated/CMSIS_DSP/Source/DistanceFunctions/arm_boolean_distance_template.h **** #endif
 782              	 .loc 1 517 0 is_stmt 0 discriminator 1
 783 012a 7B69     	 ldr r3,[r7,#20]
 784 012c 002B     	 cmp r3,#0
 785 012e 01D0     	 beq .L49
 517:../Dave/Generated/CMSIS_DSP/Source/DistanceFunctions/arm_boolean_distance_template.h **** #endif
 786              	 .loc 1 517 0 discriminator 3
 787 0130 0123     	 movs r3,#1
 788 0132 00E0     	 b .L50
 789              	.L49:
 517:../Dave/Generated/CMSIS_DSP/Source/DistanceFunctions/arm_boolean_distance_template.h **** #endif
 790              	 .loc 1 517 0 discriminator 4
 791 0134 0023     	 movs r3,#0
 792              	.L50:
 517:../Dave/Generated/CMSIS_DSP/Source/DistanceFunctions/arm_boolean_distance_template.h **** #endif
 793              	 .loc 1 517 0 discriminator 6
 794 0136 1A46     	 mov r2,r3
 795 0138 7B6B     	 ldr r3,[r7,#52]
 796 013a 1344     	 add r3,r3,r2
 797 013c 7B63     	 str r3,[r7,#52]
 520:../Dave/Generated/CMSIS_DSP/Source/DistanceFunctions/arm_boolean_distance_template.h **** #endif
 798              	 .loc 1 520 0 is_stmt 1 discriminator 6
 799 013e BB69     	 ldr r3,[r7,#24]
 800 0140 012B     	 cmp r3,#1
 801 0142 04D0     	 beq .L51
 520:../Dave/Generated/CMSIS_DSP/Source/DistanceFunctions/arm_boolean_distance_template.h **** #endif
 802              	 .loc 1 520 0 is_stmt 0 discriminator 1
 803 0144 7B69     	 ldr r3,[r7,#20]
 804 0146 012B     	 cmp r3,#1
 805 0148 01D0     	 beq .L51
 520:../Dave/Generated/CMSIS_DSP/Source/DistanceFunctions/arm_boolean_distance_template.h **** #endif
 806              	 .loc 1 520 0 discriminator 3
 807 014a 0123     	 movs r3,#1
 808 014c 00E0     	 b .L52
 809              	.L51:
 520:../Dave/Generated/CMSIS_DSP/Source/DistanceFunctions/arm_boolean_distance_template.h **** #endif
 810              	 .loc 1 520 0 discriminator 4
 811 014e 0023     	 movs r3,#0
 812              	.L52:
 520:../Dave/Generated/CMSIS_DSP/Source/DistanceFunctions/arm_boolean_distance_template.h **** #endif
 813              	 .loc 1 520 0 discriminator 6
 814 0150 1A46     	 mov r2,r3
 815 0152 3B6B     	 ldr r3,[r7,#48]
 816 0154 1344     	 add r3,r3,r2
 817 0156 3B63     	 str r3,[r7,#48]
 523:../Dave/Generated/CMSIS_DSP/Source/DistanceFunctions/arm_boolean_distance_template.h **** #endif
 818              	 .loc 1 523 0 is_stmt 1 discriminator 6
 819 0158 BB69     	 ldr r3,[r7,#24]
 820 015a 002B     	 cmp r3,#0
 821 015c 04D0     	 beq .L53
 523:../Dave/Generated/CMSIS_DSP/Source/DistanceFunctions/arm_boolean_distance_template.h **** #endif
 822              	 .loc 1 523 0 is_stmt 0 discriminator 1
 823 015e 7B69     	 ldr r3,[r7,#20]
 824 0160 012B     	 cmp r3,#1
 825 0162 01D0     	 beq .L53
 523:../Dave/Generated/CMSIS_DSP/Source/DistanceFunctions/arm_boolean_distance_template.h **** #endif
 826              	 .loc 1 523 0 discriminator 3
 827 0164 0123     	 movs r3,#1
 828 0166 00E0     	 b .L54
 829              	.L53:
 523:../Dave/Generated/CMSIS_DSP/Source/DistanceFunctions/arm_boolean_distance_template.h **** #endif
 830              	 .loc 1 523 0 discriminator 4
 831 0168 0023     	 movs r3,#0
 832              	.L54:
 523:../Dave/Generated/CMSIS_DSP/Source/DistanceFunctions/arm_boolean_distance_template.h **** #endif
 833              	 .loc 1 523 0 discriminator 6
 834 016a 1A46     	 mov r2,r3
 835 016c FB6A     	 ldr r3,[r7,#44]
 836 016e 1344     	 add r3,r3,r2
 837 0170 FB62     	 str r3,[r7,#44]
 526:../Dave/Generated/CMSIS_DSP/Source/DistanceFunctions/arm_boolean_distance_template.h **** #endif
 838              	 .loc 1 526 0 is_stmt 1 discriminator 6
 839 0172 BB69     	 ldr r3,[r7,#24]
 840 0174 012B     	 cmp r3,#1
 841 0176 04D0     	 beq .L55
 526:../Dave/Generated/CMSIS_DSP/Source/DistanceFunctions/arm_boolean_distance_template.h **** #endif
 842              	 .loc 1 526 0 is_stmt 0 discriminator 1
 843 0178 7B69     	 ldr r3,[r7,#20]
 844 017a 002B     	 cmp r3,#0
 845 017c 01D0     	 beq .L55
 526:../Dave/Generated/CMSIS_DSP/Source/DistanceFunctions/arm_boolean_distance_template.h **** #endif
 846              	 .loc 1 526 0 discriminator 3
 847 017e 0123     	 movs r3,#1
 848 0180 00E0     	 b .L56
 849              	.L55:
 526:../Dave/Generated/CMSIS_DSP/Source/DistanceFunctions/arm_boolean_distance_template.h **** #endif
 850              	 .loc 1 526 0 discriminator 4
 851 0182 0023     	 movs r3,#0
 852              	.L56:
 526:../Dave/Generated/CMSIS_DSP/Source/DistanceFunctions/arm_boolean_distance_template.h **** #endif
 853              	 .loc 1 526 0 discriminator 6
 854 0184 1A46     	 mov r2,r3
 855 0186 BB6A     	 ldr r3,[r7,#40]
 856 0188 1344     	 add r3,r3,r2
 857 018a BB62     	 str r3,[r7,#40]
 528:../Dave/Generated/CMSIS_DSP/Source/DistanceFunctions/arm_boolean_distance_template.h ****     }
 858              	 .loc 1 528 0 is_stmt 1 discriminator 6
 859 018c 7B68     	 ldr r3,[r7,#4]
 860 018e 013B     	 subs r3,r3,#1
 861 0190 7B60     	 str r3,[r7,#4]
 862              	.L48:
 509:../Dave/Generated/CMSIS_DSP/Source/DistanceFunctions/arm_boolean_distance_template.h ****     {
 863              	 .loc 1 509 0
 864 0192 7B68     	 ldr r3,[r7,#4]
 865 0194 002B     	 cmp r3,#0
 866 0196 B7D1     	 bne .L57
 532:../Dave/Generated/CMSIS_DSP/Source/DistanceFunctions/arm_boolean_distance_template.h **** #endif
 867              	 .loc 1 532 0
 868 0198 3B68     	 ldr r3,[r7]
 869 019a 7A6B     	 ldr r2,[r7,#52]
 870 019c 1A60     	 str r2,[r3]
 535:../Dave/Generated/CMSIS_DSP/Source/DistanceFunctions/arm_boolean_distance_template.h **** #endif
 871              	 .loc 1 535 0
 872 019e 3B6C     	 ldr r3,[r7,#64]
 873 01a0 3A6B     	 ldr r2,[r7,#48]
 874 01a2 1A60     	 str r2,[r3]
 538:../Dave/Generated/CMSIS_DSP/Source/DistanceFunctions/arm_boolean_distance_template.h **** #endif
 875              	 .loc 1 538 0
 876 01a4 7B6C     	 ldr r3,[r7,#68]
 877 01a6 FA6A     	 ldr r2,[r7,#44]
 878 01a8 1A60     	 str r2,[r3]
 541:../Dave/Generated/CMSIS_DSP/Source/DistanceFunctions/arm_boolean_distance_template.h **** #endif
 879              	 .loc 1 541 0
 880 01aa BB6C     	 ldr r3,[r7,#72]
 881 01ac BA6A     	 ldr r2,[r7,#40]
 882 01ae 1A60     	 str r2,[r3]
 883              	 .loc 1 543 0
 884 01b0 3C37     	 adds r7,r7,#60
 885              	.LCFI15:
 886              	 .cfi_def_cfa_offset 4
 887 01b2 BD46     	 mov sp,r7
 888              	.LCFI16:
 889              	 .cfi_def_cfa_register 13
 890              	 
 891 01b4 5DF8047B 	 ldr r7,[sp],#4
 892              	.LCFI17:
 893              	 .cfi_restore 7
 894              	 .cfi_def_cfa_offset 0
 895 01b8 7047     	 bx lr
 896              	 .cfi_endproc
 897              	.LFE151:
 899 01ba 00BF     	 .section .text.arm_boolean_distance_TT,"ax",%progbits
 900              	 .align 2
 901              	 .global arm_boolean_distance_TT
 902              	 .thumb
 903              	 .thumb_func
 905              	arm_boolean_distance_TT:
 906              	.LFB152:
 457:../Dave/Generated/CMSIS_DSP/Source/DistanceFunctions/arm_boolean_distance_template.h ****   
 907              	 .loc 1 457 0
 908              	 .cfi_startproc
 909              	 
 910              	 
 911              	 
 912 0000 80B4     	 push {r7}
 913              	.LCFI18:
 914              	 .cfi_def_cfa_offset 4
 915              	 .cfi_offset 7,-4
 916 0002 8BB0     	 sub sp,sp,#44
 917              	.LCFI19:
 918              	 .cfi_def_cfa_offset 48
 919 0004 00AF     	 add r7,sp,#0
 920              	.LCFI20:
 921              	 .cfi_def_cfa_register 7
 922 0006 F860     	 str r0,[r7,#12]
 923 0008 B960     	 str r1,[r7,#8]
 924 000a 7A60     	 str r2,[r7,#4]
 925 000c 3B60     	 str r3,[r7]
 460:../Dave/Generated/CMSIS_DSP/Source/DistanceFunctions/arm_boolean_distance_template.h **** #endif
 926              	 .loc 1 460 0
 927 000e 0023     	 movs r3,#0
 928 0010 7B62     	 str r3,[r7,#36]
 474:../Dave/Generated/CMSIS_DSP/Source/DistanceFunctions/arm_boolean_distance_template.h ****     {
 929              	 .loc 1 474 0
 930 0012 30E0     	 b .L59
 931              	.L64:
 476:../Dave/Generated/CMSIS_DSP/Source/DistanceFunctions/arm_boolean_distance_template.h ****        b = *pB++;
 932              	 .loc 1 476 0
 933 0014 FB68     	 ldr r3,[r7,#12]
 934 0016 1A1D     	 adds r2,r3,#4
 935 0018 FA60     	 str r2,[r7,#12]
 936 001a 1B68     	 ldr r3,[r3]
 937 001c 3B62     	 str r3,[r7,#32]
 477:../Dave/Generated/CMSIS_DSP/Source/DistanceFunctions/arm_boolean_distance_template.h ****        shift = 0;
 938              	 .loc 1 477 0
 939 001e BB68     	 ldr r3,[r7,#8]
 940 0020 1A1D     	 adds r2,r3,#4
 941 0022 BA60     	 str r2,[r7,#8]
 942 0024 1B68     	 ldr r3,[r3]
 943 0026 FB61     	 str r3,[r7,#28]
 478:../Dave/Generated/CMSIS_DSP/Source/DistanceFunctions/arm_boolean_distance_template.h ****        while(shift < 32)
 944              	 .loc 1 478 0
 945 0028 0023     	 movs r3,#0
 946 002a BB61     	 str r3,[r7,#24]
 479:../Dave/Generated/CMSIS_DSP/Source/DistanceFunctions/arm_boolean_distance_template.h ****        {
 947              	 .loc 1 479 0
 948 002c 1DE0     	 b .L60
 949              	.L63:
 481:../Dave/Generated/CMSIS_DSP/Source/DistanceFunctions/arm_boolean_distance_template.h ****           bb = b & 1;
 950              	 .loc 1 481 0
 951 002e 3B6A     	 ldr r3,[r7,#32]
 952 0030 03F00103 	 and r3,r3,#1
 953 0034 7B61     	 str r3,[r7,#20]
 482:../Dave/Generated/CMSIS_DSP/Source/DistanceFunctions/arm_boolean_distance_template.h ****           a = a >> 1;
 954              	 .loc 1 482 0
 955 0036 FB69     	 ldr r3,[r7,#28]
 956 0038 03F00103 	 and r3,r3,#1
 957 003c 3B61     	 str r3,[r7,#16]
 483:../Dave/Generated/CMSIS_DSP/Source/DistanceFunctions/arm_boolean_distance_template.h ****           b = b >> 1;
 958              	 .loc 1 483 0
 959 003e 3B6A     	 ldr r3,[r7,#32]
 960 0040 5B08     	 lsrs r3,r3,#1
 961 0042 3B62     	 str r3,[r7,#32]
 484:../Dave/Generated/CMSIS_DSP/Source/DistanceFunctions/arm_boolean_distance_template.h **** #ifdef TT
 962              	 .loc 1 484 0
 963 0044 FB69     	 ldr r3,[r7,#28]
 964 0046 5B08     	 lsrs r3,r3,#1
 965 0048 FB61     	 str r3,[r7,#28]
 486:../Dave/Generated/CMSIS_DSP/Source/DistanceFunctions/arm_boolean_distance_template.h **** #endif
 966              	 .loc 1 486 0
 967 004a 7B69     	 ldr r3,[r7,#20]
 968 004c 002B     	 cmp r3,#0
 969 004e 04D0     	 beq .L61
 486:../Dave/Generated/CMSIS_DSP/Source/DistanceFunctions/arm_boolean_distance_template.h **** #endif
 970              	 .loc 1 486 0 is_stmt 0 discriminator 1
 971 0050 3B69     	 ldr r3,[r7,#16]
 972 0052 002B     	 cmp r3,#0
 973 0054 01D0     	 beq .L61
 486:../Dave/Generated/CMSIS_DSP/Source/DistanceFunctions/arm_boolean_distance_template.h **** #endif
 974              	 .loc 1 486 0 discriminator 3
 975 0056 0123     	 movs r3,#1
 976 0058 00E0     	 b .L62
 977              	.L61:
 486:../Dave/Generated/CMSIS_DSP/Source/DistanceFunctions/arm_boolean_distance_template.h **** #endif
 978              	 .loc 1 486 0 discriminator 4
 979 005a 0023     	 movs r3,#0
 980              	.L62:
 486:../Dave/Generated/CMSIS_DSP/Source/DistanceFunctions/arm_boolean_distance_template.h **** #endif
 981              	 .loc 1 486 0 discriminator 6
 982 005c 1A46     	 mov r2,r3
 983 005e 7B6A     	 ldr r3,[r7,#36]
 984 0060 1344     	 add r3,r3,r2
 985 0062 7B62     	 str r3,[r7,#36]
 497:../Dave/Generated/CMSIS_DSP/Source/DistanceFunctions/arm_boolean_distance_template.h ****        }
 986              	 .loc 1 497 0 is_stmt 1 discriminator 6
 987 0064 BB69     	 ldr r3,[r7,#24]
 988 0066 0133     	 adds r3,r3,#1
 989 0068 BB61     	 str r3,[r7,#24]
 990              	.L60:
 479:../Dave/Generated/CMSIS_DSP/Source/DistanceFunctions/arm_boolean_distance_template.h ****        {
 991              	 .loc 1 479 0
 992 006a BB69     	 ldr r3,[r7,#24]
 993 006c 1F2B     	 cmp r3,#31
 994 006e DEDD     	 ble .L63
 500:../Dave/Generated/CMSIS_DSP/Source/DistanceFunctions/arm_boolean_distance_template.h ****     }
 995              	 .loc 1 500 0
 996 0070 7B68     	 ldr r3,[r7,#4]
 997 0072 203B     	 subs r3,r3,#32
 998 0074 7B60     	 str r3,[r7,#4]
 999              	.L59:
 474:../Dave/Generated/CMSIS_DSP/Source/DistanceFunctions/arm_boolean_distance_template.h ****     {
 1000              	 .loc 1 474 0
 1001 0076 7B68     	 ldr r3,[r7,#4]
 1002 0078 1F2B     	 cmp r3,#31
 1003 007a CBD8     	 bhi .L64
 503:../Dave/Generated/CMSIS_DSP/Source/DistanceFunctions/arm_boolean_distance_template.h ****     b = *pB++;
 1004              	 .loc 1 503 0
 1005 007c FB68     	 ldr r3,[r7,#12]
 1006 007e 1A1D     	 adds r2,r3,#4
 1007 0080 FA60     	 str r2,[r7,#12]
 1008 0082 1B68     	 ldr r3,[r3]
 1009 0084 3B62     	 str r3,[r7,#32]
 504:../Dave/Generated/CMSIS_DSP/Source/DistanceFunctions/arm_boolean_distance_template.h **** 
 1010              	 .loc 1 504 0
 1011 0086 BB68     	 ldr r3,[r7,#8]
 1012 0088 1A1D     	 adds r2,r3,#4
 1013 008a BA60     	 str r2,[r7,#8]
 1014 008c 1B68     	 ldr r3,[r3]
 1015 008e FB61     	 str r3,[r7,#28]
 506:../Dave/Generated/CMSIS_DSP/Source/DistanceFunctions/arm_boolean_distance_template.h ****     b = b >> (32 - numberOfBools);
 1016              	 .loc 1 506 0
 1017 0090 7B68     	 ldr r3,[r7,#4]
 1018 0092 C3F12003 	 rsb r3,r3,#32
 1019 0096 1A46     	 mov r2,r3
 1020 0098 3B6A     	 ldr r3,[r7,#32]
 1021 009a D340     	 lsrs r3,r3,r2
 1022 009c 3B62     	 str r3,[r7,#32]
 507:../Dave/Generated/CMSIS_DSP/Source/DistanceFunctions/arm_boolean_distance_template.h **** 
 1023              	 .loc 1 507 0
 1024 009e 7B68     	 ldr r3,[r7,#4]
 1025 00a0 C3F12003 	 rsb r3,r3,#32
 1026 00a4 1A46     	 mov r2,r3
 1027 00a6 FB69     	 ldr r3,[r7,#28]
 1028 00a8 D340     	 lsrs r3,r3,r2
 1029 00aa FB61     	 str r3,[r7,#28]
 509:../Dave/Generated/CMSIS_DSP/Source/DistanceFunctions/arm_boolean_distance_template.h ****     {
 1030              	 .loc 1 509 0
 1031 00ac 1DE0     	 b .L65
 1032              	.L68:
 511:../Dave/Generated/CMSIS_DSP/Source/DistanceFunctions/arm_boolean_distance_template.h ****           bb = b & 1;
 1033              	 .loc 1 511 0
 1034 00ae 3B6A     	 ldr r3,[r7,#32]
 1035 00b0 03F00103 	 and r3,r3,#1
 1036 00b4 7B61     	 str r3,[r7,#20]
 512:../Dave/Generated/CMSIS_DSP/Source/DistanceFunctions/arm_boolean_distance_template.h ****           a = a >> 1;
 1037              	 .loc 1 512 0
 1038 00b6 FB69     	 ldr r3,[r7,#28]
 1039 00b8 03F00103 	 and r3,r3,#1
 1040 00bc 3B61     	 str r3,[r7,#16]
 513:../Dave/Generated/CMSIS_DSP/Source/DistanceFunctions/arm_boolean_distance_template.h ****           b = b >> 1;
 1041              	 .loc 1 513 0
 1042 00be 3B6A     	 ldr r3,[r7,#32]
 1043 00c0 5B08     	 lsrs r3,r3,#1
 1044 00c2 3B62     	 str r3,[r7,#32]
 514:../Dave/Generated/CMSIS_DSP/Source/DistanceFunctions/arm_boolean_distance_template.h **** 
 1045              	 .loc 1 514 0
 1046 00c4 FB69     	 ldr r3,[r7,#28]
 1047 00c6 5B08     	 lsrs r3,r3,#1
 1048 00c8 FB61     	 str r3,[r7,#28]
 517:../Dave/Generated/CMSIS_DSP/Source/DistanceFunctions/arm_boolean_distance_template.h **** #endif
 1049              	 .loc 1 517 0
 1050 00ca 7B69     	 ldr r3,[r7,#20]
 1051 00cc 002B     	 cmp r3,#0
 1052 00ce 04D0     	 beq .L66
 517:../Dave/Generated/CMSIS_DSP/Source/DistanceFunctions/arm_boolean_distance_template.h **** #endif
 1053              	 .loc 1 517 0 is_stmt 0 discriminator 1
 1054 00d0 3B69     	 ldr r3,[r7,#16]
 1055 00d2 002B     	 cmp r3,#0
 1056 00d4 01D0     	 beq .L66
 517:../Dave/Generated/CMSIS_DSP/Source/DistanceFunctions/arm_boolean_distance_template.h **** #endif
 1057              	 .loc 1 517 0 discriminator 3
 1058 00d6 0123     	 movs r3,#1
 1059 00d8 00E0     	 b .L67
 1060              	.L66:
 517:../Dave/Generated/CMSIS_DSP/Source/DistanceFunctions/arm_boolean_distance_template.h **** #endif
 1061              	 .loc 1 517 0 discriminator 4
 1062 00da 0023     	 movs r3,#0
 1063              	.L67:
 517:../Dave/Generated/CMSIS_DSP/Source/DistanceFunctions/arm_boolean_distance_template.h **** #endif
 1064              	 .loc 1 517 0 discriminator 6
 1065 00dc 1A46     	 mov r2,r3
 1066 00de 7B6A     	 ldr r3,[r7,#36]
 1067 00e0 1344     	 add r3,r3,r2
 1068 00e2 7B62     	 str r3,[r7,#36]
 528:../Dave/Generated/CMSIS_DSP/Source/DistanceFunctions/arm_boolean_distance_template.h ****     }
 1069              	 .loc 1 528 0 is_stmt 1 discriminator 6
 1070 00e4 7B68     	 ldr r3,[r7,#4]
 1071 00e6 013B     	 subs r3,r3,#1
 1072 00e8 7B60     	 str r3,[r7,#4]
 1073              	.L65:
 509:../Dave/Generated/CMSIS_DSP/Source/DistanceFunctions/arm_boolean_distance_template.h ****     {
 1074              	 .loc 1 509 0
 1075 00ea 7B68     	 ldr r3,[r7,#4]
 1076 00ec 002B     	 cmp r3,#0
 1077 00ee DED1     	 bne .L68
 532:../Dave/Generated/CMSIS_DSP/Source/DistanceFunctions/arm_boolean_distance_template.h **** #endif
 1078              	 .loc 1 532 0
 1079 00f0 3B68     	 ldr r3,[r7]
 1080 00f2 7A6A     	 ldr r2,[r7,#36]
 1081 00f4 1A60     	 str r2,[r3]
 1082              	 .loc 1 543 0
 1083 00f6 2C37     	 adds r7,r7,#44
 1084              	.LCFI21:
 1085              	 .cfi_def_cfa_offset 4
 1086 00f8 BD46     	 mov sp,r7
 1087              	.LCFI22:
 1088              	 .cfi_def_cfa_register 13
 1089              	 
 1090 00fa 5DF8047B 	 ldr r7,[sp],#4
 1091              	.LCFI23:
 1092              	 .cfi_restore 7
 1093              	 .cfi_def_cfa_offset 0
 1094 00fe 7047     	 bx lr
 1095              	 .cfi_endproc
 1096              	.LFE152:
 1098              	 .text
 1099              	.Letext0:
 1100              	 .file 2 "c:\\infineon\\tools\\dave ide\\4.5.0.202105191637\\eclipse\\arm-gcc-49\\arm-none-eabi\\include\\machine\\_default_types.h"
 1101              	 .file 3 "c:\\infineon\\tools\\dave ide\\4.5.0.202105191637\\eclipse\\arm-gcc-49\\arm-none-eabi\\include\\stdint.h"
 1102              	 .file 4 "C:/Users/Rui Mendes/Desktop/DAVE/_Naive/_ForTesting/Libraries/CMSIS/Include/cmsis_gcc.h"