   1              	 .syntax unified
   2              	 .cpu cortex-m4
   3              	 .eabi_attribute 27,3
   4              	 .fpu fpv4-sp-d16
   5              	 .eabi_attribute 20,1
   6              	 .eabi_attribute 21,1
   7              	 .eabi_attribute 23,3
   8              	 .eabi_attribute 24,1
   9              	 .eabi_attribute 25,1
  10              	 .eabi_attribute 26,1
  11              	 .eabi_attribute 30,6
  12              	 .eabi_attribute 34,1
  13              	 .eabi_attribute 18,4
  14              	 .thumb
  15              	 .file "arm_chebyshev_distance_f32.c"
  16              	 .text
  17              	.Ltext0:
  18              	 .cfi_sections .debug_frame
  19              	 .section .text.arm_chebyshev_distance_f32,"ax",%progbits
  20              	 .align 2
  21              	 .global arm_chebyshev_distance_f32
  22              	 .thumb
  23              	 .thumb_func
  25              	arm_chebyshev_distance_f32:
  26              	.LFB149:
  27              	 .file 1 "../Dave/Generated/CMSIS_DSP/Source/DistanceFunctions/arm_chebyshev_distance_f32.c"
   1:../Dave/Generated/CMSIS_DSP/Source/DistanceFunctions/arm_chebyshev_distance_f32.c **** 
   2:../Dave/Generated/CMSIS_DSP/Source/DistanceFunctions/arm_chebyshev_distance_f32.c **** /* ----------------------------------------------------------------------
   3:../Dave/Generated/CMSIS_DSP/Source/DistanceFunctions/arm_chebyshev_distance_f32.c ****  * Project:      CMSIS DSP Library
   4:../Dave/Generated/CMSIS_DSP/Source/DistanceFunctions/arm_chebyshev_distance_f32.c ****  * Title:        arm_chebyshev_distance_f32.c
   5:../Dave/Generated/CMSIS_DSP/Source/DistanceFunctions/arm_chebyshev_distance_f32.c ****  * Description:  Chebyshev distance between two vectors
   6:../Dave/Generated/CMSIS_DSP/Source/DistanceFunctions/arm_chebyshev_distance_f32.c ****  *
   7:../Dave/Generated/CMSIS_DSP/Source/DistanceFunctions/arm_chebyshev_distance_f32.c ****  *
   8:../Dave/Generated/CMSIS_DSP/Source/DistanceFunctions/arm_chebyshev_distance_f32.c ****  * Target Processor: Cortex-M cores
   9:../Dave/Generated/CMSIS_DSP/Source/DistanceFunctions/arm_chebyshev_distance_f32.c ****  * -------------------------------------------------------------------- */
  10:../Dave/Generated/CMSIS_DSP/Source/DistanceFunctions/arm_chebyshev_distance_f32.c **** /*
  11:../Dave/Generated/CMSIS_DSP/Source/DistanceFunctions/arm_chebyshev_distance_f32.c ****  * Copyright (C) 2010-2019 ARM Limited or its affiliates. All rights reserved.
  12:../Dave/Generated/CMSIS_DSP/Source/DistanceFunctions/arm_chebyshev_distance_f32.c ****  *
  13:../Dave/Generated/CMSIS_DSP/Source/DistanceFunctions/arm_chebyshev_distance_f32.c ****  * SPDX-License-Identifier: Apache-2.0
  14:../Dave/Generated/CMSIS_DSP/Source/DistanceFunctions/arm_chebyshev_distance_f32.c ****  *
  15:../Dave/Generated/CMSIS_DSP/Source/DistanceFunctions/arm_chebyshev_distance_f32.c ****  * Licensed under the Apache License, Version 2.0 (the License); you may
  16:../Dave/Generated/CMSIS_DSP/Source/DistanceFunctions/arm_chebyshev_distance_f32.c ****  * not use this file except in compliance with the License.
  17:../Dave/Generated/CMSIS_DSP/Source/DistanceFunctions/arm_chebyshev_distance_f32.c ****  * You may obtain a copy of the License at
  18:../Dave/Generated/CMSIS_DSP/Source/DistanceFunctions/arm_chebyshev_distance_f32.c ****  *
  19:../Dave/Generated/CMSIS_DSP/Source/DistanceFunctions/arm_chebyshev_distance_f32.c ****  * www.apache.org/licenses/LICENSE-2.0
  20:../Dave/Generated/CMSIS_DSP/Source/DistanceFunctions/arm_chebyshev_distance_f32.c ****  *
  21:../Dave/Generated/CMSIS_DSP/Source/DistanceFunctions/arm_chebyshev_distance_f32.c ****  * Unless required by applicable law or agreed to in writing, software
  22:../Dave/Generated/CMSIS_DSP/Source/DistanceFunctions/arm_chebyshev_distance_f32.c ****  * distributed under the License is distributed on an AS IS BASIS, WITHOUT
  23:../Dave/Generated/CMSIS_DSP/Source/DistanceFunctions/arm_chebyshev_distance_f32.c ****  * WARRANTIES OR CONDITIONS OF ANY KIND, either express or implied.
  24:../Dave/Generated/CMSIS_DSP/Source/DistanceFunctions/arm_chebyshev_distance_f32.c ****  * See the License for the specific language governing permissions and
  25:../Dave/Generated/CMSIS_DSP/Source/DistanceFunctions/arm_chebyshev_distance_f32.c ****  * limitations under the License.
  26:../Dave/Generated/CMSIS_DSP/Source/DistanceFunctions/arm_chebyshev_distance_f32.c ****  */
  27:../Dave/Generated/CMSIS_DSP/Source/DistanceFunctions/arm_chebyshev_distance_f32.c **** 
  28:../Dave/Generated/CMSIS_DSP/Source/DistanceFunctions/arm_chebyshev_distance_f32.c **** #include "CMSIS_DSP/cmsis_dsp.h"
  29:../Dave/Generated/CMSIS_DSP/Source/DistanceFunctions/arm_chebyshev_distance_f32.c **** #include <limits.h>
  30:../Dave/Generated/CMSIS_DSP/Source/DistanceFunctions/arm_chebyshev_distance_f32.c **** #include <math.h>
  31:../Dave/Generated/CMSIS_DSP/Source/DistanceFunctions/arm_chebyshev_distance_f32.c **** 
  32:../Dave/Generated/CMSIS_DSP/Source/DistanceFunctions/arm_chebyshev_distance_f32.c **** 
  33:../Dave/Generated/CMSIS_DSP/Source/DistanceFunctions/arm_chebyshev_distance_f32.c **** /**
  34:../Dave/Generated/CMSIS_DSP/Source/DistanceFunctions/arm_chebyshev_distance_f32.c ****   @addtogroup FloatDist
  35:../Dave/Generated/CMSIS_DSP/Source/DistanceFunctions/arm_chebyshev_distance_f32.c ****   @{
  36:../Dave/Generated/CMSIS_DSP/Source/DistanceFunctions/arm_chebyshev_distance_f32.c ****  */
  37:../Dave/Generated/CMSIS_DSP/Source/DistanceFunctions/arm_chebyshev_distance_f32.c **** 
  38:../Dave/Generated/CMSIS_DSP/Source/DistanceFunctions/arm_chebyshev_distance_f32.c **** 
  39:../Dave/Generated/CMSIS_DSP/Source/DistanceFunctions/arm_chebyshev_distance_f32.c **** /**
  40:../Dave/Generated/CMSIS_DSP/Source/DistanceFunctions/arm_chebyshev_distance_f32.c ****  * @brief        Chebyshev distance between two vectors
  41:../Dave/Generated/CMSIS_DSP/Source/DistanceFunctions/arm_chebyshev_distance_f32.c ****  * @param[in]    pA         First vector
  42:../Dave/Generated/CMSIS_DSP/Source/DistanceFunctions/arm_chebyshev_distance_f32.c ****  * @param[in]    pB         Second vector
  43:../Dave/Generated/CMSIS_DSP/Source/DistanceFunctions/arm_chebyshev_distance_f32.c ****  * @param[in]    blockSize  vector length
  44:../Dave/Generated/CMSIS_DSP/Source/DistanceFunctions/arm_chebyshev_distance_f32.c ****  * @return distance
  45:../Dave/Generated/CMSIS_DSP/Source/DistanceFunctions/arm_chebyshev_distance_f32.c ****  *
  46:../Dave/Generated/CMSIS_DSP/Source/DistanceFunctions/arm_chebyshev_distance_f32.c ****  */
  47:../Dave/Generated/CMSIS_DSP/Source/DistanceFunctions/arm_chebyshev_distance_f32.c **** 
  48:../Dave/Generated/CMSIS_DSP/Source/DistanceFunctions/arm_chebyshev_distance_f32.c **** #if defined(ARM_MATH_MVEF) && !defined(ARM_MATH_AUTOVECTORIZE)
  49:../Dave/Generated/CMSIS_DSP/Source/DistanceFunctions/arm_chebyshev_distance_f32.c **** 
  50:../Dave/Generated/CMSIS_DSP/Source/DistanceFunctions/arm_chebyshev_distance_f32.c **** #include "CMSIS_DSP/Include/arm_helium_utils.h"
  51:../Dave/Generated/CMSIS_DSP/Source/DistanceFunctions/arm_chebyshev_distance_f32.c **** #include "CMSIS_DSP/Include/arm_vec_math.h"
  52:../Dave/Generated/CMSIS_DSP/Source/DistanceFunctions/arm_chebyshev_distance_f32.c **** 
  53:../Dave/Generated/CMSIS_DSP/Source/DistanceFunctions/arm_chebyshev_distance_f32.c **** float32_t arm_chebyshev_distance_f32(const float32_t *pA,const float32_t *pB, uint32_t blockSize)
  54:../Dave/Generated/CMSIS_DSP/Source/DistanceFunctions/arm_chebyshev_distance_f32.c **** {
  55:../Dave/Generated/CMSIS_DSP/Source/DistanceFunctions/arm_chebyshev_distance_f32.c ****     uint32_t        blkCnt;     /* loop counters */
  56:../Dave/Generated/CMSIS_DSP/Source/DistanceFunctions/arm_chebyshev_distance_f32.c ****     f32x4_t         vecA, vecB;
  57:../Dave/Generated/CMSIS_DSP/Source/DistanceFunctions/arm_chebyshev_distance_f32.c ****     f32x4_t         vecDiff = vdupq_n_f32(0.0);
  58:../Dave/Generated/CMSIS_DSP/Source/DistanceFunctions/arm_chebyshev_distance_f32.c ****     float32_t       maxValue = 0.0;
  59:../Dave/Generated/CMSIS_DSP/Source/DistanceFunctions/arm_chebyshev_distance_f32.c **** 
  60:../Dave/Generated/CMSIS_DSP/Source/DistanceFunctions/arm_chebyshev_distance_f32.c **** 
  61:../Dave/Generated/CMSIS_DSP/Source/DistanceFunctions/arm_chebyshev_distance_f32.c ****     blkCnt = blockSize >> 2;
  62:../Dave/Generated/CMSIS_DSP/Source/DistanceFunctions/arm_chebyshev_distance_f32.c ****     while (blkCnt > 0U) {
  63:../Dave/Generated/CMSIS_DSP/Source/DistanceFunctions/arm_chebyshev_distance_f32.c ****         vecA = vld1q(pA);
  64:../Dave/Generated/CMSIS_DSP/Source/DistanceFunctions/arm_chebyshev_distance_f32.c ****         pA += 4;
  65:../Dave/Generated/CMSIS_DSP/Source/DistanceFunctions/arm_chebyshev_distance_f32.c ****         vecB = vld1q(pB);
  66:../Dave/Generated/CMSIS_DSP/Source/DistanceFunctions/arm_chebyshev_distance_f32.c ****         pB += 4;
  67:../Dave/Generated/CMSIS_DSP/Source/DistanceFunctions/arm_chebyshev_distance_f32.c ****         /*
  68:../Dave/Generated/CMSIS_DSP/Source/DistanceFunctions/arm_chebyshev_distance_f32.c ****          * update per-lane max.
  69:../Dave/Generated/CMSIS_DSP/Source/DistanceFunctions/arm_chebyshev_distance_f32.c ****          */
  70:../Dave/Generated/CMSIS_DSP/Source/DistanceFunctions/arm_chebyshev_distance_f32.c ****         vecDiff = vmaxnmaq(vsubq(vecA, vecB), vecDiff);
  71:../Dave/Generated/CMSIS_DSP/Source/DistanceFunctions/arm_chebyshev_distance_f32.c ****         /*
  72:../Dave/Generated/CMSIS_DSP/Source/DistanceFunctions/arm_chebyshev_distance_f32.c ****          * Decrement the blockSize loop counter
  73:../Dave/Generated/CMSIS_DSP/Source/DistanceFunctions/arm_chebyshev_distance_f32.c ****          */
  74:../Dave/Generated/CMSIS_DSP/Source/DistanceFunctions/arm_chebyshev_distance_f32.c ****         blkCnt--;
  75:../Dave/Generated/CMSIS_DSP/Source/DistanceFunctions/arm_chebyshev_distance_f32.c ****     }
  76:../Dave/Generated/CMSIS_DSP/Source/DistanceFunctions/arm_chebyshev_distance_f32.c ****     /*
  77:../Dave/Generated/CMSIS_DSP/Source/DistanceFunctions/arm_chebyshev_distance_f32.c ****      * tail
  78:../Dave/Generated/CMSIS_DSP/Source/DistanceFunctions/arm_chebyshev_distance_f32.c ****      * (will be merged thru tail predication)
  79:../Dave/Generated/CMSIS_DSP/Source/DistanceFunctions/arm_chebyshev_distance_f32.c ****      */
  80:../Dave/Generated/CMSIS_DSP/Source/DistanceFunctions/arm_chebyshev_distance_f32.c ****     blkCnt = blockSize & 3;
  81:../Dave/Generated/CMSIS_DSP/Source/DistanceFunctions/arm_chebyshev_distance_f32.c ****     if (blkCnt > 0U) {
  82:../Dave/Generated/CMSIS_DSP/Source/DistanceFunctions/arm_chebyshev_distance_f32.c ****         mve_pred16_t    p0 = vctp32q(blkCnt);
  83:../Dave/Generated/CMSIS_DSP/Source/DistanceFunctions/arm_chebyshev_distance_f32.c **** 
  84:../Dave/Generated/CMSIS_DSP/Source/DistanceFunctions/arm_chebyshev_distance_f32.c ****         vecA = vldrwq_z_f32(pA, p0);
  85:../Dave/Generated/CMSIS_DSP/Source/DistanceFunctions/arm_chebyshev_distance_f32.c ****         vecB = vldrwq_z_f32(pB, p0);
  86:../Dave/Generated/CMSIS_DSP/Source/DistanceFunctions/arm_chebyshev_distance_f32.c **** 
  87:../Dave/Generated/CMSIS_DSP/Source/DistanceFunctions/arm_chebyshev_distance_f32.c ****         /*
  88:../Dave/Generated/CMSIS_DSP/Source/DistanceFunctions/arm_chebyshev_distance_f32.c ****          * Get current max per lane and current index per lane
  89:../Dave/Generated/CMSIS_DSP/Source/DistanceFunctions/arm_chebyshev_distance_f32.c ****          * when a max is selected
  90:../Dave/Generated/CMSIS_DSP/Source/DistanceFunctions/arm_chebyshev_distance_f32.c ****          */
  91:../Dave/Generated/CMSIS_DSP/Source/DistanceFunctions/arm_chebyshev_distance_f32.c ****         vecDiff = vmaxnmaq_m(vecDiff, vsubq(vecA, vecB), p0);
  92:../Dave/Generated/CMSIS_DSP/Source/DistanceFunctions/arm_chebyshev_distance_f32.c ****     }
  93:../Dave/Generated/CMSIS_DSP/Source/DistanceFunctions/arm_chebyshev_distance_f32.c ****     /*
  94:../Dave/Generated/CMSIS_DSP/Source/DistanceFunctions/arm_chebyshev_distance_f32.c ****      * Get max value across the vector
  95:../Dave/Generated/CMSIS_DSP/Source/DistanceFunctions/arm_chebyshev_distance_f32.c ****      */
  96:../Dave/Generated/CMSIS_DSP/Source/DistanceFunctions/arm_chebyshev_distance_f32.c ****     return vmaxnmavq(maxValue, vecDiff);
  97:../Dave/Generated/CMSIS_DSP/Source/DistanceFunctions/arm_chebyshev_distance_f32.c **** }
  98:../Dave/Generated/CMSIS_DSP/Source/DistanceFunctions/arm_chebyshev_distance_f32.c **** 
  99:../Dave/Generated/CMSIS_DSP/Source/DistanceFunctions/arm_chebyshev_distance_f32.c **** #else
 100:../Dave/Generated/CMSIS_DSP/Source/DistanceFunctions/arm_chebyshev_distance_f32.c **** #if defined(ARM_MATH_NEON)
 101:../Dave/Generated/CMSIS_DSP/Source/DistanceFunctions/arm_chebyshev_distance_f32.c **** 
 102:../Dave/Generated/CMSIS_DSP/Source/DistanceFunctions/arm_chebyshev_distance_f32.c **** #include "NEMath.h"
 103:../Dave/Generated/CMSIS_DSP/Source/DistanceFunctions/arm_chebyshev_distance_f32.c **** 
 104:../Dave/Generated/CMSIS_DSP/Source/DistanceFunctions/arm_chebyshev_distance_f32.c **** float32_t arm_chebyshev_distance_f32(const float32_t *pA,const float32_t *pB, uint32_t blockSize)
 105:../Dave/Generated/CMSIS_DSP/Source/DistanceFunctions/arm_chebyshev_distance_f32.c **** {
 106:../Dave/Generated/CMSIS_DSP/Source/DistanceFunctions/arm_chebyshev_distance_f32.c ****    float32_t diff=0.0f, maxVal=0.0f, tmpA, tmpB;
 107:../Dave/Generated/CMSIS_DSP/Source/DistanceFunctions/arm_chebyshev_distance_f32.c ****    uint32_t blkCnt;
 108:../Dave/Generated/CMSIS_DSP/Source/DistanceFunctions/arm_chebyshev_distance_f32.c ****    float32x4_t a,b,diffV, maxValV;
 109:../Dave/Generated/CMSIS_DSP/Source/DistanceFunctions/arm_chebyshev_distance_f32.c ****    float32x2_t maxValV2;
 110:../Dave/Generated/CMSIS_DSP/Source/DistanceFunctions/arm_chebyshev_distance_f32.c **** 
 111:../Dave/Generated/CMSIS_DSP/Source/DistanceFunctions/arm_chebyshev_distance_f32.c ****    if (blockSize <= 3)
 112:../Dave/Generated/CMSIS_DSP/Source/DistanceFunctions/arm_chebyshev_distance_f32.c ****    {
 113:../Dave/Generated/CMSIS_DSP/Source/DistanceFunctions/arm_chebyshev_distance_f32.c ****       tmpA = *pA++;
 114:../Dave/Generated/CMSIS_DSP/Source/DistanceFunctions/arm_chebyshev_distance_f32.c ****       tmpB = *pB++;
 115:../Dave/Generated/CMSIS_DSP/Source/DistanceFunctions/arm_chebyshev_distance_f32.c ****       diff = fabsf(tmpA - tmpB);
 116:../Dave/Generated/CMSIS_DSP/Source/DistanceFunctions/arm_chebyshev_distance_f32.c ****       maxVal = diff;
 117:../Dave/Generated/CMSIS_DSP/Source/DistanceFunctions/arm_chebyshev_distance_f32.c ****       blockSize--;
 118:../Dave/Generated/CMSIS_DSP/Source/DistanceFunctions/arm_chebyshev_distance_f32.c ****    
 119:../Dave/Generated/CMSIS_DSP/Source/DistanceFunctions/arm_chebyshev_distance_f32.c ****       while(blockSize > 0)
 120:../Dave/Generated/CMSIS_DSP/Source/DistanceFunctions/arm_chebyshev_distance_f32.c ****       {
 121:../Dave/Generated/CMSIS_DSP/Source/DistanceFunctions/arm_chebyshev_distance_f32.c ****          tmpA = *pA++;
 122:../Dave/Generated/CMSIS_DSP/Source/DistanceFunctions/arm_chebyshev_distance_f32.c ****          tmpB = *pB++;
 123:../Dave/Generated/CMSIS_DSP/Source/DistanceFunctions/arm_chebyshev_distance_f32.c ****          diff = fabsf(tmpA - tmpB);
 124:../Dave/Generated/CMSIS_DSP/Source/DistanceFunctions/arm_chebyshev_distance_f32.c ****          if (diff > maxVal)
 125:../Dave/Generated/CMSIS_DSP/Source/DistanceFunctions/arm_chebyshev_distance_f32.c ****          {
 126:../Dave/Generated/CMSIS_DSP/Source/DistanceFunctions/arm_chebyshev_distance_f32.c ****            maxVal = diff;
 127:../Dave/Generated/CMSIS_DSP/Source/DistanceFunctions/arm_chebyshev_distance_f32.c ****          }
 128:../Dave/Generated/CMSIS_DSP/Source/DistanceFunctions/arm_chebyshev_distance_f32.c ****          blockSize --;
 129:../Dave/Generated/CMSIS_DSP/Source/DistanceFunctions/arm_chebyshev_distance_f32.c ****       }
 130:../Dave/Generated/CMSIS_DSP/Source/DistanceFunctions/arm_chebyshev_distance_f32.c ****    }
 131:../Dave/Generated/CMSIS_DSP/Source/DistanceFunctions/arm_chebyshev_distance_f32.c ****    else
 132:../Dave/Generated/CMSIS_DSP/Source/DistanceFunctions/arm_chebyshev_distance_f32.c ****    {
 133:../Dave/Generated/CMSIS_DSP/Source/DistanceFunctions/arm_chebyshev_distance_f32.c **** 
 134:../Dave/Generated/CMSIS_DSP/Source/DistanceFunctions/arm_chebyshev_distance_f32.c ****       a = vld1q_f32(pA);
 135:../Dave/Generated/CMSIS_DSP/Source/DistanceFunctions/arm_chebyshev_distance_f32.c ****       b = vld1q_f32(pB);
 136:../Dave/Generated/CMSIS_DSP/Source/DistanceFunctions/arm_chebyshev_distance_f32.c ****       pA += 4;
 137:../Dave/Generated/CMSIS_DSP/Source/DistanceFunctions/arm_chebyshev_distance_f32.c ****       pB += 4;
 138:../Dave/Generated/CMSIS_DSP/Source/DistanceFunctions/arm_chebyshev_distance_f32.c **** 
 139:../Dave/Generated/CMSIS_DSP/Source/DistanceFunctions/arm_chebyshev_distance_f32.c ****       diffV = vabdq_f32(a,b);
 140:../Dave/Generated/CMSIS_DSP/Source/DistanceFunctions/arm_chebyshev_distance_f32.c **** 
 141:../Dave/Generated/CMSIS_DSP/Source/DistanceFunctions/arm_chebyshev_distance_f32.c ****       blockSize -= 4;
 142:../Dave/Generated/CMSIS_DSP/Source/DistanceFunctions/arm_chebyshev_distance_f32.c **** 
 143:../Dave/Generated/CMSIS_DSP/Source/DistanceFunctions/arm_chebyshev_distance_f32.c ****       maxValV = diffV;
 144:../Dave/Generated/CMSIS_DSP/Source/DistanceFunctions/arm_chebyshev_distance_f32.c **** 
 145:../Dave/Generated/CMSIS_DSP/Source/DistanceFunctions/arm_chebyshev_distance_f32.c ****   
 146:../Dave/Generated/CMSIS_DSP/Source/DistanceFunctions/arm_chebyshev_distance_f32.c ****       blkCnt = blockSize >> 2;
 147:../Dave/Generated/CMSIS_DSP/Source/DistanceFunctions/arm_chebyshev_distance_f32.c ****       while(blkCnt > 0)
 148:../Dave/Generated/CMSIS_DSP/Source/DistanceFunctions/arm_chebyshev_distance_f32.c ****       {
 149:../Dave/Generated/CMSIS_DSP/Source/DistanceFunctions/arm_chebyshev_distance_f32.c ****            a = vld1q_f32(pA);
 150:../Dave/Generated/CMSIS_DSP/Source/DistanceFunctions/arm_chebyshev_distance_f32.c ****            b = vld1q_f32(pB);
 151:../Dave/Generated/CMSIS_DSP/Source/DistanceFunctions/arm_chebyshev_distance_f32.c ****    
 152:../Dave/Generated/CMSIS_DSP/Source/DistanceFunctions/arm_chebyshev_distance_f32.c ****            diffV = vabdq_f32(a,b);
 153:../Dave/Generated/CMSIS_DSP/Source/DistanceFunctions/arm_chebyshev_distance_f32.c ****            maxValV = vmaxq_f32(maxValV, diffV);
 154:../Dave/Generated/CMSIS_DSP/Source/DistanceFunctions/arm_chebyshev_distance_f32.c ****    
 155:../Dave/Generated/CMSIS_DSP/Source/DistanceFunctions/arm_chebyshev_distance_f32.c ****            pA += 4;
 156:../Dave/Generated/CMSIS_DSP/Source/DistanceFunctions/arm_chebyshev_distance_f32.c ****            pB += 4;
 157:../Dave/Generated/CMSIS_DSP/Source/DistanceFunctions/arm_chebyshev_distance_f32.c ****            blkCnt --;
 158:../Dave/Generated/CMSIS_DSP/Source/DistanceFunctions/arm_chebyshev_distance_f32.c ****       }
 159:../Dave/Generated/CMSIS_DSP/Source/DistanceFunctions/arm_chebyshev_distance_f32.c ****       maxValV2 = vpmax_f32(vget_low_f32(maxValV),vget_high_f32(maxValV));
 160:../Dave/Generated/CMSIS_DSP/Source/DistanceFunctions/arm_chebyshev_distance_f32.c ****       maxValV2 = vpmax_f32(maxValV2,maxValV2);
 161:../Dave/Generated/CMSIS_DSP/Source/DistanceFunctions/arm_chebyshev_distance_f32.c ****       maxVal = vget_lane_f32(maxValV2,0);
 162:../Dave/Generated/CMSIS_DSP/Source/DistanceFunctions/arm_chebyshev_distance_f32.c **** 
 163:../Dave/Generated/CMSIS_DSP/Source/DistanceFunctions/arm_chebyshev_distance_f32.c ****   
 164:../Dave/Generated/CMSIS_DSP/Source/DistanceFunctions/arm_chebyshev_distance_f32.c ****       blkCnt = blockSize & 3;
 165:../Dave/Generated/CMSIS_DSP/Source/DistanceFunctions/arm_chebyshev_distance_f32.c ****       while(blkCnt > 0)
 166:../Dave/Generated/CMSIS_DSP/Source/DistanceFunctions/arm_chebyshev_distance_f32.c ****       {
 167:../Dave/Generated/CMSIS_DSP/Source/DistanceFunctions/arm_chebyshev_distance_f32.c ****          tmpA = *pA++;
 168:../Dave/Generated/CMSIS_DSP/Source/DistanceFunctions/arm_chebyshev_distance_f32.c ****          tmpB = *pB++;
 169:../Dave/Generated/CMSIS_DSP/Source/DistanceFunctions/arm_chebyshev_distance_f32.c ****          diff = fabsf(tmpA - tmpB);
 170:../Dave/Generated/CMSIS_DSP/Source/DistanceFunctions/arm_chebyshev_distance_f32.c ****          if (diff > maxVal)
 171:../Dave/Generated/CMSIS_DSP/Source/DistanceFunctions/arm_chebyshev_distance_f32.c ****          {
 172:../Dave/Generated/CMSIS_DSP/Source/DistanceFunctions/arm_chebyshev_distance_f32.c ****             maxVal = diff;
 173:../Dave/Generated/CMSIS_DSP/Source/DistanceFunctions/arm_chebyshev_distance_f32.c ****          }
 174:../Dave/Generated/CMSIS_DSP/Source/DistanceFunctions/arm_chebyshev_distance_f32.c ****          blkCnt --;
 175:../Dave/Generated/CMSIS_DSP/Source/DistanceFunctions/arm_chebyshev_distance_f32.c ****       }
 176:../Dave/Generated/CMSIS_DSP/Source/DistanceFunctions/arm_chebyshev_distance_f32.c ****    }
 177:../Dave/Generated/CMSIS_DSP/Source/DistanceFunctions/arm_chebyshev_distance_f32.c ****    return(maxVal);
 178:../Dave/Generated/CMSIS_DSP/Source/DistanceFunctions/arm_chebyshev_distance_f32.c **** }
 179:../Dave/Generated/CMSIS_DSP/Source/DistanceFunctions/arm_chebyshev_distance_f32.c **** 
 180:../Dave/Generated/CMSIS_DSP/Source/DistanceFunctions/arm_chebyshev_distance_f32.c **** #else
 181:../Dave/Generated/CMSIS_DSP/Source/DistanceFunctions/arm_chebyshev_distance_f32.c **** float32_t arm_chebyshev_distance_f32(const float32_t *pA,const float32_t *pB, uint32_t blockSize)
 182:../Dave/Generated/CMSIS_DSP/Source/DistanceFunctions/arm_chebyshev_distance_f32.c **** {
  28              	 .loc 1 182 0
  29              	 .cfi_startproc
  30              	 
  31              	 
  32              	 
  33 0000 80B4     	 push {r7}
  34              	.LCFI0:
  35              	 .cfi_def_cfa_offset 4
  36              	 .cfi_offset 7,-4
  37 0002 89B0     	 sub sp,sp,#36
  38              	.LCFI1:
  39              	 .cfi_def_cfa_offset 40
  40 0004 00AF     	 add r7,sp,#0
  41              	.LCFI2:
  42              	 .cfi_def_cfa_register 7
  43 0006 F860     	 str r0,[r7,#12]
  44 0008 B960     	 str r1,[r7,#8]
  45 000a 7A60     	 str r2,[r7,#4]
 183:../Dave/Generated/CMSIS_DSP/Source/DistanceFunctions/arm_chebyshev_distance_f32.c ****    float32_t diff=0.0f,  maxVal,tmpA, tmpB;
  46              	 .loc 1 183 0
  47 000c 4FF00003 	 mov r3,#0
  48 0010 BB61     	 str r3,[r7,#24]
 184:../Dave/Generated/CMSIS_DSP/Source/DistanceFunctions/arm_chebyshev_distance_f32.c **** 
 185:../Dave/Generated/CMSIS_DSP/Source/DistanceFunctions/arm_chebyshev_distance_f32.c ****    tmpA = *pA++;
  49              	 .loc 1 185 0
  50 0012 FB68     	 ldr r3,[r7,#12]
  51 0014 1A1D     	 adds r2,r3,#4
  52 0016 FA60     	 str r2,[r7,#12]
  53 0018 1B68     	 ldr r3,[r3]
  54 001a 7B61     	 str r3,[r7,#20]
 186:../Dave/Generated/CMSIS_DSP/Source/DistanceFunctions/arm_chebyshev_distance_f32.c ****    tmpB = *pB++;
  55              	 .loc 1 186 0
  56 001c BB68     	 ldr r3,[r7,#8]
  57 001e 1A1D     	 adds r2,r3,#4
  58 0020 BA60     	 str r2,[r7,#8]
  59 0022 1B68     	 ldr r3,[r3]
  60 0024 3B61     	 str r3,[r7,#16]
 187:../Dave/Generated/CMSIS_DSP/Source/DistanceFunctions/arm_chebyshev_distance_f32.c ****    diff = fabsf(tmpA - tmpB);
  61              	 .loc 1 187 0
  62 0026 97ED057A 	 flds s14,[r7,#20]
  63 002a D7ED047A 	 flds s15,[r7,#16]
  64 002e 77EE677A 	 fsubs s15,s14,s15
  65 0032 F0EEE77A 	 fabss s15,s15
  66 0036 C7ED067A 	 fsts s15,[r7,#24]
 188:../Dave/Generated/CMSIS_DSP/Source/DistanceFunctions/arm_chebyshev_distance_f32.c ****    maxVal = diff;
  67              	 .loc 1 188 0
  68 003a BB69     	 ldr r3,[r7,#24]
  69 003c FB61     	 str r3,[r7,#28]
 189:../Dave/Generated/CMSIS_DSP/Source/DistanceFunctions/arm_chebyshev_distance_f32.c ****    blockSize--;
  70              	 .loc 1 189 0
  71 003e 7B68     	 ldr r3,[r7,#4]
  72 0040 013B     	 subs r3,r3,#1
  73 0042 7B60     	 str r3,[r7,#4]
 190:../Dave/Generated/CMSIS_DSP/Source/DistanceFunctions/arm_chebyshev_distance_f32.c **** 
 191:../Dave/Generated/CMSIS_DSP/Source/DistanceFunctions/arm_chebyshev_distance_f32.c ****    while(blockSize > 0)
  74              	 .loc 1 191 0
  75 0044 21E0     	 b .L2
  76              	.L5:
 192:../Dave/Generated/CMSIS_DSP/Source/DistanceFunctions/arm_chebyshev_distance_f32.c ****    {
 193:../Dave/Generated/CMSIS_DSP/Source/DistanceFunctions/arm_chebyshev_distance_f32.c ****       tmpA = *pA++;
  77              	 .loc 1 193 0
  78 0046 FB68     	 ldr r3,[r7,#12]
  79 0048 1A1D     	 adds r2,r3,#4
  80 004a FA60     	 str r2,[r7,#12]
  81 004c 1B68     	 ldr r3,[r3]
  82 004e 7B61     	 str r3,[r7,#20]
 194:../Dave/Generated/CMSIS_DSP/Source/DistanceFunctions/arm_chebyshev_distance_f32.c ****       tmpB = *pB++;
  83              	 .loc 1 194 0
  84 0050 BB68     	 ldr r3,[r7,#8]
  85 0052 1A1D     	 adds r2,r3,#4
  86 0054 BA60     	 str r2,[r7,#8]
  87 0056 1B68     	 ldr r3,[r3]
  88 0058 3B61     	 str r3,[r7,#16]
 195:../Dave/Generated/CMSIS_DSP/Source/DistanceFunctions/arm_chebyshev_distance_f32.c ****       diff = fabsf(tmpA - tmpB);
  89              	 .loc 1 195 0
  90 005a 97ED057A 	 flds s14,[r7,#20]
  91 005e D7ED047A 	 flds s15,[r7,#16]
  92 0062 77EE677A 	 fsubs s15,s14,s15
  93 0066 F0EEE77A 	 fabss s15,s15
  94 006a C7ED067A 	 fsts s15,[r7,#24]
 196:../Dave/Generated/CMSIS_DSP/Source/DistanceFunctions/arm_chebyshev_distance_f32.c ****       if (diff > maxVal)
  95              	 .loc 1 196 0
  96 006e 97ED067A 	 flds s14,[r7,#24]
  97 0072 D7ED077A 	 flds s15,[r7,#28]
  98 0076 B4EEE77A 	 fcmpes s14,s15
  99 007a F1EE10FA 	 fmstat
 100 007e 01DD     	 ble .L3
 197:../Dave/Generated/CMSIS_DSP/Source/DistanceFunctions/arm_chebyshev_distance_f32.c ****       {
 198:../Dave/Generated/CMSIS_DSP/Source/DistanceFunctions/arm_chebyshev_distance_f32.c ****         maxVal = diff;
 101              	 .loc 1 198 0
 102 0080 BB69     	 ldr r3,[r7,#24]
 103 0082 FB61     	 str r3,[r7,#28]
 104              	.L3:
 199:../Dave/Generated/CMSIS_DSP/Source/DistanceFunctions/arm_chebyshev_distance_f32.c ****       }
 200:../Dave/Generated/CMSIS_DSP/Source/DistanceFunctions/arm_chebyshev_distance_f32.c ****       blockSize --;
 105              	 .loc 1 200 0
 106 0084 7B68     	 ldr r3,[r7,#4]
 107 0086 013B     	 subs r3,r3,#1
 108 0088 7B60     	 str r3,[r7,#4]
 109              	.L2:
 191:../Dave/Generated/CMSIS_DSP/Source/DistanceFunctions/arm_chebyshev_distance_f32.c ****    {
 110              	 .loc 1 191 0
 111 008a 7B68     	 ldr r3,[r7,#4]
 112 008c 002B     	 cmp r3,#0
 113 008e DAD1     	 bne .L5
 201:../Dave/Generated/CMSIS_DSP/Source/DistanceFunctions/arm_chebyshev_distance_f32.c ****    }
 202:../Dave/Generated/CMSIS_DSP/Source/DistanceFunctions/arm_chebyshev_distance_f32.c ****   
 203:../Dave/Generated/CMSIS_DSP/Source/DistanceFunctions/arm_chebyshev_distance_f32.c ****    return(maxVal);
 114              	 .loc 1 203 0
 115 0090 FB69     	 ldr r3,[r7,#28]
 204:../Dave/Generated/CMSIS_DSP/Source/DistanceFunctions/arm_chebyshev_distance_f32.c **** }
 116              	 .loc 1 204 0
 117 0092 1846     	 mov r0,r3
 118 0094 2437     	 adds r7,r7,#36
 119              	.LCFI3:
 120              	 .cfi_def_cfa_offset 4
 121 0096 BD46     	 mov sp,r7
 122              	.LCFI4:
 123              	 .cfi_def_cfa_register 13
 124              	 
 125 0098 5DF8047B 	 ldr r7,[sp],#4
 126              	.LCFI5:
 127              	 .cfi_restore 7
 128              	 .cfi_def_cfa_offset 0
 129 009c 7047     	 bx lr
 130              	 .cfi_endproc
 131              	.LFE149:
 133 009e 00BF     	 .text
 134              	.Letext0:
 135              	 .file 2 "c:\\infineon\\tools\\dave ide\\4.5.0.202105191637\\eclipse\\arm-gcc-49\\arm-none-eabi\\include\\machine\\_default_types.h"
 136              	 .file 3 "c:\\infineon\\tools\\dave ide\\4.5.0.202105191637\\eclipse\\arm-gcc-49\\arm-none-eabi\\include\\stdint.h"
 137              	 .file 4 "C:/Users/Rui Mendes/Desktop/DAVE/_Naive/_ForTesting/Dave/Generated/CMSIS_DSP/Include/arm_math.h"
 138              	 .file 5 "C:/Users/Rui Mendes/Desktop/DAVE/_Naive/_ForTesting/Libraries/CMSIS/Include/cmsis_gcc.h"