   1              	 .syntax unified
   2              	 .cpu cortex-m4
   3              	 .eabi_attribute 27,3
   4              	 .fpu fpv4-sp-d16
   5              	 .eabi_attribute 20,1
   6              	 .eabi_attribute 21,1
   7              	 .eabi_attribute 23,3
   8              	 .eabi_attribute 24,1
   9              	 .eabi_attribute 25,1
  10              	 .eabi_attribute 26,1
  11              	 .eabi_attribute 30,6
  12              	 .eabi_attribute 34,1
  13              	 .eabi_attribute 18,4
  14              	 .thumb
  15              	 .file "arm_russellrao_distance.c"
  16              	 .text
  17              	.Ltext0:
  18              	 .cfi_sections .debug_frame
  19              	 .global __aeabi_ui2d
  20              	 .global __aeabi_f2d
  21              	 .global __aeabi_ddiv
  22              	 .global __aeabi_d2f
  23              	 .section .text.arm_russellrao_distance,"ax",%progbits
  24              	 .align 2
  25              	 .global arm_russellrao_distance
  26              	 .thumb
  27              	 .thumb_func
  29              	arm_russellrao_distance:
  30              	.LFB149:
  31              	 .file 1 "../Dave/Generated/CMSIS_DSP/Source/DistanceFunctions/arm_russellrao_distance.c"
   1:../Dave/Generated/CMSIS_DSP/Source/DistanceFunctions/arm_russellrao_distance.c **** 
   2:../Dave/Generated/CMSIS_DSP/Source/DistanceFunctions/arm_russellrao_distance.c **** /* ----------------------------------------------------------------------
   3:../Dave/Generated/CMSIS_DSP/Source/DistanceFunctions/arm_russellrao_distance.c ****  * Project:      CMSIS DSP Library
   4:../Dave/Generated/CMSIS_DSP/Source/DistanceFunctions/arm_russellrao_distance.c ****  * Title:        arm_russellrao_distance.c
   5:../Dave/Generated/CMSIS_DSP/Source/DistanceFunctions/arm_russellrao_distance.c ****  * Description:  Russell-Rao distance between two vectors
   6:../Dave/Generated/CMSIS_DSP/Source/DistanceFunctions/arm_russellrao_distance.c ****  *
   7:../Dave/Generated/CMSIS_DSP/Source/DistanceFunctions/arm_russellrao_distance.c ****  *
   8:../Dave/Generated/CMSIS_DSP/Source/DistanceFunctions/arm_russellrao_distance.c ****  * Target Processor: Cortex-M cores
   9:../Dave/Generated/CMSIS_DSP/Source/DistanceFunctions/arm_russellrao_distance.c ****  * -------------------------------------------------------------------- */
  10:../Dave/Generated/CMSIS_DSP/Source/DistanceFunctions/arm_russellrao_distance.c **** /*
  11:../Dave/Generated/CMSIS_DSP/Source/DistanceFunctions/arm_russellrao_distance.c ****  * Copyright (C) 2010-2019 ARM Limited or its affiliates. All rights reserved.
  12:../Dave/Generated/CMSIS_DSP/Source/DistanceFunctions/arm_russellrao_distance.c ****  *
  13:../Dave/Generated/CMSIS_DSP/Source/DistanceFunctions/arm_russellrao_distance.c ****  * SPDX-License-Identifier: Apache-2.0
  14:../Dave/Generated/CMSIS_DSP/Source/DistanceFunctions/arm_russellrao_distance.c ****  *
  15:../Dave/Generated/CMSIS_DSP/Source/DistanceFunctions/arm_russellrao_distance.c ****  * Licensed under the Apache License, Version 2.0 (the License); you may
  16:../Dave/Generated/CMSIS_DSP/Source/DistanceFunctions/arm_russellrao_distance.c ****  * not use this file except in compliance with the License.
  17:../Dave/Generated/CMSIS_DSP/Source/DistanceFunctions/arm_russellrao_distance.c ****  * You may obtain a copy of the License at
  18:../Dave/Generated/CMSIS_DSP/Source/DistanceFunctions/arm_russellrao_distance.c ****  *
  19:../Dave/Generated/CMSIS_DSP/Source/DistanceFunctions/arm_russellrao_distance.c ****  * www.apache.org/licenses/LICENSE-2.0
  20:../Dave/Generated/CMSIS_DSP/Source/DistanceFunctions/arm_russellrao_distance.c ****  *
  21:../Dave/Generated/CMSIS_DSP/Source/DistanceFunctions/arm_russellrao_distance.c ****  * Unless required by applicable law or agreed to in writing, software
  22:../Dave/Generated/CMSIS_DSP/Source/DistanceFunctions/arm_russellrao_distance.c ****  * distributed under the License is distributed on an AS IS BASIS, WITHOUT
  23:../Dave/Generated/CMSIS_DSP/Source/DistanceFunctions/arm_russellrao_distance.c ****  * WARRANTIES OR CONDITIONS OF ANY KIND, either express or implied.
  24:../Dave/Generated/CMSIS_DSP/Source/DistanceFunctions/arm_russellrao_distance.c ****  * See the License for the specific language governing permissions and
  25:../Dave/Generated/CMSIS_DSP/Source/DistanceFunctions/arm_russellrao_distance.c ****  * limitations under the License.
  26:../Dave/Generated/CMSIS_DSP/Source/DistanceFunctions/arm_russellrao_distance.c ****  */
  27:../Dave/Generated/CMSIS_DSP/Source/DistanceFunctions/arm_russellrao_distance.c **** 
  28:../Dave/Generated/CMSIS_DSP/Source/DistanceFunctions/arm_russellrao_distance.c **** #include "CMSIS_DSP/cmsis_dsp.h"
  29:../Dave/Generated/CMSIS_DSP/Source/DistanceFunctions/arm_russellrao_distance.c **** #include <limits.h>
  30:../Dave/Generated/CMSIS_DSP/Source/DistanceFunctions/arm_russellrao_distance.c **** #include <math.h>
  31:../Dave/Generated/CMSIS_DSP/Source/DistanceFunctions/arm_russellrao_distance.c **** 
  32:../Dave/Generated/CMSIS_DSP/Source/DistanceFunctions/arm_russellrao_distance.c **** 
  33:../Dave/Generated/CMSIS_DSP/Source/DistanceFunctions/arm_russellrao_distance.c **** 
  34:../Dave/Generated/CMSIS_DSP/Source/DistanceFunctions/arm_russellrao_distance.c **** extern void arm_boolean_distance_TT(const uint32_t *pA
  35:../Dave/Generated/CMSIS_DSP/Source/DistanceFunctions/arm_russellrao_distance.c ****        , const uint32_t *pB
  36:../Dave/Generated/CMSIS_DSP/Source/DistanceFunctions/arm_russellrao_distance.c ****        , uint32_t numberOfBools
  37:../Dave/Generated/CMSIS_DSP/Source/DistanceFunctions/arm_russellrao_distance.c ****        , uint32_t *cTT
  38:../Dave/Generated/CMSIS_DSP/Source/DistanceFunctions/arm_russellrao_distance.c ****        );
  39:../Dave/Generated/CMSIS_DSP/Source/DistanceFunctions/arm_russellrao_distance.c **** 
  40:../Dave/Generated/CMSIS_DSP/Source/DistanceFunctions/arm_russellrao_distance.c **** 
  41:../Dave/Generated/CMSIS_DSP/Source/DistanceFunctions/arm_russellrao_distance.c **** /**
  42:../Dave/Generated/CMSIS_DSP/Source/DistanceFunctions/arm_russellrao_distance.c ****   @addtogroup BoolDist
  43:../Dave/Generated/CMSIS_DSP/Source/DistanceFunctions/arm_russellrao_distance.c ****   @{
  44:../Dave/Generated/CMSIS_DSP/Source/DistanceFunctions/arm_russellrao_distance.c ****  */
  45:../Dave/Generated/CMSIS_DSP/Source/DistanceFunctions/arm_russellrao_distance.c **** 
  46:../Dave/Generated/CMSIS_DSP/Source/DistanceFunctions/arm_russellrao_distance.c **** /**
  47:../Dave/Generated/CMSIS_DSP/Source/DistanceFunctions/arm_russellrao_distance.c ****  * @brief        Russell-Rao distance between two vectors
  48:../Dave/Generated/CMSIS_DSP/Source/DistanceFunctions/arm_russellrao_distance.c ****  *
  49:../Dave/Generated/CMSIS_DSP/Source/DistanceFunctions/arm_russellrao_distance.c ****  * @param[in]    pA              First vector of packed booleans
  50:../Dave/Generated/CMSIS_DSP/Source/DistanceFunctions/arm_russellrao_distance.c ****  * @param[in]    pB              Second vector of packed booleans
  51:../Dave/Generated/CMSIS_DSP/Source/DistanceFunctions/arm_russellrao_distance.c ****  * @param[in]    numberOfBools   Number of booleans
  52:../Dave/Generated/CMSIS_DSP/Source/DistanceFunctions/arm_russellrao_distance.c ****  * @return distance
  53:../Dave/Generated/CMSIS_DSP/Source/DistanceFunctions/arm_russellrao_distance.c ****  *
  54:../Dave/Generated/CMSIS_DSP/Source/DistanceFunctions/arm_russellrao_distance.c ****  */
  55:../Dave/Generated/CMSIS_DSP/Source/DistanceFunctions/arm_russellrao_distance.c **** 
  56:../Dave/Generated/CMSIS_DSP/Source/DistanceFunctions/arm_russellrao_distance.c **** float32_t arm_russellrao_distance(const uint32_t *pA, const uint32_t *pB, uint32_t numberOfBools)
  57:../Dave/Generated/CMSIS_DSP/Source/DistanceFunctions/arm_russellrao_distance.c **** {
  32              	 .loc 1 57 0
  33              	 .cfi_startproc
  34              	 
  35              	 
  36 0000 B0B5     	 push {r4,r5,r7,lr}
  37              	.LCFI0:
  38              	 .cfi_def_cfa_offset 16
  39              	 .cfi_offset 4,-16
  40              	 .cfi_offset 5,-12
  41              	 .cfi_offset 7,-8
  42              	 .cfi_offset 14,-4
  43 0002 86B0     	 sub sp,sp,#24
  44              	.LCFI1:
  45              	 .cfi_def_cfa_offset 40
  46 0004 00AF     	 add r7,sp,#0
  47              	.LCFI2:
  48              	 .cfi_def_cfa_register 7
  49 0006 F860     	 str r0,[r7,#12]
  50 0008 B960     	 str r1,[r7,#8]
  51 000a 7A60     	 str r2,[r7,#4]
  58:../Dave/Generated/CMSIS_DSP/Source/DistanceFunctions/arm_russellrao_distance.c ****     uint32_t ctt=0;
  52              	 .loc 1 58 0
  53 000c 0023     	 movs r3,#0
  54 000e 7B61     	 str r3,[r7,#20]
  59:../Dave/Generated/CMSIS_DSP/Source/DistanceFunctions/arm_russellrao_distance.c **** 
  60:../Dave/Generated/CMSIS_DSP/Source/DistanceFunctions/arm_russellrao_distance.c **** 
  61:../Dave/Generated/CMSIS_DSP/Source/DistanceFunctions/arm_russellrao_distance.c ****     arm_boolean_distance_TT(pA, pB, numberOfBools, &ctt);
  55              	 .loc 1 61 0
  56 0010 07F11403 	 add r3,r7,#20
  57 0014 F868     	 ldr r0,[r7,#12]
  58 0016 B968     	 ldr r1,[r7,#8]
  59 0018 7A68     	 ldr r2,[r7,#4]
  60 001a FFF7FEFF 	 bl arm_boolean_distance_TT
  62:../Dave/Generated/CMSIS_DSP/Source/DistanceFunctions/arm_russellrao_distance.c **** 
  63:../Dave/Generated/CMSIS_DSP/Source/DistanceFunctions/arm_russellrao_distance.c **** 
  64:../Dave/Generated/CMSIS_DSP/Source/DistanceFunctions/arm_russellrao_distance.c ****     return(1.0*(numberOfBools - ctt) / ((float32_t)numberOfBools));
  61              	 .loc 1 64 0
  62 001e 7B69     	 ldr r3,[r7,#20]
  63 0020 7A68     	 ldr r2,[r7,#4]
  64 0022 D31A     	 subs r3,r2,r3
  65 0024 1846     	 mov r0,r3
  66 0026 FFF7FEFF 	 bl __aeabi_ui2d
  67 002a 0446     	 mov r4,r0
  68 002c 0D46     	 mov r5,r1
  69 002e 7B68     	 ldr r3,[r7,#4]
  70 0030 07EE903A 	 fmsr s15,r3
  71 0034 F8EE677A 	 fuitos s15,s15
  72 0038 17EE900A 	 fmrs r0,s15
  73 003c FFF7FEFF 	 bl __aeabi_f2d
  74 0040 0246     	 mov r2,r0
  75 0042 0B46     	 mov r3,r1
  76 0044 2046     	 mov r0,r4
  77 0046 2946     	 mov r1,r5
  78 0048 FFF7FEFF 	 bl __aeabi_ddiv
  79 004c 0246     	 mov r2,r0
  80 004e 0B46     	 mov r3,r1
  81 0050 1046     	 mov r0,r2
  82 0052 1946     	 mov r1,r3
  83 0054 FFF7FEFF 	 bl __aeabi_d2f
  84 0058 0346     	 mov r3,r0
  65:../Dave/Generated/CMSIS_DSP/Source/DistanceFunctions/arm_russellrao_distance.c **** }
  85              	 .loc 1 65 0
  86 005a 1846     	 mov r0,r3
  87 005c 1837     	 adds r7,r7,#24
  88              	.LCFI3:
  89              	 .cfi_def_cfa_offset 16
  90 005e BD46     	 mov sp,r7
  91              	.LCFI4:
  92              	 .cfi_def_cfa_register 13
  93              	 
  94 0060 B0BD     	 pop {r4,r5,r7,pc}
  95              	 .cfi_endproc
  96              	.LFE149:
  98 0062 00BF     	 .text
  99              	.Letext0:
 100              	 .file 2 "c:\\infineon\\tools\\dave ide\\4.5.0.202105191637\\eclipse\\arm-gcc-49\\arm-none-eabi\\include\\machine\\_default_types.h"
 101              	 .file 3 "c:\\infineon\\tools\\dave ide\\4.5.0.202105191637\\eclipse\\arm-gcc-49\\arm-none-eabi\\include\\stdint.h"
 102              	 .file 4 "C:/Users/Rui Mendes/Desktop/DAVE/_Naive/_ForTesting/Dave/Generated/CMSIS_DSP/Include/arm_math.h"
 103              	 .file 5 "C:/Users/Rui Mendes/Desktop/DAVE/_Naive/_ForTesting/Libraries/CMSIS/Include/cmsis_gcc.h"