   1              	 .syntax unified
   2              	 .cpu cortex-m4
   3              	 .eabi_attribute 27,3
   4              	 .fpu fpv4-sp-d16
   5              	 .eabi_attribute 20,1
   6              	 .eabi_attribute 21,1
   7              	 .eabi_attribute 23,3
   8              	 .eabi_attribute 24,1
   9              	 .eabi_attribute 25,1
  10              	 .eabi_attribute 26,1
  11              	 .eabi_attribute 30,6
  12              	 .eabi_attribute 34,1
  13              	 .eabi_attribute 18,4
  14              	 .thumb
  15              	 .file "arm_minkowski_distance_f32.c"
  16              	 .text
  17              	.Ltext0:
  18              	 .cfi_sections .debug_frame
  19              	 .section .text.arm_minkowski_distance_f32,"ax",%progbits
  20              	 .align 2
  21              	 .global arm_minkowski_distance_f32
  22              	 .thumb
  23              	 .thumb_func
  25              	arm_minkowski_distance_f32:
  26              	.LFB149:
  27              	 .file 1 "../Dave/Generated/CMSIS_DSP/Source/DistanceFunctions/arm_minkowski_distance_f32.c"
   1:../Dave/Generated/CMSIS_DSP/Source/DistanceFunctions/arm_minkowski_distance_f32.c **** 
   2:../Dave/Generated/CMSIS_DSP/Source/DistanceFunctions/arm_minkowski_distance_f32.c **** /* ----------------------------------------------------------------------
   3:../Dave/Generated/CMSIS_DSP/Source/DistanceFunctions/arm_minkowski_distance_f32.c ****  * Project:      CMSIS DSP Library
   4:../Dave/Generated/CMSIS_DSP/Source/DistanceFunctions/arm_minkowski_distance_f32.c ****  * Title:        arm_minkowski_distance_f32.c
   5:../Dave/Generated/CMSIS_DSP/Source/DistanceFunctions/arm_minkowski_distance_f32.c ****  * Description:  Minkowski distance between two vectors
   6:../Dave/Generated/CMSIS_DSP/Source/DistanceFunctions/arm_minkowski_distance_f32.c ****  *
   7:../Dave/Generated/CMSIS_DSP/Source/DistanceFunctions/arm_minkowski_distance_f32.c ****  *
   8:../Dave/Generated/CMSIS_DSP/Source/DistanceFunctions/arm_minkowski_distance_f32.c ****  * Target Processor: Cortex-M cores
   9:../Dave/Generated/CMSIS_DSP/Source/DistanceFunctions/arm_minkowski_distance_f32.c ****  * -------------------------------------------------------------------- */
  10:../Dave/Generated/CMSIS_DSP/Source/DistanceFunctions/arm_minkowski_distance_f32.c **** /*
  11:../Dave/Generated/CMSIS_DSP/Source/DistanceFunctions/arm_minkowski_distance_f32.c ****  * Copyright (C) 2010-2019 ARM Limited or its affiliates. All rights reserved.
  12:../Dave/Generated/CMSIS_DSP/Source/DistanceFunctions/arm_minkowski_distance_f32.c ****  *
  13:../Dave/Generated/CMSIS_DSP/Source/DistanceFunctions/arm_minkowski_distance_f32.c ****  * SPDX-License-Identifier: Apache-2.0
  14:../Dave/Generated/CMSIS_DSP/Source/DistanceFunctions/arm_minkowski_distance_f32.c ****  *
  15:../Dave/Generated/CMSIS_DSP/Source/DistanceFunctions/arm_minkowski_distance_f32.c ****  * Licensed under the Apache License, Version 2.0 (the License); you may
  16:../Dave/Generated/CMSIS_DSP/Source/DistanceFunctions/arm_minkowski_distance_f32.c ****  * not use this file except in compliance with the License.
  17:../Dave/Generated/CMSIS_DSP/Source/DistanceFunctions/arm_minkowski_distance_f32.c ****  * You may obtain a copy of the License at
  18:../Dave/Generated/CMSIS_DSP/Source/DistanceFunctions/arm_minkowski_distance_f32.c ****  *
  19:../Dave/Generated/CMSIS_DSP/Source/DistanceFunctions/arm_minkowski_distance_f32.c ****  * www.apache.org/licenses/LICENSE-2.0
  20:../Dave/Generated/CMSIS_DSP/Source/DistanceFunctions/arm_minkowski_distance_f32.c ****  *
  21:../Dave/Generated/CMSIS_DSP/Source/DistanceFunctions/arm_minkowski_distance_f32.c ****  * Unless required by applicable law or agreed to in writing, software
  22:../Dave/Generated/CMSIS_DSP/Source/DistanceFunctions/arm_minkowski_distance_f32.c ****  * distributed under the License is distributed on an AS IS BASIS, WITHOUT
  23:../Dave/Generated/CMSIS_DSP/Source/DistanceFunctions/arm_minkowski_distance_f32.c ****  * WARRANTIES OR CONDITIONS OF ANY KIND, either express or implied.
  24:../Dave/Generated/CMSIS_DSP/Source/DistanceFunctions/arm_minkowski_distance_f32.c ****  * See the License for the specific language governing permissions and
  25:../Dave/Generated/CMSIS_DSP/Source/DistanceFunctions/arm_minkowski_distance_f32.c ****  * limitations under the License.
  26:../Dave/Generated/CMSIS_DSP/Source/DistanceFunctions/arm_minkowski_distance_f32.c ****  */
  27:../Dave/Generated/CMSIS_DSP/Source/DistanceFunctions/arm_minkowski_distance_f32.c **** 
  28:../Dave/Generated/CMSIS_DSP/Source/DistanceFunctions/arm_minkowski_distance_f32.c **** #include "CMSIS_DSP/cmsis_dsp.h"
  29:../Dave/Generated/CMSIS_DSP/Source/DistanceFunctions/arm_minkowski_distance_f32.c **** #include <limits.h>
  30:../Dave/Generated/CMSIS_DSP/Source/DistanceFunctions/arm_minkowski_distance_f32.c **** #include <math.h>
  31:../Dave/Generated/CMSIS_DSP/Source/DistanceFunctions/arm_minkowski_distance_f32.c **** 
  32:../Dave/Generated/CMSIS_DSP/Source/DistanceFunctions/arm_minkowski_distance_f32.c **** 
  33:../Dave/Generated/CMSIS_DSP/Source/DistanceFunctions/arm_minkowski_distance_f32.c **** /**
  34:../Dave/Generated/CMSIS_DSP/Source/DistanceFunctions/arm_minkowski_distance_f32.c ****   @addtogroup FloatDist
  35:../Dave/Generated/CMSIS_DSP/Source/DistanceFunctions/arm_minkowski_distance_f32.c ****   @{
  36:../Dave/Generated/CMSIS_DSP/Source/DistanceFunctions/arm_minkowski_distance_f32.c ****  */
  37:../Dave/Generated/CMSIS_DSP/Source/DistanceFunctions/arm_minkowski_distance_f32.c **** 
  38:../Dave/Generated/CMSIS_DSP/Source/DistanceFunctions/arm_minkowski_distance_f32.c **** 
  39:../Dave/Generated/CMSIS_DSP/Source/DistanceFunctions/arm_minkowski_distance_f32.c **** /**
  40:../Dave/Generated/CMSIS_DSP/Source/DistanceFunctions/arm_minkowski_distance_f32.c ****  * @brief        Minkowski distance between two vectors
  41:../Dave/Generated/CMSIS_DSP/Source/DistanceFunctions/arm_minkowski_distance_f32.c ****  *
  42:../Dave/Generated/CMSIS_DSP/Source/DistanceFunctions/arm_minkowski_distance_f32.c ****  * @param[in]    pA         First vector
  43:../Dave/Generated/CMSIS_DSP/Source/DistanceFunctions/arm_minkowski_distance_f32.c ****  * @param[in]    pB         Second vector
  44:../Dave/Generated/CMSIS_DSP/Source/DistanceFunctions/arm_minkowski_distance_f32.c ****  * @param[in]    order      Distance order
  45:../Dave/Generated/CMSIS_DSP/Source/DistanceFunctions/arm_minkowski_distance_f32.c ****  * @param[in]    blockSize  Number of samples
  46:../Dave/Generated/CMSIS_DSP/Source/DistanceFunctions/arm_minkowski_distance_f32.c ****  * @return distance
  47:../Dave/Generated/CMSIS_DSP/Source/DistanceFunctions/arm_minkowski_distance_f32.c ****  *
  48:../Dave/Generated/CMSIS_DSP/Source/DistanceFunctions/arm_minkowski_distance_f32.c ****  */
  49:../Dave/Generated/CMSIS_DSP/Source/DistanceFunctions/arm_minkowski_distance_f32.c **** 
  50:../Dave/Generated/CMSIS_DSP/Source/DistanceFunctions/arm_minkowski_distance_f32.c **** #if defined(ARM_MATH_MVEF) && !defined(ARM_MATH_AUTOVECTORIZE)
  51:../Dave/Generated/CMSIS_DSP/Source/DistanceFunctions/arm_minkowski_distance_f32.c **** 
  52:../Dave/Generated/CMSIS_DSP/Source/DistanceFunctions/arm_minkowski_distance_f32.c **** #include "CMSIS_DSP/Include/arm_helium_utils.h"
  53:../Dave/Generated/CMSIS_DSP/Source/DistanceFunctions/arm_minkowski_distance_f32.c **** #include "CMSIS_DSP/Include/arm_vec_math.h"
  54:../Dave/Generated/CMSIS_DSP/Source/DistanceFunctions/arm_minkowski_distance_f32.c **** 
  55:../Dave/Generated/CMSIS_DSP/Source/DistanceFunctions/arm_minkowski_distance_f32.c **** float32_t arm_minkowski_distance_f32(const float32_t *pA,const float32_t *pB, int32_t order, uint32
  56:../Dave/Generated/CMSIS_DSP/Source/DistanceFunctions/arm_minkowski_distance_f32.c **** {
  57:../Dave/Generated/CMSIS_DSP/Source/DistanceFunctions/arm_minkowski_distance_f32.c ****     uint32_t        blkCnt;
  58:../Dave/Generated/CMSIS_DSP/Source/DistanceFunctions/arm_minkowski_distance_f32.c ****     f32x4_t         a, b, tmpV, accumV, sumV;
  59:../Dave/Generated/CMSIS_DSP/Source/DistanceFunctions/arm_minkowski_distance_f32.c **** 
  60:../Dave/Generated/CMSIS_DSP/Source/DistanceFunctions/arm_minkowski_distance_f32.c ****     sumV = vdupq_n_f32(0.0f);
  61:../Dave/Generated/CMSIS_DSP/Source/DistanceFunctions/arm_minkowski_distance_f32.c ****     accumV = vdupq_n_f32(0.0f);
  62:../Dave/Generated/CMSIS_DSP/Source/DistanceFunctions/arm_minkowski_distance_f32.c **** 
  63:../Dave/Generated/CMSIS_DSP/Source/DistanceFunctions/arm_minkowski_distance_f32.c ****     blkCnt = blockSize >> 2;
  64:../Dave/Generated/CMSIS_DSP/Source/DistanceFunctions/arm_minkowski_distance_f32.c ****     while (blkCnt > 0U) {
  65:../Dave/Generated/CMSIS_DSP/Source/DistanceFunctions/arm_minkowski_distance_f32.c ****         a = vld1q(pA);
  66:../Dave/Generated/CMSIS_DSP/Source/DistanceFunctions/arm_minkowski_distance_f32.c ****         b = vld1q(pB);
  67:../Dave/Generated/CMSIS_DSP/Source/DistanceFunctions/arm_minkowski_distance_f32.c **** 
  68:../Dave/Generated/CMSIS_DSP/Source/DistanceFunctions/arm_minkowski_distance_f32.c ****         tmpV = vabdq(a, b);
  69:../Dave/Generated/CMSIS_DSP/Source/DistanceFunctions/arm_minkowski_distance_f32.c ****         tmpV = vpowq_f32(tmpV, vdupq_n_f32(order));
  70:../Dave/Generated/CMSIS_DSP/Source/DistanceFunctions/arm_minkowski_distance_f32.c ****         sumV = vaddq(sumV, tmpV);
  71:../Dave/Generated/CMSIS_DSP/Source/DistanceFunctions/arm_minkowski_distance_f32.c **** 
  72:../Dave/Generated/CMSIS_DSP/Source/DistanceFunctions/arm_minkowski_distance_f32.c ****         pA += 4;
  73:../Dave/Generated/CMSIS_DSP/Source/DistanceFunctions/arm_minkowski_distance_f32.c ****         pB += 4;
  74:../Dave/Generated/CMSIS_DSP/Source/DistanceFunctions/arm_minkowski_distance_f32.c ****         blkCnt--;
  75:../Dave/Generated/CMSIS_DSP/Source/DistanceFunctions/arm_minkowski_distance_f32.c ****     }
  76:../Dave/Generated/CMSIS_DSP/Source/DistanceFunctions/arm_minkowski_distance_f32.c **** 
  77:../Dave/Generated/CMSIS_DSP/Source/DistanceFunctions/arm_minkowski_distance_f32.c ****     /*
  78:../Dave/Generated/CMSIS_DSP/Source/DistanceFunctions/arm_minkowski_distance_f32.c ****      * tail
  79:../Dave/Generated/CMSIS_DSP/Source/DistanceFunctions/arm_minkowski_distance_f32.c ****      * (will be merged thru tail predication)
  80:../Dave/Generated/CMSIS_DSP/Source/DistanceFunctions/arm_minkowski_distance_f32.c ****      */
  81:../Dave/Generated/CMSIS_DSP/Source/DistanceFunctions/arm_minkowski_distance_f32.c ****     blkCnt = blockSize & 3;
  82:../Dave/Generated/CMSIS_DSP/Source/DistanceFunctions/arm_minkowski_distance_f32.c ****     if (blkCnt > 0U) {
  83:../Dave/Generated/CMSIS_DSP/Source/DistanceFunctions/arm_minkowski_distance_f32.c ****         mve_pred16_t    p0 = vctp32q(blkCnt);
  84:../Dave/Generated/CMSIS_DSP/Source/DistanceFunctions/arm_minkowski_distance_f32.c **** 
  85:../Dave/Generated/CMSIS_DSP/Source/DistanceFunctions/arm_minkowski_distance_f32.c ****         a = vldrwq_z_f32(pA, p0);
  86:../Dave/Generated/CMSIS_DSP/Source/DistanceFunctions/arm_minkowski_distance_f32.c ****         b = vldrwq_z_f32(pB, p0);
  87:../Dave/Generated/CMSIS_DSP/Source/DistanceFunctions/arm_minkowski_distance_f32.c **** 
  88:../Dave/Generated/CMSIS_DSP/Source/DistanceFunctions/arm_minkowski_distance_f32.c ****         tmpV = vabdq(a, b);
  89:../Dave/Generated/CMSIS_DSP/Source/DistanceFunctions/arm_minkowski_distance_f32.c ****         tmpV = vpowq_f32(tmpV, vdupq_n_f32(order));
  90:../Dave/Generated/CMSIS_DSP/Source/DistanceFunctions/arm_minkowski_distance_f32.c ****         sumV = vaddq_m(sumV, sumV, tmpV, p0);
  91:../Dave/Generated/CMSIS_DSP/Source/DistanceFunctions/arm_minkowski_distance_f32.c ****     }
  92:../Dave/Generated/CMSIS_DSP/Source/DistanceFunctions/arm_minkowski_distance_f32.c **** 
  93:../Dave/Generated/CMSIS_DSP/Source/DistanceFunctions/arm_minkowski_distance_f32.c ****     return (powf(vecAddAcrossF32Mve(sumV), (1.0f / (float32_t) order)));
  94:../Dave/Generated/CMSIS_DSP/Source/DistanceFunctions/arm_minkowski_distance_f32.c **** }
  95:../Dave/Generated/CMSIS_DSP/Source/DistanceFunctions/arm_minkowski_distance_f32.c **** 
  96:../Dave/Generated/CMSIS_DSP/Source/DistanceFunctions/arm_minkowski_distance_f32.c **** #else
  97:../Dave/Generated/CMSIS_DSP/Source/DistanceFunctions/arm_minkowski_distance_f32.c **** #if defined(ARM_MATH_NEON)
  98:../Dave/Generated/CMSIS_DSP/Source/DistanceFunctions/arm_minkowski_distance_f32.c **** 
  99:../Dave/Generated/CMSIS_DSP/Source/DistanceFunctions/arm_minkowski_distance_f32.c **** #include "NEMath.h"
 100:../Dave/Generated/CMSIS_DSP/Source/DistanceFunctions/arm_minkowski_distance_f32.c **** 
 101:../Dave/Generated/CMSIS_DSP/Source/DistanceFunctions/arm_minkowski_distance_f32.c **** float32_t arm_minkowski_distance_f32(const float32_t *pA,const float32_t *pB, int32_t order, uint32
 102:../Dave/Generated/CMSIS_DSP/Source/DistanceFunctions/arm_minkowski_distance_f32.c **** {
 103:../Dave/Generated/CMSIS_DSP/Source/DistanceFunctions/arm_minkowski_distance_f32.c ****     float32_t sum;
 104:../Dave/Generated/CMSIS_DSP/Source/DistanceFunctions/arm_minkowski_distance_f32.c ****     uint32_t blkCnt;
 105:../Dave/Generated/CMSIS_DSP/Source/DistanceFunctions/arm_minkowski_distance_f32.c ****     float32x4_t sumV,aV,bV, tmpV, n;
 106:../Dave/Generated/CMSIS_DSP/Source/DistanceFunctions/arm_minkowski_distance_f32.c ****     float32x2_t sumV2;
 107:../Dave/Generated/CMSIS_DSP/Source/DistanceFunctions/arm_minkowski_distance_f32.c **** 
 108:../Dave/Generated/CMSIS_DSP/Source/DistanceFunctions/arm_minkowski_distance_f32.c ****     sum = 0.0f; 
 109:../Dave/Generated/CMSIS_DSP/Source/DistanceFunctions/arm_minkowski_distance_f32.c ****     sumV = vdupq_n_f32(0.0f);
 110:../Dave/Generated/CMSIS_DSP/Source/DistanceFunctions/arm_minkowski_distance_f32.c ****     n = vdupq_n_f32(order);
 111:../Dave/Generated/CMSIS_DSP/Source/DistanceFunctions/arm_minkowski_distance_f32.c **** 
 112:../Dave/Generated/CMSIS_DSP/Source/DistanceFunctions/arm_minkowski_distance_f32.c ****     blkCnt = blockSize >> 2;
 113:../Dave/Generated/CMSIS_DSP/Source/DistanceFunctions/arm_minkowski_distance_f32.c ****     while(blkCnt > 0)
 114:../Dave/Generated/CMSIS_DSP/Source/DistanceFunctions/arm_minkowski_distance_f32.c ****     {
 115:../Dave/Generated/CMSIS_DSP/Source/DistanceFunctions/arm_minkowski_distance_f32.c ****        aV = vld1q_f32(pA);
 116:../Dave/Generated/CMSIS_DSP/Source/DistanceFunctions/arm_minkowski_distance_f32.c ****        bV = vld1q_f32(pB);
 117:../Dave/Generated/CMSIS_DSP/Source/DistanceFunctions/arm_minkowski_distance_f32.c ****        pA += 4;
 118:../Dave/Generated/CMSIS_DSP/Source/DistanceFunctions/arm_minkowski_distance_f32.c ****        pB += 4;
 119:../Dave/Generated/CMSIS_DSP/Source/DistanceFunctions/arm_minkowski_distance_f32.c **** 
 120:../Dave/Generated/CMSIS_DSP/Source/DistanceFunctions/arm_minkowski_distance_f32.c ****        tmpV = vabdq_f32(aV,bV);
 121:../Dave/Generated/CMSIS_DSP/Source/DistanceFunctions/arm_minkowski_distance_f32.c ****        tmpV = vpowq_f32(tmpV,n);
 122:../Dave/Generated/CMSIS_DSP/Source/DistanceFunctions/arm_minkowski_distance_f32.c ****        sumV = vaddq_f32(sumV, tmpV);
 123:../Dave/Generated/CMSIS_DSP/Source/DistanceFunctions/arm_minkowski_distance_f32.c **** 
 124:../Dave/Generated/CMSIS_DSP/Source/DistanceFunctions/arm_minkowski_distance_f32.c **** 
 125:../Dave/Generated/CMSIS_DSP/Source/DistanceFunctions/arm_minkowski_distance_f32.c ****        blkCnt --;
 126:../Dave/Generated/CMSIS_DSP/Source/DistanceFunctions/arm_minkowski_distance_f32.c ****     }
 127:../Dave/Generated/CMSIS_DSP/Source/DistanceFunctions/arm_minkowski_distance_f32.c **** 
 128:../Dave/Generated/CMSIS_DSP/Source/DistanceFunctions/arm_minkowski_distance_f32.c ****     sumV2 = vpadd_f32(vget_low_f32(sumV),vget_high_f32(sumV));
 129:../Dave/Generated/CMSIS_DSP/Source/DistanceFunctions/arm_minkowski_distance_f32.c ****     sum = vget_lane_f32(sumV2, 0) + vget_lane_f32(sumV2, 1);
 130:../Dave/Generated/CMSIS_DSP/Source/DistanceFunctions/arm_minkowski_distance_f32.c **** 
 131:../Dave/Generated/CMSIS_DSP/Source/DistanceFunctions/arm_minkowski_distance_f32.c ****     blkCnt = blockSize & 3;
 132:../Dave/Generated/CMSIS_DSP/Source/DistanceFunctions/arm_minkowski_distance_f32.c ****     while(blkCnt > 0)
 133:../Dave/Generated/CMSIS_DSP/Source/DistanceFunctions/arm_minkowski_distance_f32.c ****     {
 134:../Dave/Generated/CMSIS_DSP/Source/DistanceFunctions/arm_minkowski_distance_f32.c ****        sum += powf(fabsf(*pA++ - *pB++),order);
 135:../Dave/Generated/CMSIS_DSP/Source/DistanceFunctions/arm_minkowski_distance_f32.c **** 
 136:../Dave/Generated/CMSIS_DSP/Source/DistanceFunctions/arm_minkowski_distance_f32.c ****        blkCnt --;
 137:../Dave/Generated/CMSIS_DSP/Source/DistanceFunctions/arm_minkowski_distance_f32.c ****     }
 138:../Dave/Generated/CMSIS_DSP/Source/DistanceFunctions/arm_minkowski_distance_f32.c **** 
 139:../Dave/Generated/CMSIS_DSP/Source/DistanceFunctions/arm_minkowski_distance_f32.c **** 
 140:../Dave/Generated/CMSIS_DSP/Source/DistanceFunctions/arm_minkowski_distance_f32.c ****     return(powf(sum,(1.0f/order)));
 141:../Dave/Generated/CMSIS_DSP/Source/DistanceFunctions/arm_minkowski_distance_f32.c **** 
 142:../Dave/Generated/CMSIS_DSP/Source/DistanceFunctions/arm_minkowski_distance_f32.c **** }
 143:../Dave/Generated/CMSIS_DSP/Source/DistanceFunctions/arm_minkowski_distance_f32.c **** 
 144:../Dave/Generated/CMSIS_DSP/Source/DistanceFunctions/arm_minkowski_distance_f32.c **** #else
 145:../Dave/Generated/CMSIS_DSP/Source/DistanceFunctions/arm_minkowski_distance_f32.c **** 
 146:../Dave/Generated/CMSIS_DSP/Source/DistanceFunctions/arm_minkowski_distance_f32.c **** 
 147:../Dave/Generated/CMSIS_DSP/Source/DistanceFunctions/arm_minkowski_distance_f32.c **** float32_t arm_minkowski_distance_f32(const float32_t *pA,const float32_t *pB, int32_t order, uint32
 148:../Dave/Generated/CMSIS_DSP/Source/DistanceFunctions/arm_minkowski_distance_f32.c **** {
  28              	 .loc 1 148 0
  29              	 .cfi_startproc
  30              	 
  31              	 
  32 0000 80B5     	 push {r7,lr}
  33              	.LCFI0:
  34              	 .cfi_def_cfa_offset 8
  35              	 .cfi_offset 7,-8
  36              	 .cfi_offset 14,-4
  37 0002 86B0     	 sub sp,sp,#24
  38              	.LCFI1:
  39              	 .cfi_def_cfa_offset 32
  40 0004 00AF     	 add r7,sp,#0
  41              	.LCFI2:
  42              	 .cfi_def_cfa_register 7
  43 0006 F860     	 str r0,[r7,#12]
  44 0008 B960     	 str r1,[r7,#8]
  45 000a 7A60     	 str r2,[r7,#4]
  46 000c 3B60     	 str r3,[r7]
 149:../Dave/Generated/CMSIS_DSP/Source/DistanceFunctions/arm_minkowski_distance_f32.c ****     float32_t sum;
 150:../Dave/Generated/CMSIS_DSP/Source/DistanceFunctions/arm_minkowski_distance_f32.c ****     uint32_t i;
 151:../Dave/Generated/CMSIS_DSP/Source/DistanceFunctions/arm_minkowski_distance_f32.c **** 
 152:../Dave/Generated/CMSIS_DSP/Source/DistanceFunctions/arm_minkowski_distance_f32.c ****     sum = 0.0f; 
  47              	 .loc 1 152 0
  48 000e 4FF00003 	 mov r3,#0
  49 0012 7B61     	 str r3,[r7,#20]
 153:../Dave/Generated/CMSIS_DSP/Source/DistanceFunctions/arm_minkowski_distance_f32.c ****     for(i=0; i < blockSize; i++)
  50              	 .loc 1 153 0
  51 0014 0023     	 movs r3,#0
  52 0016 3B61     	 str r3,[r7,#16]
  53 0018 25E0     	 b .L2
  54              	.L3:
 154:../Dave/Generated/CMSIS_DSP/Source/DistanceFunctions/arm_minkowski_distance_f32.c ****     {
 155:../Dave/Generated/CMSIS_DSP/Source/DistanceFunctions/arm_minkowski_distance_f32.c ****        sum += powf(fabsf(pA[i] - pB[i]),order);
  55              	 .loc 1 155 0 discriminator 3
  56 001a 3B69     	 ldr r3,[r7,#16]
  57 001c 9B00     	 lsls r3,r3,#2
  58 001e FA68     	 ldr r2,[r7,#12]
  59 0020 1344     	 add r3,r3,r2
  60 0022 93ED007A 	 flds s14,[r3]
  61 0026 3B69     	 ldr r3,[r7,#16]
  62 0028 9B00     	 lsls r3,r3,#2
  63 002a BA68     	 ldr r2,[r7,#8]
  64 002c 1344     	 add r3,r3,r2
  65 002e D3ED007A 	 flds s15,[r3]
  66 0032 77EE677A 	 fsubs s15,s14,s15
  67 0036 B0EEE77A 	 fabss s14,s15
  68 003a 7B68     	 ldr r3,[r7,#4]
  69 003c 07EE903A 	 fmsr s15,r3
  70 0040 F8EEE77A 	 fsitos s15,s15
  71 0044 17EE100A 	 fmrs r0,s14
  72 0048 17EE901A 	 fmrs r1,s15
  73 004c FFF7FEFF 	 bl powf
  74 0050 07EE100A 	 fmsr s14,r0
  75 0054 D7ED057A 	 flds s15,[r7,#20]
  76 0058 77EE877A 	 fadds s15,s15,s14
  77 005c C7ED057A 	 fsts s15,[r7,#20]
 153:../Dave/Generated/CMSIS_DSP/Source/DistanceFunctions/arm_minkowski_distance_f32.c ****     for(i=0; i < blockSize; i++)
  78              	 .loc 1 153 0 discriminator 3
  79 0060 3B69     	 ldr r3,[r7,#16]
  80 0062 0133     	 adds r3,r3,#1
  81 0064 3B61     	 str r3,[r7,#16]
  82              	.L2:
 153:../Dave/Generated/CMSIS_DSP/Source/DistanceFunctions/arm_minkowski_distance_f32.c ****     for(i=0; i < blockSize; i++)
  83              	 .loc 1 153 0 is_stmt 0 discriminator 1
  84 0066 3A69     	 ldr r2,[r7,#16]
  85 0068 3B68     	 ldr r3,[r7]
  86 006a 9A42     	 cmp r2,r3
  87 006c D5D3     	 bcc .L3
 156:../Dave/Generated/CMSIS_DSP/Source/DistanceFunctions/arm_minkowski_distance_f32.c ****     }
 157:../Dave/Generated/CMSIS_DSP/Source/DistanceFunctions/arm_minkowski_distance_f32.c **** 
 158:../Dave/Generated/CMSIS_DSP/Source/DistanceFunctions/arm_minkowski_distance_f32.c **** 
 159:../Dave/Generated/CMSIS_DSP/Source/DistanceFunctions/arm_minkowski_distance_f32.c ****     return(powf(sum,(1.0f/order)));
  88              	 .loc 1 159 0 is_stmt 1
  89 006e 7B68     	 ldr r3,[r7,#4]
  90 0070 07EE903A 	 fmsr s15,r3
  91 0074 F8EEE77A 	 fsitos s15,s15
  92 0078 B7EE007A 	 fconsts s14,#112
  93 007c C7EE277A 	 fdivs s15,s14,s15
  94 0080 7869     	 ldr r0,[r7,#20]
  95 0082 17EE901A 	 fmrs r1,s15
  96 0086 FFF7FEFF 	 bl powf
  97 008a 0346     	 mov r3,r0
 160:../Dave/Generated/CMSIS_DSP/Source/DistanceFunctions/arm_minkowski_distance_f32.c **** 
 161:../Dave/Generated/CMSIS_DSP/Source/DistanceFunctions/arm_minkowski_distance_f32.c **** }
  98              	 .loc 1 161 0
  99 008c 1846     	 mov r0,r3
 100 008e 1837     	 adds r7,r7,#24
 101              	.LCFI3:
 102              	 .cfi_def_cfa_offset 8
 103 0090 BD46     	 mov sp,r7
 104              	.LCFI4:
 105              	 .cfi_def_cfa_register 13
 106              	 
 107 0092 80BD     	 pop {r7,pc}
 108              	 .cfi_endproc
 109              	.LFE149:
 111              	 .text
 112              	.Letext0:
 113              	 .file 2 "c:\\infineon\\tools\\dave ide\\4.5.0.202105191637\\eclipse\\arm-gcc-49\\arm-none-eabi\\include\\machine\\_default_types.h"
 114              	 .file 3 "c:\\infineon\\tools\\dave ide\\4.5.0.202105191637\\eclipse\\arm-gcc-49\\arm-none-eabi\\include\\stdint.h"
 115              	 .file 4 "C:/Users/Rui Mendes/Desktop/DAVE/_Naive/_ForTesting/Dave/Generated/CMSIS_DSP/Include/arm_math.h"
 116              	 .file 5 "C:/Users/Rui Mendes/Desktop/DAVE/_Naive/_ForTesting/Libraries/CMSIS/Include/cmsis_gcc.h"