   1              	 .syntax unified
   2              	 .cpu cortex-m4
   3              	 .eabi_attribute 27,3
   4              	 .fpu fpv4-sp-d16
   5              	 .eabi_attribute 20,1
   6              	 .eabi_attribute 21,1
   7              	 .eabi_attribute 23,3
   8              	 .eabi_attribute 24,1
   9              	 .eabi_attribute 25,1
  10              	 .eabi_attribute 26,1
  11              	 .eabi_attribute 30,6
  12              	 .eabi_attribute 34,1
  13              	 .eabi_attribute 18,4
  14              	 .thumb
  15              	 .file "arm_braycurtis_distance_f32.c"
  16              	 .text
  17              	.Ltext0:
  18              	 .cfi_sections .debug_frame
  19              	 .section .text.arm_braycurtis_distance_f32,"ax",%progbits
  20              	 .align 2
  21              	 .global arm_braycurtis_distance_f32
  22              	 .thumb
  23              	 .thumb_func
  25              	arm_braycurtis_distance_f32:
  26              	.LFB149:
  27              	 .file 1 "../Dave/Generated/CMSIS_DSP/Source/DistanceFunctions/arm_braycurtis_distance_f32.c"
   1:../Dave/Generated/CMSIS_DSP/Source/DistanceFunctions/arm_braycurtis_distance_f32.c **** 
   2:../Dave/Generated/CMSIS_DSP/Source/DistanceFunctions/arm_braycurtis_distance_f32.c **** /* ----------------------------------------------------------------------
   3:../Dave/Generated/CMSIS_DSP/Source/DistanceFunctions/arm_braycurtis_distance_f32.c ****  * Project:      CMSIS DSP Library
   4:../Dave/Generated/CMSIS_DSP/Source/DistanceFunctions/arm_braycurtis_distance_f32.c ****  * Title:        arm_braycurtis_distance_f32.c
   5:../Dave/Generated/CMSIS_DSP/Source/DistanceFunctions/arm_braycurtis_distance_f32.c ****  * Description:  Bray-Curtis distance between two vectors
   6:../Dave/Generated/CMSIS_DSP/Source/DistanceFunctions/arm_braycurtis_distance_f32.c ****  *
   7:../Dave/Generated/CMSIS_DSP/Source/DistanceFunctions/arm_braycurtis_distance_f32.c ****  *
   8:../Dave/Generated/CMSIS_DSP/Source/DistanceFunctions/arm_braycurtis_distance_f32.c ****  * Target Processor: Cortex-M cores
   9:../Dave/Generated/CMSIS_DSP/Source/DistanceFunctions/arm_braycurtis_distance_f32.c ****  * -------------------------------------------------------------------- */
  10:../Dave/Generated/CMSIS_DSP/Source/DistanceFunctions/arm_braycurtis_distance_f32.c **** /*
  11:../Dave/Generated/CMSIS_DSP/Source/DistanceFunctions/arm_braycurtis_distance_f32.c ****  * Copyright (C) 2010-2019 ARM Limited or its affiliates. All rights reserved.
  12:../Dave/Generated/CMSIS_DSP/Source/DistanceFunctions/arm_braycurtis_distance_f32.c ****  *
  13:../Dave/Generated/CMSIS_DSP/Source/DistanceFunctions/arm_braycurtis_distance_f32.c ****  * SPDX-License-Identifier: Apache-2.0
  14:../Dave/Generated/CMSIS_DSP/Source/DistanceFunctions/arm_braycurtis_distance_f32.c ****  *
  15:../Dave/Generated/CMSIS_DSP/Source/DistanceFunctions/arm_braycurtis_distance_f32.c ****  * Licensed under the Apache License, Version 2.0 (the License); you may
  16:../Dave/Generated/CMSIS_DSP/Source/DistanceFunctions/arm_braycurtis_distance_f32.c ****  * not use this file except in compliance with the License.
  17:../Dave/Generated/CMSIS_DSP/Source/DistanceFunctions/arm_braycurtis_distance_f32.c ****  * You may obtain a copy of the License at
  18:../Dave/Generated/CMSIS_DSP/Source/DistanceFunctions/arm_braycurtis_distance_f32.c ****  *
  19:../Dave/Generated/CMSIS_DSP/Source/DistanceFunctions/arm_braycurtis_distance_f32.c ****  * www.apache.org/licenses/LICENSE-2.0
  20:../Dave/Generated/CMSIS_DSP/Source/DistanceFunctions/arm_braycurtis_distance_f32.c ****  *
  21:../Dave/Generated/CMSIS_DSP/Source/DistanceFunctions/arm_braycurtis_distance_f32.c ****  * Unless required by applicable law or agreed to in writing, software
  22:../Dave/Generated/CMSIS_DSP/Source/DistanceFunctions/arm_braycurtis_distance_f32.c ****  * distributed under the License is distributed on an AS IS BASIS, WITHOUT
  23:../Dave/Generated/CMSIS_DSP/Source/DistanceFunctions/arm_braycurtis_distance_f32.c ****  * WARRANTIES OR CONDITIONS OF ANY KIND, either express or implied.
  24:../Dave/Generated/CMSIS_DSP/Source/DistanceFunctions/arm_braycurtis_distance_f32.c ****  * See the License for the specific language governing permissions and
  25:../Dave/Generated/CMSIS_DSP/Source/DistanceFunctions/arm_braycurtis_distance_f32.c ****  * limitations under the License.
  26:../Dave/Generated/CMSIS_DSP/Source/DistanceFunctions/arm_braycurtis_distance_f32.c ****  */
  27:../Dave/Generated/CMSIS_DSP/Source/DistanceFunctions/arm_braycurtis_distance_f32.c **** 
  28:../Dave/Generated/CMSIS_DSP/Source/DistanceFunctions/arm_braycurtis_distance_f32.c **** #include "CMSIS_DSP/cmsis_dsp.h"
  29:../Dave/Generated/CMSIS_DSP/Source/DistanceFunctions/arm_braycurtis_distance_f32.c **** #include <limits.h>
  30:../Dave/Generated/CMSIS_DSP/Source/DistanceFunctions/arm_braycurtis_distance_f32.c **** #include <math.h>
  31:../Dave/Generated/CMSIS_DSP/Source/DistanceFunctions/arm_braycurtis_distance_f32.c **** 
  32:../Dave/Generated/CMSIS_DSP/Source/DistanceFunctions/arm_braycurtis_distance_f32.c **** 
  33:../Dave/Generated/CMSIS_DSP/Source/DistanceFunctions/arm_braycurtis_distance_f32.c **** 
  34:../Dave/Generated/CMSIS_DSP/Source/DistanceFunctions/arm_braycurtis_distance_f32.c **** /**
  35:../Dave/Generated/CMSIS_DSP/Source/DistanceFunctions/arm_braycurtis_distance_f32.c ****  * @ingroup groupDistance
  36:../Dave/Generated/CMSIS_DSP/Source/DistanceFunctions/arm_braycurtis_distance_f32.c ****  * @{
  37:../Dave/Generated/CMSIS_DSP/Source/DistanceFunctions/arm_braycurtis_distance_f32.c ****  */
  38:../Dave/Generated/CMSIS_DSP/Source/DistanceFunctions/arm_braycurtis_distance_f32.c **** 
  39:../Dave/Generated/CMSIS_DSP/Source/DistanceFunctions/arm_braycurtis_distance_f32.c **** /**
  40:../Dave/Generated/CMSIS_DSP/Source/DistanceFunctions/arm_braycurtis_distance_f32.c ****  * @defgroup FloatDist Float Distances
  41:../Dave/Generated/CMSIS_DSP/Source/DistanceFunctions/arm_braycurtis_distance_f32.c ****  *
  42:../Dave/Generated/CMSIS_DSP/Source/DistanceFunctions/arm_braycurtis_distance_f32.c ****  * Distances between two vectors of float values.
  43:../Dave/Generated/CMSIS_DSP/Source/DistanceFunctions/arm_braycurtis_distance_f32.c ****  */
  44:../Dave/Generated/CMSIS_DSP/Source/DistanceFunctions/arm_braycurtis_distance_f32.c **** 
  45:../Dave/Generated/CMSIS_DSP/Source/DistanceFunctions/arm_braycurtis_distance_f32.c **** /**
  46:../Dave/Generated/CMSIS_DSP/Source/DistanceFunctions/arm_braycurtis_distance_f32.c ****   @addtogroup FloatDist
  47:../Dave/Generated/CMSIS_DSP/Source/DistanceFunctions/arm_braycurtis_distance_f32.c ****   @{
  48:../Dave/Generated/CMSIS_DSP/Source/DistanceFunctions/arm_braycurtis_distance_f32.c ****  */
  49:../Dave/Generated/CMSIS_DSP/Source/DistanceFunctions/arm_braycurtis_distance_f32.c **** 
  50:../Dave/Generated/CMSIS_DSP/Source/DistanceFunctions/arm_braycurtis_distance_f32.c **** 
  51:../Dave/Generated/CMSIS_DSP/Source/DistanceFunctions/arm_braycurtis_distance_f32.c **** /**
  52:../Dave/Generated/CMSIS_DSP/Source/DistanceFunctions/arm_braycurtis_distance_f32.c ****  * @brief        Bray-Curtis distance between two vectors
  53:../Dave/Generated/CMSIS_DSP/Source/DistanceFunctions/arm_braycurtis_distance_f32.c ****  * @param[in]    pA         First vector
  54:../Dave/Generated/CMSIS_DSP/Source/DistanceFunctions/arm_braycurtis_distance_f32.c ****  * @param[in]    pB         Second vector
  55:../Dave/Generated/CMSIS_DSP/Source/DistanceFunctions/arm_braycurtis_distance_f32.c ****  * @param[in]    blockSize  vector length
  56:../Dave/Generated/CMSIS_DSP/Source/DistanceFunctions/arm_braycurtis_distance_f32.c ****  * @return distance
  57:../Dave/Generated/CMSIS_DSP/Source/DistanceFunctions/arm_braycurtis_distance_f32.c ****  *
  58:../Dave/Generated/CMSIS_DSP/Source/DistanceFunctions/arm_braycurtis_distance_f32.c ****  */
  59:../Dave/Generated/CMSIS_DSP/Source/DistanceFunctions/arm_braycurtis_distance_f32.c **** #if defined(ARM_MATH_MVEF) && !defined(ARM_MATH_AUTOVECTORIZE)
  60:../Dave/Generated/CMSIS_DSP/Source/DistanceFunctions/arm_braycurtis_distance_f32.c **** 
  61:../Dave/Generated/CMSIS_DSP/Source/DistanceFunctions/arm_braycurtis_distance_f32.c **** #include "CMSIS_DSP/Include/arm_helium_utils.h"
  62:../Dave/Generated/CMSIS_DSP/Source/DistanceFunctions/arm_braycurtis_distance_f32.c **** 
  63:../Dave/Generated/CMSIS_DSP/Source/DistanceFunctions/arm_braycurtis_distance_f32.c **** float32_t arm_braycurtis_distance_f32(const float32_t *pA,const float32_t *pB, uint32_t blockSize)
  64:../Dave/Generated/CMSIS_DSP/Source/DistanceFunctions/arm_braycurtis_distance_f32.c **** {
  65:../Dave/Generated/CMSIS_DSP/Source/DistanceFunctions/arm_braycurtis_distance_f32.c ****     float32_t       accumDiff = 0.0f, accumSum = 0.0f;
  66:../Dave/Generated/CMSIS_DSP/Source/DistanceFunctions/arm_braycurtis_distance_f32.c ****     uint32_t        blkCnt;
  67:../Dave/Generated/CMSIS_DSP/Source/DistanceFunctions/arm_braycurtis_distance_f32.c ****     f32x4_t         a, b, c, accumDiffV, accumSumV;
  68:../Dave/Generated/CMSIS_DSP/Source/DistanceFunctions/arm_braycurtis_distance_f32.c **** 
  69:../Dave/Generated/CMSIS_DSP/Source/DistanceFunctions/arm_braycurtis_distance_f32.c **** 
  70:../Dave/Generated/CMSIS_DSP/Source/DistanceFunctions/arm_braycurtis_distance_f32.c ****     accumDiffV = vdupq_n_f32(0.0f);
  71:../Dave/Generated/CMSIS_DSP/Source/DistanceFunctions/arm_braycurtis_distance_f32.c ****     accumSumV = vdupq_n_f32(0.0f);
  72:../Dave/Generated/CMSIS_DSP/Source/DistanceFunctions/arm_braycurtis_distance_f32.c **** 
  73:../Dave/Generated/CMSIS_DSP/Source/DistanceFunctions/arm_braycurtis_distance_f32.c ****     blkCnt = blockSize >> 2;
  74:../Dave/Generated/CMSIS_DSP/Source/DistanceFunctions/arm_braycurtis_distance_f32.c ****     while (blkCnt > 0) {
  75:../Dave/Generated/CMSIS_DSP/Source/DistanceFunctions/arm_braycurtis_distance_f32.c ****         a = vld1q(pA);
  76:../Dave/Generated/CMSIS_DSP/Source/DistanceFunctions/arm_braycurtis_distance_f32.c ****         b = vld1q(pB);
  77:../Dave/Generated/CMSIS_DSP/Source/DistanceFunctions/arm_braycurtis_distance_f32.c **** 
  78:../Dave/Generated/CMSIS_DSP/Source/DistanceFunctions/arm_braycurtis_distance_f32.c ****         c = vabdq(a, b);
  79:../Dave/Generated/CMSIS_DSP/Source/DistanceFunctions/arm_braycurtis_distance_f32.c ****         accumDiffV = vaddq(accumDiffV, c);
  80:../Dave/Generated/CMSIS_DSP/Source/DistanceFunctions/arm_braycurtis_distance_f32.c **** 
  81:../Dave/Generated/CMSIS_DSP/Source/DistanceFunctions/arm_braycurtis_distance_f32.c ****         c = vaddq_f32(a, b);
  82:../Dave/Generated/CMSIS_DSP/Source/DistanceFunctions/arm_braycurtis_distance_f32.c ****         c = vabsq_f32(c);
  83:../Dave/Generated/CMSIS_DSP/Source/DistanceFunctions/arm_braycurtis_distance_f32.c ****         accumSumV = vaddq(accumSumV, c);
  84:../Dave/Generated/CMSIS_DSP/Source/DistanceFunctions/arm_braycurtis_distance_f32.c **** 
  85:../Dave/Generated/CMSIS_DSP/Source/DistanceFunctions/arm_braycurtis_distance_f32.c ****         pA += 4;
  86:../Dave/Generated/CMSIS_DSP/Source/DistanceFunctions/arm_braycurtis_distance_f32.c ****         pB += 4;
  87:../Dave/Generated/CMSIS_DSP/Source/DistanceFunctions/arm_braycurtis_distance_f32.c ****         blkCnt--;
  88:../Dave/Generated/CMSIS_DSP/Source/DistanceFunctions/arm_braycurtis_distance_f32.c ****     }
  89:../Dave/Generated/CMSIS_DSP/Source/DistanceFunctions/arm_braycurtis_distance_f32.c **** 
  90:../Dave/Generated/CMSIS_DSP/Source/DistanceFunctions/arm_braycurtis_distance_f32.c ****     blkCnt = blockSize & 3;
  91:../Dave/Generated/CMSIS_DSP/Source/DistanceFunctions/arm_braycurtis_distance_f32.c ****     if (blkCnt > 0U) {
  92:../Dave/Generated/CMSIS_DSP/Source/DistanceFunctions/arm_braycurtis_distance_f32.c ****         mve_pred16_t    p0 = vctp32q(blkCnt);
  93:../Dave/Generated/CMSIS_DSP/Source/DistanceFunctions/arm_braycurtis_distance_f32.c **** 
  94:../Dave/Generated/CMSIS_DSP/Source/DistanceFunctions/arm_braycurtis_distance_f32.c ****         a = vldrwq_z_f32(pA, p0);
  95:../Dave/Generated/CMSIS_DSP/Source/DistanceFunctions/arm_braycurtis_distance_f32.c ****         b = vldrwq_z_f32(pB, p0);
  96:../Dave/Generated/CMSIS_DSP/Source/DistanceFunctions/arm_braycurtis_distance_f32.c **** 
  97:../Dave/Generated/CMSIS_DSP/Source/DistanceFunctions/arm_braycurtis_distance_f32.c ****         c = vabdq(a, b);
  98:../Dave/Generated/CMSIS_DSP/Source/DistanceFunctions/arm_braycurtis_distance_f32.c ****         accumDiffV = vaddq_m(accumDiffV, accumDiffV, c, p0);
  99:../Dave/Generated/CMSIS_DSP/Source/DistanceFunctions/arm_braycurtis_distance_f32.c **** 
 100:../Dave/Generated/CMSIS_DSP/Source/DistanceFunctions/arm_braycurtis_distance_f32.c ****         c = vaddq_f32(a, b);
 101:../Dave/Generated/CMSIS_DSP/Source/DistanceFunctions/arm_braycurtis_distance_f32.c ****         c = vabsq_f32(c);
 102:../Dave/Generated/CMSIS_DSP/Source/DistanceFunctions/arm_braycurtis_distance_f32.c ****         accumSumV = vaddq_m(accumSumV, accumSumV, c, p0);
 103:../Dave/Generated/CMSIS_DSP/Source/DistanceFunctions/arm_braycurtis_distance_f32.c ****     }
 104:../Dave/Generated/CMSIS_DSP/Source/DistanceFunctions/arm_braycurtis_distance_f32.c **** 
 105:../Dave/Generated/CMSIS_DSP/Source/DistanceFunctions/arm_braycurtis_distance_f32.c ****     accumDiff = vecAddAcrossF32Mve(accumDiffV);
 106:../Dave/Generated/CMSIS_DSP/Source/DistanceFunctions/arm_braycurtis_distance_f32.c ****     accumSum = vecAddAcrossF32Mve(accumSumV);
 107:../Dave/Generated/CMSIS_DSP/Source/DistanceFunctions/arm_braycurtis_distance_f32.c **** 
 108:../Dave/Generated/CMSIS_DSP/Source/DistanceFunctions/arm_braycurtis_distance_f32.c ****     /*
 109:../Dave/Generated/CMSIS_DSP/Source/DistanceFunctions/arm_braycurtis_distance_f32.c ****        It is assumed that accumSum is not zero. Since it is the sum of several absolute
 110:../Dave/Generated/CMSIS_DSP/Source/DistanceFunctions/arm_braycurtis_distance_f32.c ****        values it would imply that all of them are zero. It is very unlikely for long vectors.
 111:../Dave/Generated/CMSIS_DSP/Source/DistanceFunctions/arm_braycurtis_distance_f32.c ****      */
 112:../Dave/Generated/CMSIS_DSP/Source/DistanceFunctions/arm_braycurtis_distance_f32.c ****     return (accumDiff / accumSum);
 113:../Dave/Generated/CMSIS_DSP/Source/DistanceFunctions/arm_braycurtis_distance_f32.c **** }
 114:../Dave/Generated/CMSIS_DSP/Source/DistanceFunctions/arm_braycurtis_distance_f32.c **** #else
 115:../Dave/Generated/CMSIS_DSP/Source/DistanceFunctions/arm_braycurtis_distance_f32.c **** #if defined(ARM_MATH_NEON)
 116:../Dave/Generated/CMSIS_DSP/Source/DistanceFunctions/arm_braycurtis_distance_f32.c **** 
 117:../Dave/Generated/CMSIS_DSP/Source/DistanceFunctions/arm_braycurtis_distance_f32.c **** #include "NEMath.h"
 118:../Dave/Generated/CMSIS_DSP/Source/DistanceFunctions/arm_braycurtis_distance_f32.c **** 
 119:../Dave/Generated/CMSIS_DSP/Source/DistanceFunctions/arm_braycurtis_distance_f32.c **** float32_t arm_braycurtis_distance_f32(const float32_t *pA,const float32_t *pB, uint32_t blockSize)
 120:../Dave/Generated/CMSIS_DSP/Source/DistanceFunctions/arm_braycurtis_distance_f32.c **** {
 121:../Dave/Generated/CMSIS_DSP/Source/DistanceFunctions/arm_braycurtis_distance_f32.c ****    float32_t accumDiff=0.0f, accumSum=0.0f;
 122:../Dave/Generated/CMSIS_DSP/Source/DistanceFunctions/arm_braycurtis_distance_f32.c ****    uint32_t blkCnt;
 123:../Dave/Generated/CMSIS_DSP/Source/DistanceFunctions/arm_braycurtis_distance_f32.c ****    float32x4_t a,b,c,accumDiffV, accumSumV;
 124:../Dave/Generated/CMSIS_DSP/Source/DistanceFunctions/arm_braycurtis_distance_f32.c ****    float32x2_t accumV2;
 125:../Dave/Generated/CMSIS_DSP/Source/DistanceFunctions/arm_braycurtis_distance_f32.c **** 
 126:../Dave/Generated/CMSIS_DSP/Source/DistanceFunctions/arm_braycurtis_distance_f32.c ****    accumDiffV = vdupq_n_f32(0.0f);
 127:../Dave/Generated/CMSIS_DSP/Source/DistanceFunctions/arm_braycurtis_distance_f32.c ****    accumSumV = vdupq_n_f32(0.0f);
 128:../Dave/Generated/CMSIS_DSP/Source/DistanceFunctions/arm_braycurtis_distance_f32.c **** 
 129:../Dave/Generated/CMSIS_DSP/Source/DistanceFunctions/arm_braycurtis_distance_f32.c ****    blkCnt = blockSize >> 2;
 130:../Dave/Generated/CMSIS_DSP/Source/DistanceFunctions/arm_braycurtis_distance_f32.c ****    while(blkCnt > 0)
 131:../Dave/Generated/CMSIS_DSP/Source/DistanceFunctions/arm_braycurtis_distance_f32.c ****    {
 132:../Dave/Generated/CMSIS_DSP/Source/DistanceFunctions/arm_braycurtis_distance_f32.c ****         a = vld1q_f32(pA);
 133:../Dave/Generated/CMSIS_DSP/Source/DistanceFunctions/arm_braycurtis_distance_f32.c ****         b = vld1q_f32(pB);
 134:../Dave/Generated/CMSIS_DSP/Source/DistanceFunctions/arm_braycurtis_distance_f32.c **** 
 135:../Dave/Generated/CMSIS_DSP/Source/DistanceFunctions/arm_braycurtis_distance_f32.c ****         c = vabdq_f32(a,b);
 136:../Dave/Generated/CMSIS_DSP/Source/DistanceFunctions/arm_braycurtis_distance_f32.c ****         accumDiffV = vaddq_f32(accumDiffV,c);
 137:../Dave/Generated/CMSIS_DSP/Source/DistanceFunctions/arm_braycurtis_distance_f32.c **** 
 138:../Dave/Generated/CMSIS_DSP/Source/DistanceFunctions/arm_braycurtis_distance_f32.c ****         c = vaddq_f32(a,b);
 139:../Dave/Generated/CMSIS_DSP/Source/DistanceFunctions/arm_braycurtis_distance_f32.c ****         c = vabsq_f32(c);
 140:../Dave/Generated/CMSIS_DSP/Source/DistanceFunctions/arm_braycurtis_distance_f32.c ****         accumSumV = vaddq_f32(accumSumV,c);
 141:../Dave/Generated/CMSIS_DSP/Source/DistanceFunctions/arm_braycurtis_distance_f32.c **** 
 142:../Dave/Generated/CMSIS_DSP/Source/DistanceFunctions/arm_braycurtis_distance_f32.c ****         pA += 4;
 143:../Dave/Generated/CMSIS_DSP/Source/DistanceFunctions/arm_braycurtis_distance_f32.c ****         pB += 4;
 144:../Dave/Generated/CMSIS_DSP/Source/DistanceFunctions/arm_braycurtis_distance_f32.c ****         blkCnt --;
 145:../Dave/Generated/CMSIS_DSP/Source/DistanceFunctions/arm_braycurtis_distance_f32.c ****    }
 146:../Dave/Generated/CMSIS_DSP/Source/DistanceFunctions/arm_braycurtis_distance_f32.c ****    accumV2 = vpadd_f32(vget_low_f32(accumDiffV),vget_high_f32(accumDiffV));
 147:../Dave/Generated/CMSIS_DSP/Source/DistanceFunctions/arm_braycurtis_distance_f32.c ****    accumDiff = vget_lane_f32(accumV2, 0) + vget_lane_f32(accumV2, 1);
 148:../Dave/Generated/CMSIS_DSP/Source/DistanceFunctions/arm_braycurtis_distance_f32.c **** 
 149:../Dave/Generated/CMSIS_DSP/Source/DistanceFunctions/arm_braycurtis_distance_f32.c ****    accumV2 = vpadd_f32(vget_low_f32(accumSumV),vget_high_f32(accumSumV));
 150:../Dave/Generated/CMSIS_DSP/Source/DistanceFunctions/arm_braycurtis_distance_f32.c ****    accumSum = vget_lane_f32(accumV2, 0) + vget_lane_f32(accumV2, 1);
 151:../Dave/Generated/CMSIS_DSP/Source/DistanceFunctions/arm_braycurtis_distance_f32.c **** 
 152:../Dave/Generated/CMSIS_DSP/Source/DistanceFunctions/arm_braycurtis_distance_f32.c ****    blkCnt = blockSize & 3;
 153:../Dave/Generated/CMSIS_DSP/Source/DistanceFunctions/arm_braycurtis_distance_f32.c ****    while(blkCnt > 0)
 154:../Dave/Generated/CMSIS_DSP/Source/DistanceFunctions/arm_braycurtis_distance_f32.c ****    {
 155:../Dave/Generated/CMSIS_DSP/Source/DistanceFunctions/arm_braycurtis_distance_f32.c ****       accumDiff += fabsf(*pA - *pB);
 156:../Dave/Generated/CMSIS_DSP/Source/DistanceFunctions/arm_braycurtis_distance_f32.c ****       accumSum += fabsf(*pA++ + *pB++);
 157:../Dave/Generated/CMSIS_DSP/Source/DistanceFunctions/arm_braycurtis_distance_f32.c ****       blkCnt --;
 158:../Dave/Generated/CMSIS_DSP/Source/DistanceFunctions/arm_braycurtis_distance_f32.c ****    }
 159:../Dave/Generated/CMSIS_DSP/Source/DistanceFunctions/arm_braycurtis_distance_f32.c ****    /*
 160:../Dave/Generated/CMSIS_DSP/Source/DistanceFunctions/arm_braycurtis_distance_f32.c **** 
 161:../Dave/Generated/CMSIS_DSP/Source/DistanceFunctions/arm_braycurtis_distance_f32.c ****    It is assumed that accumSum is not zero. Since it is the sum of several absolute
 162:../Dave/Generated/CMSIS_DSP/Source/DistanceFunctions/arm_braycurtis_distance_f32.c ****    values it would imply that all of them are zero. It is very unlikely for long vectors.
 163:../Dave/Generated/CMSIS_DSP/Source/DistanceFunctions/arm_braycurtis_distance_f32.c **** 
 164:../Dave/Generated/CMSIS_DSP/Source/DistanceFunctions/arm_braycurtis_distance_f32.c ****    */
 165:../Dave/Generated/CMSIS_DSP/Source/DistanceFunctions/arm_braycurtis_distance_f32.c ****    return(accumDiff / accumSum);
 166:../Dave/Generated/CMSIS_DSP/Source/DistanceFunctions/arm_braycurtis_distance_f32.c **** }
 167:../Dave/Generated/CMSIS_DSP/Source/DistanceFunctions/arm_braycurtis_distance_f32.c **** 
 168:../Dave/Generated/CMSIS_DSP/Source/DistanceFunctions/arm_braycurtis_distance_f32.c **** #else
 169:../Dave/Generated/CMSIS_DSP/Source/DistanceFunctions/arm_braycurtis_distance_f32.c **** float32_t arm_braycurtis_distance_f32(const float32_t *pA,const float32_t *pB, uint32_t blockSize)
 170:../Dave/Generated/CMSIS_DSP/Source/DistanceFunctions/arm_braycurtis_distance_f32.c **** {
  28              	 .loc 1 170 0
  29              	 .cfi_startproc
  30              	 
  31              	 
  32              	 
  33 0000 80B4     	 push {r7}
  34              	.LCFI0:
  35              	 .cfi_def_cfa_offset 4
  36              	 .cfi_offset 7,-4
  37 0002 89B0     	 sub sp,sp,#36
  38              	.LCFI1:
  39              	 .cfi_def_cfa_offset 40
  40 0004 00AF     	 add r7,sp,#0
  41              	.LCFI2:
  42              	 .cfi_def_cfa_register 7
  43 0006 F860     	 str r0,[r7,#12]
  44 0008 B960     	 str r1,[r7,#8]
  45 000a 7A60     	 str r2,[r7,#4]
 171:../Dave/Generated/CMSIS_DSP/Source/DistanceFunctions/arm_braycurtis_distance_f32.c ****    float32_t accumDiff=0.0f, accumSum=0.0f, tmpA, tmpB;
  46              	 .loc 1 171 0
  47 000c 4FF00003 	 mov r3,#0
  48 0010 FB61     	 str r3,[r7,#28]
  49 0012 4FF00003 	 mov r3,#0
  50 0016 BB61     	 str r3,[r7,#24]
 172:../Dave/Generated/CMSIS_DSP/Source/DistanceFunctions/arm_braycurtis_distance_f32.c **** 
 173:../Dave/Generated/CMSIS_DSP/Source/DistanceFunctions/arm_braycurtis_distance_f32.c ****    while(blockSize > 0)
  51              	 .loc 1 173 0
  52 0018 28E0     	 b .L2
  53              	.L3:
 174:../Dave/Generated/CMSIS_DSP/Source/DistanceFunctions/arm_braycurtis_distance_f32.c ****    {
 175:../Dave/Generated/CMSIS_DSP/Source/DistanceFunctions/arm_braycurtis_distance_f32.c ****       tmpA = *pA++;
  54              	 .loc 1 175 0
  55 001a FB68     	 ldr r3,[r7,#12]
  56 001c 1A1D     	 adds r2,r3,#4
  57 001e FA60     	 str r2,[r7,#12]
  58 0020 1B68     	 ldr r3,[r3]
  59 0022 7B61     	 str r3,[r7,#20]
 176:../Dave/Generated/CMSIS_DSP/Source/DistanceFunctions/arm_braycurtis_distance_f32.c ****       tmpB = *pB++;
  60              	 .loc 1 176 0
  61 0024 BB68     	 ldr r3,[r7,#8]
  62 0026 1A1D     	 adds r2,r3,#4
  63 0028 BA60     	 str r2,[r7,#8]
  64 002a 1B68     	 ldr r3,[r3]
  65 002c 3B61     	 str r3,[r7,#16]
 177:../Dave/Generated/CMSIS_DSP/Source/DistanceFunctions/arm_braycurtis_distance_f32.c ****       accumDiff += fabsf(tmpA - tmpB);
  66              	 .loc 1 177 0
  67 002e 97ED057A 	 flds s14,[r7,#20]
  68 0032 D7ED047A 	 flds s15,[r7,#16]
  69 0036 77EE677A 	 fsubs s15,s14,s15
  70 003a F0EEE77A 	 fabss s15,s15
  71 003e 97ED077A 	 flds s14,[r7,#28]
  72 0042 77EE277A 	 fadds s15,s14,s15
  73 0046 C7ED077A 	 fsts s15,[r7,#28]
 178:../Dave/Generated/CMSIS_DSP/Source/DistanceFunctions/arm_braycurtis_distance_f32.c ****       accumSum += fabsf(tmpA + tmpB);
  74              	 .loc 1 178 0
  75 004a 97ED057A 	 flds s14,[r7,#20]
  76 004e D7ED047A 	 flds s15,[r7,#16]
  77 0052 77EE277A 	 fadds s15,s14,s15
  78 0056 F0EEE77A 	 fabss s15,s15
  79 005a 97ED067A 	 flds s14,[r7,#24]
  80 005e 77EE277A 	 fadds s15,s14,s15
  81 0062 C7ED067A 	 fsts s15,[r7,#24]
 179:../Dave/Generated/CMSIS_DSP/Source/DistanceFunctions/arm_braycurtis_distance_f32.c ****       blockSize --;
  82              	 .loc 1 179 0
  83 0066 7B68     	 ldr r3,[r7,#4]
  84 0068 013B     	 subs r3,r3,#1
  85 006a 7B60     	 str r3,[r7,#4]
  86              	.L2:
 173:../Dave/Generated/CMSIS_DSP/Source/DistanceFunctions/arm_braycurtis_distance_f32.c ****    {
  87              	 .loc 1 173 0
  88 006c 7B68     	 ldr r3,[r7,#4]
  89 006e 002B     	 cmp r3,#0
  90 0070 D3D1     	 bne .L3
 180:../Dave/Generated/CMSIS_DSP/Source/DistanceFunctions/arm_braycurtis_distance_f32.c ****    }
 181:../Dave/Generated/CMSIS_DSP/Source/DistanceFunctions/arm_braycurtis_distance_f32.c ****    /*
 182:../Dave/Generated/CMSIS_DSP/Source/DistanceFunctions/arm_braycurtis_distance_f32.c **** 
 183:../Dave/Generated/CMSIS_DSP/Source/DistanceFunctions/arm_braycurtis_distance_f32.c ****    It is assumed that accumSum is not zero. Since it is the sum of several absolute
 184:../Dave/Generated/CMSIS_DSP/Source/DistanceFunctions/arm_braycurtis_distance_f32.c ****    values it would imply that all of them are zero. It is very unlikely for long vectors.
 185:../Dave/Generated/CMSIS_DSP/Source/DistanceFunctions/arm_braycurtis_distance_f32.c **** 
 186:../Dave/Generated/CMSIS_DSP/Source/DistanceFunctions/arm_braycurtis_distance_f32.c ****    */
 187:../Dave/Generated/CMSIS_DSP/Source/DistanceFunctions/arm_braycurtis_distance_f32.c ****    return(accumDiff / accumSum);
  91              	 .loc 1 187 0
  92 0072 97ED077A 	 flds s14,[r7,#28]
  93 0076 D7ED067A 	 flds s15,[r7,#24]
  94 007a C7EE277A 	 fdivs s15,s14,s15
  95 007e 17EE903A 	 fmrs r3,s15
 188:../Dave/Generated/CMSIS_DSP/Source/DistanceFunctions/arm_braycurtis_distance_f32.c **** }
  96              	 .loc 1 188 0
  97 0082 1846     	 mov r0,r3
  98 0084 2437     	 adds r7,r7,#36
  99              	.LCFI3:
 100              	 .cfi_def_cfa_offset 4
 101 0086 BD46     	 mov sp,r7
 102              	.LCFI4:
 103              	 .cfi_def_cfa_register 13
 104              	 
 105 0088 5DF8047B 	 ldr r7,[sp],#4
 106              	.LCFI5:
 107              	 .cfi_restore 7
 108              	 .cfi_def_cfa_offset 0
 109 008c 7047     	 bx lr
 110              	 .cfi_endproc
 111              	.LFE149:
 113 008e 00BF     	 .text
 114              	.Letext0:
 115              	 .file 2 "c:\\infineon\\tools\\dave ide\\4.5.0.202105191637\\eclipse\\arm-gcc-49\\arm-none-eabi\\include\\machine\\_default_types.h"
 116              	 .file 3 "c:\\infineon\\tools\\dave ide\\4.5.0.202105191637\\eclipse\\arm-gcc-49\\arm-none-eabi\\include\\stdint.h"
 117              	 .file 4 "C:/Users/Rui Mendes/Desktop/DAVE/_Naive/_ForTesting/Dave/Generated/CMSIS_DSP/Include/arm_math.h"
 118              	 .file 5 "C:/Users/Rui Mendes/Desktop/DAVE/_Naive/_ForTesting/Libraries/CMSIS/Include/cmsis_gcc.h"