   1              	 .syntax unified
   2              	 .cpu cortex-m4
   3              	 .eabi_attribute 27,3
   4              	 .fpu fpv4-sp-d16
   5              	 .eabi_attribute 20,1
   6              	 .eabi_attribute 21,1
   7              	 .eabi_attribute 23,3
   8              	 .eabi_attribute 24,1
   9              	 .eabi_attribute 25,1
  10              	 .eabi_attribute 26,1
  11              	 .eabi_attribute 30,6
  12              	 .eabi_attribute 34,1
  13              	 .eabi_attribute 18,4
  14              	 .thumb
  15              	 .file "arm_sokalsneath_distance.c"
  16              	 .text
  17              	.Ltext0:
  18              	 .cfi_sections .debug_frame
  19              	 .global __aeabi_ui2d
  20              	 .global __aeabi_dadd
  21              	 .global __aeabi_d2f
  22              	 .section .text.arm_sokalsneath_distance,"ax",%progbits
  23              	 .align 2
  24              	 .global arm_sokalsneath_distance
  25              	 .thumb
  26              	 .thumb_func
  28              	arm_sokalsneath_distance:
  29              	.LFB149:
  30              	 .file 1 "../Dave/Generated/CMSIS_DSP/Source/DistanceFunctions/arm_sokalsneath_distance.c"
   1:../Dave/Generated/CMSIS_DSP/Source/DistanceFunctions/arm_sokalsneath_distance.c **** 
   2:../Dave/Generated/CMSIS_DSP/Source/DistanceFunctions/arm_sokalsneath_distance.c **** /* ----------------------------------------------------------------------
   3:../Dave/Generated/CMSIS_DSP/Source/DistanceFunctions/arm_sokalsneath_distance.c ****  * Project:      CMSIS DSP Library
   4:../Dave/Generated/CMSIS_DSP/Source/DistanceFunctions/arm_sokalsneath_distance.c ****  * Title:        arm_sokalsneath_distance.c
   5:../Dave/Generated/CMSIS_DSP/Source/DistanceFunctions/arm_sokalsneath_distance.c ****  * Description:  Sokal-Sneath distance between two vectors
   6:../Dave/Generated/CMSIS_DSP/Source/DistanceFunctions/arm_sokalsneath_distance.c ****  *
   7:../Dave/Generated/CMSIS_DSP/Source/DistanceFunctions/arm_sokalsneath_distance.c ****  *
   8:../Dave/Generated/CMSIS_DSP/Source/DistanceFunctions/arm_sokalsneath_distance.c ****  * Target Processor: Cortex-M cores
   9:../Dave/Generated/CMSIS_DSP/Source/DistanceFunctions/arm_sokalsneath_distance.c ****  * -------------------------------------------------------------------- */
  10:../Dave/Generated/CMSIS_DSP/Source/DistanceFunctions/arm_sokalsneath_distance.c **** /*
  11:../Dave/Generated/CMSIS_DSP/Source/DistanceFunctions/arm_sokalsneath_distance.c ****  * Copyright (C) 2010-2019 ARM Limited or its affiliates. All rights reserved.
  12:../Dave/Generated/CMSIS_DSP/Source/DistanceFunctions/arm_sokalsneath_distance.c ****  *
  13:../Dave/Generated/CMSIS_DSP/Source/DistanceFunctions/arm_sokalsneath_distance.c ****  * SPDX-License-Identifier: Apache-2.0
  14:../Dave/Generated/CMSIS_DSP/Source/DistanceFunctions/arm_sokalsneath_distance.c ****  *
  15:../Dave/Generated/CMSIS_DSP/Source/DistanceFunctions/arm_sokalsneath_distance.c ****  * Licensed under the Apache License, Version 2.0 (the License); you may
  16:../Dave/Generated/CMSIS_DSP/Source/DistanceFunctions/arm_sokalsneath_distance.c ****  * not use this file except in compliance with the License.
  17:../Dave/Generated/CMSIS_DSP/Source/DistanceFunctions/arm_sokalsneath_distance.c ****  * You may obtain a copy of the License at
  18:../Dave/Generated/CMSIS_DSP/Source/DistanceFunctions/arm_sokalsneath_distance.c ****  *
  19:../Dave/Generated/CMSIS_DSP/Source/DistanceFunctions/arm_sokalsneath_distance.c ****  * www.apache.org/licenses/LICENSE-2.0
  20:../Dave/Generated/CMSIS_DSP/Source/DistanceFunctions/arm_sokalsneath_distance.c ****  *
  21:../Dave/Generated/CMSIS_DSP/Source/DistanceFunctions/arm_sokalsneath_distance.c ****  * Unless required by applicable law or agreed to in writing, software
  22:../Dave/Generated/CMSIS_DSP/Source/DistanceFunctions/arm_sokalsneath_distance.c ****  * distributed under the License is distributed on an AS IS BASIS, WITHOUT
  23:../Dave/Generated/CMSIS_DSP/Source/DistanceFunctions/arm_sokalsneath_distance.c ****  * WARRANTIES OR CONDITIONS OF ANY KIND, either express or implied.
  24:../Dave/Generated/CMSIS_DSP/Source/DistanceFunctions/arm_sokalsneath_distance.c ****  * See the License for the specific language governing permissions and
  25:../Dave/Generated/CMSIS_DSP/Source/DistanceFunctions/arm_sokalsneath_distance.c ****  * limitations under the License.
  26:../Dave/Generated/CMSIS_DSP/Source/DistanceFunctions/arm_sokalsneath_distance.c ****  */
  27:../Dave/Generated/CMSIS_DSP/Source/DistanceFunctions/arm_sokalsneath_distance.c **** 
  28:../Dave/Generated/CMSIS_DSP/Source/DistanceFunctions/arm_sokalsneath_distance.c **** #include "CMSIS_DSP/cmsis_dsp.h"
  29:../Dave/Generated/CMSIS_DSP/Source/DistanceFunctions/arm_sokalsneath_distance.c **** #include <limits.h>
  30:../Dave/Generated/CMSIS_DSP/Source/DistanceFunctions/arm_sokalsneath_distance.c **** #include <math.h>
  31:../Dave/Generated/CMSIS_DSP/Source/DistanceFunctions/arm_sokalsneath_distance.c **** 
  32:../Dave/Generated/CMSIS_DSP/Source/DistanceFunctions/arm_sokalsneath_distance.c **** 
  33:../Dave/Generated/CMSIS_DSP/Source/DistanceFunctions/arm_sokalsneath_distance.c **** extern void arm_boolean_distance_TT_TF_FT(const uint32_t *pA
  34:../Dave/Generated/CMSIS_DSP/Source/DistanceFunctions/arm_sokalsneath_distance.c ****        , const uint32_t *pB
  35:../Dave/Generated/CMSIS_DSP/Source/DistanceFunctions/arm_sokalsneath_distance.c ****        , uint32_t numberOfBools
  36:../Dave/Generated/CMSIS_DSP/Source/DistanceFunctions/arm_sokalsneath_distance.c ****        , uint32_t *cTT
  37:../Dave/Generated/CMSIS_DSP/Source/DistanceFunctions/arm_sokalsneath_distance.c ****        , uint32_t *cTF
  38:../Dave/Generated/CMSIS_DSP/Source/DistanceFunctions/arm_sokalsneath_distance.c ****        , uint32_t *cFT
  39:../Dave/Generated/CMSIS_DSP/Source/DistanceFunctions/arm_sokalsneath_distance.c ****        );
  40:../Dave/Generated/CMSIS_DSP/Source/DistanceFunctions/arm_sokalsneath_distance.c **** 
  41:../Dave/Generated/CMSIS_DSP/Source/DistanceFunctions/arm_sokalsneath_distance.c **** 
  42:../Dave/Generated/CMSIS_DSP/Source/DistanceFunctions/arm_sokalsneath_distance.c **** /**
  43:../Dave/Generated/CMSIS_DSP/Source/DistanceFunctions/arm_sokalsneath_distance.c ****   @addtogroup BoolDist
  44:../Dave/Generated/CMSIS_DSP/Source/DistanceFunctions/arm_sokalsneath_distance.c ****   @{
  45:../Dave/Generated/CMSIS_DSP/Source/DistanceFunctions/arm_sokalsneath_distance.c ****  */
  46:../Dave/Generated/CMSIS_DSP/Source/DistanceFunctions/arm_sokalsneath_distance.c **** 
  47:../Dave/Generated/CMSIS_DSP/Source/DistanceFunctions/arm_sokalsneath_distance.c **** /**
  48:../Dave/Generated/CMSIS_DSP/Source/DistanceFunctions/arm_sokalsneath_distance.c ****  * @brief        Sokal-Sneath distance between two vectors
  49:../Dave/Generated/CMSIS_DSP/Source/DistanceFunctions/arm_sokalsneath_distance.c ****  *
  50:../Dave/Generated/CMSIS_DSP/Source/DistanceFunctions/arm_sokalsneath_distance.c ****  * @param[in]    pA              First vector of packed booleans
  51:../Dave/Generated/CMSIS_DSP/Source/DistanceFunctions/arm_sokalsneath_distance.c ****  * @param[in]    pB              Second vector of packed booleans
  52:../Dave/Generated/CMSIS_DSP/Source/DistanceFunctions/arm_sokalsneath_distance.c ****  * @param[in]    numberOfBools   Number of booleans
  53:../Dave/Generated/CMSIS_DSP/Source/DistanceFunctions/arm_sokalsneath_distance.c ****  * @return distance
  54:../Dave/Generated/CMSIS_DSP/Source/DistanceFunctions/arm_sokalsneath_distance.c ****  *
  55:../Dave/Generated/CMSIS_DSP/Source/DistanceFunctions/arm_sokalsneath_distance.c ****  */
  56:../Dave/Generated/CMSIS_DSP/Source/DistanceFunctions/arm_sokalsneath_distance.c **** 
  57:../Dave/Generated/CMSIS_DSP/Source/DistanceFunctions/arm_sokalsneath_distance.c **** float32_t arm_sokalsneath_distance(const uint32_t *pA, const uint32_t *pB, uint32_t numberOfBools)
  58:../Dave/Generated/CMSIS_DSP/Source/DistanceFunctions/arm_sokalsneath_distance.c **** {
  31              	 .loc 1 58 0
  32              	 .cfi_startproc
  33              	 
  34              	 
  35 0000 90B5     	 push {r4,r7,lr}
  36              	.LCFI0:
  37              	 .cfi_def_cfa_offset 12
  38              	 .cfi_offset 4,-12
  39              	 .cfi_offset 7,-8
  40              	 .cfi_offset 14,-4
  41 0002 8BB0     	 sub sp,sp,#44
  42              	.LCFI1:
  43              	 .cfi_def_cfa_offset 56
  44 0004 02AF     	 add r7,sp,#8
  45              	.LCFI2:
  46              	 .cfi_def_cfa 7,48
  47 0006 F860     	 str r0,[r7,#12]
  48 0008 B960     	 str r1,[r7,#8]
  49 000a 7A60     	 str r2,[r7,#4]
  59:../Dave/Generated/CMSIS_DSP/Source/DistanceFunctions/arm_sokalsneath_distance.c ****     uint32_t ctt=0,cft=0,ctf=0;
  50              	 .loc 1 59 0
  51 000c 0023     	 movs r3,#0
  52 000e BB61     	 str r3,[r7,#24]
  53 0010 0023     	 movs r3,#0
  54 0012 7B61     	 str r3,[r7,#20]
  55 0014 0023     	 movs r3,#0
  56 0016 3B61     	 str r3,[r7,#16]
  60:../Dave/Generated/CMSIS_DSP/Source/DistanceFunctions/arm_sokalsneath_distance.c ****     float32_t r;
  61:../Dave/Generated/CMSIS_DSP/Source/DistanceFunctions/arm_sokalsneath_distance.c **** 
  62:../Dave/Generated/CMSIS_DSP/Source/DistanceFunctions/arm_sokalsneath_distance.c ****     arm_boolean_distance_TT_TF_FT(pA, pB, numberOfBools, &ctt, &ctf, &cft);
  57              	 .loc 1 62 0
  58 0018 07F11804 	 add r4,r7,#24
  59 001c 07F11003 	 add r3,r7,#16
  60 0020 0093     	 str r3,[sp]
  61 0022 07F11403 	 add r3,r7,#20
  62 0026 0193     	 str r3,[sp,#4]
  63 0028 F868     	 ldr r0,[r7,#12]
  64 002a B968     	 ldr r1,[r7,#8]
  65 002c 7A68     	 ldr r2,[r7,#4]
  66 002e 2346     	 mov r3,r4
  67 0030 FFF7FEFF 	 bl arm_boolean_distance_TT_TF_FT
  63:../Dave/Generated/CMSIS_DSP/Source/DistanceFunctions/arm_sokalsneath_distance.c **** 
  64:../Dave/Generated/CMSIS_DSP/Source/DistanceFunctions/arm_sokalsneath_distance.c ****     r = 2.0*(ctf + cft);
  68              	 .loc 1 64 0
  69 0034 3A69     	 ldr r2,[r7,#16]
  70 0036 7B69     	 ldr r3,[r7,#20]
  71 0038 1344     	 add r3,r3,r2
  72 003a 1846     	 mov r0,r3
  73 003c FFF7FEFF 	 bl __aeabi_ui2d
  74 0040 0246     	 mov r2,r0
  75 0042 0B46     	 mov r3,r1
  76 0044 1046     	 mov r0,r2
  77 0046 1946     	 mov r1,r3
  78 0048 FFF7FEFF 	 bl __aeabi_dadd
  79 004c 0246     	 mov r2,r0
  80 004e 0B46     	 mov r3,r1
  81 0050 1046     	 mov r0,r2
  82 0052 1946     	 mov r1,r3
  83 0054 FFF7FEFF 	 bl __aeabi_d2f
  84 0058 0346     	 mov r3,r0
  85 005a FB61     	 str r3,[r7,#28]
  65:../Dave/Generated/CMSIS_DSP/Source/DistanceFunctions/arm_sokalsneath_distance.c **** 
  66:../Dave/Generated/CMSIS_DSP/Source/DistanceFunctions/arm_sokalsneath_distance.c ****     return(r / (r + ctt));
  86              	 .loc 1 66 0
  87 005c BB69     	 ldr r3,[r7,#24]
  88 005e 07EE903A 	 fmsr s15,r3
  89 0062 B8EE677A 	 fuitos s14,s15
  90 0066 D7ED077A 	 flds s15,[r7,#28]
  91 006a 77EE277A 	 fadds s15,s14,s15
  92 006e 97ED077A 	 flds s14,[r7,#28]
  93 0072 C7EE277A 	 fdivs s15,s14,s15
  94 0076 17EE903A 	 fmrs r3,s15
  67:../Dave/Generated/CMSIS_DSP/Source/DistanceFunctions/arm_sokalsneath_distance.c **** }
  95              	 .loc 1 67 0
  96 007a 1846     	 mov r0,r3
  97 007c 2437     	 adds r7,r7,#36
  98              	.LCFI3:
  99              	 .cfi_def_cfa_offset 12
 100 007e BD46     	 mov sp,r7
 101              	.LCFI4:
 102              	 .cfi_def_cfa_register 13
 103              	 
 104 0080 90BD     	 pop {r4,r7,pc}
 105              	 .cfi_endproc
 106              	.LFE149:
 108 0082 00BF     	 .text
 109              	.Letext0:
 110              	 .file 2 "c:\\infineon\\tools\\dave ide\\4.5.0.202105191637\\eclipse\\arm-gcc-49\\arm-none-eabi\\include\\machine\\_default_types.h"
 111              	 .file 3 "c:\\infineon\\tools\\dave ide\\4.5.0.202105191637\\eclipse\\arm-gcc-49\\arm-none-eabi\\include\\stdint.h"
 112              	 .file 4 "C:/Users/Rui Mendes/Desktop/DAVE/_Naive/_ForTesting/Dave/Generated/CMSIS_DSP/Include/arm_math.h"
 113              	 .file 5 "C:/Users/Rui Mendes/Desktop/DAVE/_Naive/_ForTesting/Libraries/CMSIS/Include/cmsis_gcc.h"