   1              	 .syntax unified
   2              	 .cpu cortex-m4
   3              	 .eabi_attribute 27,3
   4              	 .fpu fpv4-sp-d16
   5              	 .eabi_attribute 20,1
   6              	 .eabi_attribute 21,1
   7              	 .eabi_attribute 23,3
   8              	 .eabi_attribute 24,1
   9              	 .eabi_attribute 25,1
  10              	 .eabi_attribute 26,1
  11              	 .eabi_attribute 30,6
  12              	 .eabi_attribute 34,1
  13              	 .eabi_attribute 18,4
  14              	 .thumb
  15              	 .file "arm_rogerstanimoto_distance.c"
  16              	 .text
  17              	.Ltext0:
  18              	 .cfi_sections .debug_frame
  19              	 .global __aeabi_ui2d
  20              	 .global __aeabi_ddiv
  21              	 .global __aeabi_d2f
  22              	 .section .text.arm_rogerstanimoto_distance,"ax",%progbits
  23              	 .align 2
  24              	 .global arm_rogerstanimoto_distance
  25              	 .thumb
  26              	 .thumb_func
  28              	arm_rogerstanimoto_distance:
  29              	.LFB149:
  30              	 .file 1 "../Dave/Generated/CMSIS_DSP/Source/DistanceFunctions/arm_rogerstanimoto_distance.c"
   1:../Dave/Generated/CMSIS_DSP/Source/DistanceFunctions/arm_rogerstanimoto_distance.c **** 
   2:../Dave/Generated/CMSIS_DSP/Source/DistanceFunctions/arm_rogerstanimoto_distance.c **** /* ----------------------------------------------------------------------
   3:../Dave/Generated/CMSIS_DSP/Source/DistanceFunctions/arm_rogerstanimoto_distance.c ****  * Project:      CMSIS DSP Library
   4:../Dave/Generated/CMSIS_DSP/Source/DistanceFunctions/arm_rogerstanimoto_distance.c ****  * Title:        arm_rogerstanimoto_distance.c
   5:../Dave/Generated/CMSIS_DSP/Source/DistanceFunctions/arm_rogerstanimoto_distance.c ****  * Description:  Roger Stanimoto distance between two vectors
   6:../Dave/Generated/CMSIS_DSP/Source/DistanceFunctions/arm_rogerstanimoto_distance.c ****  *
   7:../Dave/Generated/CMSIS_DSP/Source/DistanceFunctions/arm_rogerstanimoto_distance.c ****  *
   8:../Dave/Generated/CMSIS_DSP/Source/DistanceFunctions/arm_rogerstanimoto_distance.c ****  * Target Processor: Cortex-M cores
   9:../Dave/Generated/CMSIS_DSP/Source/DistanceFunctions/arm_rogerstanimoto_distance.c ****  * -------------------------------------------------------------------- */
  10:../Dave/Generated/CMSIS_DSP/Source/DistanceFunctions/arm_rogerstanimoto_distance.c **** /*
  11:../Dave/Generated/CMSIS_DSP/Source/DistanceFunctions/arm_rogerstanimoto_distance.c ****  * Copyright (C) 2010-2019 ARM Limited or its affiliates. All rights reserved.
  12:../Dave/Generated/CMSIS_DSP/Source/DistanceFunctions/arm_rogerstanimoto_distance.c ****  *
  13:../Dave/Generated/CMSIS_DSP/Source/DistanceFunctions/arm_rogerstanimoto_distance.c ****  * SPDX-License-Identifier: Apache-2.0
  14:../Dave/Generated/CMSIS_DSP/Source/DistanceFunctions/arm_rogerstanimoto_distance.c ****  *
  15:../Dave/Generated/CMSIS_DSP/Source/DistanceFunctions/arm_rogerstanimoto_distance.c ****  * Licensed under the Apache License, Version 2.0 (the License); you may
  16:../Dave/Generated/CMSIS_DSP/Source/DistanceFunctions/arm_rogerstanimoto_distance.c ****  * not use this file except in compliance with the License.
  17:../Dave/Generated/CMSIS_DSP/Source/DistanceFunctions/arm_rogerstanimoto_distance.c ****  * You may obtain a copy of the License at
  18:../Dave/Generated/CMSIS_DSP/Source/DistanceFunctions/arm_rogerstanimoto_distance.c ****  *
  19:../Dave/Generated/CMSIS_DSP/Source/DistanceFunctions/arm_rogerstanimoto_distance.c ****  * www.apache.org/licenses/LICENSE-2.0
  20:../Dave/Generated/CMSIS_DSP/Source/DistanceFunctions/arm_rogerstanimoto_distance.c ****  *
  21:../Dave/Generated/CMSIS_DSP/Source/DistanceFunctions/arm_rogerstanimoto_distance.c ****  * Unless required by applicable law or agreed to in writing, software
  22:../Dave/Generated/CMSIS_DSP/Source/DistanceFunctions/arm_rogerstanimoto_distance.c ****  * distributed under the License is distributed on an AS IS BASIS, WITHOUT
  23:../Dave/Generated/CMSIS_DSP/Source/DistanceFunctions/arm_rogerstanimoto_distance.c ****  * WARRANTIES OR CONDITIONS OF ANY KIND, either express or implied.
  24:../Dave/Generated/CMSIS_DSP/Source/DistanceFunctions/arm_rogerstanimoto_distance.c ****  * See the License for the specific language governing permissions and
  25:../Dave/Generated/CMSIS_DSP/Source/DistanceFunctions/arm_rogerstanimoto_distance.c ****  * limitations under the License.
  26:../Dave/Generated/CMSIS_DSP/Source/DistanceFunctions/arm_rogerstanimoto_distance.c ****  */
  27:../Dave/Generated/CMSIS_DSP/Source/DistanceFunctions/arm_rogerstanimoto_distance.c **** 
  28:../Dave/Generated/CMSIS_DSP/Source/DistanceFunctions/arm_rogerstanimoto_distance.c **** #include "CMSIS_DSP/cmsis_dsp.h"
  29:../Dave/Generated/CMSIS_DSP/Source/DistanceFunctions/arm_rogerstanimoto_distance.c **** #include <limits.h>
  30:../Dave/Generated/CMSIS_DSP/Source/DistanceFunctions/arm_rogerstanimoto_distance.c **** #include <math.h>
  31:../Dave/Generated/CMSIS_DSP/Source/DistanceFunctions/arm_rogerstanimoto_distance.c **** 
  32:../Dave/Generated/CMSIS_DSP/Source/DistanceFunctions/arm_rogerstanimoto_distance.c **** 
  33:../Dave/Generated/CMSIS_DSP/Source/DistanceFunctions/arm_rogerstanimoto_distance.c **** 
  34:../Dave/Generated/CMSIS_DSP/Source/DistanceFunctions/arm_rogerstanimoto_distance.c **** extern void arm_boolean_distance_TT_FF_TF_FT(const uint32_t *pA
  35:../Dave/Generated/CMSIS_DSP/Source/DistanceFunctions/arm_rogerstanimoto_distance.c ****        , const uint32_t *pB
  36:../Dave/Generated/CMSIS_DSP/Source/DistanceFunctions/arm_rogerstanimoto_distance.c ****        , uint32_t numberOfBools
  37:../Dave/Generated/CMSIS_DSP/Source/DistanceFunctions/arm_rogerstanimoto_distance.c ****        , uint32_t *cTT
  38:../Dave/Generated/CMSIS_DSP/Source/DistanceFunctions/arm_rogerstanimoto_distance.c ****        , uint32_t *cFF
  39:../Dave/Generated/CMSIS_DSP/Source/DistanceFunctions/arm_rogerstanimoto_distance.c ****        , uint32_t *cTF
  40:../Dave/Generated/CMSIS_DSP/Source/DistanceFunctions/arm_rogerstanimoto_distance.c ****        , uint32_t *cFT
  41:../Dave/Generated/CMSIS_DSP/Source/DistanceFunctions/arm_rogerstanimoto_distance.c ****        );
  42:../Dave/Generated/CMSIS_DSP/Source/DistanceFunctions/arm_rogerstanimoto_distance.c **** 
  43:../Dave/Generated/CMSIS_DSP/Source/DistanceFunctions/arm_rogerstanimoto_distance.c **** 
  44:../Dave/Generated/CMSIS_DSP/Source/DistanceFunctions/arm_rogerstanimoto_distance.c **** /**
  45:../Dave/Generated/CMSIS_DSP/Source/DistanceFunctions/arm_rogerstanimoto_distance.c ****   @addtogroup BoolDist
  46:../Dave/Generated/CMSIS_DSP/Source/DistanceFunctions/arm_rogerstanimoto_distance.c ****   @{
  47:../Dave/Generated/CMSIS_DSP/Source/DistanceFunctions/arm_rogerstanimoto_distance.c ****  */
  48:../Dave/Generated/CMSIS_DSP/Source/DistanceFunctions/arm_rogerstanimoto_distance.c **** 
  49:../Dave/Generated/CMSIS_DSP/Source/DistanceFunctions/arm_rogerstanimoto_distance.c **** /**
  50:../Dave/Generated/CMSIS_DSP/Source/DistanceFunctions/arm_rogerstanimoto_distance.c ****  * @brief        Roger Stanimoto distance between two vectors
  51:../Dave/Generated/CMSIS_DSP/Source/DistanceFunctions/arm_rogerstanimoto_distance.c ****  *
  52:../Dave/Generated/CMSIS_DSP/Source/DistanceFunctions/arm_rogerstanimoto_distance.c ****  * @param[in]    pA              First vector of packed booleans
  53:../Dave/Generated/CMSIS_DSP/Source/DistanceFunctions/arm_rogerstanimoto_distance.c ****  * @param[in]    pB              Second vector of packed booleans
  54:../Dave/Generated/CMSIS_DSP/Source/DistanceFunctions/arm_rogerstanimoto_distance.c ****  * @param[in]    numberOfBools   Number of booleans
  55:../Dave/Generated/CMSIS_DSP/Source/DistanceFunctions/arm_rogerstanimoto_distance.c ****  * @return distance
  56:../Dave/Generated/CMSIS_DSP/Source/DistanceFunctions/arm_rogerstanimoto_distance.c ****  *
  57:../Dave/Generated/CMSIS_DSP/Source/DistanceFunctions/arm_rogerstanimoto_distance.c ****  */
  58:../Dave/Generated/CMSIS_DSP/Source/DistanceFunctions/arm_rogerstanimoto_distance.c **** 
  59:../Dave/Generated/CMSIS_DSP/Source/DistanceFunctions/arm_rogerstanimoto_distance.c **** float32_t arm_rogerstanimoto_distance(const uint32_t *pA, const uint32_t *pB, uint32_t numberOfBool
  60:../Dave/Generated/CMSIS_DSP/Source/DistanceFunctions/arm_rogerstanimoto_distance.c **** {
  31              	 .loc 1 60 0
  32              	 .cfi_startproc
  33              	 
  34              	 
  35 0000 B0B5     	 push {r4,r5,r7,lr}
  36              	.LCFI0:
  37              	 .cfi_def_cfa_offset 16
  38              	 .cfi_offset 4,-16
  39              	 .cfi_offset 5,-12
  40              	 .cfi_offset 7,-8
  41              	 .cfi_offset 14,-4
  42 0002 8EB0     	 sub sp,sp,#56
  43              	.LCFI1:
  44              	 .cfi_def_cfa_offset 72
  45 0004 04AF     	 add r7,sp,#16
  46              	.LCFI2:
  47              	 .cfi_def_cfa 7,56
  48 0006 F860     	 str r0,[r7,#12]
  49 0008 B960     	 str r1,[r7,#8]
  50 000a 7A60     	 str r2,[r7,#4]
  61:../Dave/Generated/CMSIS_DSP/Source/DistanceFunctions/arm_rogerstanimoto_distance.c ****     uint32_t ctt=0,cff=0,ctf=0,cft=0,r;
  51              	 .loc 1 61 0
  52 000c 0023     	 movs r3,#0
  53 000e 3B62     	 str r3,[r7,#32]
  54 0010 0023     	 movs r3,#0
  55 0012 FB61     	 str r3,[r7,#28]
  56 0014 0023     	 movs r3,#0
  57 0016 BB61     	 str r3,[r7,#24]
  58 0018 0023     	 movs r3,#0
  59 001a 7B61     	 str r3,[r7,#20]
  62:../Dave/Generated/CMSIS_DSP/Source/DistanceFunctions/arm_rogerstanimoto_distance.c **** 
  63:../Dave/Generated/CMSIS_DSP/Source/DistanceFunctions/arm_rogerstanimoto_distance.c ****     arm_boolean_distance_TT_FF_TF_FT(pA, pB, numberOfBools, &ctt,&cff, &ctf, &cft);
  60              	 .loc 1 63 0
  61 001c 07F12004 	 add r4,r7,#32
  62 0020 07F11C03 	 add r3,r7,#28
  63 0024 0093     	 str r3,[sp]
  64 0026 07F11803 	 add r3,r7,#24
  65 002a 0193     	 str r3,[sp,#4]
  66 002c 07F11403 	 add r3,r7,#20
  67 0030 0293     	 str r3,[sp,#8]
  68 0032 F868     	 ldr r0,[r7,#12]
  69 0034 B968     	 ldr r1,[r7,#8]
  70 0036 7A68     	 ldr r2,[r7,#4]
  71 0038 2346     	 mov r3,r4
  72 003a FFF7FEFF 	 bl arm_boolean_distance_TT_FF_TF_FT
  64:../Dave/Generated/CMSIS_DSP/Source/DistanceFunctions/arm_rogerstanimoto_distance.c **** 
  65:../Dave/Generated/CMSIS_DSP/Source/DistanceFunctions/arm_rogerstanimoto_distance.c ****     r = 2*(ctf + cft);
  73              	 .loc 1 65 0
  74 003e BA69     	 ldr r2,[r7,#24]
  75 0040 7B69     	 ldr r3,[r7,#20]
  76 0042 1344     	 add r3,r3,r2
  77 0044 5B00     	 lsls r3,r3,#1
  78 0046 7B62     	 str r3,[r7,#36]
  66:../Dave/Generated/CMSIS_DSP/Source/DistanceFunctions/arm_rogerstanimoto_distance.c **** 
  67:../Dave/Generated/CMSIS_DSP/Source/DistanceFunctions/arm_rogerstanimoto_distance.c ****     return(1.0*r / (r + ctt + cff));
  79              	 .loc 1 67 0
  80 0048 786A     	 ldr r0,[r7,#36]
  81 004a FFF7FEFF 	 bl __aeabi_ui2d
  82 004e 0446     	 mov r4,r0
  83 0050 0D46     	 mov r5,r1
  84 0052 3A6A     	 ldr r2,[r7,#32]
  85 0054 7B6A     	 ldr r3,[r7,#36]
  86 0056 1A44     	 add r2,r2,r3
  87 0058 FB69     	 ldr r3,[r7,#28]
  88 005a 1344     	 add r3,r3,r2
  89 005c 1846     	 mov r0,r3
  90 005e FFF7FEFF 	 bl __aeabi_ui2d
  91 0062 0246     	 mov r2,r0
  92 0064 0B46     	 mov r3,r1
  93 0066 2046     	 mov r0,r4
  94 0068 2946     	 mov r1,r5
  95 006a FFF7FEFF 	 bl __aeabi_ddiv
  96 006e 0246     	 mov r2,r0
  97 0070 0B46     	 mov r3,r1
  98 0072 1046     	 mov r0,r2
  99 0074 1946     	 mov r1,r3
 100 0076 FFF7FEFF 	 bl __aeabi_d2f
 101 007a 0346     	 mov r3,r0
  68:../Dave/Generated/CMSIS_DSP/Source/DistanceFunctions/arm_rogerstanimoto_distance.c **** }
 102              	 .loc 1 68 0
 103 007c 1846     	 mov r0,r3
 104 007e 2837     	 adds r7,r7,#40
 105              	.LCFI3:
 106              	 .cfi_def_cfa_offset 16
 107 0080 BD46     	 mov sp,r7
 108              	.LCFI4:
 109              	 .cfi_def_cfa_register 13
 110              	 
 111 0082 B0BD     	 pop {r4,r5,r7,pc}
 112              	 .cfi_endproc
 113              	.LFE149:
 115              	 .text
 116              	.Letext0:
 117              	 .file 2 "c:\\infineon\\tools\\dave ide\\4.5.0.202105191637\\eclipse\\arm-gcc-49\\arm-none-eabi\\include\\machine\\_default_types.h"
 118              	 .file 3 "c:\\infineon\\tools\\dave ide\\4.5.0.202105191637\\eclipse\\arm-gcc-49\\arm-none-eabi\\include\\stdint.h"
 119              	 .file 4 "C:/Users/Rui Mendes/Desktop/DAVE/_Naive/_ForTesting/Dave/Generated/CMSIS_DSP/Include/arm_math.h"
 120              	 .file 5 "C:/Users/Rui Mendes/Desktop/DAVE/_Naive/_ForTesting/Libraries/CMSIS/Include/cmsis_gcc.h"