   1              	 .syntax unified
   2              	 .cpu cortex-m4
   3              	 .eabi_attribute 27,3
   4              	 .fpu fpv4-sp-d16
   5              	 .eabi_attribute 20,1
   6              	 .eabi_attribute 21,1
   7              	 .eabi_attribute 23,3
   8              	 .eabi_attribute 24,1
   9              	 .eabi_attribute 25,1
  10              	 .eabi_attribute 26,1
  11              	 .eabi_attribute 30,6
  12              	 .eabi_attribute 34,1
  13              	 .eabi_attribute 18,4
  14              	 .thumb
  15              	 .file "arm_sokalmichener_distance.c"
  16              	 .text
  17              	.Ltext0:
  18              	 .cfi_sections .debug_frame
  19              	 .global __aeabi_ui2d
  20              	 .global __aeabi_dadd
  21              	 .global __aeabi_d2f
  22              	 .section .text.arm_sokalmichener_distance,"ax",%progbits
  23              	 .align 2
  24              	 .global arm_sokalmichener_distance
  25              	 .thumb
  26              	 .thumb_func
  28              	arm_sokalmichener_distance:
  29              	.LFB149:
  30              	 .file 1 "../Dave/Generated/CMSIS_DSP/Source/DistanceFunctions/arm_sokalmichener_distance.c"
   1:../Dave/Generated/CMSIS_DSP/Source/DistanceFunctions/arm_sokalmichener_distance.c **** 
   2:../Dave/Generated/CMSIS_DSP/Source/DistanceFunctions/arm_sokalmichener_distance.c **** /* ----------------------------------------------------------------------
   3:../Dave/Generated/CMSIS_DSP/Source/DistanceFunctions/arm_sokalmichener_distance.c ****  * Project:      CMSIS DSP Library
   4:../Dave/Generated/CMSIS_DSP/Source/DistanceFunctions/arm_sokalmichener_distance.c ****  * Title:        arm_sokalmichener_distance.c
   5:../Dave/Generated/CMSIS_DSP/Source/DistanceFunctions/arm_sokalmichener_distance.c ****  * Description:  Sokal-Michener distance between two vectors
   6:../Dave/Generated/CMSIS_DSP/Source/DistanceFunctions/arm_sokalmichener_distance.c ****  *
   7:../Dave/Generated/CMSIS_DSP/Source/DistanceFunctions/arm_sokalmichener_distance.c ****  *
   8:../Dave/Generated/CMSIS_DSP/Source/DistanceFunctions/arm_sokalmichener_distance.c ****  * Target Processor: Cortex-M cores
   9:../Dave/Generated/CMSIS_DSP/Source/DistanceFunctions/arm_sokalmichener_distance.c ****  * -------------------------------------------------------------------- */
  10:../Dave/Generated/CMSIS_DSP/Source/DistanceFunctions/arm_sokalmichener_distance.c **** /*
  11:../Dave/Generated/CMSIS_DSP/Source/DistanceFunctions/arm_sokalmichener_distance.c ****  * Copyright (C) 2010-2019 ARM Limited or its affiliates. All rights reserved.
  12:../Dave/Generated/CMSIS_DSP/Source/DistanceFunctions/arm_sokalmichener_distance.c ****  *
  13:../Dave/Generated/CMSIS_DSP/Source/DistanceFunctions/arm_sokalmichener_distance.c ****  * SPDX-License-Identifier: Apache-2.0
  14:../Dave/Generated/CMSIS_DSP/Source/DistanceFunctions/arm_sokalmichener_distance.c ****  *
  15:../Dave/Generated/CMSIS_DSP/Source/DistanceFunctions/arm_sokalmichener_distance.c ****  * Licensed under the Apache License, Version 2.0 (the License); you may
  16:../Dave/Generated/CMSIS_DSP/Source/DistanceFunctions/arm_sokalmichener_distance.c ****  * not use this file except in compliance with the License.
  17:../Dave/Generated/CMSIS_DSP/Source/DistanceFunctions/arm_sokalmichener_distance.c ****  * You may obtain a copy of the License at
  18:../Dave/Generated/CMSIS_DSP/Source/DistanceFunctions/arm_sokalmichener_distance.c ****  *
  19:../Dave/Generated/CMSIS_DSP/Source/DistanceFunctions/arm_sokalmichener_distance.c ****  * www.apache.org/licenses/LICENSE-2.0
  20:../Dave/Generated/CMSIS_DSP/Source/DistanceFunctions/arm_sokalmichener_distance.c ****  *
  21:../Dave/Generated/CMSIS_DSP/Source/DistanceFunctions/arm_sokalmichener_distance.c ****  * Unless required by applicable law or agreed to in writing, software
  22:../Dave/Generated/CMSIS_DSP/Source/DistanceFunctions/arm_sokalmichener_distance.c ****  * distributed under the License is distributed on an AS IS BASIS, WITHOUT
  23:../Dave/Generated/CMSIS_DSP/Source/DistanceFunctions/arm_sokalmichener_distance.c ****  * WARRANTIES OR CONDITIONS OF ANY KIND, either express or implied.
  24:../Dave/Generated/CMSIS_DSP/Source/DistanceFunctions/arm_sokalmichener_distance.c ****  * See the License for the specific language governing permissions and
  25:../Dave/Generated/CMSIS_DSP/Source/DistanceFunctions/arm_sokalmichener_distance.c ****  * limitations under the License.
  26:../Dave/Generated/CMSIS_DSP/Source/DistanceFunctions/arm_sokalmichener_distance.c ****  */
  27:../Dave/Generated/CMSIS_DSP/Source/DistanceFunctions/arm_sokalmichener_distance.c **** 
  28:../Dave/Generated/CMSIS_DSP/Source/DistanceFunctions/arm_sokalmichener_distance.c **** #include "CMSIS_DSP/cmsis_dsp.h"
  29:../Dave/Generated/CMSIS_DSP/Source/DistanceFunctions/arm_sokalmichener_distance.c **** #include <limits.h>
  30:../Dave/Generated/CMSIS_DSP/Source/DistanceFunctions/arm_sokalmichener_distance.c **** #include <math.h>
  31:../Dave/Generated/CMSIS_DSP/Source/DistanceFunctions/arm_sokalmichener_distance.c **** 
  32:../Dave/Generated/CMSIS_DSP/Source/DistanceFunctions/arm_sokalmichener_distance.c **** 
  33:../Dave/Generated/CMSIS_DSP/Source/DistanceFunctions/arm_sokalmichener_distance.c **** extern void arm_boolean_distance_TT_FF_TF_FT(const uint32_t *pA
  34:../Dave/Generated/CMSIS_DSP/Source/DistanceFunctions/arm_sokalmichener_distance.c ****        , const uint32_t *pB
  35:../Dave/Generated/CMSIS_DSP/Source/DistanceFunctions/arm_sokalmichener_distance.c ****        , uint32_t numberOfBools
  36:../Dave/Generated/CMSIS_DSP/Source/DistanceFunctions/arm_sokalmichener_distance.c ****        , uint32_t *cTT
  37:../Dave/Generated/CMSIS_DSP/Source/DistanceFunctions/arm_sokalmichener_distance.c ****        , uint32_t *cFF
  38:../Dave/Generated/CMSIS_DSP/Source/DistanceFunctions/arm_sokalmichener_distance.c ****        , uint32_t *cTF
  39:../Dave/Generated/CMSIS_DSP/Source/DistanceFunctions/arm_sokalmichener_distance.c ****        , uint32_t *cFT
  40:../Dave/Generated/CMSIS_DSP/Source/DistanceFunctions/arm_sokalmichener_distance.c ****        );
  41:../Dave/Generated/CMSIS_DSP/Source/DistanceFunctions/arm_sokalmichener_distance.c **** 
  42:../Dave/Generated/CMSIS_DSP/Source/DistanceFunctions/arm_sokalmichener_distance.c **** 
  43:../Dave/Generated/CMSIS_DSP/Source/DistanceFunctions/arm_sokalmichener_distance.c **** /**
  44:../Dave/Generated/CMSIS_DSP/Source/DistanceFunctions/arm_sokalmichener_distance.c ****   @addtogroup BoolDist
  45:../Dave/Generated/CMSIS_DSP/Source/DistanceFunctions/arm_sokalmichener_distance.c ****   @{
  46:../Dave/Generated/CMSIS_DSP/Source/DistanceFunctions/arm_sokalmichener_distance.c ****  */
  47:../Dave/Generated/CMSIS_DSP/Source/DistanceFunctions/arm_sokalmichener_distance.c **** 
  48:../Dave/Generated/CMSIS_DSP/Source/DistanceFunctions/arm_sokalmichener_distance.c **** /**
  49:../Dave/Generated/CMSIS_DSP/Source/DistanceFunctions/arm_sokalmichener_distance.c ****  * @brief        Sokal-Michener distance between two vectors
  50:../Dave/Generated/CMSIS_DSP/Source/DistanceFunctions/arm_sokalmichener_distance.c ****  *
  51:../Dave/Generated/CMSIS_DSP/Source/DistanceFunctions/arm_sokalmichener_distance.c ****  * @param[in]    pA              First vector of packed booleans
  52:../Dave/Generated/CMSIS_DSP/Source/DistanceFunctions/arm_sokalmichener_distance.c ****  * @param[in]    pB              Second vector of packed booleans
  53:../Dave/Generated/CMSIS_DSP/Source/DistanceFunctions/arm_sokalmichener_distance.c ****  * @param[in]    numberOfBools   Number of booleans
  54:../Dave/Generated/CMSIS_DSP/Source/DistanceFunctions/arm_sokalmichener_distance.c ****  * @return distance
  55:../Dave/Generated/CMSIS_DSP/Source/DistanceFunctions/arm_sokalmichener_distance.c ****  *
  56:../Dave/Generated/CMSIS_DSP/Source/DistanceFunctions/arm_sokalmichener_distance.c ****  */
  57:../Dave/Generated/CMSIS_DSP/Source/DistanceFunctions/arm_sokalmichener_distance.c **** 
  58:../Dave/Generated/CMSIS_DSP/Source/DistanceFunctions/arm_sokalmichener_distance.c **** float32_t arm_sokalmichener_distance(const uint32_t *pA, const uint32_t *pB, uint32_t numberOfBools
  59:../Dave/Generated/CMSIS_DSP/Source/DistanceFunctions/arm_sokalmichener_distance.c **** {
  31              	 .loc 1 59 0
  32              	 .cfi_startproc
  33              	 
  34              	 
  35 0000 90B5     	 push {r4,r7,lr}
  36              	.LCFI0:
  37              	 .cfi_def_cfa_offset 12
  38              	 .cfi_offset 4,-12
  39              	 .cfi_offset 7,-8
  40              	 .cfi_offset 14,-4
  41 0002 8FB0     	 sub sp,sp,#60
  42              	.LCFI1:
  43              	 .cfi_def_cfa_offset 72
  44 0004 04AF     	 add r7,sp,#16
  45              	.LCFI2:
  46              	 .cfi_def_cfa 7,56
  47 0006 F860     	 str r0,[r7,#12]
  48 0008 B960     	 str r1,[r7,#8]
  49 000a 7A60     	 str r2,[r7,#4]
  60:../Dave/Generated/CMSIS_DSP/Source/DistanceFunctions/arm_sokalmichener_distance.c ****     uint32_t ctt=0,cff=0,cft=0,ctf=0;
  50              	 .loc 1 60 0
  51 000c 0023     	 movs r3,#0
  52 000e FB61     	 str r3,[r7,#28]
  53 0010 0023     	 movs r3,#0
  54 0012 BB61     	 str r3,[r7,#24]
  55 0014 0023     	 movs r3,#0
  56 0016 7B61     	 str r3,[r7,#20]
  57 0018 0023     	 movs r3,#0
  58 001a 3B61     	 str r3,[r7,#16]
  61:../Dave/Generated/CMSIS_DSP/Source/DistanceFunctions/arm_sokalmichener_distance.c ****     float32_t r,s;
  62:../Dave/Generated/CMSIS_DSP/Source/DistanceFunctions/arm_sokalmichener_distance.c **** 
  63:../Dave/Generated/CMSIS_DSP/Source/DistanceFunctions/arm_sokalmichener_distance.c ****     arm_boolean_distance_TT_FF_TF_FT(pA, pB, numberOfBools, &ctt, &cff, &ctf, &cft);
  59              	 .loc 1 63 0
  60 001c 07F11C04 	 add r4,r7,#28
  61 0020 07F11803 	 add r3,r7,#24
  62 0024 0093     	 str r3,[sp]
  63 0026 07F11003 	 add r3,r7,#16
  64 002a 0193     	 str r3,[sp,#4]
  65 002c 07F11403 	 add r3,r7,#20
  66 0030 0293     	 str r3,[sp,#8]
  67 0032 F868     	 ldr r0,[r7,#12]
  68 0034 B968     	 ldr r1,[r7,#8]
  69 0036 7A68     	 ldr r2,[r7,#4]
  70 0038 2346     	 mov r3,r4
  71 003a FFF7FEFF 	 bl arm_boolean_distance_TT_FF_TF_FT
  64:../Dave/Generated/CMSIS_DSP/Source/DistanceFunctions/arm_sokalmichener_distance.c **** 
  65:../Dave/Generated/CMSIS_DSP/Source/DistanceFunctions/arm_sokalmichener_distance.c ****    r = 2.0*(ctf + cft);
  72              	 .loc 1 65 0
  73 003e 3A69     	 ldr r2,[r7,#16]
  74 0040 7B69     	 ldr r3,[r7,#20]
  75 0042 1344     	 add r3,r3,r2
  76 0044 1846     	 mov r0,r3
  77 0046 FFF7FEFF 	 bl __aeabi_ui2d
  78 004a 0246     	 mov r2,r0
  79 004c 0B46     	 mov r3,r1
  80 004e 1046     	 mov r0,r2
  81 0050 1946     	 mov r1,r3
  82 0052 FFF7FEFF 	 bl __aeabi_dadd
  83 0056 0246     	 mov r2,r0
  84 0058 0B46     	 mov r3,r1
  85 005a 1046     	 mov r0,r2
  86 005c 1946     	 mov r1,r3
  87 005e FFF7FEFF 	 bl __aeabi_d2f
  88 0062 0346     	 mov r3,r0
  89 0064 7B62     	 str r3,[r7,#36]
  66:../Dave/Generated/CMSIS_DSP/Source/DistanceFunctions/arm_sokalmichener_distance.c ****    s = 1.0*(cff + ctt);
  90              	 .loc 1 66 0
  91 0066 BA69     	 ldr r2,[r7,#24]
  92 0068 FB69     	 ldr r3,[r7,#28]
  93 006a 1344     	 add r3,r3,r2
  94 006c 1846     	 mov r0,r3
  95 006e FFF7FEFF 	 bl __aeabi_ui2d
  96 0072 0246     	 mov r2,r0
  97 0074 0B46     	 mov r3,r1
  98 0076 1046     	 mov r0,r2
  99 0078 1946     	 mov r1,r3
 100 007a FFF7FEFF 	 bl __aeabi_d2f
 101 007e 0346     	 mov r3,r0
 102 0080 3B62     	 str r3,[r7,#32]
  67:../Dave/Generated/CMSIS_DSP/Source/DistanceFunctions/arm_sokalmichener_distance.c **** 
  68:../Dave/Generated/CMSIS_DSP/Source/DistanceFunctions/arm_sokalmichener_distance.c ****     return(r / (s+r));
 103              	 .loc 1 68 0
 104 0082 97ED087A 	 flds s14,[r7,#32]
 105 0086 D7ED097A 	 flds s15,[r7,#36]
 106 008a 77EE277A 	 fadds s15,s14,s15
 107 008e 97ED097A 	 flds s14,[r7,#36]
 108 0092 C7EE277A 	 fdivs s15,s14,s15
 109 0096 17EE903A 	 fmrs r3,s15
  69:../Dave/Generated/CMSIS_DSP/Source/DistanceFunctions/arm_sokalmichener_distance.c **** }
 110              	 .loc 1 69 0
 111 009a 1846     	 mov r0,r3
 112 009c 2C37     	 adds r7,r7,#44
 113              	.LCFI3:
 114              	 .cfi_def_cfa_offset 12
 115 009e BD46     	 mov sp,r7
 116              	.LCFI4:
 117              	 .cfi_def_cfa_register 13
 118              	 
 119 00a0 90BD     	 pop {r4,r7,pc}
 120              	 .cfi_endproc
 121              	.LFE149:
 123 00a2 00BF     	 .text
 124              	.Letext0:
 125              	 .file 2 "c:\\infineon\\tools\\dave ide\\4.5.0.202105191637\\eclipse\\arm-gcc-49\\arm-none-eabi\\include\\machine\\_default_types.h"
 126              	 .file 3 "c:\\infineon\\tools\\dave ide\\4.5.0.202105191637\\eclipse\\arm-gcc-49\\arm-none-eabi\\include\\stdint.h"
 127              	 .file 4 "C:/Users/Rui Mendes/Desktop/DAVE/_Naive/_ForTesting/Dave/Generated/CMSIS_DSP/Include/arm_math.h"
 128              	 .file 5 "C:/Users/Rui Mendes/Desktop/DAVE/_Naive/_ForTesting/Libraries/CMSIS/Include/cmsis_gcc.h"