   1              	 .syntax unified
   2              	 .cpu cortex-m4
   3              	 .eabi_attribute 27,3
   4              	 .fpu fpv4-sp-d16
   5              	 .eabi_attribute 20,1
   6              	 .eabi_attribute 21,1
   7              	 .eabi_attribute 23,3
   8              	 .eabi_attribute 24,1
   9              	 .eabi_attribute 25,1
  10              	 .eabi_attribute 26,1
  11              	 .eabi_attribute 30,6
  12              	 .eabi_attribute 34,1
  13              	 .eabi_attribute 18,4
  14              	 .thumb
  15              	 .file "arm_dice_distance.c"
  16              	 .text
  17              	.Ltext0:
  18              	 .cfi_sections .debug_frame
  19              	 .global __aeabi_ui2d
  20              	 .global __aeabi_dadd
  21              	 .global __aeabi_ddiv
  22              	 .global __aeabi_d2f
  23              	 .section .text.arm_dice_distance,"ax",%progbits
  24              	 .align 2
  25              	 .global arm_dice_distance
  26              	 .thumb
  27              	 .thumb_func
  29              	arm_dice_distance:
  30              	.LFB149:
  31              	 .file 1 "../Dave/Generated/CMSIS_DSP/Source/DistanceFunctions/arm_dice_distance.c"
   1:../Dave/Generated/CMSIS_DSP/Source/DistanceFunctions/arm_dice_distance.c **** 
   2:../Dave/Generated/CMSIS_DSP/Source/DistanceFunctions/arm_dice_distance.c **** /* ----------------------------------------------------------------------
   3:../Dave/Generated/CMSIS_DSP/Source/DistanceFunctions/arm_dice_distance.c ****  * Project:      CMSIS DSP Library
   4:../Dave/Generated/CMSIS_DSP/Source/DistanceFunctions/arm_dice_distance.c ****  * Title:        arm_dice_distance.c
   5:../Dave/Generated/CMSIS_DSP/Source/DistanceFunctions/arm_dice_distance.c ****  * Description:  Dice distance between two vectors
   6:../Dave/Generated/CMSIS_DSP/Source/DistanceFunctions/arm_dice_distance.c ****  *
   7:../Dave/Generated/CMSIS_DSP/Source/DistanceFunctions/arm_dice_distance.c ****  *
   8:../Dave/Generated/CMSIS_DSP/Source/DistanceFunctions/arm_dice_distance.c ****  * Target Processor: Cortex-M cores
   9:../Dave/Generated/CMSIS_DSP/Source/DistanceFunctions/arm_dice_distance.c ****  * -------------------------------------------------------------------- */
  10:../Dave/Generated/CMSIS_DSP/Source/DistanceFunctions/arm_dice_distance.c **** /*
  11:../Dave/Generated/CMSIS_DSP/Source/DistanceFunctions/arm_dice_distance.c ****  * Copyright (C) 2010-2019 ARM Limited or its affiliates. All rights reserved.
  12:../Dave/Generated/CMSIS_DSP/Source/DistanceFunctions/arm_dice_distance.c ****  *
  13:../Dave/Generated/CMSIS_DSP/Source/DistanceFunctions/arm_dice_distance.c ****  * SPDX-License-Identifier: Apache-2.0
  14:../Dave/Generated/CMSIS_DSP/Source/DistanceFunctions/arm_dice_distance.c ****  *
  15:../Dave/Generated/CMSIS_DSP/Source/DistanceFunctions/arm_dice_distance.c ****  * Licensed under the Apache License, Version 2.0 (the License); you may
  16:../Dave/Generated/CMSIS_DSP/Source/DistanceFunctions/arm_dice_distance.c ****  * not use this file except in compliance with the License.
  17:../Dave/Generated/CMSIS_DSP/Source/DistanceFunctions/arm_dice_distance.c ****  * You may obtain a copy of the License at
  18:../Dave/Generated/CMSIS_DSP/Source/DistanceFunctions/arm_dice_distance.c ****  *
  19:../Dave/Generated/CMSIS_DSP/Source/DistanceFunctions/arm_dice_distance.c ****  * www.apache.org/licenses/LICENSE-2.0
  20:../Dave/Generated/CMSIS_DSP/Source/DistanceFunctions/arm_dice_distance.c ****  *
  21:../Dave/Generated/CMSIS_DSP/Source/DistanceFunctions/arm_dice_distance.c ****  * Unless required by applicable law or agreed to in writing, software
  22:../Dave/Generated/CMSIS_DSP/Source/DistanceFunctions/arm_dice_distance.c ****  * distributed under the License is distributed on an AS IS BASIS, WITHOUT
  23:../Dave/Generated/CMSIS_DSP/Source/DistanceFunctions/arm_dice_distance.c ****  * WARRANTIES OR CONDITIONS OF ANY KIND, either express or implied.
  24:../Dave/Generated/CMSIS_DSP/Source/DistanceFunctions/arm_dice_distance.c ****  * See the License for the specific language governing permissions and
  25:../Dave/Generated/CMSIS_DSP/Source/DistanceFunctions/arm_dice_distance.c ****  * limitations under the License.
  26:../Dave/Generated/CMSIS_DSP/Source/DistanceFunctions/arm_dice_distance.c ****  */
  27:../Dave/Generated/CMSIS_DSP/Source/DistanceFunctions/arm_dice_distance.c **** 
  28:../Dave/Generated/CMSIS_DSP/Source/DistanceFunctions/arm_dice_distance.c **** #include "CMSIS_DSP/cmsis_dsp.h"
  29:../Dave/Generated/CMSIS_DSP/Source/DistanceFunctions/arm_dice_distance.c **** #include <limits.h>
  30:../Dave/Generated/CMSIS_DSP/Source/DistanceFunctions/arm_dice_distance.c **** #include <math.h>
  31:../Dave/Generated/CMSIS_DSP/Source/DistanceFunctions/arm_dice_distance.c **** 
  32:../Dave/Generated/CMSIS_DSP/Source/DistanceFunctions/arm_dice_distance.c **** extern void arm_boolean_distance_TT_TF_FT(const uint32_t *pA
  33:../Dave/Generated/CMSIS_DSP/Source/DistanceFunctions/arm_dice_distance.c ****        , const uint32_t *pB
  34:../Dave/Generated/CMSIS_DSP/Source/DistanceFunctions/arm_dice_distance.c ****        , uint32_t numberOfBools
  35:../Dave/Generated/CMSIS_DSP/Source/DistanceFunctions/arm_dice_distance.c ****        , uint32_t *cTT
  36:../Dave/Generated/CMSIS_DSP/Source/DistanceFunctions/arm_dice_distance.c ****        , uint32_t *cTF
  37:../Dave/Generated/CMSIS_DSP/Source/DistanceFunctions/arm_dice_distance.c ****        , uint32_t *cFT
  38:../Dave/Generated/CMSIS_DSP/Source/DistanceFunctions/arm_dice_distance.c ****        );
  39:../Dave/Generated/CMSIS_DSP/Source/DistanceFunctions/arm_dice_distance.c **** 
  40:../Dave/Generated/CMSIS_DSP/Source/DistanceFunctions/arm_dice_distance.c **** 
  41:../Dave/Generated/CMSIS_DSP/Source/DistanceFunctions/arm_dice_distance.c **** /**
  42:../Dave/Generated/CMSIS_DSP/Source/DistanceFunctions/arm_dice_distance.c ****  * @ingroup groupDistance
  43:../Dave/Generated/CMSIS_DSP/Source/DistanceFunctions/arm_dice_distance.c ****  * @{
  44:../Dave/Generated/CMSIS_DSP/Source/DistanceFunctions/arm_dice_distance.c ****  */
  45:../Dave/Generated/CMSIS_DSP/Source/DistanceFunctions/arm_dice_distance.c **** 
  46:../Dave/Generated/CMSIS_DSP/Source/DistanceFunctions/arm_dice_distance.c **** /**
  47:../Dave/Generated/CMSIS_DSP/Source/DistanceFunctions/arm_dice_distance.c ****  * @defgroup BoolDist Boolean Distances
  48:../Dave/Generated/CMSIS_DSP/Source/DistanceFunctions/arm_dice_distance.c ****  *
  49:../Dave/Generated/CMSIS_DSP/Source/DistanceFunctions/arm_dice_distance.c ****  * Distances between two vectors of boolean values.
  50:../Dave/Generated/CMSIS_DSP/Source/DistanceFunctions/arm_dice_distance.c ****  *
  51:../Dave/Generated/CMSIS_DSP/Source/DistanceFunctions/arm_dice_distance.c ****  * Booleans are packed in 32 bit words.
  52:../Dave/Generated/CMSIS_DSP/Source/DistanceFunctions/arm_dice_distance.c ****  * numberOfBooleans argument is the number of booleans and not the
  53:../Dave/Generated/CMSIS_DSP/Source/DistanceFunctions/arm_dice_distance.c ****  * number of words.
  54:../Dave/Generated/CMSIS_DSP/Source/DistanceFunctions/arm_dice_distance.c ****  *
  55:../Dave/Generated/CMSIS_DSP/Source/DistanceFunctions/arm_dice_distance.c ****  * Bits are packed in big-endian mode (because of behavior of numpy packbits in
  56:../Dave/Generated/CMSIS_DSP/Source/DistanceFunctions/arm_dice_distance.c ****  * in version < 1.17)
  57:../Dave/Generated/CMSIS_DSP/Source/DistanceFunctions/arm_dice_distance.c ****  */
  58:../Dave/Generated/CMSIS_DSP/Source/DistanceFunctions/arm_dice_distance.c **** 
  59:../Dave/Generated/CMSIS_DSP/Source/DistanceFunctions/arm_dice_distance.c **** /**
  60:../Dave/Generated/CMSIS_DSP/Source/DistanceFunctions/arm_dice_distance.c ****   @addtogroup BoolDist
  61:../Dave/Generated/CMSIS_DSP/Source/DistanceFunctions/arm_dice_distance.c ****   @{
  62:../Dave/Generated/CMSIS_DSP/Source/DistanceFunctions/arm_dice_distance.c ****  */
  63:../Dave/Generated/CMSIS_DSP/Source/DistanceFunctions/arm_dice_distance.c **** 
  64:../Dave/Generated/CMSIS_DSP/Source/DistanceFunctions/arm_dice_distance.c **** /**
  65:../Dave/Generated/CMSIS_DSP/Source/DistanceFunctions/arm_dice_distance.c ****  * @brief        Dice distance between two vectors
  66:../Dave/Generated/CMSIS_DSP/Source/DistanceFunctions/arm_dice_distance.c ****  *
  67:../Dave/Generated/CMSIS_DSP/Source/DistanceFunctions/arm_dice_distance.c ****  * @param[in]    pA              First vector of packed booleans
  68:../Dave/Generated/CMSIS_DSP/Source/DistanceFunctions/arm_dice_distance.c ****  * @param[in]    pB              Second vector of packed booleans
  69:../Dave/Generated/CMSIS_DSP/Source/DistanceFunctions/arm_dice_distance.c ****  * @param[in]    numberOfBools   Number of booleans
  70:../Dave/Generated/CMSIS_DSP/Source/DistanceFunctions/arm_dice_distance.c ****  * @return distance
  71:../Dave/Generated/CMSIS_DSP/Source/DistanceFunctions/arm_dice_distance.c ****  *
  72:../Dave/Generated/CMSIS_DSP/Source/DistanceFunctions/arm_dice_distance.c ****  */
  73:../Dave/Generated/CMSIS_DSP/Source/DistanceFunctions/arm_dice_distance.c **** 
  74:../Dave/Generated/CMSIS_DSP/Source/DistanceFunctions/arm_dice_distance.c **** float32_t arm_dice_distance(const uint32_t *pA, const uint32_t *pB, uint32_t numberOfBools)
  75:../Dave/Generated/CMSIS_DSP/Source/DistanceFunctions/arm_dice_distance.c **** {
  32              	 .loc 1 75 0
  33              	 .cfi_startproc
  34              	 
  35              	 
  36 0000 2DE9B043 	 push {r4,r5,r7,r8,r9,lr}
  37              	.LCFI0:
  38              	 .cfi_def_cfa_offset 24
  39              	 .cfi_offset 4,-24
  40              	 .cfi_offset 5,-20
  41              	 .cfi_offset 7,-16
  42              	 .cfi_offset 8,-12
  43              	 .cfi_offset 9,-8
  44              	 .cfi_offset 14,-4
  45 0004 8AB0     	 sub sp,sp,#40
  46              	.LCFI1:
  47              	 .cfi_def_cfa_offset 64
  48 0006 02AF     	 add r7,sp,#8
  49              	.LCFI2:
  50              	 .cfi_def_cfa 7,56
  51 0008 F860     	 str r0,[r7,#12]
  52 000a B960     	 str r1,[r7,#8]
  53 000c 7A60     	 str r2,[r7,#4]
  76:../Dave/Generated/CMSIS_DSP/Source/DistanceFunctions/arm_dice_distance.c ****     uint32_t ctt=0,ctf=0,cft=0;
  54              	 .loc 1 76 0
  55 000e 0023     	 movs r3,#0
  56 0010 FB61     	 str r3,[r7,#28]
  57 0012 0023     	 movs r3,#0
  58 0014 BB61     	 str r3,[r7,#24]
  59 0016 0023     	 movs r3,#0
  60 0018 7B61     	 str r3,[r7,#20]
  77:../Dave/Generated/CMSIS_DSP/Source/DistanceFunctions/arm_dice_distance.c **** 
  78:../Dave/Generated/CMSIS_DSP/Source/DistanceFunctions/arm_dice_distance.c ****     arm_boolean_distance_TT_TF_FT(pA, pB, numberOfBools, &ctt, &ctf, &cft);
  61              	 .loc 1 78 0
  62 001a 07F11C04 	 add r4,r7,#28
  63 001e 07F11803 	 add r3,r7,#24
  64 0022 0093     	 str r3,[sp]
  65 0024 07F11403 	 add r3,r7,#20
  66 0028 0193     	 str r3,[sp,#4]
  67 002a F868     	 ldr r0,[r7,#12]
  68 002c B968     	 ldr r1,[r7,#8]
  69 002e 7A68     	 ldr r2,[r7,#4]
  70 0030 2346     	 mov r3,r4
  71 0032 FFF7FEFF 	 bl arm_boolean_distance_TT_TF_FT
  79:../Dave/Generated/CMSIS_DSP/Source/DistanceFunctions/arm_dice_distance.c **** 
  80:../Dave/Generated/CMSIS_DSP/Source/DistanceFunctions/arm_dice_distance.c ****     return(1.0*(ctf + cft) / (2.0*ctt + cft + ctf));
  72              	 .loc 1 80 0
  73 0036 BA69     	 ldr r2,[r7,#24]
  74 0038 7B69     	 ldr r3,[r7,#20]
  75 003a 1344     	 add r3,r3,r2
  76 003c 1846     	 mov r0,r3
  77 003e FFF7FEFF 	 bl __aeabi_ui2d
  78 0042 0446     	 mov r4,r0
  79 0044 0D46     	 mov r5,r1
  80 0046 FB69     	 ldr r3,[r7,#28]
  81 0048 1846     	 mov r0,r3
  82 004a FFF7FEFF 	 bl __aeabi_ui2d
  83 004e 0246     	 mov r2,r0
  84 0050 0B46     	 mov r3,r1
  85 0052 1046     	 mov r0,r2
  86 0054 1946     	 mov r1,r3
  87 0056 FFF7FEFF 	 bl __aeabi_dadd
  88 005a 0246     	 mov r2,r0
  89 005c 0B46     	 mov r3,r1
  90 005e 9046     	 mov r8,r2
  91 0060 9946     	 mov r9,r3
  92 0062 7B69     	 ldr r3,[r7,#20]
  93 0064 1846     	 mov r0,r3
  94 0066 FFF7FEFF 	 bl __aeabi_ui2d
  95 006a 0246     	 mov r2,r0
  96 006c 0B46     	 mov r3,r1
  97 006e 4046     	 mov r0,r8
  98 0070 4946     	 mov r1,r9
  99 0072 FFF7FEFF 	 bl __aeabi_dadd
 100 0076 0246     	 mov r2,r0
 101 0078 0B46     	 mov r3,r1
 102 007a 9046     	 mov r8,r2
 103 007c 9946     	 mov r9,r3
 104 007e BB69     	 ldr r3,[r7,#24]
 105 0080 1846     	 mov r0,r3
 106 0082 FFF7FEFF 	 bl __aeabi_ui2d
 107 0086 0246     	 mov r2,r0
 108 0088 0B46     	 mov r3,r1
 109 008a 4046     	 mov r0,r8
 110 008c 4946     	 mov r1,r9
 111 008e FFF7FEFF 	 bl __aeabi_dadd
 112 0092 0246     	 mov r2,r0
 113 0094 0B46     	 mov r3,r1
 114 0096 2046     	 mov r0,r4
 115 0098 2946     	 mov r1,r5
 116 009a FFF7FEFF 	 bl __aeabi_ddiv
 117 009e 0246     	 mov r2,r0
 118 00a0 0B46     	 mov r3,r1
 119 00a2 1046     	 mov r0,r2
 120 00a4 1946     	 mov r1,r3
 121 00a6 FFF7FEFF 	 bl __aeabi_d2f
 122 00aa 0346     	 mov r3,r0
  81:../Dave/Generated/CMSIS_DSP/Source/DistanceFunctions/arm_dice_distance.c **** }
 123              	 .loc 1 81 0
 124 00ac 1846     	 mov r0,r3
 125 00ae 2037     	 adds r7,r7,#32
 126              	.LCFI3:
 127              	 .cfi_def_cfa_offset 24
 128 00b0 BD46     	 mov sp,r7
 129              	.LCFI4:
 130              	 .cfi_def_cfa_register 13
 131              	 
 132 00b2 BDE8B083 	 pop {r4,r5,r7,r8,r9,pc}
 133              	 .cfi_endproc
 134              	.LFE149:
 136 00b6 00BF     	 .text
 137              	.Letext0:
 138              	 .file 2 "c:\\infineon\\tools\\dave ide\\4.5.0.202105191637\\eclipse\\arm-gcc-49\\arm-none-eabi\\include\\machine\\_default_types.h"
 139              	 .file 3 "c:\\infineon\\tools\\dave ide\\4.5.0.202105191637\\eclipse\\arm-gcc-49\\arm-none-eabi\\include\\stdint.h"
 140              	 .file 4 "C:/Users/Rui Mendes/Desktop/DAVE/_Naive/_ForTesting/Dave/Generated/CMSIS_DSP/Include/arm_math.h"
 141              	 .file 5 "C:/Users/Rui Mendes/Desktop/DAVE/_Naive/_ForTesting/Libraries/CMSIS/Include/cmsis_gcc.h"