   1              	 .syntax unified
   2              	 .cpu cortex-m4
   3              	 .eabi_attribute 27,3
   4              	 .fpu fpv4-sp-d16
   5              	 .eabi_attribute 20,1
   6              	 .eabi_attribute 21,1
   7              	 .eabi_attribute 23,3
   8              	 .eabi_attribute 24,1
   9              	 .eabi_attribute 25,1
  10              	 .eabi_attribute 26,1
  11              	 .eabi_attribute 30,6
  12              	 .eabi_attribute 34,1
  13              	 .eabi_attribute 18,4
  14              	 .thumb
  15              	 .file "arm_rfft_fast_f64.c"
  16              	 .text
  17              	.Ltext0:
  18              	 .cfi_sections .debug_frame
  19              	 .global __aeabi_dadd
  20              	 .global __aeabi_dmul
  21              	 .global __aeabi_dsub
  22              	 .section .text.stage_rfft_f64,"ax",%progbits
  23              	 .align 2
  24              	 .global stage_rfft_f64
  25              	 .thumb
  26              	 .thumb_func
  28              	stage_rfft_f64:
  29              	.LFB149:
  30              	 .file 1 "../Dave/Generated/CMSIS_DSP/Source/TransformFunctions/arm_rfft_fast_f64.c"
   1:../Dave/Generated/CMSIS_DSP/Source/TransformFunctions/arm_rfft_fast_f64.c **** /* ----------------------------------------------------------------------
   2:../Dave/Generated/CMSIS_DSP/Source/TransformFunctions/arm_rfft_fast_f64.c ****  * Project:      CMSIS DSP Library
   3:../Dave/Generated/CMSIS_DSP/Source/TransformFunctions/arm_rfft_fast_f64.c ****  * Title:        arm_rfft_f64.c
   4:../Dave/Generated/CMSIS_DSP/Source/TransformFunctions/arm_rfft_fast_f64.c ****  * Description:  RFFT & RIFFT Double precision Floating point process function
   5:../Dave/Generated/CMSIS_DSP/Source/TransformFunctions/arm_rfft_fast_f64.c ****  *
   6:../Dave/Generated/CMSIS_DSP/Source/TransformFunctions/arm_rfft_fast_f64.c ****  * $Date:        29. November 2019
   7:../Dave/Generated/CMSIS_DSP/Source/TransformFunctions/arm_rfft_fast_f64.c ****  * $Revision:    V1.0.0
   8:../Dave/Generated/CMSIS_DSP/Source/TransformFunctions/arm_rfft_fast_f64.c ****  *
   9:../Dave/Generated/CMSIS_DSP/Source/TransformFunctions/arm_rfft_fast_f64.c ****  * Target Processor: Cortex-M cores
  10:../Dave/Generated/CMSIS_DSP/Source/TransformFunctions/arm_rfft_fast_f64.c ****  * -------------------------------------------------------------------- */
  11:../Dave/Generated/CMSIS_DSP/Source/TransformFunctions/arm_rfft_fast_f64.c **** /*
  12:../Dave/Generated/CMSIS_DSP/Source/TransformFunctions/arm_rfft_fast_f64.c ****  * Copyright (C) 2010-2019 ARM Limited or its affiliates. All rights reserved.
  13:../Dave/Generated/CMSIS_DSP/Source/TransformFunctions/arm_rfft_fast_f64.c ****  *
  14:../Dave/Generated/CMSIS_DSP/Source/TransformFunctions/arm_rfft_fast_f64.c ****  * SPDX-License-Identifier: Apache-2.0
  15:../Dave/Generated/CMSIS_DSP/Source/TransformFunctions/arm_rfft_fast_f64.c ****  *
  16:../Dave/Generated/CMSIS_DSP/Source/TransformFunctions/arm_rfft_fast_f64.c ****  * Licensed under the Apache License, Version 2.0 (the License); you may
  17:../Dave/Generated/CMSIS_DSP/Source/TransformFunctions/arm_rfft_fast_f64.c ****  * not use this file except in compliance with the License.
  18:../Dave/Generated/CMSIS_DSP/Source/TransformFunctions/arm_rfft_fast_f64.c ****  * You may obtain a copy of the License at
  19:../Dave/Generated/CMSIS_DSP/Source/TransformFunctions/arm_rfft_fast_f64.c ****  *
  20:../Dave/Generated/CMSIS_DSP/Source/TransformFunctions/arm_rfft_fast_f64.c ****  * www.apache.org/licenses/LICENSE-2.0
  21:../Dave/Generated/CMSIS_DSP/Source/TransformFunctions/arm_rfft_fast_f64.c ****  *
  22:../Dave/Generated/CMSIS_DSP/Source/TransformFunctions/arm_rfft_fast_f64.c ****  * Unless required by applicable law or agreed to in writing, software
  23:../Dave/Generated/CMSIS_DSP/Source/TransformFunctions/arm_rfft_fast_f64.c ****  * distributed under the License is distributed on an AS IS BASIS, WITHOUT
  24:../Dave/Generated/CMSIS_DSP/Source/TransformFunctions/arm_rfft_fast_f64.c ****  * WARRANTIES OR CONDITIONS OF ANY KIND, either express or implied.
  25:../Dave/Generated/CMSIS_DSP/Source/TransformFunctions/arm_rfft_fast_f64.c ****  * See the License for the specific language governing permissions and
  26:../Dave/Generated/CMSIS_DSP/Source/TransformFunctions/arm_rfft_fast_f64.c ****  * limitations under the License.
  27:../Dave/Generated/CMSIS_DSP/Source/TransformFunctions/arm_rfft_fast_f64.c ****  */
  28:../Dave/Generated/CMSIS_DSP/Source/TransformFunctions/arm_rfft_fast_f64.c **** 
  29:../Dave/Generated/CMSIS_DSP/Source/TransformFunctions/arm_rfft_fast_f64.c **** #include "CMSIS_DSP/cmsis_dsp.h"
  30:../Dave/Generated/CMSIS_DSP/Source/TransformFunctions/arm_rfft_fast_f64.c **** 
  31:../Dave/Generated/CMSIS_DSP/Source/TransformFunctions/arm_rfft_fast_f64.c **** void stage_rfft_f64(
  32:../Dave/Generated/CMSIS_DSP/Source/TransformFunctions/arm_rfft_fast_f64.c ****   const arm_rfft_fast_instance_f64 * S,
  33:../Dave/Generated/CMSIS_DSP/Source/TransformFunctions/arm_rfft_fast_f64.c ****         float64_t * p,
  34:../Dave/Generated/CMSIS_DSP/Source/TransformFunctions/arm_rfft_fast_f64.c ****         float64_t * pOut)
  35:../Dave/Generated/CMSIS_DSP/Source/TransformFunctions/arm_rfft_fast_f64.c **** {
  31              	 .loc 1 35 0
  32              	 .cfi_startproc
  33              	 
  34              	 
  35 0000 90B5     	 push {r4,r7,lr}
  36              	.LCFI0:
  37              	 .cfi_def_cfa_offset 12
  38              	 .cfi_offset 4,-12
  39              	 .cfi_offset 7,-8
  40              	 .cfi_offset 14,-4
  41 0002 A1B0     	 sub sp,sp,#132
  42              	.LCFI1:
  43              	 .cfi_def_cfa_offset 144
  44 0004 00AF     	 add r7,sp,#0
  45              	.LCFI2:
  46              	 .cfi_def_cfa_register 7
  47 0006 F860     	 str r0,[r7,#12]
  48 0008 B960     	 str r1,[r7,#8]
  49 000a 7A60     	 str r2,[r7,#4]
  36:../Dave/Generated/CMSIS_DSP/Source/TransformFunctions/arm_rfft_fast_f64.c ****         uint32_t  k;                                /* Loop Counter */
  37:../Dave/Generated/CMSIS_DSP/Source/TransformFunctions/arm_rfft_fast_f64.c ****         float64_t twR, twI;                         /* RFFT Twiddle coefficients */
  38:../Dave/Generated/CMSIS_DSP/Source/TransformFunctions/arm_rfft_fast_f64.c ****   const float64_t * pCoeff = S->pTwiddleRFFT;       /* Points to RFFT Twiddle factors */
  50              	 .loc 1 38 0
  51 000c FB68     	 ldr r3,[r7,#12]
  52 000e 5B69     	 ldr r3,[r3,#20]
  53 0010 BB67     	 str r3,[r7,#120]
  39:../Dave/Generated/CMSIS_DSP/Source/TransformFunctions/arm_rfft_fast_f64.c ****         float64_t *pA = p;                          /* increasing pointer */
  54              	 .loc 1 39 0
  55 0012 BB68     	 ldr r3,[r7,#8]
  56 0014 7B67     	 str r3,[r7,#116]
  40:../Dave/Generated/CMSIS_DSP/Source/TransformFunctions/arm_rfft_fast_f64.c ****         float64_t *pB = p;                          /* decreasing pointer */
  57              	 .loc 1 40 0
  58 0016 BB68     	 ldr r3,[r7,#8]
  59 0018 3B67     	 str r3,[r7,#112]
  41:../Dave/Generated/CMSIS_DSP/Source/TransformFunctions/arm_rfft_fast_f64.c ****         float64_t xAR, xAI, xBR, xBI;               /* temporary variables */
  42:../Dave/Generated/CMSIS_DSP/Source/TransformFunctions/arm_rfft_fast_f64.c ****         float64_t t1a, t1b;                         /* temporary variables */
  43:../Dave/Generated/CMSIS_DSP/Source/TransformFunctions/arm_rfft_fast_f64.c ****         float64_t p0, p1, p2, p3;                   /* temporary variables */
  44:../Dave/Generated/CMSIS_DSP/Source/TransformFunctions/arm_rfft_fast_f64.c **** 
  45:../Dave/Generated/CMSIS_DSP/Source/TransformFunctions/arm_rfft_fast_f64.c **** 
  46:../Dave/Generated/CMSIS_DSP/Source/TransformFunctions/arm_rfft_fast_f64.c ****    k = (S->Sint).fftLen - 1;
  60              	 .loc 1 46 0
  61 001a FB68     	 ldr r3,[r7,#12]
  62 001c 1B88     	 ldrh r3,[r3]
  63 001e 013B     	 subs r3,r3,#1
  64 0020 FB67     	 str r3,[r7,#124]
  47:../Dave/Generated/CMSIS_DSP/Source/TransformFunctions/arm_rfft_fast_f64.c **** 
  48:../Dave/Generated/CMSIS_DSP/Source/TransformFunctions/arm_rfft_fast_f64.c ****    /* Pack first and last sample of the frequency domain together */
  49:../Dave/Generated/CMSIS_DSP/Source/TransformFunctions/arm_rfft_fast_f64.c **** 
  50:../Dave/Generated/CMSIS_DSP/Source/TransformFunctions/arm_rfft_fast_f64.c ****    xBR = pB[0];
  65              	 .loc 1 50 0
  66 0022 3B6F     	 ldr r3,[r7,#112]
  67 0024 D3E90023 	 ldrd r2,[r3]
  68 0028 C7E91A23 	 strd r2,[r7,#104]
  51:../Dave/Generated/CMSIS_DSP/Source/TransformFunctions/arm_rfft_fast_f64.c ****    xBI = pB[1];
  69              	 .loc 1 51 0
  70 002c 3B6F     	 ldr r3,[r7,#112]
  71 002e D3E90223 	 ldrd r2,[r3,#8]
  72 0032 C7E91823 	 strd r2,[r7,#96]
  52:../Dave/Generated/CMSIS_DSP/Source/TransformFunctions/arm_rfft_fast_f64.c ****    xAR = pA[0];
  73              	 .loc 1 52 0
  74 0036 7B6F     	 ldr r3,[r7,#116]
  75 0038 D3E90023 	 ldrd r2,[r3]
  76 003c C7E91623 	 strd r2,[r7,#88]
  53:../Dave/Generated/CMSIS_DSP/Source/TransformFunctions/arm_rfft_fast_f64.c ****    xAI = pA[1];
  77              	 .loc 1 53 0
  78 0040 7B6F     	 ldr r3,[r7,#116]
  79 0042 D3E90223 	 ldrd r2,[r3,#8]
  80 0046 C7E91423 	 strd r2,[r7,#80]
  54:../Dave/Generated/CMSIS_DSP/Source/TransformFunctions/arm_rfft_fast_f64.c **** 
  55:../Dave/Generated/CMSIS_DSP/Source/TransformFunctions/arm_rfft_fast_f64.c ****    twR = *pCoeff++ ;
  81              	 .loc 1 55 0
  82 004a BB6F     	 ldr r3,[r7,#120]
  83 004c 03F10802 	 add r2,r3,#8
  84 0050 BA67     	 str r2,[r7,#120]
  85 0052 D3E90023 	 ldrd r2,[r3]
  86 0056 C7E91223 	 strd r2,[r7,#72]
  56:../Dave/Generated/CMSIS_DSP/Source/TransformFunctions/arm_rfft_fast_f64.c ****    twI = *pCoeff++ ;
  87              	 .loc 1 56 0
  88 005a BB6F     	 ldr r3,[r7,#120]
  89 005c 03F10802 	 add r2,r3,#8
  90 0060 BA67     	 str r2,[r7,#120]
  91 0062 D3E90023 	 ldrd r2,[r3]
  92 0066 C7E91023 	 strd r2,[r7,#64]
  57:../Dave/Generated/CMSIS_DSP/Source/TransformFunctions/arm_rfft_fast_f64.c **** 
  58:../Dave/Generated/CMSIS_DSP/Source/TransformFunctions/arm_rfft_fast_f64.c ****    // U1 = XA(1) + XB(1); % It is real
  59:../Dave/Generated/CMSIS_DSP/Source/TransformFunctions/arm_rfft_fast_f64.c ****    t1a = xBR + xAR  ;
  93              	 .loc 1 59 0
  94 006a D7E91A01 	 ldrd r0,[r7,#104]
  95 006e D7E91623 	 ldrd r2,[r7,#88]
  96 0072 FFF7FEFF 	 bl __aeabi_dadd
  97 0076 0246     	 mov r2,r0
  98 0078 0B46     	 mov r3,r1
  99 007a C7E90E23 	 strd r2,[r7,#56]
  60:../Dave/Generated/CMSIS_DSP/Source/TransformFunctions/arm_rfft_fast_f64.c **** 
  61:../Dave/Generated/CMSIS_DSP/Source/TransformFunctions/arm_rfft_fast_f64.c ****    // U2 = XB(1) - XA(1); % It is imaginary
  62:../Dave/Generated/CMSIS_DSP/Source/TransformFunctions/arm_rfft_fast_f64.c ****    t1b = xBI + xAI  ;
 100              	 .loc 1 62 0
 101 007e D7E91801 	 ldrd r0,[r7,#96]
 102 0082 D7E91423 	 ldrd r2,[r7,#80]
 103 0086 FFF7FEFF 	 bl __aeabi_dadd
 104 008a 0246     	 mov r2,r0
 105 008c 0B46     	 mov r3,r1
 106 008e C7E90C23 	 strd r2,[r7,#48]
  63:../Dave/Generated/CMSIS_DSP/Source/TransformFunctions/arm_rfft_fast_f64.c **** 
  64:../Dave/Generated/CMSIS_DSP/Source/TransformFunctions/arm_rfft_fast_f64.c ****    // real(tw * (xB - xA)) = twR * (xBR - xAR) - twI * (xBI - xAI);
  65:../Dave/Generated/CMSIS_DSP/Source/TransformFunctions/arm_rfft_fast_f64.c ****    // imag(tw * (xB - xA)) = twI * (xBR - xAR) + twR * (xBI - xAI);
  66:../Dave/Generated/CMSIS_DSP/Source/TransformFunctions/arm_rfft_fast_f64.c ****    *pOut++ = 0.5 * ( t1a + t1b );
 107              	 .loc 1 66 0
 108 0092 7C68     	 ldr r4,[r7,#4]
 109 0094 04F10803 	 add r3,r4,#8
 110 0098 7B60     	 str r3,[r7,#4]
 111 009a D7E90E01 	 ldrd r0,[r7,#56]
 112 009e D7E90C23 	 ldrd r2,[r7,#48]
 113 00a2 FFF7FEFF 	 bl __aeabi_dadd
 114 00a6 0246     	 mov r2,r0
 115 00a8 0B46     	 mov r3,r1
 116 00aa 1046     	 mov r0,r2
 117 00ac 1946     	 mov r1,r3
 118 00ae 4FF00002 	 mov r2,#0
 119 00b2 724B     	 ldr r3,.L3
 120 00b4 FFF7FEFF 	 bl __aeabi_dmul
 121 00b8 0246     	 mov r2,r0
 122 00ba 0B46     	 mov r3,r1
 123 00bc C4E90023 	 strd r2,[r4]
  67:../Dave/Generated/CMSIS_DSP/Source/TransformFunctions/arm_rfft_fast_f64.c ****    *pOut++ = 0.5 * ( t1a - t1b );
 124              	 .loc 1 67 0
 125 00c0 7C68     	 ldr r4,[r7,#4]
 126 00c2 04F10803 	 add r3,r4,#8
 127 00c6 7B60     	 str r3,[r7,#4]
 128 00c8 D7E90E01 	 ldrd r0,[r7,#56]
 129 00cc D7E90C23 	 ldrd r2,[r7,#48]
 130 00d0 FFF7FEFF 	 bl __aeabi_dsub
 131 00d4 0246     	 mov r2,r0
 132 00d6 0B46     	 mov r3,r1
 133 00d8 1046     	 mov r0,r2
 134 00da 1946     	 mov r1,r3
 135 00dc 4FF00002 	 mov r2,#0
 136 00e0 664B     	 ldr r3,.L3
 137 00e2 FFF7FEFF 	 bl __aeabi_dmul
 138 00e6 0246     	 mov r2,r0
 139 00e8 0B46     	 mov r3,r1
 140 00ea C4E90023 	 strd r2,[r4]
  68:../Dave/Generated/CMSIS_DSP/Source/TransformFunctions/arm_rfft_fast_f64.c **** 
  69:../Dave/Generated/CMSIS_DSP/Source/TransformFunctions/arm_rfft_fast_f64.c ****    // XA(1) = 1/2*( U1 - imag(U2) +  i*( U1 +imag(U2) ));
  70:../Dave/Generated/CMSIS_DSP/Source/TransformFunctions/arm_rfft_fast_f64.c ****    pB  = p + 2*k;
 141              	 .loc 1 70 0
 142 00ee FB6F     	 ldr r3,[r7,#124]
 143 00f0 1B01     	 lsls r3,r3,#4
 144 00f2 BA68     	 ldr r2,[r7,#8]
 145 00f4 1344     	 add r3,r3,r2
 146 00f6 3B67     	 str r3,[r7,#112]
  71:../Dave/Generated/CMSIS_DSP/Source/TransformFunctions/arm_rfft_fast_f64.c ****    pA += 2;
 147              	 .loc 1 71 0
 148 00f8 7B6F     	 ldr r3,[r7,#116]
 149 00fa 1033     	 adds r3,r3,#16
 150 00fc 7B67     	 str r3,[r7,#116]
 151              	.L2:
  72:../Dave/Generated/CMSIS_DSP/Source/TransformFunctions/arm_rfft_fast_f64.c **** 
  73:../Dave/Generated/CMSIS_DSP/Source/TransformFunctions/arm_rfft_fast_f64.c ****    do
  74:../Dave/Generated/CMSIS_DSP/Source/TransformFunctions/arm_rfft_fast_f64.c ****    {
  75:../Dave/Generated/CMSIS_DSP/Source/TransformFunctions/arm_rfft_fast_f64.c ****       /*
  76:../Dave/Generated/CMSIS_DSP/Source/TransformFunctions/arm_rfft_fast_f64.c ****          function X = my_split_rfft(X, ifftFlag)
  77:../Dave/Generated/CMSIS_DSP/Source/TransformFunctions/arm_rfft_fast_f64.c ****          % X is a series of real numbers
  78:../Dave/Generated/CMSIS_DSP/Source/TransformFunctions/arm_rfft_fast_f64.c ****          L  = length(X);
  79:../Dave/Generated/CMSIS_DSP/Source/TransformFunctions/arm_rfft_fast_f64.c ****          XC = X(1:2:end) +i*X(2:2:end);
  80:../Dave/Generated/CMSIS_DSP/Source/TransformFunctions/arm_rfft_fast_f64.c ****          XA = fft(XC);
  81:../Dave/Generated/CMSIS_DSP/Source/TransformFunctions/arm_rfft_fast_f64.c ****          XB = conj(XA([1 end:-1:2]));
  82:../Dave/Generated/CMSIS_DSP/Source/TransformFunctions/arm_rfft_fast_f64.c ****          TW = i*exp(-2*pi*i*[0:L/2-1]/L).';
  83:../Dave/Generated/CMSIS_DSP/Source/TransformFunctions/arm_rfft_fast_f64.c ****          for l = 2:L/2
  84:../Dave/Generated/CMSIS_DSP/Source/TransformFunctions/arm_rfft_fast_f64.c ****             XA(l) = 1/2 * (XA(l) + XB(l) + TW(l) * (XB(l) - XA(l)));
  85:../Dave/Generated/CMSIS_DSP/Source/TransformFunctions/arm_rfft_fast_f64.c ****          end
  86:../Dave/Generated/CMSIS_DSP/Source/TransformFunctions/arm_rfft_fast_f64.c ****          XA(1) = 1/2* (XA(1) + XB(1) + TW(1) * (XB(1) - XA(1))) + i*( 1/2*( XA(1) + XB(1) + i*( XA(
  87:../Dave/Generated/CMSIS_DSP/Source/TransformFunctions/arm_rfft_fast_f64.c ****          X = XA;
  88:../Dave/Generated/CMSIS_DSP/Source/TransformFunctions/arm_rfft_fast_f64.c ****       */
  89:../Dave/Generated/CMSIS_DSP/Source/TransformFunctions/arm_rfft_fast_f64.c **** 
  90:../Dave/Generated/CMSIS_DSP/Source/TransformFunctions/arm_rfft_fast_f64.c ****       xBI = pB[1];
 152              	 .loc 1 90 0 discriminator 1
 153 00fe 3B6F     	 ldr r3,[r7,#112]
 154 0100 D3E90223 	 ldrd r2,[r3,#8]
 155 0104 C7E91823 	 strd r2,[r7,#96]
  91:../Dave/Generated/CMSIS_DSP/Source/TransformFunctions/arm_rfft_fast_f64.c ****       xBR = pB[0];
 156              	 .loc 1 91 0 discriminator 1
 157 0108 3B6F     	 ldr r3,[r7,#112]
 158 010a D3E90023 	 ldrd r2,[r3]
 159 010e C7E91A23 	 strd r2,[r7,#104]
  92:../Dave/Generated/CMSIS_DSP/Source/TransformFunctions/arm_rfft_fast_f64.c ****       xAR = pA[0];
 160              	 .loc 1 92 0 discriminator 1
 161 0112 7B6F     	 ldr r3,[r7,#116]
 162 0114 D3E90023 	 ldrd r2,[r3]
 163 0118 C7E91623 	 strd r2,[r7,#88]
  93:../Dave/Generated/CMSIS_DSP/Source/TransformFunctions/arm_rfft_fast_f64.c ****       xAI = pA[1];
 164              	 .loc 1 93 0 discriminator 1
 165 011c 7B6F     	 ldr r3,[r7,#116]
 166 011e D3E90223 	 ldrd r2,[r3,#8]
 167 0122 C7E91423 	 strd r2,[r7,#80]
  94:../Dave/Generated/CMSIS_DSP/Source/TransformFunctions/arm_rfft_fast_f64.c **** 
  95:../Dave/Generated/CMSIS_DSP/Source/TransformFunctions/arm_rfft_fast_f64.c ****       twR = *pCoeff++;
 168              	 .loc 1 95 0 discriminator 1
 169 0126 BB6F     	 ldr r3,[r7,#120]
 170 0128 03F10802 	 add r2,r3,#8
 171 012c BA67     	 str r2,[r7,#120]
 172 012e D3E90023 	 ldrd r2,[r3]
 173 0132 C7E91223 	 strd r2,[r7,#72]
  96:../Dave/Generated/CMSIS_DSP/Source/TransformFunctions/arm_rfft_fast_f64.c ****       twI = *pCoeff++;
 174              	 .loc 1 96 0 discriminator 1
 175 0136 BB6F     	 ldr r3,[r7,#120]
 176 0138 03F10802 	 add r2,r3,#8
 177 013c BA67     	 str r2,[r7,#120]
 178 013e D3E90023 	 ldrd r2,[r3]
 179 0142 C7E91023 	 strd r2,[r7,#64]
  97:../Dave/Generated/CMSIS_DSP/Source/TransformFunctions/arm_rfft_fast_f64.c **** 
  98:../Dave/Generated/CMSIS_DSP/Source/TransformFunctions/arm_rfft_fast_f64.c ****       t1a = xBR - xAR ;
 180              	 .loc 1 98 0 discriminator 1
 181 0146 D7E91A01 	 ldrd r0,[r7,#104]
 182 014a D7E91623 	 ldrd r2,[r7,#88]
 183 014e FFF7FEFF 	 bl __aeabi_dsub
 184 0152 0246     	 mov r2,r0
 185 0154 0B46     	 mov r3,r1
 186 0156 C7E90E23 	 strd r2,[r7,#56]
  99:../Dave/Generated/CMSIS_DSP/Source/TransformFunctions/arm_rfft_fast_f64.c ****       t1b = xBI + xAI ;
 187              	 .loc 1 99 0 discriminator 1
 188 015a D7E91801 	 ldrd r0,[r7,#96]
 189 015e D7E91423 	 ldrd r2,[r7,#80]
 190 0162 FFF7FEFF 	 bl __aeabi_dadd
 191 0166 0246     	 mov r2,r0
 192 0168 0B46     	 mov r3,r1
 193 016a C7E90C23 	 strd r2,[r7,#48]
 100:../Dave/Generated/CMSIS_DSP/Source/TransformFunctions/arm_rfft_fast_f64.c **** 
 101:../Dave/Generated/CMSIS_DSP/Source/TransformFunctions/arm_rfft_fast_f64.c ****       // real(tw * (xB - xA)) = twR * (xBR - xAR) - twI * (xBI - xAI);
 102:../Dave/Generated/CMSIS_DSP/Source/TransformFunctions/arm_rfft_fast_f64.c ****       // imag(tw * (xB - xA)) = twI * (xBR - xAR) + twR * (xBI - xAI);
 103:../Dave/Generated/CMSIS_DSP/Source/TransformFunctions/arm_rfft_fast_f64.c ****       p0 = twR * t1a;
 194              	 .loc 1 103 0 discriminator 1
 195 016e D7E91201 	 ldrd r0,[r7,#72]
 196 0172 D7E90E23 	 ldrd r2,[r7,#56]
 197 0176 FFF7FEFF 	 bl __aeabi_dmul
 198 017a 0246     	 mov r2,r0
 199 017c 0B46     	 mov r3,r1
 200 017e C7E90A23 	 strd r2,[r7,#40]
 104:../Dave/Generated/CMSIS_DSP/Source/TransformFunctions/arm_rfft_fast_f64.c ****       p1 = twI * t1a;
 201              	 .loc 1 104 0 discriminator 1
 202 0182 D7E91001 	 ldrd r0,[r7,#64]
 203 0186 D7E90E23 	 ldrd r2,[r7,#56]
 204 018a FFF7FEFF 	 bl __aeabi_dmul
 205 018e 0246     	 mov r2,r0
 206 0190 0B46     	 mov r3,r1
 207 0192 C7E90823 	 strd r2,[r7,#32]
 105:../Dave/Generated/CMSIS_DSP/Source/TransformFunctions/arm_rfft_fast_f64.c ****       p2 = twR * t1b;
 208              	 .loc 1 105 0 discriminator 1
 209 0196 D7E91201 	 ldrd r0,[r7,#72]
 210 019a D7E90C23 	 ldrd r2,[r7,#48]
 211 019e FFF7FEFF 	 bl __aeabi_dmul
 212 01a2 0246     	 mov r2,r0
 213 01a4 0B46     	 mov r3,r1
 214 01a6 C7E90623 	 strd r2,[r7,#24]
 106:../Dave/Generated/CMSIS_DSP/Source/TransformFunctions/arm_rfft_fast_f64.c ****       p3 = twI * t1b;
 215              	 .loc 1 106 0 discriminator 1
 216 01aa D7E91001 	 ldrd r0,[r7,#64]
 217 01ae D7E90C23 	 ldrd r2,[r7,#48]
 218 01b2 FFF7FEFF 	 bl __aeabi_dmul
 219 01b6 0246     	 mov r2,r0
 220 01b8 0B46     	 mov r3,r1
 221 01ba C7E90423 	 strd r2,[r7,#16]
 107:../Dave/Generated/CMSIS_DSP/Source/TransformFunctions/arm_rfft_fast_f64.c **** 
 108:../Dave/Generated/CMSIS_DSP/Source/TransformFunctions/arm_rfft_fast_f64.c ****       *pOut++ = 0.5 * (xAR + xBR + p0 + p3 ); //xAR
 222              	 .loc 1 108 0 discriminator 1
 223 01be 7C68     	 ldr r4,[r7,#4]
 224 01c0 04F10803 	 add r3,r4,#8
 225 01c4 7B60     	 str r3,[r7,#4]
 226 01c6 D7E91601 	 ldrd r0,[r7,#88]
 227 01ca D7E91A23 	 ldrd r2,[r7,#104]
 228 01ce FFF7FEFF 	 bl __aeabi_dadd
 229 01d2 0246     	 mov r2,r0
 230 01d4 0B46     	 mov r3,r1
 231 01d6 1046     	 mov r0,r2
 232 01d8 1946     	 mov r1,r3
 233 01da D7E90A23 	 ldrd r2,[r7,#40]
 234 01de FFF7FEFF 	 bl __aeabi_dadd
 235 01e2 0246     	 mov r2,r0
 236 01e4 0B46     	 mov r3,r1
 237 01e6 1046     	 mov r0,r2
 238 01e8 1946     	 mov r1,r3
 239 01ea D7E90423 	 ldrd r2,[r7,#16]
 240 01ee FFF7FEFF 	 bl __aeabi_dadd
 241 01f2 0246     	 mov r2,r0
 242 01f4 0B46     	 mov r3,r1
 243 01f6 1046     	 mov r0,r2
 244 01f8 1946     	 mov r1,r3
 245 01fa 4FF00002 	 mov r2,#0
 246 01fe 1F4B     	 ldr r3,.L3
 247 0200 FFF7FEFF 	 bl __aeabi_dmul
 248 0204 0246     	 mov r2,r0
 249 0206 0B46     	 mov r3,r1
 250 0208 C4E90023 	 strd r2,[r4]
 109:../Dave/Generated/CMSIS_DSP/Source/TransformFunctions/arm_rfft_fast_f64.c ****       *pOut++ = 0.5 * (xAI - xBI + p1 - p2 ); //xAI
 251              	 .loc 1 109 0 discriminator 1
 252 020c 7C68     	 ldr r4,[r7,#4]
 253 020e 04F10803 	 add r3,r4,#8
 254 0212 7B60     	 str r3,[r7,#4]
 255 0214 D7E91401 	 ldrd r0,[r7,#80]
 256 0218 D7E91823 	 ldrd r2,[r7,#96]
 257 021c FFF7FEFF 	 bl __aeabi_dsub
 258 0220 0246     	 mov r2,r0
 259 0222 0B46     	 mov r3,r1
 260 0224 1046     	 mov r0,r2
 261 0226 1946     	 mov r1,r3
 262 0228 D7E90823 	 ldrd r2,[r7,#32]
 263 022c FFF7FEFF 	 bl __aeabi_dadd
 264 0230 0246     	 mov r2,r0
 265 0232 0B46     	 mov r3,r1
 266 0234 1046     	 mov r0,r2
 267 0236 1946     	 mov r1,r3
 268 0238 D7E90623 	 ldrd r2,[r7,#24]
 269 023c FFF7FEFF 	 bl __aeabi_dsub
 270 0240 0246     	 mov r2,r0
 271 0242 0B46     	 mov r3,r1
 272 0244 1046     	 mov r0,r2
 273 0246 1946     	 mov r1,r3
 274 0248 4FF00002 	 mov r2,#0
 275 024c 0B4B     	 ldr r3,.L3
 276 024e FFF7FEFF 	 bl __aeabi_dmul
 277 0252 0246     	 mov r2,r0
 278 0254 0B46     	 mov r3,r1
 279 0256 C4E90023 	 strd r2,[r4]
 110:../Dave/Generated/CMSIS_DSP/Source/TransformFunctions/arm_rfft_fast_f64.c **** 
 111:../Dave/Generated/CMSIS_DSP/Source/TransformFunctions/arm_rfft_fast_f64.c ****       pA += 2;
 280              	 .loc 1 111 0 discriminator 1
 281 025a 7B6F     	 ldr r3,[r7,#116]
 282 025c 1033     	 adds r3,r3,#16
 283 025e 7B67     	 str r3,[r7,#116]
 112:../Dave/Generated/CMSIS_DSP/Source/TransformFunctions/arm_rfft_fast_f64.c ****       pB -= 2;
 284              	 .loc 1 112 0 discriminator 1
 285 0260 3B6F     	 ldr r3,[r7,#112]
 286 0262 103B     	 subs r3,r3,#16
 287 0264 3B67     	 str r3,[r7,#112]
 113:../Dave/Generated/CMSIS_DSP/Source/TransformFunctions/arm_rfft_fast_f64.c ****       k--;
 288              	 .loc 1 113 0 discriminator 1
 289 0266 FB6F     	 ldr r3,[r7,#124]
 290 0268 013B     	 subs r3,r3,#1
 291 026a FB67     	 str r3,[r7,#124]
 114:../Dave/Generated/CMSIS_DSP/Source/TransformFunctions/arm_rfft_fast_f64.c ****    } while (k > 0U);
 292              	 .loc 1 114 0 discriminator 1
 293 026c FB6F     	 ldr r3,[r7,#124]
 294 026e 002B     	 cmp r3,#0
 295 0270 7FF445AF 	 bne .L2
 115:../Dave/Generated/CMSIS_DSP/Source/TransformFunctions/arm_rfft_fast_f64.c **** }
 296              	 .loc 1 115 0
 297 0274 8437     	 adds r7,r7,#132
 298              	.LCFI3:
 299              	 .cfi_def_cfa_offset 12
 300 0276 BD46     	 mov sp,r7
 301              	.LCFI4:
 302              	 .cfi_def_cfa_register 13
 303              	 
 304 0278 90BD     	 pop {r4,r7,pc}
 305              	.L4:
 306 027a 00BF     	 .align 2
 307              	.L3:
 308 027c 0000E03F 	 .word 1071644672
 309              	 .cfi_endproc
 310              	.LFE149:
 312              	 .section .text.merge_rfft_f64,"ax",%progbits
 313              	 .align 2
 314              	 .global merge_rfft_f64
 315              	 .thumb
 316              	 .thumb_func
 318              	merge_rfft_f64:
 319              	.LFB150:
 116:../Dave/Generated/CMSIS_DSP/Source/TransformFunctions/arm_rfft_fast_f64.c **** 
 117:../Dave/Generated/CMSIS_DSP/Source/TransformFunctions/arm_rfft_fast_f64.c **** /* Prepares data for inverse cfft */
 118:../Dave/Generated/CMSIS_DSP/Source/TransformFunctions/arm_rfft_fast_f64.c **** void merge_rfft_f64(
 119:../Dave/Generated/CMSIS_DSP/Source/TransformFunctions/arm_rfft_fast_f64.c ****   const arm_rfft_fast_instance_f64 * S,
 120:../Dave/Generated/CMSIS_DSP/Source/TransformFunctions/arm_rfft_fast_f64.c ****         float64_t * p,
 121:../Dave/Generated/CMSIS_DSP/Source/TransformFunctions/arm_rfft_fast_f64.c ****         float64_t * pOut)
 122:../Dave/Generated/CMSIS_DSP/Source/TransformFunctions/arm_rfft_fast_f64.c **** {
 320              	 .loc 1 122 0
 321              	 .cfi_startproc
 322              	 
 323              	 
 324 0000 90B5     	 push {r4,r7,lr}
 325              	.LCFI5:
 326              	 .cfi_def_cfa_offset 12
 327              	 .cfi_offset 4,-12
 328              	 .cfi_offset 7,-8
 329              	 .cfi_offset 14,-4
 330 0002 A1B0     	 sub sp,sp,#132
 331              	.LCFI6:
 332              	 .cfi_def_cfa_offset 144
 333 0004 00AF     	 add r7,sp,#0
 334              	.LCFI7:
 335              	 .cfi_def_cfa_register 7
 336 0006 F860     	 str r0,[r7,#12]
 337 0008 B960     	 str r1,[r7,#8]
 338 000a 7A60     	 str r2,[r7,#4]
 123:../Dave/Generated/CMSIS_DSP/Source/TransformFunctions/arm_rfft_fast_f64.c ****         uint32_t  k;                                /* Loop Counter */
 124:../Dave/Generated/CMSIS_DSP/Source/TransformFunctions/arm_rfft_fast_f64.c ****         float64_t twR, twI;                         /* RFFT Twiddle coefficients */
 125:../Dave/Generated/CMSIS_DSP/Source/TransformFunctions/arm_rfft_fast_f64.c ****   const float64_t *pCoeff = S->pTwiddleRFFT;        /* Points to RFFT Twiddle factors */
 339              	 .loc 1 125 0
 340 000c FB68     	 ldr r3,[r7,#12]
 341 000e 5B69     	 ldr r3,[r3,#20]
 342 0010 BB67     	 str r3,[r7,#120]
 126:../Dave/Generated/CMSIS_DSP/Source/TransformFunctions/arm_rfft_fast_f64.c ****         float64_t *pA = p;                          /* increasing pointer */
 343              	 .loc 1 126 0
 344 0012 BB68     	 ldr r3,[r7,#8]
 345 0014 7B67     	 str r3,[r7,#116]
 127:../Dave/Generated/CMSIS_DSP/Source/TransformFunctions/arm_rfft_fast_f64.c ****         float64_t *pB = p;                          /* decreasing pointer */
 346              	 .loc 1 127 0
 347 0016 BB68     	 ldr r3,[r7,#8]
 348 0018 3B67     	 str r3,[r7,#112]
 128:../Dave/Generated/CMSIS_DSP/Source/TransformFunctions/arm_rfft_fast_f64.c ****         float64_t xAR, xAI, xBR, xBI;               /* temporary variables */
 129:../Dave/Generated/CMSIS_DSP/Source/TransformFunctions/arm_rfft_fast_f64.c ****         float64_t t1a, t1b, r, s, t, u;             /* temporary variables */
 130:../Dave/Generated/CMSIS_DSP/Source/TransformFunctions/arm_rfft_fast_f64.c **** 
 131:../Dave/Generated/CMSIS_DSP/Source/TransformFunctions/arm_rfft_fast_f64.c ****    k = (S->Sint).fftLen - 1;
 349              	 .loc 1 131 0
 350 001a FB68     	 ldr r3,[r7,#12]
 351 001c 1B88     	 ldrh r3,[r3]
 352 001e 013B     	 subs r3,r3,#1
 353 0020 FB67     	 str r3,[r7,#124]
 132:../Dave/Generated/CMSIS_DSP/Source/TransformFunctions/arm_rfft_fast_f64.c **** 
 133:../Dave/Generated/CMSIS_DSP/Source/TransformFunctions/arm_rfft_fast_f64.c ****    xAR = pA[0];
 354              	 .loc 1 133 0
 355 0022 7B6F     	 ldr r3,[r7,#116]
 356 0024 D3E90023 	 ldrd r2,[r3]
 357 0028 C7E91A23 	 strd r2,[r7,#104]
 134:../Dave/Generated/CMSIS_DSP/Source/TransformFunctions/arm_rfft_fast_f64.c ****    xAI = pA[1];
 358              	 .loc 1 134 0
 359 002c 7B6F     	 ldr r3,[r7,#116]
 360 002e D3E90223 	 ldrd r2,[r3,#8]
 361 0032 C7E91823 	 strd r2,[r7,#96]
 135:../Dave/Generated/CMSIS_DSP/Source/TransformFunctions/arm_rfft_fast_f64.c **** 
 136:../Dave/Generated/CMSIS_DSP/Source/TransformFunctions/arm_rfft_fast_f64.c ****    pCoeff += 2 ;
 362              	 .loc 1 136 0
 363 0036 BB6F     	 ldr r3,[r7,#120]
 364 0038 1033     	 adds r3,r3,#16
 365 003a BB67     	 str r3,[r7,#120]
 137:../Dave/Generated/CMSIS_DSP/Source/TransformFunctions/arm_rfft_fast_f64.c **** 
 138:../Dave/Generated/CMSIS_DSP/Source/TransformFunctions/arm_rfft_fast_f64.c ****    *pOut++ = 0.5 * ( xAR + xAI );
 366              	 .loc 1 138 0
 367 003c 7C68     	 ldr r4,[r7,#4]
 368 003e 04F10803 	 add r3,r4,#8
 369 0042 7B60     	 str r3,[r7,#4]
 370 0044 D7E91A01 	 ldrd r0,[r7,#104]
 371 0048 D7E91823 	 ldrd r2,[r7,#96]
 372 004c FFF7FEFF 	 bl __aeabi_dadd
 373 0050 0246     	 mov r2,r0
 374 0052 0B46     	 mov r3,r1
 375 0054 1046     	 mov r0,r2
 376 0056 1946     	 mov r1,r3
 377 0058 4FF00002 	 mov r2,#0
 378 005c 724B     	 ldr r3,.L8
 379 005e FFF7FEFF 	 bl __aeabi_dmul
 380 0062 0246     	 mov r2,r0
 381 0064 0B46     	 mov r3,r1
 382 0066 C4E90023 	 strd r2,[r4]
 139:../Dave/Generated/CMSIS_DSP/Source/TransformFunctions/arm_rfft_fast_f64.c ****    *pOut++ = 0.5 * ( xAR - xAI );
 383              	 .loc 1 139 0
 384 006a 7C68     	 ldr r4,[r7,#4]
 385 006c 04F10803 	 add r3,r4,#8
 386 0070 7B60     	 str r3,[r7,#4]
 387 0072 D7E91A01 	 ldrd r0,[r7,#104]
 388 0076 D7E91823 	 ldrd r2,[r7,#96]
 389 007a FFF7FEFF 	 bl __aeabi_dsub
 390 007e 0246     	 mov r2,r0
 391 0080 0B46     	 mov r3,r1
 392 0082 1046     	 mov r0,r2
 393 0084 1946     	 mov r1,r3
 394 0086 4FF00002 	 mov r2,#0
 395 008a 674B     	 ldr r3,.L8
 396 008c FFF7FEFF 	 bl __aeabi_dmul
 397 0090 0246     	 mov r2,r0
 398 0092 0B46     	 mov r3,r1
 399 0094 C4E90023 	 strd r2,[r4]
 140:../Dave/Generated/CMSIS_DSP/Source/TransformFunctions/arm_rfft_fast_f64.c **** 
 141:../Dave/Generated/CMSIS_DSP/Source/TransformFunctions/arm_rfft_fast_f64.c ****    pB  =  p + 2*k ;
 400              	 .loc 1 141 0
 401 0098 FB6F     	 ldr r3,[r7,#124]
 402 009a 1B01     	 lsls r3,r3,#4
 403 009c BA68     	 ldr r2,[r7,#8]
 404 009e 1344     	 add r3,r3,r2
 405 00a0 3B67     	 str r3,[r7,#112]
 142:../Dave/Generated/CMSIS_DSP/Source/TransformFunctions/arm_rfft_fast_f64.c ****    pA +=  2	   ;
 406              	 .loc 1 142 0
 407 00a2 7B6F     	 ldr r3,[r7,#116]
 408 00a4 1033     	 adds r3,r3,#16
 409 00a6 7B67     	 str r3,[r7,#116]
 143:../Dave/Generated/CMSIS_DSP/Source/TransformFunctions/arm_rfft_fast_f64.c **** 
 144:../Dave/Generated/CMSIS_DSP/Source/TransformFunctions/arm_rfft_fast_f64.c ****    while (k > 0U)
 410              	 .loc 1 144 0
 411 00a8 B6E0     	 b .L6
 412              	.L7:
 145:../Dave/Generated/CMSIS_DSP/Source/TransformFunctions/arm_rfft_fast_f64.c ****    {
 146:../Dave/Generated/CMSIS_DSP/Source/TransformFunctions/arm_rfft_fast_f64.c ****       /* G is half of the frequency complex spectrum */
 147:../Dave/Generated/CMSIS_DSP/Source/TransformFunctions/arm_rfft_fast_f64.c ****       //for k = 2:N
 148:../Dave/Generated/CMSIS_DSP/Source/TransformFunctions/arm_rfft_fast_f64.c ****       //    Xk(k) = 1/2 * (G(k) + conj(G(N-k+2)) + Tw(k)*( G(k) - conj(G(N-k+2))));
 149:../Dave/Generated/CMSIS_DSP/Source/TransformFunctions/arm_rfft_fast_f64.c ****       xBI =   pB[1]    ;
 413              	 .loc 1 149 0
 414 00aa 3B6F     	 ldr r3,[r7,#112]
 415 00ac D3E90223 	 ldrd r2,[r3,#8]
 416 00b0 C7E91623 	 strd r2,[r7,#88]
 150:../Dave/Generated/CMSIS_DSP/Source/TransformFunctions/arm_rfft_fast_f64.c ****       xBR =   pB[0]    ;
 417              	 .loc 1 150 0
 418 00b4 3B6F     	 ldr r3,[r7,#112]
 419 00b6 D3E90023 	 ldrd r2,[r3]
 420 00ba C7E91423 	 strd r2,[r7,#80]
 151:../Dave/Generated/CMSIS_DSP/Source/TransformFunctions/arm_rfft_fast_f64.c ****       xAR =  pA[0];
 421              	 .loc 1 151 0
 422 00be 7B6F     	 ldr r3,[r7,#116]
 423 00c0 D3E90023 	 ldrd r2,[r3]
 424 00c4 C7E91A23 	 strd r2,[r7,#104]
 152:../Dave/Generated/CMSIS_DSP/Source/TransformFunctions/arm_rfft_fast_f64.c ****       xAI =  pA[1];
 425              	 .loc 1 152 0
 426 00c8 7B6F     	 ldr r3,[r7,#116]
 427 00ca D3E90223 	 ldrd r2,[r3,#8]
 428 00ce C7E91823 	 strd r2,[r7,#96]
 153:../Dave/Generated/CMSIS_DSP/Source/TransformFunctions/arm_rfft_fast_f64.c **** 
 154:../Dave/Generated/CMSIS_DSP/Source/TransformFunctions/arm_rfft_fast_f64.c ****       twR = *pCoeff++;
 429              	 .loc 1 154 0
 430 00d2 BB6F     	 ldr r3,[r7,#120]
 431 00d4 03F10802 	 add r2,r3,#8
 432 00d8 BA67     	 str r2,[r7,#120]
 433 00da D3E90023 	 ldrd r2,[r3]
 434 00de C7E91223 	 strd r2,[r7,#72]
 155:../Dave/Generated/CMSIS_DSP/Source/TransformFunctions/arm_rfft_fast_f64.c ****       twI = *pCoeff++;
 435              	 .loc 1 155 0
 436 00e2 BB6F     	 ldr r3,[r7,#120]
 437 00e4 03F10802 	 add r2,r3,#8
 438 00e8 BA67     	 str r2,[r7,#120]
 439 00ea D3E90023 	 ldrd r2,[r3]
 440 00ee C7E91023 	 strd r2,[r7,#64]
 156:../Dave/Generated/CMSIS_DSP/Source/TransformFunctions/arm_rfft_fast_f64.c **** 
 157:../Dave/Generated/CMSIS_DSP/Source/TransformFunctions/arm_rfft_fast_f64.c ****       t1a = xAR - xBR ;
 441              	 .loc 1 157 0
 442 00f2 D7E91A01 	 ldrd r0,[r7,#104]
 443 00f6 D7E91423 	 ldrd r2,[r7,#80]
 444 00fa FFF7FEFF 	 bl __aeabi_dsub
 445 00fe 0246     	 mov r2,r0
 446 0100 0B46     	 mov r3,r1
 447 0102 C7E90E23 	 strd r2,[r7,#56]
 158:../Dave/Generated/CMSIS_DSP/Source/TransformFunctions/arm_rfft_fast_f64.c ****       t1b = xAI + xBI ;
 448              	 .loc 1 158 0
 449 0106 D7E91801 	 ldrd r0,[r7,#96]
 450 010a D7E91623 	 ldrd r2,[r7,#88]
 451 010e FFF7FEFF 	 bl __aeabi_dadd
 452 0112 0246     	 mov r2,r0
 453 0114 0B46     	 mov r3,r1
 454 0116 C7E90C23 	 strd r2,[r7,#48]
 159:../Dave/Generated/CMSIS_DSP/Source/TransformFunctions/arm_rfft_fast_f64.c **** 
 160:../Dave/Generated/CMSIS_DSP/Source/TransformFunctions/arm_rfft_fast_f64.c ****       r = twR * t1a;
 455              	 .loc 1 160 0
 456 011a D7E91201 	 ldrd r0,[r7,#72]
 457 011e D7E90E23 	 ldrd r2,[r7,#56]
 458 0122 FFF7FEFF 	 bl __aeabi_dmul
 459 0126 0246     	 mov r2,r0
 460 0128 0B46     	 mov r3,r1
 461 012a C7E90A23 	 strd r2,[r7,#40]
 161:../Dave/Generated/CMSIS_DSP/Source/TransformFunctions/arm_rfft_fast_f64.c ****       s = twI * t1b;
 462              	 .loc 1 161 0
 463 012e D7E91001 	 ldrd r0,[r7,#64]
 464 0132 D7E90C23 	 ldrd r2,[r7,#48]
 465 0136 FFF7FEFF 	 bl __aeabi_dmul
 466 013a 0246     	 mov r2,r0
 467 013c 0B46     	 mov r3,r1
 468 013e C7E90823 	 strd r2,[r7,#32]
 162:../Dave/Generated/CMSIS_DSP/Source/TransformFunctions/arm_rfft_fast_f64.c ****       t = twI * t1a;
 469              	 .loc 1 162 0
 470 0142 D7E91001 	 ldrd r0,[r7,#64]
 471 0146 D7E90E23 	 ldrd r2,[r7,#56]
 472 014a FFF7FEFF 	 bl __aeabi_dmul
 473 014e 0246     	 mov r2,r0
 474 0150 0B46     	 mov r3,r1
 475 0152 C7E90623 	 strd r2,[r7,#24]
 163:../Dave/Generated/CMSIS_DSP/Source/TransformFunctions/arm_rfft_fast_f64.c ****       u = twR * t1b;
 476              	 .loc 1 163 0
 477 0156 D7E91201 	 ldrd r0,[r7,#72]
 478 015a D7E90C23 	 ldrd r2,[r7,#48]
 479 015e FFF7FEFF 	 bl __aeabi_dmul
 480 0162 0246     	 mov r2,r0
 481 0164 0B46     	 mov r3,r1
 482 0166 C7E90423 	 strd r2,[r7,#16]
 164:../Dave/Generated/CMSIS_DSP/Source/TransformFunctions/arm_rfft_fast_f64.c **** 
 165:../Dave/Generated/CMSIS_DSP/Source/TransformFunctions/arm_rfft_fast_f64.c ****       // real(tw * (xA - xB)) = twR * (xAR - xBR) - twI * (xAI - xBI);
 166:../Dave/Generated/CMSIS_DSP/Source/TransformFunctions/arm_rfft_fast_f64.c ****       // imag(tw * (xA - xB)) = twI * (xAR - xBR) + twR * (xAI - xBI);
 167:../Dave/Generated/CMSIS_DSP/Source/TransformFunctions/arm_rfft_fast_f64.c ****       *pOut++ = 0.5 * (xAR + xBR - r - s ); //xAR
 483              	 .loc 1 167 0
 484 016a 7C68     	 ldr r4,[r7,#4]
 485 016c 04F10803 	 add r3,r4,#8
 486 0170 7B60     	 str r3,[r7,#4]
 487 0172 D7E91A01 	 ldrd r0,[r7,#104]
 488 0176 D7E91423 	 ldrd r2,[r7,#80]
 489 017a FFF7FEFF 	 bl __aeabi_dadd
 490 017e 0246     	 mov r2,r0
 491 0180 0B46     	 mov r3,r1
 492 0182 1046     	 mov r0,r2
 493 0184 1946     	 mov r1,r3
 494 0186 D7E90A23 	 ldrd r2,[r7,#40]
 495 018a FFF7FEFF 	 bl __aeabi_dsub
 496 018e 0246     	 mov r2,r0
 497 0190 0B46     	 mov r3,r1
 498 0192 1046     	 mov r0,r2
 499 0194 1946     	 mov r1,r3
 500 0196 D7E90823 	 ldrd r2,[r7,#32]
 501 019a FFF7FEFF 	 bl __aeabi_dsub
 502 019e 0246     	 mov r2,r0
 503 01a0 0B46     	 mov r3,r1
 504 01a2 1046     	 mov r0,r2
 505 01a4 1946     	 mov r1,r3
 506 01a6 4FF00002 	 mov r2,#0
 507 01aa 1F4B     	 ldr r3,.L8
 508 01ac FFF7FEFF 	 bl __aeabi_dmul
 509 01b0 0246     	 mov r2,r0
 510 01b2 0B46     	 mov r3,r1
 511 01b4 C4E90023 	 strd r2,[r4]
 168:../Dave/Generated/CMSIS_DSP/Source/TransformFunctions/arm_rfft_fast_f64.c ****       *pOut++ = 0.5 * (xAI - xBI + t - u ); //xAI
 512              	 .loc 1 168 0
 513 01b8 7C68     	 ldr r4,[r7,#4]
 514 01ba 04F10803 	 add r3,r4,#8
 515 01be 7B60     	 str r3,[r7,#4]
 516 01c0 D7E91801 	 ldrd r0,[r7,#96]
 517 01c4 D7E91623 	 ldrd r2,[r7,#88]
 518 01c8 FFF7FEFF 	 bl __aeabi_dsub
 519 01cc 0246     	 mov r2,r0
 520 01ce 0B46     	 mov r3,r1
 521 01d0 1046     	 mov r0,r2
 522 01d2 1946     	 mov r1,r3
 523 01d4 D7E90623 	 ldrd r2,[r7,#24]
 524 01d8 FFF7FEFF 	 bl __aeabi_dadd
 525 01dc 0246     	 mov r2,r0
 526 01de 0B46     	 mov r3,r1
 527 01e0 1046     	 mov r0,r2
 528 01e2 1946     	 mov r1,r3
 529 01e4 D7E90423 	 ldrd r2,[r7,#16]
 530 01e8 FFF7FEFF 	 bl __aeabi_dsub
 531 01ec 0246     	 mov r2,r0
 532 01ee 0B46     	 mov r3,r1
 533 01f0 1046     	 mov r0,r2
 534 01f2 1946     	 mov r1,r3
 535 01f4 4FF00002 	 mov r2,#0
 536 01f8 0B4B     	 ldr r3,.L8
 537 01fa FFF7FEFF 	 bl __aeabi_dmul
 538 01fe 0246     	 mov r2,r0
 539 0200 0B46     	 mov r3,r1
 540 0202 C4E90023 	 strd r2,[r4]
 169:../Dave/Generated/CMSIS_DSP/Source/TransformFunctions/arm_rfft_fast_f64.c **** 
 170:../Dave/Generated/CMSIS_DSP/Source/TransformFunctions/arm_rfft_fast_f64.c ****       pA += 2;
 541              	 .loc 1 170 0
 542 0206 7B6F     	 ldr r3,[r7,#116]
 543 0208 1033     	 adds r3,r3,#16
 544 020a 7B67     	 str r3,[r7,#116]
 171:../Dave/Generated/CMSIS_DSP/Source/TransformFunctions/arm_rfft_fast_f64.c ****       pB -= 2;
 545              	 .loc 1 171 0
 546 020c 3B6F     	 ldr r3,[r7,#112]
 547 020e 103B     	 subs r3,r3,#16
 548 0210 3B67     	 str r3,[r7,#112]
 172:../Dave/Generated/CMSIS_DSP/Source/TransformFunctions/arm_rfft_fast_f64.c ****       k--;
 549              	 .loc 1 172 0
 550 0212 FB6F     	 ldr r3,[r7,#124]
 551 0214 013B     	 subs r3,r3,#1
 552 0216 FB67     	 str r3,[r7,#124]
 553              	.L6:
 144:../Dave/Generated/CMSIS_DSP/Source/TransformFunctions/arm_rfft_fast_f64.c ****    {
 554              	 .loc 1 144 0
 555 0218 FB6F     	 ldr r3,[r7,#124]
 556 021a 002B     	 cmp r3,#0
 557 021c 7FF445AF 	 bne .L7
 173:../Dave/Generated/CMSIS_DSP/Source/TransformFunctions/arm_rfft_fast_f64.c ****    }
 174:../Dave/Generated/CMSIS_DSP/Source/TransformFunctions/arm_rfft_fast_f64.c **** 
 175:../Dave/Generated/CMSIS_DSP/Source/TransformFunctions/arm_rfft_fast_f64.c **** }
 558              	 .loc 1 175 0
 559 0220 8437     	 adds r7,r7,#132
 560              	.LCFI8:
 561              	 .cfi_def_cfa_offset 12
 562 0222 BD46     	 mov sp,r7
 563              	.LCFI9:
 564              	 .cfi_def_cfa_register 13
 565              	 
 566 0224 90BD     	 pop {r4,r7,pc}
 567              	.L9:
 568 0226 00BF     	 .align 2
 569              	.L8:
 570 0228 0000E03F 	 .word 1071644672
 571              	 .cfi_endproc
 572              	.LFE150:
 574              	 .section .text.arm_rfft_fast_f64,"ax",%progbits
 575              	 .align 2
 576              	 .global arm_rfft_fast_f64
 577              	 .thumb
 578              	 .thumb_func
 580              	arm_rfft_fast_f64:
 581              	.LFB151:
 176:../Dave/Generated/CMSIS_DSP/Source/TransformFunctions/arm_rfft_fast_f64.c **** 
 177:../Dave/Generated/CMSIS_DSP/Source/TransformFunctions/arm_rfft_fast_f64.c **** /**
 178:../Dave/Generated/CMSIS_DSP/Source/TransformFunctions/arm_rfft_fast_f64.c ****   @ingroup groupTransforms
 179:../Dave/Generated/CMSIS_DSP/Source/TransformFunctions/arm_rfft_fast_f64.c **** */
 180:../Dave/Generated/CMSIS_DSP/Source/TransformFunctions/arm_rfft_fast_f64.c **** 
 181:../Dave/Generated/CMSIS_DSP/Source/TransformFunctions/arm_rfft_fast_f64.c **** 
 182:../Dave/Generated/CMSIS_DSP/Source/TransformFunctions/arm_rfft_fast_f64.c **** /**
 183:../Dave/Generated/CMSIS_DSP/Source/TransformFunctions/arm_rfft_fast_f64.c ****   @addtogroup RealFFT
 184:../Dave/Generated/CMSIS_DSP/Source/TransformFunctions/arm_rfft_fast_f64.c ****   @{
 185:../Dave/Generated/CMSIS_DSP/Source/TransformFunctions/arm_rfft_fast_f64.c **** */
 186:../Dave/Generated/CMSIS_DSP/Source/TransformFunctions/arm_rfft_fast_f64.c **** 
 187:../Dave/Generated/CMSIS_DSP/Source/TransformFunctions/arm_rfft_fast_f64.c **** /**
 188:../Dave/Generated/CMSIS_DSP/Source/TransformFunctions/arm_rfft_fast_f64.c ****   @brief         Processing function for the Double Precision floating-point real FFT.
 189:../Dave/Generated/CMSIS_DSP/Source/TransformFunctions/arm_rfft_fast_f64.c ****   @param[in]     S         points to an arm_rfft_fast_instance_f64 structure
 190:../Dave/Generated/CMSIS_DSP/Source/TransformFunctions/arm_rfft_fast_f64.c ****   @param[in]     p         points to input buffer (Source buffer is modified by this function.)
 191:../Dave/Generated/CMSIS_DSP/Source/TransformFunctions/arm_rfft_fast_f64.c ****   @param[in]     pOut      points to output buffer
 192:../Dave/Generated/CMSIS_DSP/Source/TransformFunctions/arm_rfft_fast_f64.c ****   @param[in]     ifftFlag
 193:../Dave/Generated/CMSIS_DSP/Source/TransformFunctions/arm_rfft_fast_f64.c ****                    - value = 0: RFFT
 194:../Dave/Generated/CMSIS_DSP/Source/TransformFunctions/arm_rfft_fast_f64.c ****                    - value = 1: RIFFT
 195:../Dave/Generated/CMSIS_DSP/Source/TransformFunctions/arm_rfft_fast_f64.c ****   @return        none
 196:../Dave/Generated/CMSIS_DSP/Source/TransformFunctions/arm_rfft_fast_f64.c **** */
 197:../Dave/Generated/CMSIS_DSP/Source/TransformFunctions/arm_rfft_fast_f64.c **** 
 198:../Dave/Generated/CMSIS_DSP/Source/TransformFunctions/arm_rfft_fast_f64.c **** void arm_rfft_fast_f64(
 199:../Dave/Generated/CMSIS_DSP/Source/TransformFunctions/arm_rfft_fast_f64.c ****   arm_rfft_fast_instance_f64 * S,
 200:../Dave/Generated/CMSIS_DSP/Source/TransformFunctions/arm_rfft_fast_f64.c ****   float64_t * p,
 201:../Dave/Generated/CMSIS_DSP/Source/TransformFunctions/arm_rfft_fast_f64.c ****   float64_t * pOut,
 202:../Dave/Generated/CMSIS_DSP/Source/TransformFunctions/arm_rfft_fast_f64.c ****   uint8_t ifftFlag)
 203:../Dave/Generated/CMSIS_DSP/Source/TransformFunctions/arm_rfft_fast_f64.c **** {
 582              	 .loc 1 203 0
 583              	 .cfi_startproc
 584              	 
 585              	 
 586 0000 80B5     	 push {r7,lr}
 587              	.LCFI10:
 588              	 .cfi_def_cfa_offset 8
 589              	 .cfi_offset 7,-8
 590              	 .cfi_offset 14,-4
 591 0002 86B0     	 sub sp,sp,#24
 592              	.LCFI11:
 593              	 .cfi_def_cfa_offset 32
 594 0004 00AF     	 add r7,sp,#0
 595              	.LCFI12:
 596              	 .cfi_def_cfa_register 7
 597 0006 F860     	 str r0,[r7,#12]
 598 0008 B960     	 str r1,[r7,#8]
 599 000a 7A60     	 str r2,[r7,#4]
 600 000c FB70     	 strb r3,[r7,#3]
 204:../Dave/Generated/CMSIS_DSP/Source/TransformFunctions/arm_rfft_fast_f64.c ****    arm_cfft_instance_f64 * Sint = &(S->Sint);
 601              	 .loc 1 204 0
 602 000e FB68     	 ldr r3,[r7,#12]
 603 0010 7B61     	 str r3,[r7,#20]
 205:../Dave/Generated/CMSIS_DSP/Source/TransformFunctions/arm_rfft_fast_f64.c ****    Sint->fftLen = S->fftLenRFFT / 2;
 604              	 .loc 1 205 0
 605 0012 FB68     	 ldr r3,[r7,#12]
 606 0014 1B8A     	 ldrh r3,[r3,#16]
 607 0016 5B08     	 lsrs r3,r3,#1
 608 0018 9AB2     	 uxth r2,r3
 609 001a 7B69     	 ldr r3,[r7,#20]
 610 001c 1A80     	 strh r2,[r3]
 206:../Dave/Generated/CMSIS_DSP/Source/TransformFunctions/arm_rfft_fast_f64.c **** 
 207:../Dave/Generated/CMSIS_DSP/Source/TransformFunctions/arm_rfft_fast_f64.c ****    /* Calculation of Real FFT */
 208:../Dave/Generated/CMSIS_DSP/Source/TransformFunctions/arm_rfft_fast_f64.c ****    if (ifftFlag)
 611              	 .loc 1 208 0
 612 001e FB78     	 ldrb r3,[r7,#3]
 613 0020 002B     	 cmp r3,#0
 614 0022 0CD0     	 beq .L11
 209:../Dave/Generated/CMSIS_DSP/Source/TransformFunctions/arm_rfft_fast_f64.c ****    {
 210:../Dave/Generated/CMSIS_DSP/Source/TransformFunctions/arm_rfft_fast_f64.c ****       /*  Real FFT compression */
 211:../Dave/Generated/CMSIS_DSP/Source/TransformFunctions/arm_rfft_fast_f64.c ****       merge_rfft_f64(S, p, pOut);
 615              	 .loc 1 211 0
 616 0024 F868     	 ldr r0,[r7,#12]
 617 0026 B968     	 ldr r1,[r7,#8]
 618 0028 7A68     	 ldr r2,[r7,#4]
 619 002a FFF7FEFF 	 bl merge_rfft_f64
 212:../Dave/Generated/CMSIS_DSP/Source/TransformFunctions/arm_rfft_fast_f64.c **** 
 213:../Dave/Generated/CMSIS_DSP/Source/TransformFunctions/arm_rfft_fast_f64.c ****       /* Complex radix-4 IFFT process */
 214:../Dave/Generated/CMSIS_DSP/Source/TransformFunctions/arm_rfft_fast_f64.c ****       arm_cfft_f64( Sint, pOut, ifftFlag, 1);
 620              	 .loc 1 214 0
 621 002e FB78     	 ldrb r3,[r7,#3]
 622 0030 7869     	 ldr r0,[r7,#20]
 623 0032 7968     	 ldr r1,[r7,#4]
 624 0034 1A46     	 mov r2,r3
 625 0036 0123     	 movs r3,#1
 626 0038 FFF7FEFF 	 bl arm_cfft_f64
 627 003c 0BE0     	 b .L10
 628              	.L11:
 215:../Dave/Generated/CMSIS_DSP/Source/TransformFunctions/arm_rfft_fast_f64.c ****    }
 216:../Dave/Generated/CMSIS_DSP/Source/TransformFunctions/arm_rfft_fast_f64.c ****    else
 217:../Dave/Generated/CMSIS_DSP/Source/TransformFunctions/arm_rfft_fast_f64.c ****    {
 218:../Dave/Generated/CMSIS_DSP/Source/TransformFunctions/arm_rfft_fast_f64.c ****       /* Calculation of RFFT of input */
 219:../Dave/Generated/CMSIS_DSP/Source/TransformFunctions/arm_rfft_fast_f64.c ****       arm_cfft_f64( Sint, p, ifftFlag, 1);
 629              	 .loc 1 219 0
 630 003e FB78     	 ldrb r3,[r7,#3]
 631 0040 7869     	 ldr r0,[r7,#20]
 632 0042 B968     	 ldr r1,[r7,#8]
 633 0044 1A46     	 mov r2,r3
 634 0046 0123     	 movs r3,#1
 635 0048 FFF7FEFF 	 bl arm_cfft_f64
 220:../Dave/Generated/CMSIS_DSP/Source/TransformFunctions/arm_rfft_fast_f64.c **** 
 221:../Dave/Generated/CMSIS_DSP/Source/TransformFunctions/arm_rfft_fast_f64.c ****       /*  Real FFT extraction */
 222:../Dave/Generated/CMSIS_DSP/Source/TransformFunctions/arm_rfft_fast_f64.c ****       stage_rfft_f64(S, p, pOut);
 636              	 .loc 1 222 0
 637 004c F868     	 ldr r0,[r7,#12]
 638 004e B968     	 ldr r1,[r7,#8]
 639 0050 7A68     	 ldr r2,[r7,#4]
 640 0052 FFF7FEFF 	 bl stage_rfft_f64
 641              	.L10:
 223:../Dave/Generated/CMSIS_DSP/Source/TransformFunctions/arm_rfft_fast_f64.c ****    }
 224:../Dave/Generated/CMSIS_DSP/Source/TransformFunctions/arm_rfft_fast_f64.c **** }
 642              	 .loc 1 224 0
 643 0056 1837     	 adds r7,r7,#24
 644              	.LCFI13:
 645              	 .cfi_def_cfa_offset 8
 646 0058 BD46     	 mov sp,r7
 647              	.LCFI14:
 648              	 .cfi_def_cfa_register 13
 649              	 
 650 005a 80BD     	 pop {r7,pc}
 651              	 .cfi_endproc
 652              	.LFE151:
 654              	 .text
 655              	.Letext0:
 656              	 .file 2 "c:\\infineon\\tools\\dave ide\\4.5.0.202105191637\\eclipse\\arm-gcc-49\\arm-none-eabi\\include\\machine\\_default_types.h"
 657              	 .file 3 "c:\\infineon\\tools\\dave ide\\4.5.0.202105191637\\eclipse\\arm-gcc-49\\arm-none-eabi\\include\\stdint.h"
 658              	 .file 4 "C:/Users/Rui Mendes/Desktop/DAVE/_Naive/_ForTesting/Dave/Generated/CMSIS_DSP/Include/arm_math.h"
 659              	 .file 5 "C:/Users/Rui Mendes/Desktop/DAVE/_Naive/_ForTesting/Libraries/CMSIS/Include/cmsis_gcc.h"