   1              	 .syntax unified
   2              	 .cpu cortex-m4
   3              	 .eabi_attribute 27,3
   4              	 .fpu fpv4-sp-d16
   5              	 .eabi_attribute 20,1
   6              	 .eabi_attribute 21,1
   7              	 .eabi_attribute 23,3
   8              	 .eabi_attribute 24,1
   9              	 .eabi_attribute 25,1
  10              	 .eabi_attribute 26,1
  11              	 .eabi_attribute 30,6
  12              	 .eabi_attribute 34,1
  13              	 .eabi_attribute 18,4
  14              	 .thumb
  15              	 .file "arm_bitreversal2.c"
  16              	 .text
  17              	.Ltext0:
  18              	 .cfi_sections .debug_frame
  19              	 .section .text.arm_bitreversal_64,"ax",%progbits
  20              	 .align 2
  21              	 .global arm_bitreversal_64
  22              	 .thumb
  23              	 .thumb_func
  25              	arm_bitreversal_64:
  26              	.LFB149:
  27              	 .file 1 "../Dave/Generated/CMSIS_DSP/Source/TransformFunctions/arm_bitreversal2.c"
   1:../Dave/Generated/CMSIS_DSP/Source/TransformFunctions/arm_bitreversal2.c **** /* ----------------------------------------------------------------------
   2:../Dave/Generated/CMSIS_DSP/Source/TransformFunctions/arm_bitreversal2.c ****  * Project:      CMSIS DSP Library
   3:../Dave/Generated/CMSIS_DSP/Source/TransformFunctions/arm_bitreversal2.c ****  * Title:        arm_bitreversal2.c
   4:../Dave/Generated/CMSIS_DSP/Source/TransformFunctions/arm_bitreversal2.c ****  * Description:  Bitreversal functions
   5:../Dave/Generated/CMSIS_DSP/Source/TransformFunctions/arm_bitreversal2.c ****  *
   6:../Dave/Generated/CMSIS_DSP/Source/TransformFunctions/arm_bitreversal2.c ****  * $Date:        18. March 2019
   7:../Dave/Generated/CMSIS_DSP/Source/TransformFunctions/arm_bitreversal2.c ****  * $Revision:    V1.0.0
   8:../Dave/Generated/CMSIS_DSP/Source/TransformFunctions/arm_bitreversal2.c ****  *
   9:../Dave/Generated/CMSIS_DSP/Source/TransformFunctions/arm_bitreversal2.c ****  * Target Processor: Cortex-M cores
  10:../Dave/Generated/CMSIS_DSP/Source/TransformFunctions/arm_bitreversal2.c ****  * -------------------------------------------------------------------- */
  11:../Dave/Generated/CMSIS_DSP/Source/TransformFunctions/arm_bitreversal2.c **** /*
  12:../Dave/Generated/CMSIS_DSP/Source/TransformFunctions/arm_bitreversal2.c ****  * Copyright (C) 2019 ARM Limited or its affiliates. All rights reserved.
  13:../Dave/Generated/CMSIS_DSP/Source/TransformFunctions/arm_bitreversal2.c ****  *
  14:../Dave/Generated/CMSIS_DSP/Source/TransformFunctions/arm_bitreversal2.c ****  * SPDX-License-Identifier: Apache-2.0
  15:../Dave/Generated/CMSIS_DSP/Source/TransformFunctions/arm_bitreversal2.c ****  *
  16:../Dave/Generated/CMSIS_DSP/Source/TransformFunctions/arm_bitreversal2.c ****  * Licensed under the Apache License, Version 2.0 (the License); you may
  17:../Dave/Generated/CMSIS_DSP/Source/TransformFunctions/arm_bitreversal2.c ****  * not use this file except in compliance with the License.
  18:../Dave/Generated/CMSIS_DSP/Source/TransformFunctions/arm_bitreversal2.c ****  * You may obtain a copy of the License at
  19:../Dave/Generated/CMSIS_DSP/Source/TransformFunctions/arm_bitreversal2.c ****  *
  20:../Dave/Generated/CMSIS_DSP/Source/TransformFunctions/arm_bitreversal2.c ****  * www.apache.org/licenses/LICENSE-2.0
  21:../Dave/Generated/CMSIS_DSP/Source/TransformFunctions/arm_bitreversal2.c ****  *
  22:../Dave/Generated/CMSIS_DSP/Source/TransformFunctions/arm_bitreversal2.c ****  * Unless required by applicable law or agreed to in writing, software
  23:../Dave/Generated/CMSIS_DSP/Source/TransformFunctions/arm_bitreversal2.c ****  * distributed under the License is distributed on an AS IS BASIS, WITHOUT
  24:../Dave/Generated/CMSIS_DSP/Source/TransformFunctions/arm_bitreversal2.c ****  * WARRANTIES OR CONDITIONS OF ANY KIND, either express or implied.
  25:../Dave/Generated/CMSIS_DSP/Source/TransformFunctions/arm_bitreversal2.c ****  * See the License for the specific language governing permissions and
  26:../Dave/Generated/CMSIS_DSP/Source/TransformFunctions/arm_bitreversal2.c ****  * limitations under the License.
  27:../Dave/Generated/CMSIS_DSP/Source/TransformFunctions/arm_bitreversal2.c ****  */
  28:../Dave/Generated/CMSIS_DSP/Source/TransformFunctions/arm_bitreversal2.c **** 
  29:../Dave/Generated/CMSIS_DSP/Source/TransformFunctions/arm_bitreversal2.c **** #include "CMSIS_DSP/cmsis_dsp.h"
  30:../Dave/Generated/CMSIS_DSP/Source/TransformFunctions/arm_bitreversal2.c **** #include "CMSIS_DSP/Include/arm_common_tables.h"
  31:../Dave/Generated/CMSIS_DSP/Source/TransformFunctions/arm_bitreversal2.c **** 
  32:../Dave/Generated/CMSIS_DSP/Source/TransformFunctions/arm_bitreversal2.c **** 
  33:../Dave/Generated/CMSIS_DSP/Source/TransformFunctions/arm_bitreversal2.c **** /**
  34:../Dave/Generated/CMSIS_DSP/Source/TransformFunctions/arm_bitreversal2.c ****   @brief         In-place 64 bit reversal function.
  35:../Dave/Generated/CMSIS_DSP/Source/TransformFunctions/arm_bitreversal2.c ****   @param[in,out] pSrc        points to in-place buffer of unknown 64-bit data type
  36:../Dave/Generated/CMSIS_DSP/Source/TransformFunctions/arm_bitreversal2.c ****   @param[in]     bitRevLen   bit reversal table length
  37:../Dave/Generated/CMSIS_DSP/Source/TransformFunctions/arm_bitreversal2.c ****   @param[in]     pBitRevTab  points to bit reversal table
  38:../Dave/Generated/CMSIS_DSP/Source/TransformFunctions/arm_bitreversal2.c ****   @return        none
  39:../Dave/Generated/CMSIS_DSP/Source/TransformFunctions/arm_bitreversal2.c **** */
  40:../Dave/Generated/CMSIS_DSP/Source/TransformFunctions/arm_bitreversal2.c **** 
  41:../Dave/Generated/CMSIS_DSP/Source/TransformFunctions/arm_bitreversal2.c **** void arm_bitreversal_64(
  42:../Dave/Generated/CMSIS_DSP/Source/TransformFunctions/arm_bitreversal2.c ****         uint64_t *pSrc,
  43:../Dave/Generated/CMSIS_DSP/Source/TransformFunctions/arm_bitreversal2.c ****   const uint16_t bitRevLen,
  44:../Dave/Generated/CMSIS_DSP/Source/TransformFunctions/arm_bitreversal2.c ****   const uint16_t *pBitRevTab)
  45:../Dave/Generated/CMSIS_DSP/Source/TransformFunctions/arm_bitreversal2.c **** {
  28              	 .loc 1 45 0
  29              	 .cfi_startproc
  30              	 
  31              	 
  32              	 
  33 0000 80B4     	 push {r7}
  34              	.LCFI0:
  35              	 .cfi_def_cfa_offset 4
  36              	 .cfi_offset 7,-4
  37 0002 8DB0     	 sub sp,sp,#52
  38              	.LCFI1:
  39              	 .cfi_def_cfa_offset 56
  40 0004 00AF     	 add r7,sp,#0
  41              	.LCFI2:
  42              	 .cfi_def_cfa_register 7
  43 0006 F860     	 str r0,[r7,#12]
  44 0008 0B46     	 mov r3,r1
  45 000a 7A60     	 str r2,[r7,#4]
  46 000c 7B81     	 strh r3,[r7,#10]
  46:../Dave/Generated/CMSIS_DSP/Source/TransformFunctions/arm_bitreversal2.c ****   uint64_t a, b, i, tmp;
  47:../Dave/Generated/CMSIS_DSP/Source/TransformFunctions/arm_bitreversal2.c **** 
  48:../Dave/Generated/CMSIS_DSP/Source/TransformFunctions/arm_bitreversal2.c ****   for (i = 0; i < bitRevLen; )
  47              	 .loc 1 48 0
  48 000e 4FF00002 	 mov r2,#0
  49 0012 4FF00003 	 mov r3,#0
  50 0016 C7E90A23 	 strd r2,[r7,#40]
  51 001a 5BE0     	 b .L2
  52              	.L3:
  49:../Dave/Generated/CMSIS_DSP/Source/TransformFunctions/arm_bitreversal2.c ****   {
  50:../Dave/Generated/CMSIS_DSP/Source/TransformFunctions/arm_bitreversal2.c ****      a = pBitRevTab[i    ] >> 2;
  53              	 .loc 1 50 0
  54 001c BB6A     	 ldr r3,[r7,#40]
  55 001e 5B00     	 lsls r3,r3,#1
  56 0020 7A68     	 ldr r2,[r7,#4]
  57 0022 1344     	 add r3,r3,r2
  58 0024 1B88     	 ldrh r3,[r3]
  59 0026 9B08     	 lsrs r3,r3,#2
  60 0028 9BB2     	 uxth r3,r3
  61 002a 9AB2     	 uxth r2,r3
  62 002c 4FF00003 	 mov r3,#0
  63 0030 C7E90823 	 strd r2,[r7,#32]
  51:../Dave/Generated/CMSIS_DSP/Source/TransformFunctions/arm_bitreversal2.c ****      b = pBitRevTab[i + 1] >> 2;
  64              	 .loc 1 51 0
  65 0034 BB6A     	 ldr r3,[r7,#40]
  66 0036 0133     	 adds r3,r3,#1
  67 0038 5B00     	 lsls r3,r3,#1
  68 003a 7A68     	 ldr r2,[r7,#4]
  69 003c 1344     	 add r3,r3,r2
  70 003e 1B88     	 ldrh r3,[r3]
  71 0040 9B08     	 lsrs r3,r3,#2
  72 0042 9BB2     	 uxth r3,r3
  73 0044 9AB2     	 uxth r2,r3
  74 0046 4FF00003 	 mov r3,#0
  75 004a C7E90623 	 strd r2,[r7,#24]
  52:../Dave/Generated/CMSIS_DSP/Source/TransformFunctions/arm_bitreversal2.c **** 
  53:../Dave/Generated/CMSIS_DSP/Source/TransformFunctions/arm_bitreversal2.c ****      //real
  54:../Dave/Generated/CMSIS_DSP/Source/TransformFunctions/arm_bitreversal2.c ****      tmp = pSrc[a];
  76              	 .loc 1 54 0
  77 004e 3B6A     	 ldr r3,[r7,#32]
  78 0050 DB00     	 lsls r3,r3,#3
  79 0052 FA68     	 ldr r2,[r7,#12]
  80 0054 1344     	 add r3,r3,r2
  81 0056 D3E90023 	 ldrd r2,[r3]
  82 005a C7E90423 	 strd r2,[r7,#16]
  55:../Dave/Generated/CMSIS_DSP/Source/TransformFunctions/arm_bitreversal2.c ****      pSrc[a] = pSrc[b];
  83              	 .loc 1 55 0
  84 005e 3B6A     	 ldr r3,[r7,#32]
  85 0060 DB00     	 lsls r3,r3,#3
  86 0062 FA68     	 ldr r2,[r7,#12]
  87 0064 D118     	 adds r1,r2,r3
  88 0066 BB69     	 ldr r3,[r7,#24]
  89 0068 DB00     	 lsls r3,r3,#3
  90 006a FA68     	 ldr r2,[r7,#12]
  91 006c 1344     	 add r3,r3,r2
  92 006e D3E90023 	 ldrd r2,[r3]
  93 0072 C1E90023 	 strd r2,[r1]
  56:../Dave/Generated/CMSIS_DSP/Source/TransformFunctions/arm_bitreversal2.c ****      pSrc[b] = tmp;
  94              	 .loc 1 56 0
  95 0076 BB69     	 ldr r3,[r7,#24]
  96 0078 DB00     	 lsls r3,r3,#3
  97 007a FA68     	 ldr r2,[r7,#12]
  98 007c D118     	 adds r1,r2,r3
  99 007e D7E90423 	 ldrd r2,[r7,#16]
 100 0082 C1E90023 	 strd r2,[r1]
  57:../Dave/Generated/CMSIS_DSP/Source/TransformFunctions/arm_bitreversal2.c **** 
  58:../Dave/Generated/CMSIS_DSP/Source/TransformFunctions/arm_bitreversal2.c ****      //complex
  59:../Dave/Generated/CMSIS_DSP/Source/TransformFunctions/arm_bitreversal2.c ****      tmp = pSrc[a+1];
 101              	 .loc 1 59 0
 102 0086 3B6A     	 ldr r3,[r7,#32]
 103 0088 0133     	 adds r3,r3,#1
 104 008a DB00     	 lsls r3,r3,#3
 105 008c FA68     	 ldr r2,[r7,#12]
 106 008e 1344     	 add r3,r3,r2
 107 0090 D3E90023 	 ldrd r2,[r3]
 108 0094 C7E90423 	 strd r2,[r7,#16]
  60:../Dave/Generated/CMSIS_DSP/Source/TransformFunctions/arm_bitreversal2.c ****      pSrc[a+1] = pSrc[b+1];
 109              	 .loc 1 60 0
 110 0098 3B6A     	 ldr r3,[r7,#32]
 111 009a 0133     	 adds r3,r3,#1
 112 009c DB00     	 lsls r3,r3,#3
 113 009e FA68     	 ldr r2,[r7,#12]
 114 00a0 D118     	 adds r1,r2,r3
 115 00a2 BB69     	 ldr r3,[r7,#24]
 116 00a4 0133     	 adds r3,r3,#1
 117 00a6 DB00     	 lsls r3,r3,#3
 118 00a8 FA68     	 ldr r2,[r7,#12]
 119 00aa 1344     	 add r3,r3,r2
 120 00ac D3E90023 	 ldrd r2,[r3]
 121 00b0 C1E90023 	 strd r2,[r1]
  61:../Dave/Generated/CMSIS_DSP/Source/TransformFunctions/arm_bitreversal2.c ****      pSrc[b+1] = tmp;
 122              	 .loc 1 61 0
 123 00b4 BB69     	 ldr r3,[r7,#24]
 124 00b6 0133     	 adds r3,r3,#1
 125 00b8 DB00     	 lsls r3,r3,#3
 126 00ba FA68     	 ldr r2,[r7,#12]
 127 00bc D118     	 adds r1,r2,r3
 128 00be D7E90423 	 ldrd r2,[r7,#16]
 129 00c2 C1E90023 	 strd r2,[r1]
  62:../Dave/Generated/CMSIS_DSP/Source/TransformFunctions/arm_bitreversal2.c **** 
  63:../Dave/Generated/CMSIS_DSP/Source/TransformFunctions/arm_bitreversal2.c ****     i += 2;
 130              	 .loc 1 63 0
 131 00c6 D7E90A23 	 ldrd r2,[r7,#40]
 132 00ca 0232     	 adds r2,r2,#2
 133 00cc 43F10003 	 adc r3,r3,#0
 134 00d0 C7E90A23 	 strd r2,[r7,#40]
 135              	.L2:
  48:../Dave/Generated/CMSIS_DSP/Source/TransformFunctions/arm_bitreversal2.c ****   {
 136              	 .loc 1 48 0 discriminator 1
 137 00d4 7A89     	 ldrh r2,[r7,#10]
 138 00d6 4FF00003 	 mov r3,#0
 139 00da D7E90A01 	 ldrd r0,[r7,#40]
 140 00de 9942     	 cmp r1,r3
 141 00e0 08BF     	 it eq
 142 00e2 9042     	 cmpeq r0,r2
 143 00e4 9AD3     	 bcc .L3
  64:../Dave/Generated/CMSIS_DSP/Source/TransformFunctions/arm_bitreversal2.c ****   }
  65:../Dave/Generated/CMSIS_DSP/Source/TransformFunctions/arm_bitreversal2.c **** }
 144              	 .loc 1 65 0
 145 00e6 3437     	 adds r7,r7,#52
 146              	.LCFI3:
 147              	 .cfi_def_cfa_offset 4
 148 00e8 BD46     	 mov sp,r7
 149              	.LCFI4:
 150              	 .cfi_def_cfa_register 13
 151              	 
 152 00ea 5DF8047B 	 ldr r7,[sp],#4
 153              	.LCFI5:
 154              	 .cfi_restore 7
 155              	 .cfi_def_cfa_offset 0
 156 00ee 7047     	 bx lr
 157              	 .cfi_endproc
 158              	.LFE149:
 160              	 .section .text.arm_bitreversal_32,"ax",%progbits
 161              	 .align 2
 162              	 .global arm_bitreversal_32
 163              	 .thumb
 164              	 .thumb_func
 166              	arm_bitreversal_32:
 167              	.LFB150:
  66:../Dave/Generated/CMSIS_DSP/Source/TransformFunctions/arm_bitreversal2.c **** 
  67:../Dave/Generated/CMSIS_DSP/Source/TransformFunctions/arm_bitreversal2.c **** /**
  68:../Dave/Generated/CMSIS_DSP/Source/TransformFunctions/arm_bitreversal2.c ****   @brief         In-place 32 bit reversal function.
  69:../Dave/Generated/CMSIS_DSP/Source/TransformFunctions/arm_bitreversal2.c ****   @param[in,out] pSrc        points to in-place buffer of unknown 32-bit data type
  70:../Dave/Generated/CMSIS_DSP/Source/TransformFunctions/arm_bitreversal2.c ****   @param[in]     bitRevLen   bit reversal table length
  71:../Dave/Generated/CMSIS_DSP/Source/TransformFunctions/arm_bitreversal2.c ****   @param[in]     pBitRevTab  points to bit reversal table
  72:../Dave/Generated/CMSIS_DSP/Source/TransformFunctions/arm_bitreversal2.c ****   @return        none
  73:../Dave/Generated/CMSIS_DSP/Source/TransformFunctions/arm_bitreversal2.c **** */
  74:../Dave/Generated/CMSIS_DSP/Source/TransformFunctions/arm_bitreversal2.c **** 
  75:../Dave/Generated/CMSIS_DSP/Source/TransformFunctions/arm_bitreversal2.c **** void arm_bitreversal_32(
  76:../Dave/Generated/CMSIS_DSP/Source/TransformFunctions/arm_bitreversal2.c ****         uint32_t *pSrc,
  77:../Dave/Generated/CMSIS_DSP/Source/TransformFunctions/arm_bitreversal2.c ****   const uint16_t bitRevLen,
  78:../Dave/Generated/CMSIS_DSP/Source/TransformFunctions/arm_bitreversal2.c ****   const uint16_t *pBitRevTab)
  79:../Dave/Generated/CMSIS_DSP/Source/TransformFunctions/arm_bitreversal2.c **** {
 168              	 .loc 1 79 0
 169              	 .cfi_startproc
 170              	 
 171              	 
 172              	 
 173 0000 80B4     	 push {r7}
 174              	.LCFI6:
 175              	 .cfi_def_cfa_offset 4
 176              	 .cfi_offset 7,-4
 177 0002 89B0     	 sub sp,sp,#36
 178              	.LCFI7:
 179              	 .cfi_def_cfa_offset 40
 180 0004 00AF     	 add r7,sp,#0
 181              	.LCFI8:
 182              	 .cfi_def_cfa_register 7
 183 0006 F860     	 str r0,[r7,#12]
 184 0008 0B46     	 mov r3,r1
 185 000a 7A60     	 str r2,[r7,#4]
 186 000c 7B81     	 strh r3,[r7,#10]
  80:../Dave/Generated/CMSIS_DSP/Source/TransformFunctions/arm_bitreversal2.c ****   uint32_t a, b, i, tmp;
  81:../Dave/Generated/CMSIS_DSP/Source/TransformFunctions/arm_bitreversal2.c **** 
  82:../Dave/Generated/CMSIS_DSP/Source/TransformFunctions/arm_bitreversal2.c ****   for (i = 0; i < bitRevLen; )
 187              	 .loc 1 82 0
 188 000e 0023     	 movs r3,#0
 189 0010 FB61     	 str r3,[r7,#28]
 190 0012 43E0     	 b .L5
 191              	.L6:
  83:../Dave/Generated/CMSIS_DSP/Source/TransformFunctions/arm_bitreversal2.c ****   {
  84:../Dave/Generated/CMSIS_DSP/Source/TransformFunctions/arm_bitreversal2.c ****      a = pBitRevTab[i    ] >> 2;
 192              	 .loc 1 84 0
 193 0014 FB69     	 ldr r3,[r7,#28]
 194 0016 5B00     	 lsls r3,r3,#1
 195 0018 7A68     	 ldr r2,[r7,#4]
 196 001a 1344     	 add r3,r3,r2
 197 001c 1B88     	 ldrh r3,[r3]
 198 001e 9B08     	 lsrs r3,r3,#2
 199 0020 9BB2     	 uxth r3,r3
 200 0022 BB61     	 str r3,[r7,#24]
  85:../Dave/Generated/CMSIS_DSP/Source/TransformFunctions/arm_bitreversal2.c ****      b = pBitRevTab[i + 1] >> 2;
 201              	 .loc 1 85 0
 202 0024 FB69     	 ldr r3,[r7,#28]
 203 0026 0133     	 adds r3,r3,#1
 204 0028 5B00     	 lsls r3,r3,#1
 205 002a 7A68     	 ldr r2,[r7,#4]
 206 002c 1344     	 add r3,r3,r2
 207 002e 1B88     	 ldrh r3,[r3]
 208 0030 9B08     	 lsrs r3,r3,#2
 209 0032 9BB2     	 uxth r3,r3
 210 0034 7B61     	 str r3,[r7,#20]
  86:../Dave/Generated/CMSIS_DSP/Source/TransformFunctions/arm_bitreversal2.c **** 
  87:../Dave/Generated/CMSIS_DSP/Source/TransformFunctions/arm_bitreversal2.c ****      //real
  88:../Dave/Generated/CMSIS_DSP/Source/TransformFunctions/arm_bitreversal2.c ****      tmp = pSrc[a];
 211              	 .loc 1 88 0
 212 0036 BB69     	 ldr r3,[r7,#24]
 213 0038 9B00     	 lsls r3,r3,#2
 214 003a FA68     	 ldr r2,[r7,#12]
 215 003c 1344     	 add r3,r3,r2
 216 003e 1B68     	 ldr r3,[r3]
 217 0040 3B61     	 str r3,[r7,#16]
  89:../Dave/Generated/CMSIS_DSP/Source/TransformFunctions/arm_bitreversal2.c ****      pSrc[a] = pSrc[b];
 218              	 .loc 1 89 0
 219 0042 BB69     	 ldr r3,[r7,#24]
 220 0044 9B00     	 lsls r3,r3,#2
 221 0046 FA68     	 ldr r2,[r7,#12]
 222 0048 1344     	 add r3,r3,r2
 223 004a 7A69     	 ldr r2,[r7,#20]
 224 004c 9200     	 lsls r2,r2,#2
 225 004e F968     	 ldr r1,[r7,#12]
 226 0050 0A44     	 add r2,r2,r1
 227 0052 1268     	 ldr r2,[r2]
 228 0054 1A60     	 str r2,[r3]
  90:../Dave/Generated/CMSIS_DSP/Source/TransformFunctions/arm_bitreversal2.c ****      pSrc[b] = tmp;
 229              	 .loc 1 90 0
 230 0056 7B69     	 ldr r3,[r7,#20]
 231 0058 9B00     	 lsls r3,r3,#2
 232 005a FA68     	 ldr r2,[r7,#12]
 233 005c 1344     	 add r3,r3,r2
 234 005e 3A69     	 ldr r2,[r7,#16]
 235 0060 1A60     	 str r2,[r3]
  91:../Dave/Generated/CMSIS_DSP/Source/TransformFunctions/arm_bitreversal2.c **** 
  92:../Dave/Generated/CMSIS_DSP/Source/TransformFunctions/arm_bitreversal2.c ****      //complex
  93:../Dave/Generated/CMSIS_DSP/Source/TransformFunctions/arm_bitreversal2.c ****      tmp = pSrc[a+1];
 236              	 .loc 1 93 0
 237 0062 BB69     	 ldr r3,[r7,#24]
 238 0064 0133     	 adds r3,r3,#1
 239 0066 9B00     	 lsls r3,r3,#2
 240 0068 FA68     	 ldr r2,[r7,#12]
 241 006a 1344     	 add r3,r3,r2
 242 006c 1B68     	 ldr r3,[r3]
 243 006e 3B61     	 str r3,[r7,#16]
  94:../Dave/Generated/CMSIS_DSP/Source/TransformFunctions/arm_bitreversal2.c ****      pSrc[a+1] = pSrc[b+1];
 244              	 .loc 1 94 0
 245 0070 BB69     	 ldr r3,[r7,#24]
 246 0072 0133     	 adds r3,r3,#1
 247 0074 9B00     	 lsls r3,r3,#2
 248 0076 FA68     	 ldr r2,[r7,#12]
 249 0078 1344     	 add r3,r3,r2
 250 007a 7A69     	 ldr r2,[r7,#20]
 251 007c 0132     	 adds r2,r2,#1
 252 007e 9200     	 lsls r2,r2,#2
 253 0080 F968     	 ldr r1,[r7,#12]
 254 0082 0A44     	 add r2,r2,r1
 255 0084 1268     	 ldr r2,[r2]
 256 0086 1A60     	 str r2,[r3]
  95:../Dave/Generated/CMSIS_DSP/Source/TransformFunctions/arm_bitreversal2.c ****      pSrc[b+1] = tmp;
 257              	 .loc 1 95 0
 258 0088 7B69     	 ldr r3,[r7,#20]
 259 008a 0133     	 adds r3,r3,#1
 260 008c 9B00     	 lsls r3,r3,#2
 261 008e FA68     	 ldr r2,[r7,#12]
 262 0090 1344     	 add r3,r3,r2
 263 0092 3A69     	 ldr r2,[r7,#16]
 264 0094 1A60     	 str r2,[r3]
  96:../Dave/Generated/CMSIS_DSP/Source/TransformFunctions/arm_bitreversal2.c **** 
  97:../Dave/Generated/CMSIS_DSP/Source/TransformFunctions/arm_bitreversal2.c ****     i += 2;
 265              	 .loc 1 97 0
 266 0096 FB69     	 ldr r3,[r7,#28]
 267 0098 0233     	 adds r3,r3,#2
 268 009a FB61     	 str r3,[r7,#28]
 269              	.L5:
  82:../Dave/Generated/CMSIS_DSP/Source/TransformFunctions/arm_bitreversal2.c ****   {
 270              	 .loc 1 82 0 discriminator 1
 271 009c 7A89     	 ldrh r2,[r7,#10]
 272 009e FB69     	 ldr r3,[r7,#28]
 273 00a0 9A42     	 cmp r2,r3
 274 00a2 B7D8     	 bhi .L6
  98:../Dave/Generated/CMSIS_DSP/Source/TransformFunctions/arm_bitreversal2.c ****   }
  99:../Dave/Generated/CMSIS_DSP/Source/TransformFunctions/arm_bitreversal2.c **** }
 275              	 .loc 1 99 0
 276 00a4 2437     	 adds r7,r7,#36
 277              	.LCFI9:
 278              	 .cfi_def_cfa_offset 4
 279 00a6 BD46     	 mov sp,r7
 280              	.LCFI10:
 281              	 .cfi_def_cfa_register 13
 282              	 
 283 00a8 5DF8047B 	 ldr r7,[sp],#4
 284              	.LCFI11:
 285              	 .cfi_restore 7
 286              	 .cfi_def_cfa_offset 0
 287 00ac 7047     	 bx lr
 288              	 .cfi_endproc
 289              	.LFE150:
 291 00ae 00BF     	 .section .text.arm_bitreversal_16,"ax",%progbits
 292              	 .align 2
 293              	 .global arm_bitreversal_16
 294              	 .thumb
 295              	 .thumb_func
 297              	arm_bitreversal_16:
 298              	.LFB151:
 100:../Dave/Generated/CMSIS_DSP/Source/TransformFunctions/arm_bitreversal2.c **** 
 101:../Dave/Generated/CMSIS_DSP/Source/TransformFunctions/arm_bitreversal2.c **** 
 102:../Dave/Generated/CMSIS_DSP/Source/TransformFunctions/arm_bitreversal2.c **** /**
 103:../Dave/Generated/CMSIS_DSP/Source/TransformFunctions/arm_bitreversal2.c ****   @brief         In-place 16 bit reversal function.
 104:../Dave/Generated/CMSIS_DSP/Source/TransformFunctions/arm_bitreversal2.c ****   @param[in,out] pSrc        points to in-place buffer of unknown 16-bit data type
 105:../Dave/Generated/CMSIS_DSP/Source/TransformFunctions/arm_bitreversal2.c ****   @param[in]     bitRevLen   bit reversal table length
 106:../Dave/Generated/CMSIS_DSP/Source/TransformFunctions/arm_bitreversal2.c ****   @param[in]     pBitRevTab  points to bit reversal table
 107:../Dave/Generated/CMSIS_DSP/Source/TransformFunctions/arm_bitreversal2.c ****   @return        none
 108:../Dave/Generated/CMSIS_DSP/Source/TransformFunctions/arm_bitreversal2.c **** */
 109:../Dave/Generated/CMSIS_DSP/Source/TransformFunctions/arm_bitreversal2.c **** 
 110:../Dave/Generated/CMSIS_DSP/Source/TransformFunctions/arm_bitreversal2.c **** void arm_bitreversal_16(
 111:../Dave/Generated/CMSIS_DSP/Source/TransformFunctions/arm_bitreversal2.c ****         uint16_t *pSrc,
 112:../Dave/Generated/CMSIS_DSP/Source/TransformFunctions/arm_bitreversal2.c ****   const uint16_t bitRevLen,
 113:../Dave/Generated/CMSIS_DSP/Source/TransformFunctions/arm_bitreversal2.c ****   const uint16_t *pBitRevTab)
 114:../Dave/Generated/CMSIS_DSP/Source/TransformFunctions/arm_bitreversal2.c **** {
 299              	 .loc 1 114 0
 300              	 .cfi_startproc
 301              	 
 302              	 
 303              	 
 304 0000 80B4     	 push {r7}
 305              	.LCFI12:
 306              	 .cfi_def_cfa_offset 4
 307              	 .cfi_offset 7,-4
 308 0002 87B0     	 sub sp,sp,#28
 309              	.LCFI13:
 310              	 .cfi_def_cfa_offset 32
 311 0004 00AF     	 add r7,sp,#0
 312              	.LCFI14:
 313              	 .cfi_def_cfa_register 7
 314 0006 F860     	 str r0,[r7,#12]
 315 0008 0B46     	 mov r3,r1
 316 000a 7A60     	 str r2,[r7,#4]
 317 000c 7B81     	 strh r3,[r7,#10]
 115:../Dave/Generated/CMSIS_DSP/Source/TransformFunctions/arm_bitreversal2.c ****   uint16_t a, b, i, tmp;
 116:../Dave/Generated/CMSIS_DSP/Source/TransformFunctions/arm_bitreversal2.c **** 
 117:../Dave/Generated/CMSIS_DSP/Source/TransformFunctions/arm_bitreversal2.c ****   for (i = 0; i < bitRevLen; )
 318              	 .loc 1 117 0
 319 000e 0023     	 movs r3,#0
 320 0010 FB82     	 strh r3,[r7,#22]
 321 0012 41E0     	 b .L8
 322              	.L9:
 118:../Dave/Generated/CMSIS_DSP/Source/TransformFunctions/arm_bitreversal2.c ****   {
 119:../Dave/Generated/CMSIS_DSP/Source/TransformFunctions/arm_bitreversal2.c ****      a = pBitRevTab[i    ] >> 2;
 323              	 .loc 1 119 0
 324 0014 FB8A     	 ldrh r3,[r7,#22]
 325 0016 5B00     	 lsls r3,r3,#1
 326 0018 7A68     	 ldr r2,[r7,#4]
 327 001a 1344     	 add r3,r3,r2
 328 001c 1B88     	 ldrh r3,[r3]
 329 001e 9B08     	 lsrs r3,r3,#2
 330 0020 BB82     	 strh r3,[r7,#20]
 120:../Dave/Generated/CMSIS_DSP/Source/TransformFunctions/arm_bitreversal2.c ****      b = pBitRevTab[i + 1] >> 2;
 331              	 .loc 1 120 0
 332 0022 FB8A     	 ldrh r3,[r7,#22]
 333 0024 0133     	 adds r3,r3,#1
 334 0026 5B00     	 lsls r3,r3,#1
 335 0028 7A68     	 ldr r2,[r7,#4]
 336 002a 1344     	 add r3,r3,r2
 337 002c 1B88     	 ldrh r3,[r3]
 338 002e 9B08     	 lsrs r3,r3,#2
 339 0030 7B82     	 strh r3,[r7,#18]
 121:../Dave/Generated/CMSIS_DSP/Source/TransformFunctions/arm_bitreversal2.c **** 
 122:../Dave/Generated/CMSIS_DSP/Source/TransformFunctions/arm_bitreversal2.c ****      //real
 123:../Dave/Generated/CMSIS_DSP/Source/TransformFunctions/arm_bitreversal2.c ****      tmp = pSrc[a];
 340              	 .loc 1 123 0
 341 0032 BB8A     	 ldrh r3,[r7,#20]
 342 0034 5B00     	 lsls r3,r3,#1
 343 0036 FA68     	 ldr r2,[r7,#12]
 344 0038 1344     	 add r3,r3,r2
 345 003a 1B88     	 ldrh r3,[r3]
 346 003c 3B82     	 strh r3,[r7,#16]
 124:../Dave/Generated/CMSIS_DSP/Source/TransformFunctions/arm_bitreversal2.c ****      pSrc[a] = pSrc[b];
 347              	 .loc 1 124 0
 348 003e BB8A     	 ldrh r3,[r7,#20]
 349 0040 5B00     	 lsls r3,r3,#1
 350 0042 FA68     	 ldr r2,[r7,#12]
 351 0044 1344     	 add r3,r3,r2
 352 0046 7A8A     	 ldrh r2,[r7,#18]
 353 0048 5200     	 lsls r2,r2,#1
 354 004a F968     	 ldr r1,[r7,#12]
 355 004c 0A44     	 add r2,r2,r1
 356 004e 1288     	 ldrh r2,[r2]
 357 0050 1A80     	 strh r2,[r3]
 125:../Dave/Generated/CMSIS_DSP/Source/TransformFunctions/arm_bitreversal2.c ****      pSrc[b] = tmp;
 358              	 .loc 1 125 0
 359 0052 7B8A     	 ldrh r3,[r7,#18]
 360 0054 5B00     	 lsls r3,r3,#1
 361 0056 FA68     	 ldr r2,[r7,#12]
 362 0058 1344     	 add r3,r3,r2
 363 005a 3A8A     	 ldrh r2,[r7,#16]
 364 005c 1A80     	 strh r2,[r3]
 126:../Dave/Generated/CMSIS_DSP/Source/TransformFunctions/arm_bitreversal2.c **** 
 127:../Dave/Generated/CMSIS_DSP/Source/TransformFunctions/arm_bitreversal2.c ****      //complex
 128:../Dave/Generated/CMSIS_DSP/Source/TransformFunctions/arm_bitreversal2.c ****      tmp = pSrc[a+1];
 365              	 .loc 1 128 0
 366 005e BB8A     	 ldrh r3,[r7,#20]
 367 0060 0133     	 adds r3,r3,#1
 368 0062 5B00     	 lsls r3,r3,#1
 369 0064 FA68     	 ldr r2,[r7,#12]
 370 0066 1344     	 add r3,r3,r2
 371 0068 1B88     	 ldrh r3,[r3]
 372 006a 3B82     	 strh r3,[r7,#16]
 129:../Dave/Generated/CMSIS_DSP/Source/TransformFunctions/arm_bitreversal2.c ****      pSrc[a+1] = pSrc[b+1];
 373              	 .loc 1 129 0
 374 006c BB8A     	 ldrh r3,[r7,#20]
 375 006e 0133     	 adds r3,r3,#1
 376 0070 5B00     	 lsls r3,r3,#1
 377 0072 FA68     	 ldr r2,[r7,#12]
 378 0074 1344     	 add r3,r3,r2
 379 0076 7A8A     	 ldrh r2,[r7,#18]
 380 0078 0132     	 adds r2,r2,#1
 381 007a 5200     	 lsls r2,r2,#1
 382 007c F968     	 ldr r1,[r7,#12]
 383 007e 0A44     	 add r2,r2,r1
 384 0080 1288     	 ldrh r2,[r2]
 385 0082 1A80     	 strh r2,[r3]
 130:../Dave/Generated/CMSIS_DSP/Source/TransformFunctions/arm_bitreversal2.c ****      pSrc[b+1] = tmp;
 386              	 .loc 1 130 0
 387 0084 7B8A     	 ldrh r3,[r7,#18]
 388 0086 0133     	 adds r3,r3,#1
 389 0088 5B00     	 lsls r3,r3,#1
 390 008a FA68     	 ldr r2,[r7,#12]
 391 008c 1344     	 add r3,r3,r2
 392 008e 3A8A     	 ldrh r2,[r7,#16]
 393 0090 1A80     	 strh r2,[r3]
 131:../Dave/Generated/CMSIS_DSP/Source/TransformFunctions/arm_bitreversal2.c **** 
 132:../Dave/Generated/CMSIS_DSP/Source/TransformFunctions/arm_bitreversal2.c ****     i += 2;
 394              	 .loc 1 132 0
 395 0092 FB8A     	 ldrh r3,[r7,#22]
 396 0094 0233     	 adds r3,r3,#2
 397 0096 FB82     	 strh r3,[r7,#22]
 398              	.L8:
 117:../Dave/Generated/CMSIS_DSP/Source/TransformFunctions/arm_bitreversal2.c ****   {
 399              	 .loc 1 117 0 discriminator 1
 400 0098 FA8A     	 ldrh r2,[r7,#22]
 401 009a 7B89     	 ldrh r3,[r7,#10]
 402 009c 9A42     	 cmp r2,r3
 403 009e B9D3     	 bcc .L9
 133:../Dave/Generated/CMSIS_DSP/Source/TransformFunctions/arm_bitreversal2.c ****   }
 134:../Dave/Generated/CMSIS_DSP/Source/TransformFunctions/arm_bitreversal2.c **** }
 404              	 .loc 1 134 0
 405 00a0 1C37     	 adds r7,r7,#28
 406              	.LCFI15:
 407              	 .cfi_def_cfa_offset 4
 408 00a2 BD46     	 mov sp,r7
 409              	.LCFI16:
 410              	 .cfi_def_cfa_register 13
 411              	 
 412 00a4 5DF8047B 	 ldr r7,[sp],#4
 413              	.LCFI17:
 414              	 .cfi_restore 7
 415              	 .cfi_def_cfa_offset 0
 416 00a8 7047     	 bx lr
 417              	 .cfi_endproc
 418              	.LFE151:
 420 00aa 00BF     	 .text
 421              	.Letext0:
 422              	 .file 2 "c:\\infineon\\tools\\dave ide\\4.5.0.202105191637\\eclipse\\arm-gcc-49\\arm-none-eabi\\include\\machine\\_default_types.h"
 423              	 .file 3 "c:\\infineon\\tools\\dave ide\\4.5.0.202105191637\\eclipse\\arm-gcc-49\\arm-none-eabi\\include\\stdint.h"
 424              	 .file 4 "C:/Users/Rui Mendes/Desktop/DAVE/_Naive/_ForTesting/Libraries/CMSIS/Include/cmsis_gcc.h"