   1              	 .syntax unified
   2              	 .cpu cortex-m4
   3              	 .eabi_attribute 27,3
   4              	 .fpu fpv4-sp-d16
   5              	 .eabi_attribute 20,1
   6              	 .eabi_attribute 21,1
   7              	 .eabi_attribute 23,3
   8              	 .eabi_attribute 24,1
   9              	 .eabi_attribute 25,1
  10              	 .eabi_attribute 26,1
  11              	 .eabi_attribute 30,6
  12              	 .eabi_attribute 34,1
  13              	 .eabi_attribute 18,4
  14              	 .thumb
  15              	 .file "arm_cfft_radix4_f32.c"
  16              	 .text
  17              	.Ltext0:
  18              	 .cfi_sections .debug_frame
  19              	 .section .text.arm_cfft_radix4_f32,"ax",%progbits
  20              	 .align 2
  21              	 .global arm_cfft_radix4_f32
  22              	 .thumb
  23              	 .thumb_func
  25              	arm_cfft_radix4_f32:
  26              	.LFB149:
  27              	 .file 1 "../Dave/Generated/CMSIS_DSP/Source/TransformFunctions/arm_cfft_radix4_f32.c"
   1:../Dave/Generated/CMSIS_DSP/Source/TransformFunctions/arm_cfft_radix4_f32.c **** /* ----------------------------------------------------------------------
   2:../Dave/Generated/CMSIS_DSP/Source/TransformFunctions/arm_cfft_radix4_f32.c ****  * Project:      CMSIS DSP Library
   3:../Dave/Generated/CMSIS_DSP/Source/TransformFunctions/arm_cfft_radix4_f32.c ****  * Title:        arm_cfft_radix4_f32.c
   4:../Dave/Generated/CMSIS_DSP/Source/TransformFunctions/arm_cfft_radix4_f32.c ****  * Description:  Radix-4 Decimation in Frequency CFFT & CIFFT Floating point processing function
   5:../Dave/Generated/CMSIS_DSP/Source/TransformFunctions/arm_cfft_radix4_f32.c ****  *
   6:../Dave/Generated/CMSIS_DSP/Source/TransformFunctions/arm_cfft_radix4_f32.c ****  * $Date:        18. March 2019
   7:../Dave/Generated/CMSIS_DSP/Source/TransformFunctions/arm_cfft_radix4_f32.c ****  * $Revision:    V1.6.0
   8:../Dave/Generated/CMSIS_DSP/Source/TransformFunctions/arm_cfft_radix4_f32.c ****  *
   9:../Dave/Generated/CMSIS_DSP/Source/TransformFunctions/arm_cfft_radix4_f32.c ****  * Target Processor: Cortex-M cores
  10:../Dave/Generated/CMSIS_DSP/Source/TransformFunctions/arm_cfft_radix4_f32.c ****  * -------------------------------------------------------------------- */
  11:../Dave/Generated/CMSIS_DSP/Source/TransformFunctions/arm_cfft_radix4_f32.c **** /*
  12:../Dave/Generated/CMSIS_DSP/Source/TransformFunctions/arm_cfft_radix4_f32.c ****  * Copyright (C) 2010-2019 ARM Limited or its affiliates. All rights reserved.
  13:../Dave/Generated/CMSIS_DSP/Source/TransformFunctions/arm_cfft_radix4_f32.c ****  *
  14:../Dave/Generated/CMSIS_DSP/Source/TransformFunctions/arm_cfft_radix4_f32.c ****  * SPDX-License-Identifier: Apache-2.0
  15:../Dave/Generated/CMSIS_DSP/Source/TransformFunctions/arm_cfft_radix4_f32.c ****  *
  16:../Dave/Generated/CMSIS_DSP/Source/TransformFunctions/arm_cfft_radix4_f32.c ****  * Licensed under the Apache License, Version 2.0 (the License); you may
  17:../Dave/Generated/CMSIS_DSP/Source/TransformFunctions/arm_cfft_radix4_f32.c ****  * not use this file except in compliance with the License.
  18:../Dave/Generated/CMSIS_DSP/Source/TransformFunctions/arm_cfft_radix4_f32.c ****  * You may obtain a copy of the License at
  19:../Dave/Generated/CMSIS_DSP/Source/TransformFunctions/arm_cfft_radix4_f32.c ****  *
  20:../Dave/Generated/CMSIS_DSP/Source/TransformFunctions/arm_cfft_radix4_f32.c ****  * www.apache.org/licenses/LICENSE-2.0
  21:../Dave/Generated/CMSIS_DSP/Source/TransformFunctions/arm_cfft_radix4_f32.c ****  *
  22:../Dave/Generated/CMSIS_DSP/Source/TransformFunctions/arm_cfft_radix4_f32.c ****  * Unless required by applicable law or agreed to in writing, software
  23:../Dave/Generated/CMSIS_DSP/Source/TransformFunctions/arm_cfft_radix4_f32.c ****  * distributed under the License is distributed on an AS IS BASIS, WITHOUT
  24:../Dave/Generated/CMSIS_DSP/Source/TransformFunctions/arm_cfft_radix4_f32.c ****  * WARRANTIES OR CONDITIONS OF ANY KIND, either express or implied.
  25:../Dave/Generated/CMSIS_DSP/Source/TransformFunctions/arm_cfft_radix4_f32.c ****  * See the License for the specific language governing permissions and
  26:../Dave/Generated/CMSIS_DSP/Source/TransformFunctions/arm_cfft_radix4_f32.c ****  * limitations under the License.
  27:../Dave/Generated/CMSIS_DSP/Source/TransformFunctions/arm_cfft_radix4_f32.c ****  */
  28:../Dave/Generated/CMSIS_DSP/Source/TransformFunctions/arm_cfft_radix4_f32.c **** 
  29:../Dave/Generated/CMSIS_DSP/Source/TransformFunctions/arm_cfft_radix4_f32.c **** #include "CMSIS_DSP/cmsis_dsp.h"
  30:../Dave/Generated/CMSIS_DSP/Source/TransformFunctions/arm_cfft_radix4_f32.c **** 
  31:../Dave/Generated/CMSIS_DSP/Source/TransformFunctions/arm_cfft_radix4_f32.c **** extern void arm_bitreversal_f32(
  32:../Dave/Generated/CMSIS_DSP/Source/TransformFunctions/arm_cfft_radix4_f32.c ****         float32_t * pSrc,
  33:../Dave/Generated/CMSIS_DSP/Source/TransformFunctions/arm_cfft_radix4_f32.c ****         uint16_t fftSize,
  34:../Dave/Generated/CMSIS_DSP/Source/TransformFunctions/arm_cfft_radix4_f32.c ****         uint16_t bitRevFactor,
  35:../Dave/Generated/CMSIS_DSP/Source/TransformFunctions/arm_cfft_radix4_f32.c ****   const uint16_t * pBitRevTab);
  36:../Dave/Generated/CMSIS_DSP/Source/TransformFunctions/arm_cfft_radix4_f32.c **** 
  37:../Dave/Generated/CMSIS_DSP/Source/TransformFunctions/arm_cfft_radix4_f32.c **** void arm_radix4_butterfly_f32(
  38:../Dave/Generated/CMSIS_DSP/Source/TransformFunctions/arm_cfft_radix4_f32.c ****         float32_t * pSrc,
  39:../Dave/Generated/CMSIS_DSP/Source/TransformFunctions/arm_cfft_radix4_f32.c ****         uint16_t fftLen,
  40:../Dave/Generated/CMSIS_DSP/Source/TransformFunctions/arm_cfft_radix4_f32.c ****   const float32_t * pCoef,
  41:../Dave/Generated/CMSIS_DSP/Source/TransformFunctions/arm_cfft_radix4_f32.c ****         uint16_t twidCoefModifier);
  42:../Dave/Generated/CMSIS_DSP/Source/TransformFunctions/arm_cfft_radix4_f32.c **** 
  43:../Dave/Generated/CMSIS_DSP/Source/TransformFunctions/arm_cfft_radix4_f32.c **** void arm_radix4_butterfly_inverse_f32(
  44:../Dave/Generated/CMSIS_DSP/Source/TransformFunctions/arm_cfft_radix4_f32.c ****         float32_t * pSrc,
  45:../Dave/Generated/CMSIS_DSP/Source/TransformFunctions/arm_cfft_radix4_f32.c ****         uint16_t fftLen,
  46:../Dave/Generated/CMSIS_DSP/Source/TransformFunctions/arm_cfft_radix4_f32.c ****   const float32_t * pCoef,
  47:../Dave/Generated/CMSIS_DSP/Source/TransformFunctions/arm_cfft_radix4_f32.c ****         uint16_t twidCoefModifier,
  48:../Dave/Generated/CMSIS_DSP/Source/TransformFunctions/arm_cfft_radix4_f32.c ****         float32_t onebyfftLen);
  49:../Dave/Generated/CMSIS_DSP/Source/TransformFunctions/arm_cfft_radix4_f32.c **** 
  50:../Dave/Generated/CMSIS_DSP/Source/TransformFunctions/arm_cfft_radix4_f32.c **** 
  51:../Dave/Generated/CMSIS_DSP/Source/TransformFunctions/arm_cfft_radix4_f32.c **** /**
  52:../Dave/Generated/CMSIS_DSP/Source/TransformFunctions/arm_cfft_radix4_f32.c ****   @ingroup groupTransforms
  53:../Dave/Generated/CMSIS_DSP/Source/TransformFunctions/arm_cfft_radix4_f32.c ****  */
  54:../Dave/Generated/CMSIS_DSP/Source/TransformFunctions/arm_cfft_radix4_f32.c **** 
  55:../Dave/Generated/CMSIS_DSP/Source/TransformFunctions/arm_cfft_radix4_f32.c **** /**
  56:../Dave/Generated/CMSIS_DSP/Source/TransformFunctions/arm_cfft_radix4_f32.c ****   @addtogroup ComplexFFT
  57:../Dave/Generated/CMSIS_DSP/Source/TransformFunctions/arm_cfft_radix4_f32.c ****   @{
  58:../Dave/Generated/CMSIS_DSP/Source/TransformFunctions/arm_cfft_radix4_f32.c ****  */
  59:../Dave/Generated/CMSIS_DSP/Source/TransformFunctions/arm_cfft_radix4_f32.c **** 
  60:../Dave/Generated/CMSIS_DSP/Source/TransformFunctions/arm_cfft_radix4_f32.c **** /**
  61:../Dave/Generated/CMSIS_DSP/Source/TransformFunctions/arm_cfft_radix4_f32.c ****   @brief         Processing function for the floating-point Radix-4 CFFT/CIFFT.
  62:../Dave/Generated/CMSIS_DSP/Source/TransformFunctions/arm_cfft_radix4_f32.c ****   @deprecated    Do not use this function. It has been superseded by \ref arm_cfft_f32 and will be 
  63:../Dave/Generated/CMSIS_DSP/Source/TransformFunctions/arm_cfft_radix4_f32.c ****   @param[in]     S    points to an instance of the floating-point Radix-4 CFFT/CIFFT structure
  64:../Dave/Generated/CMSIS_DSP/Source/TransformFunctions/arm_cfft_radix4_f32.c ****   @param[in,out] pSrc points to the complex data buffer of size <code>2*fftLen</code>. Processing o
  65:../Dave/Generated/CMSIS_DSP/Source/TransformFunctions/arm_cfft_radix4_f32.c ****   @return        none
  66:../Dave/Generated/CMSIS_DSP/Source/TransformFunctions/arm_cfft_radix4_f32.c ****  */
  67:../Dave/Generated/CMSIS_DSP/Source/TransformFunctions/arm_cfft_radix4_f32.c **** 
  68:../Dave/Generated/CMSIS_DSP/Source/TransformFunctions/arm_cfft_radix4_f32.c **** void arm_cfft_radix4_f32(
  69:../Dave/Generated/CMSIS_DSP/Source/TransformFunctions/arm_cfft_radix4_f32.c ****   const arm_cfft_radix4_instance_f32 * S,
  70:../Dave/Generated/CMSIS_DSP/Source/TransformFunctions/arm_cfft_radix4_f32.c ****         float32_t * pSrc)
  71:../Dave/Generated/CMSIS_DSP/Source/TransformFunctions/arm_cfft_radix4_f32.c **** {
  28              	 .loc 1 71 0
  29              	 .cfi_startproc
  30              	 
  31              	 
  32 0000 90B5     	 push {r4,r7,lr}
  33              	.LCFI0:
  34              	 .cfi_def_cfa_offset 12
  35              	 .cfi_offset 4,-12
  36              	 .cfi_offset 7,-8
  37              	 .cfi_offset 14,-4
  38 0002 85B0     	 sub sp,sp,#20
  39              	.LCFI1:
  40              	 .cfi_def_cfa_offset 32
  41 0004 02AF     	 add r7,sp,#8
  42              	.LCFI2:
  43              	 .cfi_def_cfa 7,24
  44 0006 7860     	 str r0,[r7,#4]
  45 0008 3960     	 str r1,[r7]
  72:../Dave/Generated/CMSIS_DSP/Source/TransformFunctions/arm_cfft_radix4_f32.c ****    if (S->ifftFlag == 1U)
  46              	 .loc 1 72 0
  47 000a 7B68     	 ldr r3,[r7,#4]
  48 000c 9B78     	 ldrb r3,[r3,#2]
  49 000e 012B     	 cmp r3,#1
  50 0010 0DD1     	 bne .L2
  73:../Dave/Generated/CMSIS_DSP/Source/TransformFunctions/arm_cfft_radix4_f32.c ****    {
  74:../Dave/Generated/CMSIS_DSP/Source/TransformFunctions/arm_cfft_radix4_f32.c ****       /*  Complex IFFT radix-4  */
  75:../Dave/Generated/CMSIS_DSP/Source/TransformFunctions/arm_cfft_radix4_f32.c ****       arm_radix4_butterfly_inverse_f32(pSrc, S->fftLen, S->pTwiddle, S->twidCoefModifier, S->onebyf
  51              	 .loc 1 75 0
  52 0012 7B68     	 ldr r3,[r7,#4]
  53 0014 1988     	 ldrh r1,[r3]
  54 0016 7B68     	 ldr r3,[r7,#4]
  55 0018 5A68     	 ldr r2,[r3,#4]
  56 001a 7B68     	 ldr r3,[r7,#4]
  57 001c 9C89     	 ldrh r4,[r3,#12]
  58 001e 7B68     	 ldr r3,[r7,#4]
  59 0020 1B69     	 ldr r3,[r3,#16]
  60 0022 0093     	 str r3,[sp]
  61 0024 3868     	 ldr r0,[r7]
  62 0026 2346     	 mov r3,r4
  63 0028 FFF7FEFF 	 bl arm_radix4_butterfly_inverse_f32
  64 002c 08E0     	 b .L3
  65              	.L2:
  76:../Dave/Generated/CMSIS_DSP/Source/TransformFunctions/arm_cfft_radix4_f32.c ****    }
  77:../Dave/Generated/CMSIS_DSP/Source/TransformFunctions/arm_cfft_radix4_f32.c ****    else
  78:../Dave/Generated/CMSIS_DSP/Source/TransformFunctions/arm_cfft_radix4_f32.c ****    {
  79:../Dave/Generated/CMSIS_DSP/Source/TransformFunctions/arm_cfft_radix4_f32.c ****       /*  Complex FFT radix-4  */
  80:../Dave/Generated/CMSIS_DSP/Source/TransformFunctions/arm_cfft_radix4_f32.c ****       arm_radix4_butterfly_f32(pSrc, S->fftLen, S->pTwiddle, S->twidCoefModifier);
  66              	 .loc 1 80 0
  67 002e 7B68     	 ldr r3,[r7,#4]
  68 0030 1988     	 ldrh r1,[r3]
  69 0032 7B68     	 ldr r3,[r7,#4]
  70 0034 5A68     	 ldr r2,[r3,#4]
  71 0036 7B68     	 ldr r3,[r7,#4]
  72 0038 9B89     	 ldrh r3,[r3,#12]
  73 003a 3868     	 ldr r0,[r7]
  74 003c FFF7FEFF 	 bl arm_radix4_butterfly_f32
  75              	.L3:
  81:../Dave/Generated/CMSIS_DSP/Source/TransformFunctions/arm_cfft_radix4_f32.c ****    }
  82:../Dave/Generated/CMSIS_DSP/Source/TransformFunctions/arm_cfft_radix4_f32.c **** 
  83:../Dave/Generated/CMSIS_DSP/Source/TransformFunctions/arm_cfft_radix4_f32.c ****    if (S->bitReverseFlag == 1U)
  76              	 .loc 1 83 0
  77 0040 7B68     	 ldr r3,[r7,#4]
  78 0042 DB78     	 ldrb r3,[r3,#3]
  79 0044 012B     	 cmp r3,#1
  80 0046 08D1     	 bne .L1
  84:../Dave/Generated/CMSIS_DSP/Source/TransformFunctions/arm_cfft_radix4_f32.c ****    {
  85:../Dave/Generated/CMSIS_DSP/Source/TransformFunctions/arm_cfft_radix4_f32.c ****       /*  Bit Reversal */
  86:../Dave/Generated/CMSIS_DSP/Source/TransformFunctions/arm_cfft_radix4_f32.c ****       arm_bitreversal_f32(pSrc, S->fftLen, S->bitRevFactor, S->pBitRevTable);
  81              	 .loc 1 86 0
  82 0048 7B68     	 ldr r3,[r7,#4]
  83 004a 1988     	 ldrh r1,[r3]
  84 004c 7B68     	 ldr r3,[r7,#4]
  85 004e DA89     	 ldrh r2,[r3,#14]
  86 0050 7B68     	 ldr r3,[r7,#4]
  87 0052 9B68     	 ldr r3,[r3,#8]
  88 0054 3868     	 ldr r0,[r7]
  89 0056 FFF7FEFF 	 bl arm_bitreversal_f32
  90              	.L1:
  87:../Dave/Generated/CMSIS_DSP/Source/TransformFunctions/arm_cfft_radix4_f32.c ****    }
  88:../Dave/Generated/CMSIS_DSP/Source/TransformFunctions/arm_cfft_radix4_f32.c **** 
  89:../Dave/Generated/CMSIS_DSP/Source/TransformFunctions/arm_cfft_radix4_f32.c **** }
  91              	 .loc 1 89 0
  92 005a 0C37     	 adds r7,r7,#12
  93              	.LCFI3:
  94              	 .cfi_def_cfa_offset 12
  95 005c BD46     	 mov sp,r7
  96              	.LCFI4:
  97              	 .cfi_def_cfa_register 13
  98              	 
  99 005e 90BD     	 pop {r4,r7,pc}
 100              	 .cfi_endproc
 101              	.LFE149:
 103              	 .section .text.arm_radix4_butterfly_f32,"ax",%progbits
 104              	 .align 2
 105              	 .global arm_radix4_butterfly_f32
 106              	 .thumb
 107              	 .thumb_func
 109              	arm_radix4_butterfly_f32:
 110              	.LFB150:
  90:../Dave/Generated/CMSIS_DSP/Source/TransformFunctions/arm_cfft_radix4_f32.c **** 
  91:../Dave/Generated/CMSIS_DSP/Source/TransformFunctions/arm_cfft_radix4_f32.c **** /**
  92:../Dave/Generated/CMSIS_DSP/Source/TransformFunctions/arm_cfft_radix4_f32.c ****   @} end of ComplexFFT group
  93:../Dave/Generated/CMSIS_DSP/Source/TransformFunctions/arm_cfft_radix4_f32.c ****  */
  94:../Dave/Generated/CMSIS_DSP/Source/TransformFunctions/arm_cfft_radix4_f32.c **** 
  95:../Dave/Generated/CMSIS_DSP/Source/TransformFunctions/arm_cfft_radix4_f32.c **** /* ----------------------------------------------------------------------
  96:../Dave/Generated/CMSIS_DSP/Source/TransformFunctions/arm_cfft_radix4_f32.c ****  * Internal helper function used by the FFTs
  97:../Dave/Generated/CMSIS_DSP/Source/TransformFunctions/arm_cfft_radix4_f32.c ****  * ---------------------------------------------------------------------- */
  98:../Dave/Generated/CMSIS_DSP/Source/TransformFunctions/arm_cfft_radix4_f32.c **** 
  99:../Dave/Generated/CMSIS_DSP/Source/TransformFunctions/arm_cfft_radix4_f32.c **** /**
 100:../Dave/Generated/CMSIS_DSP/Source/TransformFunctions/arm_cfft_radix4_f32.c ****   brief         Core function for the floating-point CFFT butterfly process.
 101:../Dave/Generated/CMSIS_DSP/Source/TransformFunctions/arm_cfft_radix4_f32.c ****   param[in,out] pSrc             points to the in-place buffer of floating-point data type
 102:../Dave/Generated/CMSIS_DSP/Source/TransformFunctions/arm_cfft_radix4_f32.c ****   param[in]     fftLen           length of the FFT
 103:../Dave/Generated/CMSIS_DSP/Source/TransformFunctions/arm_cfft_radix4_f32.c ****   param[in]     pCoef            points to the twiddle coefficient buffer
 104:../Dave/Generated/CMSIS_DSP/Source/TransformFunctions/arm_cfft_radix4_f32.c ****   param[in]     twidCoefModifier twiddle coefficient modifier that supports different size FFTs wit
 105:../Dave/Generated/CMSIS_DSP/Source/TransformFunctions/arm_cfft_radix4_f32.c ****   return        none
 106:../Dave/Generated/CMSIS_DSP/Source/TransformFunctions/arm_cfft_radix4_f32.c ****  */
 107:../Dave/Generated/CMSIS_DSP/Source/TransformFunctions/arm_cfft_radix4_f32.c **** 
 108:../Dave/Generated/CMSIS_DSP/Source/TransformFunctions/arm_cfft_radix4_f32.c **** void arm_radix4_butterfly_f32(
 109:../Dave/Generated/CMSIS_DSP/Source/TransformFunctions/arm_cfft_radix4_f32.c ****         float32_t * pSrc,
 110:../Dave/Generated/CMSIS_DSP/Source/TransformFunctions/arm_cfft_radix4_f32.c ****         uint16_t fftLen,
 111:../Dave/Generated/CMSIS_DSP/Source/TransformFunctions/arm_cfft_radix4_f32.c ****   const float32_t * pCoef,
 112:../Dave/Generated/CMSIS_DSP/Source/TransformFunctions/arm_cfft_radix4_f32.c ****         uint16_t twidCoefModifier)
 113:../Dave/Generated/CMSIS_DSP/Source/TransformFunctions/arm_cfft_radix4_f32.c **** {
 111              	 .loc 1 113 0
 112              	 .cfi_startproc
 113              	 
 114              	 
 115              	 
 116 0000 80B4     	 push {r7}
 117              	.LCFI5:
 118              	 .cfi_def_cfa_offset 4
 119              	 .cfi_offset 7,-4
 120 0002 9DB0     	 sub sp,sp,#116
 121              	.LCFI6:
 122              	 .cfi_def_cfa_offset 120
 123 0004 00AF     	 add r7,sp,#0
 124              	.LCFI7:
 125              	 .cfi_def_cfa_register 7
 126 0006 F860     	 str r0,[r7,#12]
 127 0008 7A60     	 str r2,[r7,#4]
 128 000a 1A46     	 mov r2,r3
 129 000c 0B46     	 mov r3,r1
 130 000e 7B81     	 strh r3,[r7,#10]
 131 0010 1346     	 mov r3,r2
 132 0012 3B81     	 strh r3,[r7,#8]
 114:../Dave/Generated/CMSIS_DSP/Source/TransformFunctions/arm_cfft_radix4_f32.c ****         float32_t co1, co2, co3, si1, si2, si3;
 115:../Dave/Generated/CMSIS_DSP/Source/TransformFunctions/arm_cfft_radix4_f32.c ****         uint32_t ia1, ia2, ia3;
 116:../Dave/Generated/CMSIS_DSP/Source/TransformFunctions/arm_cfft_radix4_f32.c ****         uint32_t i0, i1, i2, i3;
 117:../Dave/Generated/CMSIS_DSP/Source/TransformFunctions/arm_cfft_radix4_f32.c ****         uint32_t n1, n2, j, k;
 118:../Dave/Generated/CMSIS_DSP/Source/TransformFunctions/arm_cfft_radix4_f32.c **** 
 119:../Dave/Generated/CMSIS_DSP/Source/TransformFunctions/arm_cfft_radix4_f32.c **** #if defined (ARM_MATH_LOOPUNROLL)
 120:../Dave/Generated/CMSIS_DSP/Source/TransformFunctions/arm_cfft_radix4_f32.c **** 
 121:../Dave/Generated/CMSIS_DSP/Source/TransformFunctions/arm_cfft_radix4_f32.c ****         float32_t xaIn, yaIn, xbIn, ybIn, xcIn, ycIn, xdIn, ydIn;
 122:../Dave/Generated/CMSIS_DSP/Source/TransformFunctions/arm_cfft_radix4_f32.c ****         float32_t Xaplusc, Xbplusd, Yaplusc, Ybplusd, Xaminusc, Xbminusd, Yaminusc,
 123:../Dave/Generated/CMSIS_DSP/Source/TransformFunctions/arm_cfft_radix4_f32.c ****         Ybminusd;
 124:../Dave/Generated/CMSIS_DSP/Source/TransformFunctions/arm_cfft_radix4_f32.c ****         float32_t Xb12C_out, Yb12C_out, Xc12C_out, Yc12C_out, Xd12C_out, Yd12C_out;
 125:../Dave/Generated/CMSIS_DSP/Source/TransformFunctions/arm_cfft_radix4_f32.c ****         float32_t Xb12_out, Yb12_out, Xc12_out, Yc12_out, Xd12_out, Yd12_out;
 126:../Dave/Generated/CMSIS_DSP/Source/TransformFunctions/arm_cfft_radix4_f32.c ****         float32_t *ptr1;
 127:../Dave/Generated/CMSIS_DSP/Source/TransformFunctions/arm_cfft_radix4_f32.c ****         float32_t p0,p1,p2,p3,p4,p5;
 128:../Dave/Generated/CMSIS_DSP/Source/TransformFunctions/arm_cfft_radix4_f32.c ****         float32_t a0,a1,a2,a3,a4,a5,a6,a7;
 129:../Dave/Generated/CMSIS_DSP/Source/TransformFunctions/arm_cfft_radix4_f32.c **** 
 130:../Dave/Generated/CMSIS_DSP/Source/TransformFunctions/arm_cfft_radix4_f32.c ****    /*  Initializations for the first stage */
 131:../Dave/Generated/CMSIS_DSP/Source/TransformFunctions/arm_cfft_radix4_f32.c ****    n2 = fftLen;
 132:../Dave/Generated/CMSIS_DSP/Source/TransformFunctions/arm_cfft_radix4_f32.c ****    n1 = n2;
 133:../Dave/Generated/CMSIS_DSP/Source/TransformFunctions/arm_cfft_radix4_f32.c **** 
 134:../Dave/Generated/CMSIS_DSP/Source/TransformFunctions/arm_cfft_radix4_f32.c ****    /* n2 = fftLen/4 */
 135:../Dave/Generated/CMSIS_DSP/Source/TransformFunctions/arm_cfft_radix4_f32.c ****    n2 >>= 2U;
 136:../Dave/Generated/CMSIS_DSP/Source/TransformFunctions/arm_cfft_radix4_f32.c ****    i0 = 0U;
 137:../Dave/Generated/CMSIS_DSP/Source/TransformFunctions/arm_cfft_radix4_f32.c ****    ia1 = 0U;
 138:../Dave/Generated/CMSIS_DSP/Source/TransformFunctions/arm_cfft_radix4_f32.c **** 
 139:../Dave/Generated/CMSIS_DSP/Source/TransformFunctions/arm_cfft_radix4_f32.c ****    j = n2;
 140:../Dave/Generated/CMSIS_DSP/Source/TransformFunctions/arm_cfft_radix4_f32.c **** 
 141:../Dave/Generated/CMSIS_DSP/Source/TransformFunctions/arm_cfft_radix4_f32.c ****    /*  Calculation of first stage */
 142:../Dave/Generated/CMSIS_DSP/Source/TransformFunctions/arm_cfft_radix4_f32.c ****    do
 143:../Dave/Generated/CMSIS_DSP/Source/TransformFunctions/arm_cfft_radix4_f32.c ****    {
 144:../Dave/Generated/CMSIS_DSP/Source/TransformFunctions/arm_cfft_radix4_f32.c ****       /*  index calculation for the input as, */
 145:../Dave/Generated/CMSIS_DSP/Source/TransformFunctions/arm_cfft_radix4_f32.c ****       /*  pSrc[i0 + 0], pSrc[i0 + fftLen/4], pSrc[i0 + fftLen/2], pSrc[i0 + 3fftLen/4] */
 146:../Dave/Generated/CMSIS_DSP/Source/TransformFunctions/arm_cfft_radix4_f32.c ****       i1 = i0 + n2;
 147:../Dave/Generated/CMSIS_DSP/Source/TransformFunctions/arm_cfft_radix4_f32.c ****       i2 = i1 + n2;
 148:../Dave/Generated/CMSIS_DSP/Source/TransformFunctions/arm_cfft_radix4_f32.c ****       i3 = i2 + n2;
 149:../Dave/Generated/CMSIS_DSP/Source/TransformFunctions/arm_cfft_radix4_f32.c **** 
 150:../Dave/Generated/CMSIS_DSP/Source/TransformFunctions/arm_cfft_radix4_f32.c ****       xaIn = pSrc[(2U * i0)];
 151:../Dave/Generated/CMSIS_DSP/Source/TransformFunctions/arm_cfft_radix4_f32.c ****       yaIn = pSrc[(2U * i0) + 1U];
 152:../Dave/Generated/CMSIS_DSP/Source/TransformFunctions/arm_cfft_radix4_f32.c **** 
 153:../Dave/Generated/CMSIS_DSP/Source/TransformFunctions/arm_cfft_radix4_f32.c ****       xbIn = pSrc[(2U * i1)];
 154:../Dave/Generated/CMSIS_DSP/Source/TransformFunctions/arm_cfft_radix4_f32.c ****       ybIn = pSrc[(2U * i1) + 1U];
 155:../Dave/Generated/CMSIS_DSP/Source/TransformFunctions/arm_cfft_radix4_f32.c **** 
 156:../Dave/Generated/CMSIS_DSP/Source/TransformFunctions/arm_cfft_radix4_f32.c ****       xcIn = pSrc[(2U * i2)];
 157:../Dave/Generated/CMSIS_DSP/Source/TransformFunctions/arm_cfft_radix4_f32.c ****       ycIn = pSrc[(2U * i2) + 1U];
 158:../Dave/Generated/CMSIS_DSP/Source/TransformFunctions/arm_cfft_radix4_f32.c **** 
 159:../Dave/Generated/CMSIS_DSP/Source/TransformFunctions/arm_cfft_radix4_f32.c ****       xdIn = pSrc[(2U * i3)];
 160:../Dave/Generated/CMSIS_DSP/Source/TransformFunctions/arm_cfft_radix4_f32.c ****       ydIn = pSrc[(2U * i3) + 1U];
 161:../Dave/Generated/CMSIS_DSP/Source/TransformFunctions/arm_cfft_radix4_f32.c **** 
 162:../Dave/Generated/CMSIS_DSP/Source/TransformFunctions/arm_cfft_radix4_f32.c ****       /* xa + xc */
 163:../Dave/Generated/CMSIS_DSP/Source/TransformFunctions/arm_cfft_radix4_f32.c ****       Xaplusc = xaIn + xcIn;
 164:../Dave/Generated/CMSIS_DSP/Source/TransformFunctions/arm_cfft_radix4_f32.c ****       /* xb + xd */
 165:../Dave/Generated/CMSIS_DSP/Source/TransformFunctions/arm_cfft_radix4_f32.c ****       Xbplusd = xbIn + xdIn;
 166:../Dave/Generated/CMSIS_DSP/Source/TransformFunctions/arm_cfft_radix4_f32.c ****       /* ya + yc */
 167:../Dave/Generated/CMSIS_DSP/Source/TransformFunctions/arm_cfft_radix4_f32.c ****       Yaplusc = yaIn + ycIn;
 168:../Dave/Generated/CMSIS_DSP/Source/TransformFunctions/arm_cfft_radix4_f32.c ****       /* yb + yd */
 169:../Dave/Generated/CMSIS_DSP/Source/TransformFunctions/arm_cfft_radix4_f32.c ****       Ybplusd = ybIn + ydIn;
 170:../Dave/Generated/CMSIS_DSP/Source/TransformFunctions/arm_cfft_radix4_f32.c **** 
 171:../Dave/Generated/CMSIS_DSP/Source/TransformFunctions/arm_cfft_radix4_f32.c ****       /*  index calculation for the coefficients */
 172:../Dave/Generated/CMSIS_DSP/Source/TransformFunctions/arm_cfft_radix4_f32.c ****       ia2 = ia1 + ia1;
 173:../Dave/Generated/CMSIS_DSP/Source/TransformFunctions/arm_cfft_radix4_f32.c ****       co2 = pCoef[ia2 * 2U];
 174:../Dave/Generated/CMSIS_DSP/Source/TransformFunctions/arm_cfft_radix4_f32.c ****       si2 = pCoef[(ia2 * 2U) + 1U];
 175:../Dave/Generated/CMSIS_DSP/Source/TransformFunctions/arm_cfft_radix4_f32.c **** 
 176:../Dave/Generated/CMSIS_DSP/Source/TransformFunctions/arm_cfft_radix4_f32.c ****       /* xa - xc */
 177:../Dave/Generated/CMSIS_DSP/Source/TransformFunctions/arm_cfft_radix4_f32.c ****       Xaminusc = xaIn - xcIn;
 178:../Dave/Generated/CMSIS_DSP/Source/TransformFunctions/arm_cfft_radix4_f32.c ****       /* xb - xd */
 179:../Dave/Generated/CMSIS_DSP/Source/TransformFunctions/arm_cfft_radix4_f32.c ****       Xbminusd = xbIn - xdIn;
 180:../Dave/Generated/CMSIS_DSP/Source/TransformFunctions/arm_cfft_radix4_f32.c ****       /* ya - yc */
 181:../Dave/Generated/CMSIS_DSP/Source/TransformFunctions/arm_cfft_radix4_f32.c ****       Yaminusc = yaIn - ycIn;
 182:../Dave/Generated/CMSIS_DSP/Source/TransformFunctions/arm_cfft_radix4_f32.c ****       /* yb - yd */
 183:../Dave/Generated/CMSIS_DSP/Source/TransformFunctions/arm_cfft_radix4_f32.c ****       Ybminusd = ybIn - ydIn;
 184:../Dave/Generated/CMSIS_DSP/Source/TransformFunctions/arm_cfft_radix4_f32.c **** 
 185:../Dave/Generated/CMSIS_DSP/Source/TransformFunctions/arm_cfft_radix4_f32.c ****       /* xa' = xa + xb + xc + xd */
 186:../Dave/Generated/CMSIS_DSP/Source/TransformFunctions/arm_cfft_radix4_f32.c ****       pSrc[(2U * i0)] = Xaplusc + Xbplusd;
 187:../Dave/Generated/CMSIS_DSP/Source/TransformFunctions/arm_cfft_radix4_f32.c ****       /* ya' = ya + yb + yc + yd */
 188:../Dave/Generated/CMSIS_DSP/Source/TransformFunctions/arm_cfft_radix4_f32.c ****       pSrc[(2U * i0) + 1U] = Yaplusc + Ybplusd;
 189:../Dave/Generated/CMSIS_DSP/Source/TransformFunctions/arm_cfft_radix4_f32.c **** 
 190:../Dave/Generated/CMSIS_DSP/Source/TransformFunctions/arm_cfft_radix4_f32.c ****       /* (xa - xc) + (yb - yd) */
 191:../Dave/Generated/CMSIS_DSP/Source/TransformFunctions/arm_cfft_radix4_f32.c ****       Xb12C_out = (Xaminusc + Ybminusd);
 192:../Dave/Generated/CMSIS_DSP/Source/TransformFunctions/arm_cfft_radix4_f32.c ****       /* (ya - yc) + (xb - xd) */
 193:../Dave/Generated/CMSIS_DSP/Source/TransformFunctions/arm_cfft_radix4_f32.c ****       Yb12C_out = (Yaminusc - Xbminusd);
 194:../Dave/Generated/CMSIS_DSP/Source/TransformFunctions/arm_cfft_radix4_f32.c ****       /* (xa + xc) - (xb + xd) */
 195:../Dave/Generated/CMSIS_DSP/Source/TransformFunctions/arm_cfft_radix4_f32.c ****       Xc12C_out = (Xaplusc - Xbplusd);
 196:../Dave/Generated/CMSIS_DSP/Source/TransformFunctions/arm_cfft_radix4_f32.c ****       /* (ya + yc) - (yb + yd) */
 197:../Dave/Generated/CMSIS_DSP/Source/TransformFunctions/arm_cfft_radix4_f32.c ****       Yc12C_out = (Yaplusc - Ybplusd);
 198:../Dave/Generated/CMSIS_DSP/Source/TransformFunctions/arm_cfft_radix4_f32.c ****       /* (xa - xc) - (yb - yd) */
 199:../Dave/Generated/CMSIS_DSP/Source/TransformFunctions/arm_cfft_radix4_f32.c ****       Xd12C_out = (Xaminusc - Ybminusd);
 200:../Dave/Generated/CMSIS_DSP/Source/TransformFunctions/arm_cfft_radix4_f32.c ****       /* (ya - yc) + (xb - xd) */
 201:../Dave/Generated/CMSIS_DSP/Source/TransformFunctions/arm_cfft_radix4_f32.c ****       Yd12C_out = (Xbminusd + Yaminusc);
 202:../Dave/Generated/CMSIS_DSP/Source/TransformFunctions/arm_cfft_radix4_f32.c **** 
 203:../Dave/Generated/CMSIS_DSP/Source/TransformFunctions/arm_cfft_radix4_f32.c ****       co1 = pCoef[ia1 * 2U];
 204:../Dave/Generated/CMSIS_DSP/Source/TransformFunctions/arm_cfft_radix4_f32.c ****       si1 = pCoef[(ia1 * 2U) + 1U];
 205:../Dave/Generated/CMSIS_DSP/Source/TransformFunctions/arm_cfft_radix4_f32.c **** 
 206:../Dave/Generated/CMSIS_DSP/Source/TransformFunctions/arm_cfft_radix4_f32.c ****       /*  index calculation for the coefficients */
 207:../Dave/Generated/CMSIS_DSP/Source/TransformFunctions/arm_cfft_radix4_f32.c ****       ia3 = ia2 + ia1;
 208:../Dave/Generated/CMSIS_DSP/Source/TransformFunctions/arm_cfft_radix4_f32.c ****       co3 = pCoef[ia3 * 2U];
 209:../Dave/Generated/CMSIS_DSP/Source/TransformFunctions/arm_cfft_radix4_f32.c ****       si3 = pCoef[(ia3 * 2U) + 1U];
 210:../Dave/Generated/CMSIS_DSP/Source/TransformFunctions/arm_cfft_radix4_f32.c **** 
 211:../Dave/Generated/CMSIS_DSP/Source/TransformFunctions/arm_cfft_radix4_f32.c ****       Xb12_out = Xb12C_out * co1;
 212:../Dave/Generated/CMSIS_DSP/Source/TransformFunctions/arm_cfft_radix4_f32.c ****       Yb12_out = Yb12C_out * co1;
 213:../Dave/Generated/CMSIS_DSP/Source/TransformFunctions/arm_cfft_radix4_f32.c ****       Xc12_out = Xc12C_out * co2;
 214:../Dave/Generated/CMSIS_DSP/Source/TransformFunctions/arm_cfft_radix4_f32.c ****       Yc12_out = Yc12C_out * co2;
 215:../Dave/Generated/CMSIS_DSP/Source/TransformFunctions/arm_cfft_radix4_f32.c ****       Xd12_out = Xd12C_out * co3;
 216:../Dave/Generated/CMSIS_DSP/Source/TransformFunctions/arm_cfft_radix4_f32.c ****       Yd12_out = Yd12C_out * co3;
 217:../Dave/Generated/CMSIS_DSP/Source/TransformFunctions/arm_cfft_radix4_f32.c **** 
 218:../Dave/Generated/CMSIS_DSP/Source/TransformFunctions/arm_cfft_radix4_f32.c ****       /* xb' = (xa+yb-xc-yd)co1 - (ya-xb-yc+xd)(si1) */
 219:../Dave/Generated/CMSIS_DSP/Source/TransformFunctions/arm_cfft_radix4_f32.c ****       //Xb12_out -= Yb12C_out * si1;
 220:../Dave/Generated/CMSIS_DSP/Source/TransformFunctions/arm_cfft_radix4_f32.c ****       p0 = Yb12C_out * si1;
 221:../Dave/Generated/CMSIS_DSP/Source/TransformFunctions/arm_cfft_radix4_f32.c ****       /* yb' = (ya-xb-yc+xd)co1 + (xa+yb-xc-yd)(si1) */
 222:../Dave/Generated/CMSIS_DSP/Source/TransformFunctions/arm_cfft_radix4_f32.c ****       //Yb12_out += Xb12C_out * si1;
 223:../Dave/Generated/CMSIS_DSP/Source/TransformFunctions/arm_cfft_radix4_f32.c ****       p1 = Xb12C_out * si1;
 224:../Dave/Generated/CMSIS_DSP/Source/TransformFunctions/arm_cfft_radix4_f32.c ****       /* xc' = (xa-xb+xc-xd)co2 - (ya-yb+yc-yd)(si2) */
 225:../Dave/Generated/CMSIS_DSP/Source/TransformFunctions/arm_cfft_radix4_f32.c ****       //Xc12_out -= Yc12C_out * si2;
 226:../Dave/Generated/CMSIS_DSP/Source/TransformFunctions/arm_cfft_radix4_f32.c ****       p2 = Yc12C_out * si2;
 227:../Dave/Generated/CMSIS_DSP/Source/TransformFunctions/arm_cfft_radix4_f32.c ****       /* yc' = (ya-yb+yc-yd)co2 + (xa-xb+xc-xd)(si2) */
 228:../Dave/Generated/CMSIS_DSP/Source/TransformFunctions/arm_cfft_radix4_f32.c ****       //Yc12_out += Xc12C_out * si2;
 229:../Dave/Generated/CMSIS_DSP/Source/TransformFunctions/arm_cfft_radix4_f32.c ****       p3 = Xc12C_out * si2;
 230:../Dave/Generated/CMSIS_DSP/Source/TransformFunctions/arm_cfft_radix4_f32.c ****       /* xd' = (xa-yb-xc+yd)co3 - (ya+xb-yc-xd)(si3) */
 231:../Dave/Generated/CMSIS_DSP/Source/TransformFunctions/arm_cfft_radix4_f32.c ****       //Xd12_out -= Yd12C_out * si3;
 232:../Dave/Generated/CMSIS_DSP/Source/TransformFunctions/arm_cfft_radix4_f32.c ****       p4 = Yd12C_out * si3;
 233:../Dave/Generated/CMSIS_DSP/Source/TransformFunctions/arm_cfft_radix4_f32.c ****       /* yd' = (ya+xb-yc-xd)co3 + (xa-yb-xc+yd)(si3) */
 234:../Dave/Generated/CMSIS_DSP/Source/TransformFunctions/arm_cfft_radix4_f32.c ****       //Yd12_out += Xd12C_out * si3;
 235:../Dave/Generated/CMSIS_DSP/Source/TransformFunctions/arm_cfft_radix4_f32.c ****       p5 = Xd12C_out * si3;
 236:../Dave/Generated/CMSIS_DSP/Source/TransformFunctions/arm_cfft_radix4_f32.c **** 
 237:../Dave/Generated/CMSIS_DSP/Source/TransformFunctions/arm_cfft_radix4_f32.c ****       Xb12_out += p0;
 238:../Dave/Generated/CMSIS_DSP/Source/TransformFunctions/arm_cfft_radix4_f32.c ****       Yb12_out -= p1;
 239:../Dave/Generated/CMSIS_DSP/Source/TransformFunctions/arm_cfft_radix4_f32.c ****       Xc12_out += p2;
 240:../Dave/Generated/CMSIS_DSP/Source/TransformFunctions/arm_cfft_radix4_f32.c ****       Yc12_out -= p3;
 241:../Dave/Generated/CMSIS_DSP/Source/TransformFunctions/arm_cfft_radix4_f32.c ****       Xd12_out += p4;
 242:../Dave/Generated/CMSIS_DSP/Source/TransformFunctions/arm_cfft_radix4_f32.c ****       Yd12_out -= p5;
 243:../Dave/Generated/CMSIS_DSP/Source/TransformFunctions/arm_cfft_radix4_f32.c **** 
 244:../Dave/Generated/CMSIS_DSP/Source/TransformFunctions/arm_cfft_radix4_f32.c ****       /* xc' = (xa-xb+xc-xd)co2 + (ya-yb+yc-yd)(si2) */
 245:../Dave/Generated/CMSIS_DSP/Source/TransformFunctions/arm_cfft_radix4_f32.c ****       pSrc[2U * i1] = Xc12_out;
 246:../Dave/Generated/CMSIS_DSP/Source/TransformFunctions/arm_cfft_radix4_f32.c **** 
 247:../Dave/Generated/CMSIS_DSP/Source/TransformFunctions/arm_cfft_radix4_f32.c ****       /* yc' = (ya-yb+yc-yd)co2 - (xa-xb+xc-xd)(si2) */
 248:../Dave/Generated/CMSIS_DSP/Source/TransformFunctions/arm_cfft_radix4_f32.c ****       pSrc[(2U * i1) + 1U] = Yc12_out;
 249:../Dave/Generated/CMSIS_DSP/Source/TransformFunctions/arm_cfft_radix4_f32.c **** 
 250:../Dave/Generated/CMSIS_DSP/Source/TransformFunctions/arm_cfft_radix4_f32.c ****       /* xb' = (xa+yb-xc-yd)co1 + (ya-xb-yc+xd)(si1) */
 251:../Dave/Generated/CMSIS_DSP/Source/TransformFunctions/arm_cfft_radix4_f32.c ****       pSrc[2U * i2] = Xb12_out;
 252:../Dave/Generated/CMSIS_DSP/Source/TransformFunctions/arm_cfft_radix4_f32.c **** 
 253:../Dave/Generated/CMSIS_DSP/Source/TransformFunctions/arm_cfft_radix4_f32.c ****       /* yb' = (ya-xb-yc+xd)co1 - (xa+yb-xc-yd)(si1) */
 254:../Dave/Generated/CMSIS_DSP/Source/TransformFunctions/arm_cfft_radix4_f32.c ****       pSrc[(2U * i2) + 1U] = Yb12_out;
 255:../Dave/Generated/CMSIS_DSP/Source/TransformFunctions/arm_cfft_radix4_f32.c **** 
 256:../Dave/Generated/CMSIS_DSP/Source/TransformFunctions/arm_cfft_radix4_f32.c ****       /* xd' = (xa-yb-xc+yd)co3 + (ya+xb-yc-xd)(si3) */
 257:../Dave/Generated/CMSIS_DSP/Source/TransformFunctions/arm_cfft_radix4_f32.c ****       pSrc[2U * i3] = Xd12_out;
 258:../Dave/Generated/CMSIS_DSP/Source/TransformFunctions/arm_cfft_radix4_f32.c **** 
 259:../Dave/Generated/CMSIS_DSP/Source/TransformFunctions/arm_cfft_radix4_f32.c ****       /* yd' = (ya+xb-yc-xd)co3 - (xa-yb-xc+yd)(si3) */
 260:../Dave/Generated/CMSIS_DSP/Source/TransformFunctions/arm_cfft_radix4_f32.c ****       pSrc[(2U * i3) + 1U] = Yd12_out;
 261:../Dave/Generated/CMSIS_DSP/Source/TransformFunctions/arm_cfft_radix4_f32.c **** 
 262:../Dave/Generated/CMSIS_DSP/Source/TransformFunctions/arm_cfft_radix4_f32.c ****       /*  Twiddle coefficients index modifier */
 263:../Dave/Generated/CMSIS_DSP/Source/TransformFunctions/arm_cfft_radix4_f32.c ****       ia1 += twidCoefModifier;
 264:../Dave/Generated/CMSIS_DSP/Source/TransformFunctions/arm_cfft_radix4_f32.c **** 
 265:../Dave/Generated/CMSIS_DSP/Source/TransformFunctions/arm_cfft_radix4_f32.c ****       /*  Updating input index */
 266:../Dave/Generated/CMSIS_DSP/Source/TransformFunctions/arm_cfft_radix4_f32.c ****       i0++;
 267:../Dave/Generated/CMSIS_DSP/Source/TransformFunctions/arm_cfft_radix4_f32.c **** 
 268:../Dave/Generated/CMSIS_DSP/Source/TransformFunctions/arm_cfft_radix4_f32.c ****    }
 269:../Dave/Generated/CMSIS_DSP/Source/TransformFunctions/arm_cfft_radix4_f32.c ****    while (--j);
 270:../Dave/Generated/CMSIS_DSP/Source/TransformFunctions/arm_cfft_radix4_f32.c **** 
 271:../Dave/Generated/CMSIS_DSP/Source/TransformFunctions/arm_cfft_radix4_f32.c ****    twidCoefModifier <<= 2U;
 272:../Dave/Generated/CMSIS_DSP/Source/TransformFunctions/arm_cfft_radix4_f32.c **** 
 273:../Dave/Generated/CMSIS_DSP/Source/TransformFunctions/arm_cfft_radix4_f32.c ****    /*  Calculation of second stage to excluding last stage */
 274:../Dave/Generated/CMSIS_DSP/Source/TransformFunctions/arm_cfft_radix4_f32.c ****    for (k = fftLen >> 2U; k > 4U; k >>= 2U)
 275:../Dave/Generated/CMSIS_DSP/Source/TransformFunctions/arm_cfft_radix4_f32.c ****    {
 276:../Dave/Generated/CMSIS_DSP/Source/TransformFunctions/arm_cfft_radix4_f32.c ****       /*  Initializations for the first stage */
 277:../Dave/Generated/CMSIS_DSP/Source/TransformFunctions/arm_cfft_radix4_f32.c ****       n1 = n2;
 278:../Dave/Generated/CMSIS_DSP/Source/TransformFunctions/arm_cfft_radix4_f32.c ****       n2 >>= 2U;
 279:../Dave/Generated/CMSIS_DSP/Source/TransformFunctions/arm_cfft_radix4_f32.c ****       ia1 = 0U;
 280:../Dave/Generated/CMSIS_DSP/Source/TransformFunctions/arm_cfft_radix4_f32.c **** 
 281:../Dave/Generated/CMSIS_DSP/Source/TransformFunctions/arm_cfft_radix4_f32.c ****       /*  Calculation of first stage */
 282:../Dave/Generated/CMSIS_DSP/Source/TransformFunctions/arm_cfft_radix4_f32.c ****       j = 0;
 283:../Dave/Generated/CMSIS_DSP/Source/TransformFunctions/arm_cfft_radix4_f32.c ****       do
 284:../Dave/Generated/CMSIS_DSP/Source/TransformFunctions/arm_cfft_radix4_f32.c ****       {
 285:../Dave/Generated/CMSIS_DSP/Source/TransformFunctions/arm_cfft_radix4_f32.c ****          /*  index calculation for the coefficients */
 286:../Dave/Generated/CMSIS_DSP/Source/TransformFunctions/arm_cfft_radix4_f32.c ****          ia2 = ia1 + ia1;
 287:../Dave/Generated/CMSIS_DSP/Source/TransformFunctions/arm_cfft_radix4_f32.c ****          ia3 = ia2 + ia1;
 288:../Dave/Generated/CMSIS_DSP/Source/TransformFunctions/arm_cfft_radix4_f32.c ****          co1 = pCoef[(ia1 * 2U)];
 289:../Dave/Generated/CMSIS_DSP/Source/TransformFunctions/arm_cfft_radix4_f32.c ****          si1 = pCoef[(ia1 * 2U) + 1U];
 290:../Dave/Generated/CMSIS_DSP/Source/TransformFunctions/arm_cfft_radix4_f32.c ****          co2 = pCoef[(ia2 * 2U)];
 291:../Dave/Generated/CMSIS_DSP/Source/TransformFunctions/arm_cfft_radix4_f32.c ****          si2 = pCoef[(ia2 * 2U) + 1U];
 292:../Dave/Generated/CMSIS_DSP/Source/TransformFunctions/arm_cfft_radix4_f32.c ****          co3 = pCoef[(ia3 * 2U)];
 293:../Dave/Generated/CMSIS_DSP/Source/TransformFunctions/arm_cfft_radix4_f32.c ****          si3 = pCoef[(ia3 * 2U) + 1U];
 294:../Dave/Generated/CMSIS_DSP/Source/TransformFunctions/arm_cfft_radix4_f32.c **** 
 295:../Dave/Generated/CMSIS_DSP/Source/TransformFunctions/arm_cfft_radix4_f32.c ****          /*  Twiddle coefficients index modifier */
 296:../Dave/Generated/CMSIS_DSP/Source/TransformFunctions/arm_cfft_radix4_f32.c ****          ia1 += twidCoefModifier;
 297:../Dave/Generated/CMSIS_DSP/Source/TransformFunctions/arm_cfft_radix4_f32.c **** 
 298:../Dave/Generated/CMSIS_DSP/Source/TransformFunctions/arm_cfft_radix4_f32.c ****          i0 = j;
 299:../Dave/Generated/CMSIS_DSP/Source/TransformFunctions/arm_cfft_radix4_f32.c ****          do
 300:../Dave/Generated/CMSIS_DSP/Source/TransformFunctions/arm_cfft_radix4_f32.c ****          {
 301:../Dave/Generated/CMSIS_DSP/Source/TransformFunctions/arm_cfft_radix4_f32.c ****             /*  index calculation for the input as, */
 302:../Dave/Generated/CMSIS_DSP/Source/TransformFunctions/arm_cfft_radix4_f32.c ****             /*  pSrc[i0 + 0], pSrc[i0 + fftLen/4], pSrc[i0 + fftLen/2], pSrc[i0 + 3fftLen/4] */
 303:../Dave/Generated/CMSIS_DSP/Source/TransformFunctions/arm_cfft_radix4_f32.c ****             i1 = i0 + n2;
 304:../Dave/Generated/CMSIS_DSP/Source/TransformFunctions/arm_cfft_radix4_f32.c ****             i2 = i1 + n2;
 305:../Dave/Generated/CMSIS_DSP/Source/TransformFunctions/arm_cfft_radix4_f32.c ****             i3 = i2 + n2;
 306:../Dave/Generated/CMSIS_DSP/Source/TransformFunctions/arm_cfft_radix4_f32.c **** 
 307:../Dave/Generated/CMSIS_DSP/Source/TransformFunctions/arm_cfft_radix4_f32.c ****             xaIn = pSrc[(2U * i0)];
 308:../Dave/Generated/CMSIS_DSP/Source/TransformFunctions/arm_cfft_radix4_f32.c ****             yaIn = pSrc[(2U * i0) + 1U];
 309:../Dave/Generated/CMSIS_DSP/Source/TransformFunctions/arm_cfft_radix4_f32.c **** 
 310:../Dave/Generated/CMSIS_DSP/Source/TransformFunctions/arm_cfft_radix4_f32.c ****             xbIn = pSrc[(2U * i1)];
 311:../Dave/Generated/CMSIS_DSP/Source/TransformFunctions/arm_cfft_radix4_f32.c ****             ybIn = pSrc[(2U * i1) + 1U];
 312:../Dave/Generated/CMSIS_DSP/Source/TransformFunctions/arm_cfft_radix4_f32.c **** 
 313:../Dave/Generated/CMSIS_DSP/Source/TransformFunctions/arm_cfft_radix4_f32.c ****             xcIn = pSrc[(2U * i2)];
 314:../Dave/Generated/CMSIS_DSP/Source/TransformFunctions/arm_cfft_radix4_f32.c ****             ycIn = pSrc[(2U * i2) + 1U];
 315:../Dave/Generated/CMSIS_DSP/Source/TransformFunctions/arm_cfft_radix4_f32.c **** 
 316:../Dave/Generated/CMSIS_DSP/Source/TransformFunctions/arm_cfft_radix4_f32.c ****             xdIn = pSrc[(2U * i3)];
 317:../Dave/Generated/CMSIS_DSP/Source/TransformFunctions/arm_cfft_radix4_f32.c ****             ydIn = pSrc[(2U * i3) + 1U];
 318:../Dave/Generated/CMSIS_DSP/Source/TransformFunctions/arm_cfft_radix4_f32.c **** 
 319:../Dave/Generated/CMSIS_DSP/Source/TransformFunctions/arm_cfft_radix4_f32.c ****             /* xa - xc */
 320:../Dave/Generated/CMSIS_DSP/Source/TransformFunctions/arm_cfft_radix4_f32.c ****             Xaminusc = xaIn - xcIn;
 321:../Dave/Generated/CMSIS_DSP/Source/TransformFunctions/arm_cfft_radix4_f32.c ****             /* (xb - xd) */
 322:../Dave/Generated/CMSIS_DSP/Source/TransformFunctions/arm_cfft_radix4_f32.c ****             Xbminusd = xbIn - xdIn;
 323:../Dave/Generated/CMSIS_DSP/Source/TransformFunctions/arm_cfft_radix4_f32.c ****             /* ya - yc */
 324:../Dave/Generated/CMSIS_DSP/Source/TransformFunctions/arm_cfft_radix4_f32.c ****             Yaminusc = yaIn - ycIn;
 325:../Dave/Generated/CMSIS_DSP/Source/TransformFunctions/arm_cfft_radix4_f32.c ****             /* (yb - yd) */
 326:../Dave/Generated/CMSIS_DSP/Source/TransformFunctions/arm_cfft_radix4_f32.c ****             Ybminusd = ybIn - ydIn;
 327:../Dave/Generated/CMSIS_DSP/Source/TransformFunctions/arm_cfft_radix4_f32.c **** 
 328:../Dave/Generated/CMSIS_DSP/Source/TransformFunctions/arm_cfft_radix4_f32.c ****             /* xa + xc */
 329:../Dave/Generated/CMSIS_DSP/Source/TransformFunctions/arm_cfft_radix4_f32.c ****             Xaplusc = xaIn + xcIn;
 330:../Dave/Generated/CMSIS_DSP/Source/TransformFunctions/arm_cfft_radix4_f32.c ****             /* xb + xd */
 331:../Dave/Generated/CMSIS_DSP/Source/TransformFunctions/arm_cfft_radix4_f32.c ****             Xbplusd = xbIn + xdIn;
 332:../Dave/Generated/CMSIS_DSP/Source/TransformFunctions/arm_cfft_radix4_f32.c ****             /* ya + yc */
 333:../Dave/Generated/CMSIS_DSP/Source/TransformFunctions/arm_cfft_radix4_f32.c ****             Yaplusc = yaIn + ycIn;
 334:../Dave/Generated/CMSIS_DSP/Source/TransformFunctions/arm_cfft_radix4_f32.c ****             /* yb + yd */
 335:../Dave/Generated/CMSIS_DSP/Source/TransformFunctions/arm_cfft_radix4_f32.c ****             Ybplusd = ybIn + ydIn;
 336:../Dave/Generated/CMSIS_DSP/Source/TransformFunctions/arm_cfft_radix4_f32.c **** 
 337:../Dave/Generated/CMSIS_DSP/Source/TransformFunctions/arm_cfft_radix4_f32.c ****             /* (xa - xc) + (yb - yd) */
 338:../Dave/Generated/CMSIS_DSP/Source/TransformFunctions/arm_cfft_radix4_f32.c ****             Xb12C_out = (Xaminusc + Ybminusd);
 339:../Dave/Generated/CMSIS_DSP/Source/TransformFunctions/arm_cfft_radix4_f32.c ****             /* (ya - yc) -  (xb - xd) */
 340:../Dave/Generated/CMSIS_DSP/Source/TransformFunctions/arm_cfft_radix4_f32.c ****             Yb12C_out = (Yaminusc - Xbminusd);
 341:../Dave/Generated/CMSIS_DSP/Source/TransformFunctions/arm_cfft_radix4_f32.c ****             /* xa + xc -(xb + xd) */
 342:../Dave/Generated/CMSIS_DSP/Source/TransformFunctions/arm_cfft_radix4_f32.c ****             Xc12C_out = (Xaplusc - Xbplusd);
 343:../Dave/Generated/CMSIS_DSP/Source/TransformFunctions/arm_cfft_radix4_f32.c ****             /* (ya + yc) - (yb + yd) */
 344:../Dave/Generated/CMSIS_DSP/Source/TransformFunctions/arm_cfft_radix4_f32.c ****             Yc12C_out = (Yaplusc - Ybplusd);
 345:../Dave/Generated/CMSIS_DSP/Source/TransformFunctions/arm_cfft_radix4_f32.c ****             /* (xa - xc) - (yb - yd) */
 346:../Dave/Generated/CMSIS_DSP/Source/TransformFunctions/arm_cfft_radix4_f32.c ****             Xd12C_out = (Xaminusc - Ybminusd);
 347:../Dave/Generated/CMSIS_DSP/Source/TransformFunctions/arm_cfft_radix4_f32.c ****             /* (ya - yc) +  (xb - xd) */
 348:../Dave/Generated/CMSIS_DSP/Source/TransformFunctions/arm_cfft_radix4_f32.c ****             Yd12C_out = (Xbminusd + Yaminusc);
 349:../Dave/Generated/CMSIS_DSP/Source/TransformFunctions/arm_cfft_radix4_f32.c **** 
 350:../Dave/Generated/CMSIS_DSP/Source/TransformFunctions/arm_cfft_radix4_f32.c ****             pSrc[(2U * i0)] = Xaplusc + Xbplusd;
 351:../Dave/Generated/CMSIS_DSP/Source/TransformFunctions/arm_cfft_radix4_f32.c ****             pSrc[(2U * i0) + 1U] = Yaplusc + Ybplusd;
 352:../Dave/Generated/CMSIS_DSP/Source/TransformFunctions/arm_cfft_radix4_f32.c **** 
 353:../Dave/Generated/CMSIS_DSP/Source/TransformFunctions/arm_cfft_radix4_f32.c ****             Xb12_out = Xb12C_out * co1;
 354:../Dave/Generated/CMSIS_DSP/Source/TransformFunctions/arm_cfft_radix4_f32.c ****             Yb12_out = Yb12C_out * co1;
 355:../Dave/Generated/CMSIS_DSP/Source/TransformFunctions/arm_cfft_radix4_f32.c ****             Xc12_out = Xc12C_out * co2;
 356:../Dave/Generated/CMSIS_DSP/Source/TransformFunctions/arm_cfft_radix4_f32.c ****             Yc12_out = Yc12C_out * co2;
 357:../Dave/Generated/CMSIS_DSP/Source/TransformFunctions/arm_cfft_radix4_f32.c ****             Xd12_out = Xd12C_out * co3;
 358:../Dave/Generated/CMSIS_DSP/Source/TransformFunctions/arm_cfft_radix4_f32.c ****             Yd12_out = Yd12C_out * co3;
 359:../Dave/Generated/CMSIS_DSP/Source/TransformFunctions/arm_cfft_radix4_f32.c **** 
 360:../Dave/Generated/CMSIS_DSP/Source/TransformFunctions/arm_cfft_radix4_f32.c ****             /* xb' = (xa+yb-xc-yd)co1 - (ya-xb-yc+xd)(si1) */
 361:../Dave/Generated/CMSIS_DSP/Source/TransformFunctions/arm_cfft_radix4_f32.c ****             //Xb12_out -= Yb12C_out * si1;
 362:../Dave/Generated/CMSIS_DSP/Source/TransformFunctions/arm_cfft_radix4_f32.c ****             p0 = Yb12C_out * si1;
 363:../Dave/Generated/CMSIS_DSP/Source/TransformFunctions/arm_cfft_radix4_f32.c ****             /* yb' = (ya-xb-yc+xd)co1 + (xa+yb-xc-yd)(si1) */
 364:../Dave/Generated/CMSIS_DSP/Source/TransformFunctions/arm_cfft_radix4_f32.c ****             //Yb12_out += Xb12C_out * si1;
 365:../Dave/Generated/CMSIS_DSP/Source/TransformFunctions/arm_cfft_radix4_f32.c ****             p1 = Xb12C_out * si1;
 366:../Dave/Generated/CMSIS_DSP/Source/TransformFunctions/arm_cfft_radix4_f32.c ****             /* xc' = (xa-xb+xc-xd)co2 - (ya-yb+yc-yd)(si2) */
 367:../Dave/Generated/CMSIS_DSP/Source/TransformFunctions/arm_cfft_radix4_f32.c ****             //Xc12_out -= Yc12C_out * si2;
 368:../Dave/Generated/CMSIS_DSP/Source/TransformFunctions/arm_cfft_radix4_f32.c ****             p2 = Yc12C_out * si2;
 369:../Dave/Generated/CMSIS_DSP/Source/TransformFunctions/arm_cfft_radix4_f32.c ****             /* yc' = (ya-yb+yc-yd)co2 + (xa-xb+xc-xd)(si2) */
 370:../Dave/Generated/CMSIS_DSP/Source/TransformFunctions/arm_cfft_radix4_f32.c ****             //Yc12_out += Xc12C_out * si2;
 371:../Dave/Generated/CMSIS_DSP/Source/TransformFunctions/arm_cfft_radix4_f32.c ****             p3 = Xc12C_out * si2;
 372:../Dave/Generated/CMSIS_DSP/Source/TransformFunctions/arm_cfft_radix4_f32.c ****             /* xd' = (xa-yb-xc+yd)co3 - (ya+xb-yc-xd)(si3) */
 373:../Dave/Generated/CMSIS_DSP/Source/TransformFunctions/arm_cfft_radix4_f32.c ****             //Xd12_out -= Yd12C_out * si3;
 374:../Dave/Generated/CMSIS_DSP/Source/TransformFunctions/arm_cfft_radix4_f32.c ****             p4 = Yd12C_out * si3;
 375:../Dave/Generated/CMSIS_DSP/Source/TransformFunctions/arm_cfft_radix4_f32.c ****             /* yd' = (ya+xb-yc-xd)co3 + (xa-yb-xc+yd)(si3) */
 376:../Dave/Generated/CMSIS_DSP/Source/TransformFunctions/arm_cfft_radix4_f32.c ****             //Yd12_out += Xd12C_out * si3;
 377:../Dave/Generated/CMSIS_DSP/Source/TransformFunctions/arm_cfft_radix4_f32.c ****             p5 = Xd12C_out * si3;
 378:../Dave/Generated/CMSIS_DSP/Source/TransformFunctions/arm_cfft_radix4_f32.c **** 
 379:../Dave/Generated/CMSIS_DSP/Source/TransformFunctions/arm_cfft_radix4_f32.c ****             Xb12_out += p0;
 380:../Dave/Generated/CMSIS_DSP/Source/TransformFunctions/arm_cfft_radix4_f32.c ****             Yb12_out -= p1;
 381:../Dave/Generated/CMSIS_DSP/Source/TransformFunctions/arm_cfft_radix4_f32.c ****             Xc12_out += p2;
 382:../Dave/Generated/CMSIS_DSP/Source/TransformFunctions/arm_cfft_radix4_f32.c ****             Yc12_out -= p3;
 383:../Dave/Generated/CMSIS_DSP/Source/TransformFunctions/arm_cfft_radix4_f32.c ****             Xd12_out += p4;
 384:../Dave/Generated/CMSIS_DSP/Source/TransformFunctions/arm_cfft_radix4_f32.c ****             Yd12_out -= p5;
 385:../Dave/Generated/CMSIS_DSP/Source/TransformFunctions/arm_cfft_radix4_f32.c **** 
 386:../Dave/Generated/CMSIS_DSP/Source/TransformFunctions/arm_cfft_radix4_f32.c ****             /* xc' = (xa-xb+xc-xd)co2 + (ya-yb+yc-yd)(si2) */
 387:../Dave/Generated/CMSIS_DSP/Source/TransformFunctions/arm_cfft_radix4_f32.c ****             pSrc[2U * i1] = Xc12_out;
 388:../Dave/Generated/CMSIS_DSP/Source/TransformFunctions/arm_cfft_radix4_f32.c **** 
 389:../Dave/Generated/CMSIS_DSP/Source/TransformFunctions/arm_cfft_radix4_f32.c ****             /* yc' = (ya-yb+yc-yd)co2 - (xa-xb+xc-xd)(si2) */
 390:../Dave/Generated/CMSIS_DSP/Source/TransformFunctions/arm_cfft_radix4_f32.c ****             pSrc[(2U * i1) + 1U] = Yc12_out;
 391:../Dave/Generated/CMSIS_DSP/Source/TransformFunctions/arm_cfft_radix4_f32.c **** 
 392:../Dave/Generated/CMSIS_DSP/Source/TransformFunctions/arm_cfft_radix4_f32.c ****             /* xb' = (xa+yb-xc-yd)co1 + (ya-xb-yc+xd)(si1) */
 393:../Dave/Generated/CMSIS_DSP/Source/TransformFunctions/arm_cfft_radix4_f32.c ****             pSrc[2U * i2] = Xb12_out;
 394:../Dave/Generated/CMSIS_DSP/Source/TransformFunctions/arm_cfft_radix4_f32.c **** 
 395:../Dave/Generated/CMSIS_DSP/Source/TransformFunctions/arm_cfft_radix4_f32.c ****             /* yb' = (ya-xb-yc+xd)co1 - (xa+yb-xc-yd)(si1) */
 396:../Dave/Generated/CMSIS_DSP/Source/TransformFunctions/arm_cfft_radix4_f32.c ****             pSrc[(2U * i2) + 1U] = Yb12_out;
 397:../Dave/Generated/CMSIS_DSP/Source/TransformFunctions/arm_cfft_radix4_f32.c **** 
 398:../Dave/Generated/CMSIS_DSP/Source/TransformFunctions/arm_cfft_radix4_f32.c ****             /* xd' = (xa-yb-xc+yd)co3 + (ya+xb-yc-xd)(si3) */
 399:../Dave/Generated/CMSIS_DSP/Source/TransformFunctions/arm_cfft_radix4_f32.c ****             pSrc[2U * i3] = Xd12_out;
 400:../Dave/Generated/CMSIS_DSP/Source/TransformFunctions/arm_cfft_radix4_f32.c **** 
 401:../Dave/Generated/CMSIS_DSP/Source/TransformFunctions/arm_cfft_radix4_f32.c ****             /* yd' = (ya+xb-yc-xd)co3 - (xa-yb-xc+yd)(si3) */
 402:../Dave/Generated/CMSIS_DSP/Source/TransformFunctions/arm_cfft_radix4_f32.c ****             pSrc[(2U * i3) + 1U] = Yd12_out;
 403:../Dave/Generated/CMSIS_DSP/Source/TransformFunctions/arm_cfft_radix4_f32.c **** 
 404:../Dave/Generated/CMSIS_DSP/Source/TransformFunctions/arm_cfft_radix4_f32.c ****             i0 += n1;
 405:../Dave/Generated/CMSIS_DSP/Source/TransformFunctions/arm_cfft_radix4_f32.c ****          } while (i0 < fftLen);
 406:../Dave/Generated/CMSIS_DSP/Source/TransformFunctions/arm_cfft_radix4_f32.c ****          j++;
 407:../Dave/Generated/CMSIS_DSP/Source/TransformFunctions/arm_cfft_radix4_f32.c ****       } while (j <= (n2 - 1U));
 408:../Dave/Generated/CMSIS_DSP/Source/TransformFunctions/arm_cfft_radix4_f32.c ****       twidCoefModifier <<= 2U;
 409:../Dave/Generated/CMSIS_DSP/Source/TransformFunctions/arm_cfft_radix4_f32.c ****    }
 410:../Dave/Generated/CMSIS_DSP/Source/TransformFunctions/arm_cfft_radix4_f32.c **** 
 411:../Dave/Generated/CMSIS_DSP/Source/TransformFunctions/arm_cfft_radix4_f32.c ****    j = fftLen >> 2;
 412:../Dave/Generated/CMSIS_DSP/Source/TransformFunctions/arm_cfft_radix4_f32.c ****    ptr1 = &pSrc[0];
 413:../Dave/Generated/CMSIS_DSP/Source/TransformFunctions/arm_cfft_radix4_f32.c **** 
 414:../Dave/Generated/CMSIS_DSP/Source/TransformFunctions/arm_cfft_radix4_f32.c ****    /*  Calculations of last stage */
 415:../Dave/Generated/CMSIS_DSP/Source/TransformFunctions/arm_cfft_radix4_f32.c ****    do
 416:../Dave/Generated/CMSIS_DSP/Source/TransformFunctions/arm_cfft_radix4_f32.c ****    {
 417:../Dave/Generated/CMSIS_DSP/Source/TransformFunctions/arm_cfft_radix4_f32.c ****       xaIn = ptr1[0];
 418:../Dave/Generated/CMSIS_DSP/Source/TransformFunctions/arm_cfft_radix4_f32.c ****       yaIn = ptr1[1];
 419:../Dave/Generated/CMSIS_DSP/Source/TransformFunctions/arm_cfft_radix4_f32.c ****       xbIn = ptr1[2];
 420:../Dave/Generated/CMSIS_DSP/Source/TransformFunctions/arm_cfft_radix4_f32.c ****       ybIn = ptr1[3];
 421:../Dave/Generated/CMSIS_DSP/Source/TransformFunctions/arm_cfft_radix4_f32.c ****       xcIn = ptr1[4];
 422:../Dave/Generated/CMSIS_DSP/Source/TransformFunctions/arm_cfft_radix4_f32.c ****       ycIn = ptr1[5];
 423:../Dave/Generated/CMSIS_DSP/Source/TransformFunctions/arm_cfft_radix4_f32.c ****       xdIn = ptr1[6];
 424:../Dave/Generated/CMSIS_DSP/Source/TransformFunctions/arm_cfft_radix4_f32.c ****       ydIn = ptr1[7];
 425:../Dave/Generated/CMSIS_DSP/Source/TransformFunctions/arm_cfft_radix4_f32.c **** 
 426:../Dave/Generated/CMSIS_DSP/Source/TransformFunctions/arm_cfft_radix4_f32.c ****       /* xa + xc */
 427:../Dave/Generated/CMSIS_DSP/Source/TransformFunctions/arm_cfft_radix4_f32.c ****       Xaplusc = xaIn + xcIn;
 428:../Dave/Generated/CMSIS_DSP/Source/TransformFunctions/arm_cfft_radix4_f32.c **** 
 429:../Dave/Generated/CMSIS_DSP/Source/TransformFunctions/arm_cfft_radix4_f32.c ****       /* xa - xc */
 430:../Dave/Generated/CMSIS_DSP/Source/TransformFunctions/arm_cfft_radix4_f32.c ****       Xaminusc = xaIn - xcIn;
 431:../Dave/Generated/CMSIS_DSP/Source/TransformFunctions/arm_cfft_radix4_f32.c **** 
 432:../Dave/Generated/CMSIS_DSP/Source/TransformFunctions/arm_cfft_radix4_f32.c ****       /* ya + yc */
 433:../Dave/Generated/CMSIS_DSP/Source/TransformFunctions/arm_cfft_radix4_f32.c ****       Yaplusc = yaIn + ycIn;
 434:../Dave/Generated/CMSIS_DSP/Source/TransformFunctions/arm_cfft_radix4_f32.c **** 
 435:../Dave/Generated/CMSIS_DSP/Source/TransformFunctions/arm_cfft_radix4_f32.c ****       /* ya - yc */
 436:../Dave/Generated/CMSIS_DSP/Source/TransformFunctions/arm_cfft_radix4_f32.c ****       Yaminusc = yaIn - ycIn;
 437:../Dave/Generated/CMSIS_DSP/Source/TransformFunctions/arm_cfft_radix4_f32.c **** 
 438:../Dave/Generated/CMSIS_DSP/Source/TransformFunctions/arm_cfft_radix4_f32.c ****       /* xb + xd */
 439:../Dave/Generated/CMSIS_DSP/Source/TransformFunctions/arm_cfft_radix4_f32.c ****       Xbplusd = xbIn + xdIn;
 440:../Dave/Generated/CMSIS_DSP/Source/TransformFunctions/arm_cfft_radix4_f32.c **** 
 441:../Dave/Generated/CMSIS_DSP/Source/TransformFunctions/arm_cfft_radix4_f32.c ****       /* yb + yd */
 442:../Dave/Generated/CMSIS_DSP/Source/TransformFunctions/arm_cfft_radix4_f32.c ****       Ybplusd = ybIn + ydIn;
 443:../Dave/Generated/CMSIS_DSP/Source/TransformFunctions/arm_cfft_radix4_f32.c **** 
 444:../Dave/Generated/CMSIS_DSP/Source/TransformFunctions/arm_cfft_radix4_f32.c ****       /* (xb-xd) */
 445:../Dave/Generated/CMSIS_DSP/Source/TransformFunctions/arm_cfft_radix4_f32.c ****       Xbminusd = xbIn - xdIn;
 446:../Dave/Generated/CMSIS_DSP/Source/TransformFunctions/arm_cfft_radix4_f32.c **** 
 447:../Dave/Generated/CMSIS_DSP/Source/TransformFunctions/arm_cfft_radix4_f32.c ****       /* (yb-yd) */
 448:../Dave/Generated/CMSIS_DSP/Source/TransformFunctions/arm_cfft_radix4_f32.c ****       Ybminusd = ybIn - ydIn;
 449:../Dave/Generated/CMSIS_DSP/Source/TransformFunctions/arm_cfft_radix4_f32.c **** 
 450:../Dave/Generated/CMSIS_DSP/Source/TransformFunctions/arm_cfft_radix4_f32.c ****       /* xa' = xa + xb + xc + xd */
 451:../Dave/Generated/CMSIS_DSP/Source/TransformFunctions/arm_cfft_radix4_f32.c ****       a0 = (Xaplusc + Xbplusd);
 452:../Dave/Generated/CMSIS_DSP/Source/TransformFunctions/arm_cfft_radix4_f32.c ****       /* ya' = ya + yb + yc + yd */
 453:../Dave/Generated/CMSIS_DSP/Source/TransformFunctions/arm_cfft_radix4_f32.c ****       a1 = (Yaplusc + Ybplusd);
 454:../Dave/Generated/CMSIS_DSP/Source/TransformFunctions/arm_cfft_radix4_f32.c ****       /* xc' = (xa-xb+xc-xd) */
 455:../Dave/Generated/CMSIS_DSP/Source/TransformFunctions/arm_cfft_radix4_f32.c ****       a2 = (Xaplusc - Xbplusd);
 456:../Dave/Generated/CMSIS_DSP/Source/TransformFunctions/arm_cfft_radix4_f32.c ****       /* yc' = (ya-yb+yc-yd) */
 457:../Dave/Generated/CMSIS_DSP/Source/TransformFunctions/arm_cfft_radix4_f32.c ****       a3 = (Yaplusc - Ybplusd);
 458:../Dave/Generated/CMSIS_DSP/Source/TransformFunctions/arm_cfft_radix4_f32.c ****       /* xb' = (xa+yb-xc-yd) */
 459:../Dave/Generated/CMSIS_DSP/Source/TransformFunctions/arm_cfft_radix4_f32.c ****       a4 = (Xaminusc + Ybminusd);
 460:../Dave/Generated/CMSIS_DSP/Source/TransformFunctions/arm_cfft_radix4_f32.c ****       /* yb' = (ya-xb-yc+xd) */
 461:../Dave/Generated/CMSIS_DSP/Source/TransformFunctions/arm_cfft_radix4_f32.c ****       a5 = (Yaminusc - Xbminusd);
 462:../Dave/Generated/CMSIS_DSP/Source/TransformFunctions/arm_cfft_radix4_f32.c ****       /* xd' = (xa-yb-xc+yd)) */
 463:../Dave/Generated/CMSIS_DSP/Source/TransformFunctions/arm_cfft_radix4_f32.c ****       a6 = (Xaminusc - Ybminusd);
 464:../Dave/Generated/CMSIS_DSP/Source/TransformFunctions/arm_cfft_radix4_f32.c ****       /* yd' = (ya+xb-yc-xd) */
 465:../Dave/Generated/CMSIS_DSP/Source/TransformFunctions/arm_cfft_radix4_f32.c ****       a7 = (Xbminusd + Yaminusc);
 466:../Dave/Generated/CMSIS_DSP/Source/TransformFunctions/arm_cfft_radix4_f32.c **** 
 467:../Dave/Generated/CMSIS_DSP/Source/TransformFunctions/arm_cfft_radix4_f32.c ****       ptr1[0] = a0;
 468:../Dave/Generated/CMSIS_DSP/Source/TransformFunctions/arm_cfft_radix4_f32.c ****       ptr1[1] = a1;
 469:../Dave/Generated/CMSIS_DSP/Source/TransformFunctions/arm_cfft_radix4_f32.c ****       ptr1[2] = a2;
 470:../Dave/Generated/CMSIS_DSP/Source/TransformFunctions/arm_cfft_radix4_f32.c ****       ptr1[3] = a3;
 471:../Dave/Generated/CMSIS_DSP/Source/TransformFunctions/arm_cfft_radix4_f32.c ****       ptr1[4] = a4;
 472:../Dave/Generated/CMSIS_DSP/Source/TransformFunctions/arm_cfft_radix4_f32.c ****       ptr1[5] = a5;
 473:../Dave/Generated/CMSIS_DSP/Source/TransformFunctions/arm_cfft_radix4_f32.c ****       ptr1[6] = a6;
 474:../Dave/Generated/CMSIS_DSP/Source/TransformFunctions/arm_cfft_radix4_f32.c ****       ptr1[7] = a7;
 475:../Dave/Generated/CMSIS_DSP/Source/TransformFunctions/arm_cfft_radix4_f32.c **** 
 476:../Dave/Generated/CMSIS_DSP/Source/TransformFunctions/arm_cfft_radix4_f32.c ****       /* increment pointer by 8 */
 477:../Dave/Generated/CMSIS_DSP/Source/TransformFunctions/arm_cfft_radix4_f32.c ****       ptr1 += 8U;
 478:../Dave/Generated/CMSIS_DSP/Source/TransformFunctions/arm_cfft_radix4_f32.c ****    } while (--j);
 479:../Dave/Generated/CMSIS_DSP/Source/TransformFunctions/arm_cfft_radix4_f32.c **** 
 480:../Dave/Generated/CMSIS_DSP/Source/TransformFunctions/arm_cfft_radix4_f32.c **** #else
 481:../Dave/Generated/CMSIS_DSP/Source/TransformFunctions/arm_cfft_radix4_f32.c **** 
 482:../Dave/Generated/CMSIS_DSP/Source/TransformFunctions/arm_cfft_radix4_f32.c ****         float32_t t1, t2, r1, r2, s1, s2;
 483:../Dave/Generated/CMSIS_DSP/Source/TransformFunctions/arm_cfft_radix4_f32.c **** 
 484:../Dave/Generated/CMSIS_DSP/Source/TransformFunctions/arm_cfft_radix4_f32.c ****    /* Initializations for the fft calculation */
 485:../Dave/Generated/CMSIS_DSP/Source/TransformFunctions/arm_cfft_radix4_f32.c ****    n2 = fftLen;
 133              	 .loc 1 485 0
 134 0014 7B89     	 ldrh r3,[r7,#10]
 135 0016 7B66     	 str r3,[r7,#100]
 486:../Dave/Generated/CMSIS_DSP/Source/TransformFunctions/arm_cfft_radix4_f32.c ****    n1 = n2;
 136              	 .loc 1 486 0
 137 0018 7B6E     	 ldr r3,[r7,#100]
 138 001a BB65     	 str r3,[r7,#88]
 487:../Dave/Generated/CMSIS_DSP/Source/TransformFunctions/arm_cfft_radix4_f32.c ****    for (k = fftLen; k > 1U; k >>= 2U)
 139              	 .loc 1 487 0
 140 001c 7B89     	 ldrh r3,[r7,#10]
 141 001e FB65     	 str r3,[r7,#92]
 142 0020 ADE1     	 b .L6
 143              	.L9:
 488:../Dave/Generated/CMSIS_DSP/Source/TransformFunctions/arm_cfft_radix4_f32.c ****    {
 489:../Dave/Generated/CMSIS_DSP/Source/TransformFunctions/arm_cfft_radix4_f32.c ****       /*  Initializations for the fft calculation */
 490:../Dave/Generated/CMSIS_DSP/Source/TransformFunctions/arm_cfft_radix4_f32.c ****       n1 = n2;
 144              	 .loc 1 490 0
 145 0022 7B6E     	 ldr r3,[r7,#100]
 146 0024 BB65     	 str r3,[r7,#88]
 491:../Dave/Generated/CMSIS_DSP/Source/TransformFunctions/arm_cfft_radix4_f32.c ****       n2 >>= 2U;
 147              	 .loc 1 491 0
 148 0026 7B6E     	 ldr r3,[r7,#100]
 149 0028 9B08     	 lsrs r3,r3,#2
 150 002a 7B66     	 str r3,[r7,#100]
 492:../Dave/Generated/CMSIS_DSP/Source/TransformFunctions/arm_cfft_radix4_f32.c ****       ia1 = 0U;
 151              	 .loc 1 492 0
 152 002c 0023     	 movs r3,#0
 153 002e FB66     	 str r3,[r7,#108]
 493:../Dave/Generated/CMSIS_DSP/Source/TransformFunctions/arm_cfft_radix4_f32.c **** 
 494:../Dave/Generated/CMSIS_DSP/Source/TransformFunctions/arm_cfft_radix4_f32.c ****       /*  FFT Calculation */
 495:../Dave/Generated/CMSIS_DSP/Source/TransformFunctions/arm_cfft_radix4_f32.c ****       j = 0;
 154              	 .loc 1 495 0
 155 0030 0023     	 movs r3,#0
 156 0032 3B66     	 str r3,[r7,#96]
 157              	.L8:
 496:../Dave/Generated/CMSIS_DSP/Source/TransformFunctions/arm_cfft_radix4_f32.c ****       do
 497:../Dave/Generated/CMSIS_DSP/Source/TransformFunctions/arm_cfft_radix4_f32.c ****       {
 498:../Dave/Generated/CMSIS_DSP/Source/TransformFunctions/arm_cfft_radix4_f32.c ****          /*  index calculation for the coefficients */
 499:../Dave/Generated/CMSIS_DSP/Source/TransformFunctions/arm_cfft_radix4_f32.c ****          ia2 = ia1 + ia1;
 158              	 .loc 1 499 0
 159 0034 FA6E     	 ldr r2,[r7,#108]
 160 0036 FB6E     	 ldr r3,[r7,#108]
 161 0038 1344     	 add r3,r3,r2
 162 003a 7B65     	 str r3,[r7,#84]
 500:../Dave/Generated/CMSIS_DSP/Source/TransformFunctions/arm_cfft_radix4_f32.c ****          ia3 = ia2 + ia1;
 163              	 .loc 1 500 0
 164 003c 7A6D     	 ldr r2,[r7,#84]
 165 003e FB6E     	 ldr r3,[r7,#108]
 166 0040 1344     	 add r3,r3,r2
 167 0042 3B65     	 str r3,[r7,#80]
 501:../Dave/Generated/CMSIS_DSP/Source/TransformFunctions/arm_cfft_radix4_f32.c ****          co1 = pCoef[ia1 * 2U];
 168              	 .loc 1 501 0
 169 0044 FB6E     	 ldr r3,[r7,#108]
 170 0046 DB00     	 lsls r3,r3,#3
 171 0048 7A68     	 ldr r2,[r7,#4]
 172 004a 1344     	 add r3,r3,r2
 173 004c 1B68     	 ldr r3,[r3]
 174 004e FB64     	 str r3,[r7,#76]
 502:../Dave/Generated/CMSIS_DSP/Source/TransformFunctions/arm_cfft_radix4_f32.c ****          si1 = pCoef[(ia1 * 2U) + 1U];
 175              	 .loc 1 502 0
 176 0050 FB6E     	 ldr r3,[r7,#108]
 177 0052 DB00     	 lsls r3,r3,#3
 178 0054 0433     	 adds r3,r3,#4
 179 0056 7A68     	 ldr r2,[r7,#4]
 180 0058 1344     	 add r3,r3,r2
 181 005a 1B68     	 ldr r3,[r3]
 182 005c BB64     	 str r3,[r7,#72]
 503:../Dave/Generated/CMSIS_DSP/Source/TransformFunctions/arm_cfft_radix4_f32.c ****          co2 = pCoef[ia2 * 2U];
 183              	 .loc 1 503 0
 184 005e 7B6D     	 ldr r3,[r7,#84]
 185 0060 DB00     	 lsls r3,r3,#3
 186 0062 7A68     	 ldr r2,[r7,#4]
 187 0064 1344     	 add r3,r3,r2
 188 0066 1B68     	 ldr r3,[r3]
 189 0068 7B64     	 str r3,[r7,#68]
 504:../Dave/Generated/CMSIS_DSP/Source/TransformFunctions/arm_cfft_radix4_f32.c ****          si2 = pCoef[(ia2 * 2U) + 1U];
 190              	 .loc 1 504 0
 191 006a 7B6D     	 ldr r3,[r7,#84]
 192 006c DB00     	 lsls r3,r3,#3
 193 006e 0433     	 adds r3,r3,#4
 194 0070 7A68     	 ldr r2,[r7,#4]
 195 0072 1344     	 add r3,r3,r2
 196 0074 1B68     	 ldr r3,[r3]
 197 0076 3B64     	 str r3,[r7,#64]
 505:../Dave/Generated/CMSIS_DSP/Source/TransformFunctions/arm_cfft_radix4_f32.c ****          co3 = pCoef[ia3 * 2U];
 198              	 .loc 1 505 0
 199 0078 3B6D     	 ldr r3,[r7,#80]
 200 007a DB00     	 lsls r3,r3,#3
 201 007c 7A68     	 ldr r2,[r7,#4]
 202 007e 1344     	 add r3,r3,r2
 203 0080 1B68     	 ldr r3,[r3]
 204 0082 FB63     	 str r3,[r7,#60]
 506:../Dave/Generated/CMSIS_DSP/Source/TransformFunctions/arm_cfft_radix4_f32.c ****          si3 = pCoef[(ia3 * 2U) + 1U];
 205              	 .loc 1 506 0
 206 0084 3B6D     	 ldr r3,[r7,#80]
 207 0086 DB00     	 lsls r3,r3,#3
 208 0088 0433     	 adds r3,r3,#4
 209 008a 7A68     	 ldr r2,[r7,#4]
 210 008c 1344     	 add r3,r3,r2
 211 008e 1B68     	 ldr r3,[r3]
 212 0090 BB63     	 str r3,[r7,#56]
 507:../Dave/Generated/CMSIS_DSP/Source/TransformFunctions/arm_cfft_radix4_f32.c **** 
 508:../Dave/Generated/CMSIS_DSP/Source/TransformFunctions/arm_cfft_radix4_f32.c ****          /*  Twiddle coefficients index modifier */
 509:../Dave/Generated/CMSIS_DSP/Source/TransformFunctions/arm_cfft_radix4_f32.c ****          ia1 = ia1 + twidCoefModifier;
 213              	 .loc 1 509 0
 214 0092 3B89     	 ldrh r3,[r7,#8]
 215 0094 FA6E     	 ldr r2,[r7,#108]
 216 0096 1344     	 add r3,r3,r2
 217 0098 FB66     	 str r3,[r7,#108]
 510:../Dave/Generated/CMSIS_DSP/Source/TransformFunctions/arm_cfft_radix4_f32.c **** 
 511:../Dave/Generated/CMSIS_DSP/Source/TransformFunctions/arm_cfft_radix4_f32.c ****          i0 = j;
 218              	 .loc 1 511 0
 219 009a 3B6E     	 ldr r3,[r7,#96]
 220 009c BB66     	 str r3,[r7,#104]
 221              	.L7:
 512:../Dave/Generated/CMSIS_DSP/Source/TransformFunctions/arm_cfft_radix4_f32.c ****          do
 513:../Dave/Generated/CMSIS_DSP/Source/TransformFunctions/arm_cfft_radix4_f32.c ****          {
 514:../Dave/Generated/CMSIS_DSP/Source/TransformFunctions/arm_cfft_radix4_f32.c ****             /*  index calculation for the input as, */
 515:../Dave/Generated/CMSIS_DSP/Source/TransformFunctions/arm_cfft_radix4_f32.c ****             /*  pSrc[i0 + 0], pSrc[i0 + fftLen/4], pSrc[i0 + fftLen/2], pSrc[i0 + 3fftLen/4] */
 516:../Dave/Generated/CMSIS_DSP/Source/TransformFunctions/arm_cfft_radix4_f32.c ****             i1 = i0 + n2;
 222              	 .loc 1 516 0 discriminator 1
 223 009e BA6E     	 ldr r2,[r7,#104]
 224 00a0 7B6E     	 ldr r3,[r7,#100]
 225 00a2 1344     	 add r3,r3,r2
 226 00a4 7B63     	 str r3,[r7,#52]
 517:../Dave/Generated/CMSIS_DSP/Source/TransformFunctions/arm_cfft_radix4_f32.c ****             i2 = i1 + n2;
 227              	 .loc 1 517 0 discriminator 1
 228 00a6 7A6B     	 ldr r2,[r7,#52]
 229 00a8 7B6E     	 ldr r3,[r7,#100]
 230 00aa 1344     	 add r3,r3,r2
 231 00ac 3B63     	 str r3,[r7,#48]
 518:../Dave/Generated/CMSIS_DSP/Source/TransformFunctions/arm_cfft_radix4_f32.c ****             i3 = i2 + n2;
 232              	 .loc 1 518 0 discriminator 1
 233 00ae 3A6B     	 ldr r2,[r7,#48]
 234 00b0 7B6E     	 ldr r3,[r7,#100]
 235 00b2 1344     	 add r3,r3,r2
 236 00b4 FB62     	 str r3,[r7,#44]
 519:../Dave/Generated/CMSIS_DSP/Source/TransformFunctions/arm_cfft_radix4_f32.c **** 
 520:../Dave/Generated/CMSIS_DSP/Source/TransformFunctions/arm_cfft_radix4_f32.c ****             /* xa + xc */
 521:../Dave/Generated/CMSIS_DSP/Source/TransformFunctions/arm_cfft_radix4_f32.c ****             r1 = pSrc[(2U * i0)] + pSrc[(2U * i2)];
 237              	 .loc 1 521 0 discriminator 1
 238 00b6 BB6E     	 ldr r3,[r7,#104]
 239 00b8 DB00     	 lsls r3,r3,#3
 240 00ba FA68     	 ldr r2,[r7,#12]
 241 00bc 1344     	 add r3,r3,r2
 242 00be 93ED007A 	 flds s14,[r3]
 243 00c2 3B6B     	 ldr r3,[r7,#48]
 244 00c4 DB00     	 lsls r3,r3,#3
 245 00c6 FA68     	 ldr r2,[r7,#12]
 246 00c8 1344     	 add r3,r3,r2
 247 00ca D3ED007A 	 flds s15,[r3]
 248 00ce 77EE277A 	 fadds s15,s14,s15
 249 00d2 C7ED0A7A 	 fsts s15,[r7,#40]
 522:../Dave/Generated/CMSIS_DSP/Source/TransformFunctions/arm_cfft_radix4_f32.c **** 
 523:../Dave/Generated/CMSIS_DSP/Source/TransformFunctions/arm_cfft_radix4_f32.c ****             /* xa - xc */
 524:../Dave/Generated/CMSIS_DSP/Source/TransformFunctions/arm_cfft_radix4_f32.c ****             r2 = pSrc[(2U * i0)] - pSrc[(2U * i2)];
 250              	 .loc 1 524 0 discriminator 1
 251 00d6 BB6E     	 ldr r3,[r7,#104]
 252 00d8 DB00     	 lsls r3,r3,#3
 253 00da FA68     	 ldr r2,[r7,#12]
 254 00dc 1344     	 add r3,r3,r2
 255 00de 93ED007A 	 flds s14,[r3]
 256 00e2 3B6B     	 ldr r3,[r7,#48]
 257 00e4 DB00     	 lsls r3,r3,#3
 258 00e6 FA68     	 ldr r2,[r7,#12]
 259 00e8 1344     	 add r3,r3,r2
 260 00ea D3ED007A 	 flds s15,[r3]
 261 00ee 77EE677A 	 fsubs s15,s14,s15
 262 00f2 C7ED097A 	 fsts s15,[r7,#36]
 525:../Dave/Generated/CMSIS_DSP/Source/TransformFunctions/arm_cfft_radix4_f32.c **** 
 526:../Dave/Generated/CMSIS_DSP/Source/TransformFunctions/arm_cfft_radix4_f32.c ****             /* ya + yc */
 527:../Dave/Generated/CMSIS_DSP/Source/TransformFunctions/arm_cfft_radix4_f32.c ****             s1 = pSrc[(2U * i0) + 1U] + pSrc[(2U * i2) + 1U];
 263              	 .loc 1 527 0 discriminator 1
 264 00f6 BB6E     	 ldr r3,[r7,#104]
 265 00f8 DB00     	 lsls r3,r3,#3
 266 00fa 0433     	 adds r3,r3,#4
 267 00fc FA68     	 ldr r2,[r7,#12]
 268 00fe 1344     	 add r3,r3,r2
 269 0100 93ED007A 	 flds s14,[r3]
 270 0104 3B6B     	 ldr r3,[r7,#48]
 271 0106 DB00     	 lsls r3,r3,#3
 272 0108 0433     	 adds r3,r3,#4
 273 010a FA68     	 ldr r2,[r7,#12]
 274 010c 1344     	 add r3,r3,r2
 275 010e D3ED007A 	 flds s15,[r3]
 276 0112 77EE277A 	 fadds s15,s14,s15
 277 0116 C7ED087A 	 fsts s15,[r7,#32]
 528:../Dave/Generated/CMSIS_DSP/Source/TransformFunctions/arm_cfft_radix4_f32.c **** 
 529:../Dave/Generated/CMSIS_DSP/Source/TransformFunctions/arm_cfft_radix4_f32.c ****             /* ya - yc */
 530:../Dave/Generated/CMSIS_DSP/Source/TransformFunctions/arm_cfft_radix4_f32.c ****             s2 = pSrc[(2U * i0) + 1U] - pSrc[(2U * i2) + 1U];
 278              	 .loc 1 530 0 discriminator 1
 279 011a BB6E     	 ldr r3,[r7,#104]
 280 011c DB00     	 lsls r3,r3,#3
 281 011e 0433     	 adds r3,r3,#4
 282 0120 FA68     	 ldr r2,[r7,#12]
 283 0122 1344     	 add r3,r3,r2
 284 0124 93ED007A 	 flds s14,[r3]
 285 0128 3B6B     	 ldr r3,[r7,#48]
 286 012a DB00     	 lsls r3,r3,#3
 287 012c 0433     	 adds r3,r3,#4
 288 012e FA68     	 ldr r2,[r7,#12]
 289 0130 1344     	 add r3,r3,r2
 290 0132 D3ED007A 	 flds s15,[r3]
 291 0136 77EE677A 	 fsubs s15,s14,s15
 292 013a C7ED077A 	 fsts s15,[r7,#28]
 531:../Dave/Generated/CMSIS_DSP/Source/TransformFunctions/arm_cfft_radix4_f32.c **** 
 532:../Dave/Generated/CMSIS_DSP/Source/TransformFunctions/arm_cfft_radix4_f32.c ****             /* xb + xd */
 533:../Dave/Generated/CMSIS_DSP/Source/TransformFunctions/arm_cfft_radix4_f32.c ****             t1 = pSrc[2U * i1] + pSrc[2U * i3];
 293              	 .loc 1 533 0 discriminator 1
 294 013e 7B6B     	 ldr r3,[r7,#52]
 295 0140 DB00     	 lsls r3,r3,#3
 296 0142 FA68     	 ldr r2,[r7,#12]
 297 0144 1344     	 add r3,r3,r2
 298 0146 93ED007A 	 flds s14,[r3]
 299 014a FB6A     	 ldr r3,[r7,#44]
 300 014c DB00     	 lsls r3,r3,#3
 301 014e FA68     	 ldr r2,[r7,#12]
 302 0150 1344     	 add r3,r3,r2
 303 0152 D3ED007A 	 flds s15,[r3]
 304 0156 77EE277A 	 fadds s15,s14,s15
 305 015a C7ED067A 	 fsts s15,[r7,#24]
 534:../Dave/Generated/CMSIS_DSP/Source/TransformFunctions/arm_cfft_radix4_f32.c **** 
 535:../Dave/Generated/CMSIS_DSP/Source/TransformFunctions/arm_cfft_radix4_f32.c ****             /* xa' = xa + xb + xc + xd */
 536:../Dave/Generated/CMSIS_DSP/Source/TransformFunctions/arm_cfft_radix4_f32.c ****             pSrc[2U * i0] = r1 + t1;
 306              	 .loc 1 536 0 discriminator 1
 307 015e BB6E     	 ldr r3,[r7,#104]
 308 0160 DB00     	 lsls r3,r3,#3
 309 0162 FA68     	 ldr r2,[r7,#12]
 310 0164 1344     	 add r3,r3,r2
 311 0166 97ED0A7A 	 flds s14,[r7,#40]
 312 016a D7ED067A 	 flds s15,[r7,#24]
 313 016e 77EE277A 	 fadds s15,s14,s15
 314 0172 C3ED007A 	 fsts s15,[r3]
 537:../Dave/Generated/CMSIS_DSP/Source/TransformFunctions/arm_cfft_radix4_f32.c **** 
 538:../Dave/Generated/CMSIS_DSP/Source/TransformFunctions/arm_cfft_radix4_f32.c ****             /* xa + xc -(xb + xd) */
 539:../Dave/Generated/CMSIS_DSP/Source/TransformFunctions/arm_cfft_radix4_f32.c ****             r1 = r1 - t1;
 315              	 .loc 1 539 0 discriminator 1
 316 0176 97ED0A7A 	 flds s14,[r7,#40]
 317 017a D7ED067A 	 flds s15,[r7,#24]
 318 017e 77EE677A 	 fsubs s15,s14,s15
 319 0182 C7ED0A7A 	 fsts s15,[r7,#40]
 540:../Dave/Generated/CMSIS_DSP/Source/TransformFunctions/arm_cfft_radix4_f32.c **** 
 541:../Dave/Generated/CMSIS_DSP/Source/TransformFunctions/arm_cfft_radix4_f32.c ****             /* yb + yd */
 542:../Dave/Generated/CMSIS_DSP/Source/TransformFunctions/arm_cfft_radix4_f32.c ****             t2 = pSrc[(2U * i1) + 1U] + pSrc[(2U * i3) + 1U];
 320              	 .loc 1 542 0 discriminator 1
 321 0186 7B6B     	 ldr r3,[r7,#52]
 322 0188 DB00     	 lsls r3,r3,#3
 323 018a 0433     	 adds r3,r3,#4
 324 018c FA68     	 ldr r2,[r7,#12]
 325 018e 1344     	 add r3,r3,r2
 326 0190 93ED007A 	 flds s14,[r3]
 327 0194 FB6A     	 ldr r3,[r7,#44]
 328 0196 DB00     	 lsls r3,r3,#3
 329 0198 0433     	 adds r3,r3,#4
 330 019a FA68     	 ldr r2,[r7,#12]
 331 019c 1344     	 add r3,r3,r2
 332 019e D3ED007A 	 flds s15,[r3]
 333 01a2 77EE277A 	 fadds s15,s14,s15
 334 01a6 C7ED057A 	 fsts s15,[r7,#20]
 543:../Dave/Generated/CMSIS_DSP/Source/TransformFunctions/arm_cfft_radix4_f32.c **** 
 544:../Dave/Generated/CMSIS_DSP/Source/TransformFunctions/arm_cfft_radix4_f32.c ****             /* ya' = ya + yb + yc + yd */
 545:../Dave/Generated/CMSIS_DSP/Source/TransformFunctions/arm_cfft_radix4_f32.c ****             pSrc[(2U * i0) + 1U] = s1 + t2;
 335              	 .loc 1 545 0 discriminator 1
 336 01aa BB6E     	 ldr r3,[r7,#104]
 337 01ac DB00     	 lsls r3,r3,#3
 338 01ae 0433     	 adds r3,r3,#4
 339 01b0 FA68     	 ldr r2,[r7,#12]
 340 01b2 1344     	 add r3,r3,r2
 341 01b4 97ED087A 	 flds s14,[r7,#32]
 342 01b8 D7ED057A 	 flds s15,[r7,#20]
 343 01bc 77EE277A 	 fadds s15,s14,s15
 344 01c0 C3ED007A 	 fsts s15,[r3]
 546:../Dave/Generated/CMSIS_DSP/Source/TransformFunctions/arm_cfft_radix4_f32.c **** 
 547:../Dave/Generated/CMSIS_DSP/Source/TransformFunctions/arm_cfft_radix4_f32.c ****             /* (ya + yc) - (yb + yd) */
 548:../Dave/Generated/CMSIS_DSP/Source/TransformFunctions/arm_cfft_radix4_f32.c ****             s1 = s1 - t2;
 345              	 .loc 1 548 0 discriminator 1
 346 01c4 97ED087A 	 flds s14,[r7,#32]
 347 01c8 D7ED057A 	 flds s15,[r7,#20]
 348 01cc 77EE677A 	 fsubs s15,s14,s15
 349 01d0 C7ED087A 	 fsts s15,[r7,#32]
 549:../Dave/Generated/CMSIS_DSP/Source/TransformFunctions/arm_cfft_radix4_f32.c **** 
 550:../Dave/Generated/CMSIS_DSP/Source/TransformFunctions/arm_cfft_radix4_f32.c ****             /* (yb - yd) */
 551:../Dave/Generated/CMSIS_DSP/Source/TransformFunctions/arm_cfft_radix4_f32.c ****             t1 = pSrc[(2U * i1) + 1U] - pSrc[(2U * i3) + 1U];
 350              	 .loc 1 551 0 discriminator 1
 351 01d4 7B6B     	 ldr r3,[r7,#52]
 352 01d6 DB00     	 lsls r3,r3,#3
 353 01d8 0433     	 adds r3,r3,#4
 354 01da FA68     	 ldr r2,[r7,#12]
 355 01dc 1344     	 add r3,r3,r2
 356 01de 93ED007A 	 flds s14,[r3]
 357 01e2 FB6A     	 ldr r3,[r7,#44]
 358 01e4 DB00     	 lsls r3,r3,#3
 359 01e6 0433     	 adds r3,r3,#4
 360 01e8 FA68     	 ldr r2,[r7,#12]
 361 01ea 1344     	 add r3,r3,r2
 362 01ec D3ED007A 	 flds s15,[r3]
 363 01f0 77EE677A 	 fsubs s15,s14,s15
 364 01f4 C7ED067A 	 fsts s15,[r7,#24]
 552:../Dave/Generated/CMSIS_DSP/Source/TransformFunctions/arm_cfft_radix4_f32.c **** 
 553:../Dave/Generated/CMSIS_DSP/Source/TransformFunctions/arm_cfft_radix4_f32.c ****             /* (xb - xd) */
 554:../Dave/Generated/CMSIS_DSP/Source/TransformFunctions/arm_cfft_radix4_f32.c ****             t2 = pSrc[2U * i1] - pSrc[2U * i3];
 365              	 .loc 1 554 0 discriminator 1
 366 01f8 7B6B     	 ldr r3,[r7,#52]
 367 01fa DB00     	 lsls r3,r3,#3
 368 01fc FA68     	 ldr r2,[r7,#12]
 369 01fe 1344     	 add r3,r3,r2
 370 0200 93ED007A 	 flds s14,[r3]
 371 0204 FB6A     	 ldr r3,[r7,#44]
 372 0206 DB00     	 lsls r3,r3,#3
 373 0208 FA68     	 ldr r2,[r7,#12]
 374 020a 1344     	 add r3,r3,r2
 375 020c D3ED007A 	 flds s15,[r3]
 376 0210 77EE677A 	 fsubs s15,s14,s15
 377 0214 C7ED057A 	 fsts s15,[r7,#20]
 555:../Dave/Generated/CMSIS_DSP/Source/TransformFunctions/arm_cfft_radix4_f32.c **** 
 556:../Dave/Generated/CMSIS_DSP/Source/TransformFunctions/arm_cfft_radix4_f32.c ****             /* xc' = (xa-xb+xc-xd)co2 + (ya-yb+yc-yd)(si2) */
 557:../Dave/Generated/CMSIS_DSP/Source/TransformFunctions/arm_cfft_radix4_f32.c ****             pSrc[2U * i1] = (r1 * co2) + (s1 * si2);
 378              	 .loc 1 557 0 discriminator 1
 379 0218 7B6B     	 ldr r3,[r7,#52]
 380 021a DB00     	 lsls r3,r3,#3
 381 021c FA68     	 ldr r2,[r7,#12]
 382 021e 1344     	 add r3,r3,r2
 383 0220 97ED0A7A 	 flds s14,[r7,#40]
 384 0224 D7ED117A 	 flds s15,[r7,#68]
 385 0228 27EE277A 	 fmuls s14,s14,s15
 386 022c D7ED086A 	 flds s13,[r7,#32]
 387 0230 D7ED107A 	 flds s15,[r7,#64]
 388 0234 66EEA77A 	 fmuls s15,s13,s15
 389 0238 77EE277A 	 fadds s15,s14,s15
 390 023c C3ED007A 	 fsts s15,[r3]
 558:../Dave/Generated/CMSIS_DSP/Source/TransformFunctions/arm_cfft_radix4_f32.c **** 
 559:../Dave/Generated/CMSIS_DSP/Source/TransformFunctions/arm_cfft_radix4_f32.c ****             /* yc' = (ya-yb+yc-yd)co2 - (xa-xb+xc-xd)(si2) */
 560:../Dave/Generated/CMSIS_DSP/Source/TransformFunctions/arm_cfft_radix4_f32.c ****             pSrc[(2U * i1) + 1U] = (s1 * co2) - (r1 * si2);
 391              	 .loc 1 560 0 discriminator 1
 392 0240 7B6B     	 ldr r3,[r7,#52]
 393 0242 DB00     	 lsls r3,r3,#3
 394 0244 0433     	 adds r3,r3,#4
 395 0246 FA68     	 ldr r2,[r7,#12]
 396 0248 1344     	 add r3,r3,r2
 397 024a 97ED087A 	 flds s14,[r7,#32]
 398 024e D7ED117A 	 flds s15,[r7,#68]
 399 0252 27EE277A 	 fmuls s14,s14,s15
 400 0256 D7ED0A6A 	 flds s13,[r7,#40]
 401 025a D7ED107A 	 flds s15,[r7,#64]
 402 025e 66EEA77A 	 fmuls s15,s13,s15
 403 0262 77EE677A 	 fsubs s15,s14,s15
 404 0266 C3ED007A 	 fsts s15,[r3]
 561:../Dave/Generated/CMSIS_DSP/Source/TransformFunctions/arm_cfft_radix4_f32.c **** 
 562:../Dave/Generated/CMSIS_DSP/Source/TransformFunctions/arm_cfft_radix4_f32.c ****             /* (xa - xc) + (yb - yd) */
 563:../Dave/Generated/CMSIS_DSP/Source/TransformFunctions/arm_cfft_radix4_f32.c ****             r1 = r2 + t1;
 405              	 .loc 1 563 0 discriminator 1
 406 026a 97ED097A 	 flds s14,[r7,#36]
 407 026e D7ED067A 	 flds s15,[r7,#24]
 408 0272 77EE277A 	 fadds s15,s14,s15
 409 0276 C7ED0A7A 	 fsts s15,[r7,#40]
 564:../Dave/Generated/CMSIS_DSP/Source/TransformFunctions/arm_cfft_radix4_f32.c **** 
 565:../Dave/Generated/CMSIS_DSP/Source/TransformFunctions/arm_cfft_radix4_f32.c ****             /* (xa - xc) - (yb - yd) */
 566:../Dave/Generated/CMSIS_DSP/Source/TransformFunctions/arm_cfft_radix4_f32.c ****             r2 = r2 - t1;
 410              	 .loc 1 566 0 discriminator 1
 411 027a 97ED097A 	 flds s14,[r7,#36]
 412 027e D7ED067A 	 flds s15,[r7,#24]
 413 0282 77EE677A 	 fsubs s15,s14,s15
 414 0286 C7ED097A 	 fsts s15,[r7,#36]
 567:../Dave/Generated/CMSIS_DSP/Source/TransformFunctions/arm_cfft_radix4_f32.c **** 
 568:../Dave/Generated/CMSIS_DSP/Source/TransformFunctions/arm_cfft_radix4_f32.c ****             /* (ya - yc) -  (xb - xd) */
 569:../Dave/Generated/CMSIS_DSP/Source/TransformFunctions/arm_cfft_radix4_f32.c ****             s1 = s2 - t2;
 415              	 .loc 1 569 0 discriminator 1
 416 028a 97ED077A 	 flds s14,[r7,#28]
 417 028e D7ED057A 	 flds s15,[r7,#20]
 418 0292 77EE677A 	 fsubs s15,s14,s15
 419 0296 C7ED087A 	 fsts s15,[r7,#32]
 570:../Dave/Generated/CMSIS_DSP/Source/TransformFunctions/arm_cfft_radix4_f32.c **** 
 571:../Dave/Generated/CMSIS_DSP/Source/TransformFunctions/arm_cfft_radix4_f32.c ****             /* (ya - yc) +  (xb - xd) */
 572:../Dave/Generated/CMSIS_DSP/Source/TransformFunctions/arm_cfft_radix4_f32.c ****             s2 = s2 + t2;
 420              	 .loc 1 572 0 discriminator 1
 421 029a 97ED077A 	 flds s14,[r7,#28]
 422 029e D7ED057A 	 flds s15,[r7,#20]
 423 02a2 77EE277A 	 fadds s15,s14,s15
 424 02a6 C7ED077A 	 fsts s15,[r7,#28]
 573:../Dave/Generated/CMSIS_DSP/Source/TransformFunctions/arm_cfft_radix4_f32.c **** 
 574:../Dave/Generated/CMSIS_DSP/Source/TransformFunctions/arm_cfft_radix4_f32.c ****             /* xb' = (xa+yb-xc-yd)co1 + (ya-xb-yc+xd)(si1) */
 575:../Dave/Generated/CMSIS_DSP/Source/TransformFunctions/arm_cfft_radix4_f32.c ****             pSrc[2U * i2] = (r1 * co1) + (s1 * si1);
 425              	 .loc 1 575 0 discriminator 1
 426 02aa 3B6B     	 ldr r3,[r7,#48]
 427 02ac DB00     	 lsls r3,r3,#3
 428 02ae FA68     	 ldr r2,[r7,#12]
 429 02b0 1344     	 add r3,r3,r2
 430 02b2 97ED0A7A 	 flds s14,[r7,#40]
 431 02b6 D7ED137A 	 flds s15,[r7,#76]
 432 02ba 27EE277A 	 fmuls s14,s14,s15
 433 02be D7ED086A 	 flds s13,[r7,#32]
 434 02c2 D7ED127A 	 flds s15,[r7,#72]
 435 02c6 66EEA77A 	 fmuls s15,s13,s15
 436 02ca 77EE277A 	 fadds s15,s14,s15
 437 02ce C3ED007A 	 fsts s15,[r3]
 576:../Dave/Generated/CMSIS_DSP/Source/TransformFunctions/arm_cfft_radix4_f32.c **** 
 577:../Dave/Generated/CMSIS_DSP/Source/TransformFunctions/arm_cfft_radix4_f32.c ****             /* yb' = (ya-xb-yc+xd)co1 - (xa+yb-xc-yd)(si1) */
 578:../Dave/Generated/CMSIS_DSP/Source/TransformFunctions/arm_cfft_radix4_f32.c ****             pSrc[(2U * i2) + 1U] = (s1 * co1) - (r1 * si1);
 438              	 .loc 1 578 0 discriminator 1
 439 02d2 3B6B     	 ldr r3,[r7,#48]
 440 02d4 DB00     	 lsls r3,r3,#3
 441 02d6 0433     	 adds r3,r3,#4
 442 02d8 FA68     	 ldr r2,[r7,#12]
 443 02da 1344     	 add r3,r3,r2
 444 02dc 97ED087A 	 flds s14,[r7,#32]
 445 02e0 D7ED137A 	 flds s15,[r7,#76]
 446 02e4 27EE277A 	 fmuls s14,s14,s15
 447 02e8 D7ED0A6A 	 flds s13,[r7,#40]
 448 02ec D7ED127A 	 flds s15,[r7,#72]
 449 02f0 66EEA77A 	 fmuls s15,s13,s15
 450 02f4 77EE677A 	 fsubs s15,s14,s15
 451 02f8 C3ED007A 	 fsts s15,[r3]
 579:../Dave/Generated/CMSIS_DSP/Source/TransformFunctions/arm_cfft_radix4_f32.c **** 
 580:../Dave/Generated/CMSIS_DSP/Source/TransformFunctions/arm_cfft_radix4_f32.c ****             /* xd' = (xa-yb-xc+yd)co3 + (ya+xb-yc-xd)(si3) */
 581:../Dave/Generated/CMSIS_DSP/Source/TransformFunctions/arm_cfft_radix4_f32.c ****             pSrc[2U * i3] = (r2 * co3) + (s2 * si3);
 452              	 .loc 1 581 0 discriminator 1
 453 02fc FB6A     	 ldr r3,[r7,#44]
 454 02fe DB00     	 lsls r3,r3,#3
 455 0300 FA68     	 ldr r2,[r7,#12]
 456 0302 1344     	 add r3,r3,r2
 457 0304 97ED097A 	 flds s14,[r7,#36]
 458 0308 D7ED0F7A 	 flds s15,[r7,#60]
 459 030c 27EE277A 	 fmuls s14,s14,s15
 460 0310 D7ED076A 	 flds s13,[r7,#28]
 461 0314 D7ED0E7A 	 flds s15,[r7,#56]
 462 0318 66EEA77A 	 fmuls s15,s13,s15
 463 031c 77EE277A 	 fadds s15,s14,s15
 464 0320 C3ED007A 	 fsts s15,[r3]
 582:../Dave/Generated/CMSIS_DSP/Source/TransformFunctions/arm_cfft_radix4_f32.c **** 
 583:../Dave/Generated/CMSIS_DSP/Source/TransformFunctions/arm_cfft_radix4_f32.c ****             /* yd' = (ya+xb-yc-xd)co3 - (xa-yb-xc+yd)(si3) */
 584:../Dave/Generated/CMSIS_DSP/Source/TransformFunctions/arm_cfft_radix4_f32.c ****             pSrc[(2U * i3) + 1U] = (s2 * co3) - (r2 * si3);
 465              	 .loc 1 584 0 discriminator 1
 466 0324 FB6A     	 ldr r3,[r7,#44]
 467 0326 DB00     	 lsls r3,r3,#3
 468 0328 0433     	 adds r3,r3,#4
 469 032a FA68     	 ldr r2,[r7,#12]
 470 032c 1344     	 add r3,r3,r2
 471 032e 97ED077A 	 flds s14,[r7,#28]
 472 0332 D7ED0F7A 	 flds s15,[r7,#60]
 473 0336 27EE277A 	 fmuls s14,s14,s15
 474 033a D7ED096A 	 flds s13,[r7,#36]
 475 033e D7ED0E7A 	 flds s15,[r7,#56]
 476 0342 66EEA77A 	 fmuls s15,s13,s15
 477 0346 77EE677A 	 fsubs s15,s14,s15
 478 034a C3ED007A 	 fsts s15,[r3]
 585:../Dave/Generated/CMSIS_DSP/Source/TransformFunctions/arm_cfft_radix4_f32.c **** 
 586:../Dave/Generated/CMSIS_DSP/Source/TransformFunctions/arm_cfft_radix4_f32.c ****             i0 += n1;
 479              	 .loc 1 586 0 discriminator 1
 480 034e BA6E     	 ldr r2,[r7,#104]
 481 0350 BB6D     	 ldr r3,[r7,#88]
 482 0352 1344     	 add r3,r3,r2
 483 0354 BB66     	 str r3,[r7,#104]
 587:../Dave/Generated/CMSIS_DSP/Source/TransformFunctions/arm_cfft_radix4_f32.c ****          } while ( i0 < fftLen);
 484              	 .loc 1 587 0 discriminator 1
 485 0356 7A89     	 ldrh r2,[r7,#10]
 486 0358 BB6E     	 ldr r3,[r7,#104]
 487 035a 9A42     	 cmp r2,r3
 488 035c 3FF69FAE 	 bhi .L7
 588:../Dave/Generated/CMSIS_DSP/Source/TransformFunctions/arm_cfft_radix4_f32.c ****          j++;
 489              	 .loc 1 588 0
 490 0360 3B6E     	 ldr r3,[r7,#96]
 491 0362 0133     	 adds r3,r3,#1
 492 0364 3B66     	 str r3,[r7,#96]
 589:../Dave/Generated/CMSIS_DSP/Source/TransformFunctions/arm_cfft_radix4_f32.c ****       } while (j <= (n2 - 1U));
 493              	 .loc 1 589 0
 494 0366 7B6E     	 ldr r3,[r7,#100]
 495 0368 5A1E     	 subs r2,r3,#1
 496 036a 3B6E     	 ldr r3,[r7,#96]
 497 036c 9A42     	 cmp r2,r3
 498 036e BFF461AE 	 bcs .L8
 590:../Dave/Generated/CMSIS_DSP/Source/TransformFunctions/arm_cfft_radix4_f32.c ****       twidCoefModifier <<= 2U;
 499              	 .loc 1 590 0 discriminator 2
 500 0372 3B89     	 ldrh r3,[r7,#8]
 501 0374 9B00     	 lsls r3,r3,#2
 502 0376 3B81     	 strh r3,[r7,#8]
 487:../Dave/Generated/CMSIS_DSP/Source/TransformFunctions/arm_cfft_radix4_f32.c ****    {
 503              	 .loc 1 487 0 discriminator 2
 504 0378 FB6D     	 ldr r3,[r7,#92]
 505 037a 9B08     	 lsrs r3,r3,#2
 506 037c FB65     	 str r3,[r7,#92]
 507              	.L6:
 487:../Dave/Generated/CMSIS_DSP/Source/TransformFunctions/arm_cfft_radix4_f32.c ****    {
 508              	 .loc 1 487 0 is_stmt 0 discriminator 1
 509 037e FB6D     	 ldr r3,[r7,#92]
 510 0380 012B     	 cmp r3,#1
 511 0382 3FF64EAE 	 bhi .L9
 591:../Dave/Generated/CMSIS_DSP/Source/TransformFunctions/arm_cfft_radix4_f32.c ****    }
 592:../Dave/Generated/CMSIS_DSP/Source/TransformFunctions/arm_cfft_radix4_f32.c **** 
 593:../Dave/Generated/CMSIS_DSP/Source/TransformFunctions/arm_cfft_radix4_f32.c **** #endif /* #if defined (ARM_MATH_LOOPUNROLL) */
 594:../Dave/Generated/CMSIS_DSP/Source/TransformFunctions/arm_cfft_radix4_f32.c **** 
 595:../Dave/Generated/CMSIS_DSP/Source/TransformFunctions/arm_cfft_radix4_f32.c **** }
 512              	 .loc 1 595 0 is_stmt 1
 513 0386 7437     	 adds r7,r7,#116
 514              	.LCFI8:
 515              	 .cfi_def_cfa_offset 4
 516 0388 BD46     	 mov sp,r7
 517              	.LCFI9:
 518              	 .cfi_def_cfa_register 13
 519              	 
 520 038a 5DF8047B 	 ldr r7,[sp],#4
 521              	.LCFI10:
 522              	 .cfi_restore 7
 523              	 .cfi_def_cfa_offset 0
 524 038e 7047     	 bx lr
 525              	 .cfi_endproc
 526              	.LFE150:
 528              	 .section .text.arm_radix4_butterfly_inverse_f32,"ax",%progbits
 529              	 .align 2
 530              	 .global arm_radix4_butterfly_inverse_f32
 531              	 .thumb
 532              	 .thumb_func
 534              	arm_radix4_butterfly_inverse_f32:
 535              	.LFB151:
 596:../Dave/Generated/CMSIS_DSP/Source/TransformFunctions/arm_cfft_radix4_f32.c **** 
 597:../Dave/Generated/CMSIS_DSP/Source/TransformFunctions/arm_cfft_radix4_f32.c **** /**
 598:../Dave/Generated/CMSIS_DSP/Source/TransformFunctions/arm_cfft_radix4_f32.c ****   brief         Core function for the floating-point CIFFT butterfly process.
 599:../Dave/Generated/CMSIS_DSP/Source/TransformFunctions/arm_cfft_radix4_f32.c ****   param[in,out] pSrc             points to the in-place buffer of floating-point data type
 600:../Dave/Generated/CMSIS_DSP/Source/TransformFunctions/arm_cfft_radix4_f32.c ****   param[in]     fftLen           length of the FFT
 601:../Dave/Generated/CMSIS_DSP/Source/TransformFunctions/arm_cfft_radix4_f32.c ****   param[in]     pCoef            points to twiddle coefficient buffer
 602:../Dave/Generated/CMSIS_DSP/Source/TransformFunctions/arm_cfft_radix4_f32.c ****   param[in]     twidCoefModifier twiddle coefficient modifier that supports different size FFTs wit
 603:../Dave/Generated/CMSIS_DSP/Source/TransformFunctions/arm_cfft_radix4_f32.c ****   param[in]     onebyfftLen      value of 1/fftLen
 604:../Dave/Generated/CMSIS_DSP/Source/TransformFunctions/arm_cfft_radix4_f32.c ****   return        none
 605:../Dave/Generated/CMSIS_DSP/Source/TransformFunctions/arm_cfft_radix4_f32.c ****  */
 606:../Dave/Generated/CMSIS_DSP/Source/TransformFunctions/arm_cfft_radix4_f32.c **** 
 607:../Dave/Generated/CMSIS_DSP/Source/TransformFunctions/arm_cfft_radix4_f32.c **** void arm_radix4_butterfly_inverse_f32(
 608:../Dave/Generated/CMSIS_DSP/Source/TransformFunctions/arm_cfft_radix4_f32.c ****         float32_t * pSrc,
 609:../Dave/Generated/CMSIS_DSP/Source/TransformFunctions/arm_cfft_radix4_f32.c ****         uint16_t fftLen,
 610:../Dave/Generated/CMSIS_DSP/Source/TransformFunctions/arm_cfft_radix4_f32.c ****   const float32_t * pCoef,
 611:../Dave/Generated/CMSIS_DSP/Source/TransformFunctions/arm_cfft_radix4_f32.c ****         uint16_t twidCoefModifier,
 612:../Dave/Generated/CMSIS_DSP/Source/TransformFunctions/arm_cfft_radix4_f32.c ****         float32_t onebyfftLen)
 613:../Dave/Generated/CMSIS_DSP/Source/TransformFunctions/arm_cfft_radix4_f32.c **** {
 536              	 .loc 1 613 0
 537              	 .cfi_startproc
 538              	 
 539              	 
 540              	 
 541 0000 80B4     	 push {r7}
 542              	.LCFI11:
 543              	 .cfi_def_cfa_offset 4
 544              	 .cfi_offset 7,-4
 545 0002 9DB0     	 sub sp,sp,#116
 546              	.LCFI12:
 547              	 .cfi_def_cfa_offset 120
 548 0004 00AF     	 add r7,sp,#0
 549              	.LCFI13:
 550              	 .cfi_def_cfa_register 7
 551 0006 F860     	 str r0,[r7,#12]
 552 0008 7A60     	 str r2,[r7,#4]
 553 000a 1A46     	 mov r2,r3
 554 000c 0B46     	 mov r3,r1
 555 000e 7B81     	 strh r3,[r7,#10]
 556 0010 1346     	 mov r3,r2
 557 0012 3B81     	 strh r3,[r7,#8]
 614:../Dave/Generated/CMSIS_DSP/Source/TransformFunctions/arm_cfft_radix4_f32.c ****         float32_t co1, co2, co3, si1, si2, si3;
 615:../Dave/Generated/CMSIS_DSP/Source/TransformFunctions/arm_cfft_radix4_f32.c ****         uint32_t ia1, ia2, ia3;
 616:../Dave/Generated/CMSIS_DSP/Source/TransformFunctions/arm_cfft_radix4_f32.c ****         uint32_t i0, i1, i2, i3;
 617:../Dave/Generated/CMSIS_DSP/Source/TransformFunctions/arm_cfft_radix4_f32.c ****         uint32_t n1, n2, j, k;
 618:../Dave/Generated/CMSIS_DSP/Source/TransformFunctions/arm_cfft_radix4_f32.c **** 
 619:../Dave/Generated/CMSIS_DSP/Source/TransformFunctions/arm_cfft_radix4_f32.c **** #if defined (ARM_MATH_LOOPUNROLL)
 620:../Dave/Generated/CMSIS_DSP/Source/TransformFunctions/arm_cfft_radix4_f32.c **** 
 621:../Dave/Generated/CMSIS_DSP/Source/TransformFunctions/arm_cfft_radix4_f32.c ****         float32_t xaIn, yaIn, xbIn, ybIn, xcIn, ycIn, xdIn, ydIn;
 622:../Dave/Generated/CMSIS_DSP/Source/TransformFunctions/arm_cfft_radix4_f32.c ****         float32_t Xaplusc, Xbplusd, Yaplusc, Ybplusd, Xaminusc, Xbminusd, Yaminusc,
 623:../Dave/Generated/CMSIS_DSP/Source/TransformFunctions/arm_cfft_radix4_f32.c ****         Ybminusd;
 624:../Dave/Generated/CMSIS_DSP/Source/TransformFunctions/arm_cfft_radix4_f32.c ****         float32_t Xb12C_out, Yb12C_out, Xc12C_out, Yc12C_out, Xd12C_out, Yd12C_out;
 625:../Dave/Generated/CMSIS_DSP/Source/TransformFunctions/arm_cfft_radix4_f32.c ****         float32_t Xb12_out, Yb12_out, Xc12_out, Yc12_out, Xd12_out, Yd12_out;
 626:../Dave/Generated/CMSIS_DSP/Source/TransformFunctions/arm_cfft_radix4_f32.c ****         float32_t *ptr1;
 627:../Dave/Generated/CMSIS_DSP/Source/TransformFunctions/arm_cfft_radix4_f32.c ****         float32_t p0,p1,p2,p3,p4,p5,p6,p7;
 628:../Dave/Generated/CMSIS_DSP/Source/TransformFunctions/arm_cfft_radix4_f32.c ****         float32_t a0,a1,a2,a3,a4,a5,a6,a7;
 629:../Dave/Generated/CMSIS_DSP/Source/TransformFunctions/arm_cfft_radix4_f32.c **** 
 630:../Dave/Generated/CMSIS_DSP/Source/TransformFunctions/arm_cfft_radix4_f32.c **** 
 631:../Dave/Generated/CMSIS_DSP/Source/TransformFunctions/arm_cfft_radix4_f32.c ****    /*  Initializations for the first stage */
 632:../Dave/Generated/CMSIS_DSP/Source/TransformFunctions/arm_cfft_radix4_f32.c ****    n2 = fftLen;
 633:../Dave/Generated/CMSIS_DSP/Source/TransformFunctions/arm_cfft_radix4_f32.c ****    n1 = n2;
 634:../Dave/Generated/CMSIS_DSP/Source/TransformFunctions/arm_cfft_radix4_f32.c **** 
 635:../Dave/Generated/CMSIS_DSP/Source/TransformFunctions/arm_cfft_radix4_f32.c ****    /* n2 = fftLen/4 */
 636:../Dave/Generated/CMSIS_DSP/Source/TransformFunctions/arm_cfft_radix4_f32.c ****    n2 >>= 2U;
 637:../Dave/Generated/CMSIS_DSP/Source/TransformFunctions/arm_cfft_radix4_f32.c ****    i0 = 0U;
 638:../Dave/Generated/CMSIS_DSP/Source/TransformFunctions/arm_cfft_radix4_f32.c ****    ia1 = 0U;
 639:../Dave/Generated/CMSIS_DSP/Source/TransformFunctions/arm_cfft_radix4_f32.c **** 
 640:../Dave/Generated/CMSIS_DSP/Source/TransformFunctions/arm_cfft_radix4_f32.c ****    j = n2;
 641:../Dave/Generated/CMSIS_DSP/Source/TransformFunctions/arm_cfft_radix4_f32.c **** 
 642:../Dave/Generated/CMSIS_DSP/Source/TransformFunctions/arm_cfft_radix4_f32.c ****    /*  Calculation of first stage */
 643:../Dave/Generated/CMSIS_DSP/Source/TransformFunctions/arm_cfft_radix4_f32.c ****    do
 644:../Dave/Generated/CMSIS_DSP/Source/TransformFunctions/arm_cfft_radix4_f32.c ****    {
 645:../Dave/Generated/CMSIS_DSP/Source/TransformFunctions/arm_cfft_radix4_f32.c ****       /*  index calculation for the input as, */
 646:../Dave/Generated/CMSIS_DSP/Source/TransformFunctions/arm_cfft_radix4_f32.c ****       /*  pSrc[i0 + 0], pSrc[i0 + fftLen/4], pSrc[i0 + fftLen/2], pSrc[i0 + 3fftLen/4] */
 647:../Dave/Generated/CMSIS_DSP/Source/TransformFunctions/arm_cfft_radix4_f32.c ****       i1 = i0 + n2;
 648:../Dave/Generated/CMSIS_DSP/Source/TransformFunctions/arm_cfft_radix4_f32.c ****       i2 = i1 + n2;
 649:../Dave/Generated/CMSIS_DSP/Source/TransformFunctions/arm_cfft_radix4_f32.c ****       i3 = i2 + n2;
 650:../Dave/Generated/CMSIS_DSP/Source/TransformFunctions/arm_cfft_radix4_f32.c **** 
 651:../Dave/Generated/CMSIS_DSP/Source/TransformFunctions/arm_cfft_radix4_f32.c ****       /*  Butterfly implementation */
 652:../Dave/Generated/CMSIS_DSP/Source/TransformFunctions/arm_cfft_radix4_f32.c ****       xaIn = pSrc[(2U * i0)];
 653:../Dave/Generated/CMSIS_DSP/Source/TransformFunctions/arm_cfft_radix4_f32.c ****       yaIn = pSrc[(2U * i0) + 1U];
 654:../Dave/Generated/CMSIS_DSP/Source/TransformFunctions/arm_cfft_radix4_f32.c **** 
 655:../Dave/Generated/CMSIS_DSP/Source/TransformFunctions/arm_cfft_radix4_f32.c ****       xcIn = pSrc[(2U * i2)];
 656:../Dave/Generated/CMSIS_DSP/Source/TransformFunctions/arm_cfft_radix4_f32.c ****       ycIn = pSrc[(2U * i2) + 1U];
 657:../Dave/Generated/CMSIS_DSP/Source/TransformFunctions/arm_cfft_radix4_f32.c **** 
 658:../Dave/Generated/CMSIS_DSP/Source/TransformFunctions/arm_cfft_radix4_f32.c ****       xbIn = pSrc[(2U * i1)];
 659:../Dave/Generated/CMSIS_DSP/Source/TransformFunctions/arm_cfft_radix4_f32.c ****       ybIn = pSrc[(2U * i1) + 1U];
 660:../Dave/Generated/CMSIS_DSP/Source/TransformFunctions/arm_cfft_radix4_f32.c **** 
 661:../Dave/Generated/CMSIS_DSP/Source/TransformFunctions/arm_cfft_radix4_f32.c ****       xdIn = pSrc[(2U * i3)];
 662:../Dave/Generated/CMSIS_DSP/Source/TransformFunctions/arm_cfft_radix4_f32.c ****       ydIn = pSrc[(2U * i3) + 1U];
 663:../Dave/Generated/CMSIS_DSP/Source/TransformFunctions/arm_cfft_radix4_f32.c **** 
 664:../Dave/Generated/CMSIS_DSP/Source/TransformFunctions/arm_cfft_radix4_f32.c ****       /* xa + xc */
 665:../Dave/Generated/CMSIS_DSP/Source/TransformFunctions/arm_cfft_radix4_f32.c ****       Xaplusc = xaIn + xcIn;
 666:../Dave/Generated/CMSIS_DSP/Source/TransformFunctions/arm_cfft_radix4_f32.c ****       /* xb + xd */
 667:../Dave/Generated/CMSIS_DSP/Source/TransformFunctions/arm_cfft_radix4_f32.c ****       Xbplusd = xbIn + xdIn;
 668:../Dave/Generated/CMSIS_DSP/Source/TransformFunctions/arm_cfft_radix4_f32.c ****       /* ya + yc */
 669:../Dave/Generated/CMSIS_DSP/Source/TransformFunctions/arm_cfft_radix4_f32.c ****       Yaplusc = yaIn + ycIn;
 670:../Dave/Generated/CMSIS_DSP/Source/TransformFunctions/arm_cfft_radix4_f32.c ****       /* yb + yd */
 671:../Dave/Generated/CMSIS_DSP/Source/TransformFunctions/arm_cfft_radix4_f32.c ****       Ybplusd = ybIn + ydIn;
 672:../Dave/Generated/CMSIS_DSP/Source/TransformFunctions/arm_cfft_radix4_f32.c **** 
 673:../Dave/Generated/CMSIS_DSP/Source/TransformFunctions/arm_cfft_radix4_f32.c ****       /*  index calculation for the coefficients */
 674:../Dave/Generated/CMSIS_DSP/Source/TransformFunctions/arm_cfft_radix4_f32.c ****       ia2 = ia1 + ia1;
 675:../Dave/Generated/CMSIS_DSP/Source/TransformFunctions/arm_cfft_radix4_f32.c ****       co2 = pCoef[ia2 * 2U];
 676:../Dave/Generated/CMSIS_DSP/Source/TransformFunctions/arm_cfft_radix4_f32.c ****       si2 = pCoef[(ia2 * 2U) + 1U];
 677:../Dave/Generated/CMSIS_DSP/Source/TransformFunctions/arm_cfft_radix4_f32.c **** 
 678:../Dave/Generated/CMSIS_DSP/Source/TransformFunctions/arm_cfft_radix4_f32.c ****       /* xa - xc */
 679:../Dave/Generated/CMSIS_DSP/Source/TransformFunctions/arm_cfft_radix4_f32.c ****       Xaminusc = xaIn - xcIn;
 680:../Dave/Generated/CMSIS_DSP/Source/TransformFunctions/arm_cfft_radix4_f32.c ****       /* xb - xd */
 681:../Dave/Generated/CMSIS_DSP/Source/TransformFunctions/arm_cfft_radix4_f32.c ****       Xbminusd = xbIn - xdIn;
 682:../Dave/Generated/CMSIS_DSP/Source/TransformFunctions/arm_cfft_radix4_f32.c ****       /* ya - yc */
 683:../Dave/Generated/CMSIS_DSP/Source/TransformFunctions/arm_cfft_radix4_f32.c ****       Yaminusc = yaIn - ycIn;
 684:../Dave/Generated/CMSIS_DSP/Source/TransformFunctions/arm_cfft_radix4_f32.c ****       /* yb - yd */
 685:../Dave/Generated/CMSIS_DSP/Source/TransformFunctions/arm_cfft_radix4_f32.c ****       Ybminusd = ybIn - ydIn;
 686:../Dave/Generated/CMSIS_DSP/Source/TransformFunctions/arm_cfft_radix4_f32.c **** 
 687:../Dave/Generated/CMSIS_DSP/Source/TransformFunctions/arm_cfft_radix4_f32.c ****       /* xa' = xa + xb + xc + xd */
 688:../Dave/Generated/CMSIS_DSP/Source/TransformFunctions/arm_cfft_radix4_f32.c ****       pSrc[(2U * i0)] = Xaplusc + Xbplusd;
 689:../Dave/Generated/CMSIS_DSP/Source/TransformFunctions/arm_cfft_radix4_f32.c **** 
 690:../Dave/Generated/CMSIS_DSP/Source/TransformFunctions/arm_cfft_radix4_f32.c ****       /* ya' = ya + yb + yc + yd */
 691:../Dave/Generated/CMSIS_DSP/Source/TransformFunctions/arm_cfft_radix4_f32.c ****       pSrc[(2U * i0) + 1U] = Yaplusc + Ybplusd;
 692:../Dave/Generated/CMSIS_DSP/Source/TransformFunctions/arm_cfft_radix4_f32.c **** 
 693:../Dave/Generated/CMSIS_DSP/Source/TransformFunctions/arm_cfft_radix4_f32.c ****       /* (xa - xc) - (yb - yd) */
 694:../Dave/Generated/CMSIS_DSP/Source/TransformFunctions/arm_cfft_radix4_f32.c ****       Xb12C_out = (Xaminusc - Ybminusd);
 695:../Dave/Generated/CMSIS_DSP/Source/TransformFunctions/arm_cfft_radix4_f32.c ****       /* (ya - yc) + (xb - xd) */
 696:../Dave/Generated/CMSIS_DSP/Source/TransformFunctions/arm_cfft_radix4_f32.c ****       Yb12C_out = (Yaminusc + Xbminusd);
 697:../Dave/Generated/CMSIS_DSP/Source/TransformFunctions/arm_cfft_radix4_f32.c ****       /* (xa + xc) - (xb + xd) */
 698:../Dave/Generated/CMSIS_DSP/Source/TransformFunctions/arm_cfft_radix4_f32.c ****       Xc12C_out = (Xaplusc - Xbplusd);
 699:../Dave/Generated/CMSIS_DSP/Source/TransformFunctions/arm_cfft_radix4_f32.c ****       /* (ya + yc) - (yb + yd) */
 700:../Dave/Generated/CMSIS_DSP/Source/TransformFunctions/arm_cfft_radix4_f32.c ****       Yc12C_out = (Yaplusc - Ybplusd);
 701:../Dave/Generated/CMSIS_DSP/Source/TransformFunctions/arm_cfft_radix4_f32.c ****       /* (xa - xc) + (yb - yd) */
 702:../Dave/Generated/CMSIS_DSP/Source/TransformFunctions/arm_cfft_radix4_f32.c ****       Xd12C_out = (Xaminusc + Ybminusd);
 703:../Dave/Generated/CMSIS_DSP/Source/TransformFunctions/arm_cfft_radix4_f32.c ****       /* (ya - yc) - (xb - xd) */
 704:../Dave/Generated/CMSIS_DSP/Source/TransformFunctions/arm_cfft_radix4_f32.c ****       Yd12C_out = (Yaminusc - Xbminusd);
 705:../Dave/Generated/CMSIS_DSP/Source/TransformFunctions/arm_cfft_radix4_f32.c **** 
 706:../Dave/Generated/CMSIS_DSP/Source/TransformFunctions/arm_cfft_radix4_f32.c ****       co1 = pCoef[ia1 * 2U];
 707:../Dave/Generated/CMSIS_DSP/Source/TransformFunctions/arm_cfft_radix4_f32.c ****       si1 = pCoef[(ia1 * 2U) + 1U];
 708:../Dave/Generated/CMSIS_DSP/Source/TransformFunctions/arm_cfft_radix4_f32.c **** 
 709:../Dave/Generated/CMSIS_DSP/Source/TransformFunctions/arm_cfft_radix4_f32.c ****       /*  index calculation for the coefficients */
 710:../Dave/Generated/CMSIS_DSP/Source/TransformFunctions/arm_cfft_radix4_f32.c ****       ia3 = ia2 + ia1;
 711:../Dave/Generated/CMSIS_DSP/Source/TransformFunctions/arm_cfft_radix4_f32.c ****       co3 = pCoef[ia3 * 2U];
 712:../Dave/Generated/CMSIS_DSP/Source/TransformFunctions/arm_cfft_radix4_f32.c ****       si3 = pCoef[(ia3 * 2U) + 1U];
 713:../Dave/Generated/CMSIS_DSP/Source/TransformFunctions/arm_cfft_radix4_f32.c **** 
 714:../Dave/Generated/CMSIS_DSP/Source/TransformFunctions/arm_cfft_radix4_f32.c ****       Xb12_out = Xb12C_out * co1;
 715:../Dave/Generated/CMSIS_DSP/Source/TransformFunctions/arm_cfft_radix4_f32.c ****       Yb12_out = Yb12C_out * co1;
 716:../Dave/Generated/CMSIS_DSP/Source/TransformFunctions/arm_cfft_radix4_f32.c ****       Xc12_out = Xc12C_out * co2;
 717:../Dave/Generated/CMSIS_DSP/Source/TransformFunctions/arm_cfft_radix4_f32.c ****       Yc12_out = Yc12C_out * co2;
 718:../Dave/Generated/CMSIS_DSP/Source/TransformFunctions/arm_cfft_radix4_f32.c ****       Xd12_out = Xd12C_out * co3;
 719:../Dave/Generated/CMSIS_DSP/Source/TransformFunctions/arm_cfft_radix4_f32.c ****       Yd12_out = Yd12C_out * co3;
 720:../Dave/Generated/CMSIS_DSP/Source/TransformFunctions/arm_cfft_radix4_f32.c **** 
 721:../Dave/Generated/CMSIS_DSP/Source/TransformFunctions/arm_cfft_radix4_f32.c ****       /* xb' = (xa+yb-xc-yd)co1 - (ya-xb-yc+xd)(si1) */
 722:../Dave/Generated/CMSIS_DSP/Source/TransformFunctions/arm_cfft_radix4_f32.c ****       //Xb12_out -= Yb12C_out * si1;
 723:../Dave/Generated/CMSIS_DSP/Source/TransformFunctions/arm_cfft_radix4_f32.c ****       p0 = Yb12C_out * si1;
 724:../Dave/Generated/CMSIS_DSP/Source/TransformFunctions/arm_cfft_radix4_f32.c ****       /* yb' = (ya-xb-yc+xd)co1 + (xa+yb-xc-yd)(si1) */
 725:../Dave/Generated/CMSIS_DSP/Source/TransformFunctions/arm_cfft_radix4_f32.c ****       //Yb12_out += Xb12C_out * si1;
 726:../Dave/Generated/CMSIS_DSP/Source/TransformFunctions/arm_cfft_radix4_f32.c ****       p1 = Xb12C_out * si1;
 727:../Dave/Generated/CMSIS_DSP/Source/TransformFunctions/arm_cfft_radix4_f32.c ****       /* xc' = (xa-xb+xc-xd)co2 - (ya-yb+yc-yd)(si2) */
 728:../Dave/Generated/CMSIS_DSP/Source/TransformFunctions/arm_cfft_radix4_f32.c ****       //Xc12_out -= Yc12C_out * si2;
 729:../Dave/Generated/CMSIS_DSP/Source/TransformFunctions/arm_cfft_radix4_f32.c ****       p2 = Yc12C_out * si2;
 730:../Dave/Generated/CMSIS_DSP/Source/TransformFunctions/arm_cfft_radix4_f32.c ****       /* yc' = (ya-yb+yc-yd)co2 + (xa-xb+xc-xd)(si2) */
 731:../Dave/Generated/CMSIS_DSP/Source/TransformFunctions/arm_cfft_radix4_f32.c ****       //Yc12_out += Xc12C_out * si2;
 732:../Dave/Generated/CMSIS_DSP/Source/TransformFunctions/arm_cfft_radix4_f32.c ****       p3 = Xc12C_out * si2;
 733:../Dave/Generated/CMSIS_DSP/Source/TransformFunctions/arm_cfft_radix4_f32.c ****       /* xd' = (xa-yb-xc+yd)co3 - (ya+xb-yc-xd)(si3) */
 734:../Dave/Generated/CMSIS_DSP/Source/TransformFunctions/arm_cfft_radix4_f32.c ****       //Xd12_out -= Yd12C_out * si3;
 735:../Dave/Generated/CMSIS_DSP/Source/TransformFunctions/arm_cfft_radix4_f32.c ****       p4 = Yd12C_out * si3;
 736:../Dave/Generated/CMSIS_DSP/Source/TransformFunctions/arm_cfft_radix4_f32.c ****       /* yd' = (ya+xb-yc-xd)co3 + (xa-yb-xc+yd)(si3) */
 737:../Dave/Generated/CMSIS_DSP/Source/TransformFunctions/arm_cfft_radix4_f32.c ****       //Yd12_out += Xd12C_out * si3;
 738:../Dave/Generated/CMSIS_DSP/Source/TransformFunctions/arm_cfft_radix4_f32.c ****       p5 = Xd12C_out * si3;
 739:../Dave/Generated/CMSIS_DSP/Source/TransformFunctions/arm_cfft_radix4_f32.c **** 
 740:../Dave/Generated/CMSIS_DSP/Source/TransformFunctions/arm_cfft_radix4_f32.c ****       Xb12_out -= p0;
 741:../Dave/Generated/CMSIS_DSP/Source/TransformFunctions/arm_cfft_radix4_f32.c ****       Yb12_out += p1;
 742:../Dave/Generated/CMSIS_DSP/Source/TransformFunctions/arm_cfft_radix4_f32.c ****       Xc12_out -= p2;
 743:../Dave/Generated/CMSIS_DSP/Source/TransformFunctions/arm_cfft_radix4_f32.c ****       Yc12_out += p3;
 744:../Dave/Generated/CMSIS_DSP/Source/TransformFunctions/arm_cfft_radix4_f32.c ****       Xd12_out -= p4;
 745:../Dave/Generated/CMSIS_DSP/Source/TransformFunctions/arm_cfft_radix4_f32.c ****       Yd12_out += p5;
 746:../Dave/Generated/CMSIS_DSP/Source/TransformFunctions/arm_cfft_radix4_f32.c **** 
 747:../Dave/Generated/CMSIS_DSP/Source/TransformFunctions/arm_cfft_radix4_f32.c ****       /* xc' = (xa-xb+xc-xd)co2 - (ya-yb+yc-yd)(si2) */
 748:../Dave/Generated/CMSIS_DSP/Source/TransformFunctions/arm_cfft_radix4_f32.c ****       pSrc[2U * i1] = Xc12_out;
 749:../Dave/Generated/CMSIS_DSP/Source/TransformFunctions/arm_cfft_radix4_f32.c **** 
 750:../Dave/Generated/CMSIS_DSP/Source/TransformFunctions/arm_cfft_radix4_f32.c ****       /* yc' = (ya-yb+yc-yd)co2 + (xa-xb+xc-xd)(si2) */
 751:../Dave/Generated/CMSIS_DSP/Source/TransformFunctions/arm_cfft_radix4_f32.c ****       pSrc[(2U * i1) + 1U] = Yc12_out;
 752:../Dave/Generated/CMSIS_DSP/Source/TransformFunctions/arm_cfft_radix4_f32.c **** 
 753:../Dave/Generated/CMSIS_DSP/Source/TransformFunctions/arm_cfft_radix4_f32.c ****       /* xb' = (xa+yb-xc-yd)co1 - (ya-xb-yc+xd)(si1) */
 754:../Dave/Generated/CMSIS_DSP/Source/TransformFunctions/arm_cfft_radix4_f32.c ****       pSrc[2U * i2] = Xb12_out;
 755:../Dave/Generated/CMSIS_DSP/Source/TransformFunctions/arm_cfft_radix4_f32.c **** 
 756:../Dave/Generated/CMSIS_DSP/Source/TransformFunctions/arm_cfft_radix4_f32.c ****       /* yb' = (ya-xb-yc+xd)co1 + (xa+yb-xc-yd)(si1) */
 757:../Dave/Generated/CMSIS_DSP/Source/TransformFunctions/arm_cfft_radix4_f32.c ****       pSrc[(2U * i2) + 1U] = Yb12_out;
 758:../Dave/Generated/CMSIS_DSP/Source/TransformFunctions/arm_cfft_radix4_f32.c **** 
 759:../Dave/Generated/CMSIS_DSP/Source/TransformFunctions/arm_cfft_radix4_f32.c ****       /* xd' = (xa-yb-xc+yd)co3 - (ya+xb-yc-xd)(si3) */
 760:../Dave/Generated/CMSIS_DSP/Source/TransformFunctions/arm_cfft_radix4_f32.c ****       pSrc[2U * i3] = Xd12_out;
 761:../Dave/Generated/CMSIS_DSP/Source/TransformFunctions/arm_cfft_radix4_f32.c **** 
 762:../Dave/Generated/CMSIS_DSP/Source/TransformFunctions/arm_cfft_radix4_f32.c ****       /* yd' = (ya+xb-yc-xd)co3 + (xa-yb-xc+yd)(si3) */
 763:../Dave/Generated/CMSIS_DSP/Source/TransformFunctions/arm_cfft_radix4_f32.c ****       pSrc[(2U * i3) + 1U] = Yd12_out;
 764:../Dave/Generated/CMSIS_DSP/Source/TransformFunctions/arm_cfft_radix4_f32.c **** 
 765:../Dave/Generated/CMSIS_DSP/Source/TransformFunctions/arm_cfft_radix4_f32.c ****       /*  Twiddle coefficients index modifier */
 766:../Dave/Generated/CMSIS_DSP/Source/TransformFunctions/arm_cfft_radix4_f32.c ****       ia1 = ia1 + twidCoefModifier;
 767:../Dave/Generated/CMSIS_DSP/Source/TransformFunctions/arm_cfft_radix4_f32.c **** 
 768:../Dave/Generated/CMSIS_DSP/Source/TransformFunctions/arm_cfft_radix4_f32.c ****       /*  Updating input index */
 769:../Dave/Generated/CMSIS_DSP/Source/TransformFunctions/arm_cfft_radix4_f32.c ****       i0 = i0 + 1U;
 770:../Dave/Generated/CMSIS_DSP/Source/TransformFunctions/arm_cfft_radix4_f32.c **** 
 771:../Dave/Generated/CMSIS_DSP/Source/TransformFunctions/arm_cfft_radix4_f32.c ****    } while (--j);
 772:../Dave/Generated/CMSIS_DSP/Source/TransformFunctions/arm_cfft_radix4_f32.c **** 
 773:../Dave/Generated/CMSIS_DSP/Source/TransformFunctions/arm_cfft_radix4_f32.c ****    twidCoefModifier <<= 2U;
 774:../Dave/Generated/CMSIS_DSP/Source/TransformFunctions/arm_cfft_radix4_f32.c **** 
 775:../Dave/Generated/CMSIS_DSP/Source/TransformFunctions/arm_cfft_radix4_f32.c ****    /*  Calculation of second stage to excluding last stage */
 776:../Dave/Generated/CMSIS_DSP/Source/TransformFunctions/arm_cfft_radix4_f32.c ****    for (k = fftLen >> 2U; k > 4U; k >>= 2U)
 777:../Dave/Generated/CMSIS_DSP/Source/TransformFunctions/arm_cfft_radix4_f32.c ****    {
 778:../Dave/Generated/CMSIS_DSP/Source/TransformFunctions/arm_cfft_radix4_f32.c ****       /*  Initializations for the first stage */
 779:../Dave/Generated/CMSIS_DSP/Source/TransformFunctions/arm_cfft_radix4_f32.c ****       n1 = n2;
 780:../Dave/Generated/CMSIS_DSP/Source/TransformFunctions/arm_cfft_radix4_f32.c ****       n2 >>= 2U;
 781:../Dave/Generated/CMSIS_DSP/Source/TransformFunctions/arm_cfft_radix4_f32.c ****       ia1 = 0U;
 782:../Dave/Generated/CMSIS_DSP/Source/TransformFunctions/arm_cfft_radix4_f32.c **** 
 783:../Dave/Generated/CMSIS_DSP/Source/TransformFunctions/arm_cfft_radix4_f32.c ****       /*  Calculation of first stage */
 784:../Dave/Generated/CMSIS_DSP/Source/TransformFunctions/arm_cfft_radix4_f32.c ****       j = 0;
 785:../Dave/Generated/CMSIS_DSP/Source/TransformFunctions/arm_cfft_radix4_f32.c ****       do
 786:../Dave/Generated/CMSIS_DSP/Source/TransformFunctions/arm_cfft_radix4_f32.c ****       {
 787:../Dave/Generated/CMSIS_DSP/Source/TransformFunctions/arm_cfft_radix4_f32.c ****          /*  index calculation for the coefficients */
 788:../Dave/Generated/CMSIS_DSP/Source/TransformFunctions/arm_cfft_radix4_f32.c ****          ia2 = ia1 + ia1;
 789:../Dave/Generated/CMSIS_DSP/Source/TransformFunctions/arm_cfft_radix4_f32.c ****          ia3 = ia2 + ia1;
 790:../Dave/Generated/CMSIS_DSP/Source/TransformFunctions/arm_cfft_radix4_f32.c ****          co1 = pCoef[ia1 * 2U];
 791:../Dave/Generated/CMSIS_DSP/Source/TransformFunctions/arm_cfft_radix4_f32.c ****          si1 = pCoef[(ia1 * 2U) + 1U];
 792:../Dave/Generated/CMSIS_DSP/Source/TransformFunctions/arm_cfft_radix4_f32.c ****          co2 = pCoef[ia2 * 2U];
 793:../Dave/Generated/CMSIS_DSP/Source/TransformFunctions/arm_cfft_radix4_f32.c ****          si2 = pCoef[(ia2 * 2U) + 1U];
 794:../Dave/Generated/CMSIS_DSP/Source/TransformFunctions/arm_cfft_radix4_f32.c ****          co3 = pCoef[ia3 * 2U];
 795:../Dave/Generated/CMSIS_DSP/Source/TransformFunctions/arm_cfft_radix4_f32.c ****          si3 = pCoef[(ia3 * 2U) + 1U];
 796:../Dave/Generated/CMSIS_DSP/Source/TransformFunctions/arm_cfft_radix4_f32.c **** 
 797:../Dave/Generated/CMSIS_DSP/Source/TransformFunctions/arm_cfft_radix4_f32.c ****          /*  Twiddle coefficients index modifier */
 798:../Dave/Generated/CMSIS_DSP/Source/TransformFunctions/arm_cfft_radix4_f32.c ****          ia1 = ia1 + twidCoefModifier;
 799:../Dave/Generated/CMSIS_DSP/Source/TransformFunctions/arm_cfft_radix4_f32.c **** 
 800:../Dave/Generated/CMSIS_DSP/Source/TransformFunctions/arm_cfft_radix4_f32.c ****          i0 = j;
 801:../Dave/Generated/CMSIS_DSP/Source/TransformFunctions/arm_cfft_radix4_f32.c ****          do
 802:../Dave/Generated/CMSIS_DSP/Source/TransformFunctions/arm_cfft_radix4_f32.c ****          {
 803:../Dave/Generated/CMSIS_DSP/Source/TransformFunctions/arm_cfft_radix4_f32.c ****             /*  index calculation for the input as, */
 804:../Dave/Generated/CMSIS_DSP/Source/TransformFunctions/arm_cfft_radix4_f32.c ****             /*  pSrc[i0 + 0], pSrc[i0 + fftLen/4], pSrc[i0 + fftLen/2], pSrc[i0 + 3fftLen/4] */
 805:../Dave/Generated/CMSIS_DSP/Source/TransformFunctions/arm_cfft_radix4_f32.c ****             i1 = i0 + n2;
 806:../Dave/Generated/CMSIS_DSP/Source/TransformFunctions/arm_cfft_radix4_f32.c ****             i2 = i1 + n2;
 807:../Dave/Generated/CMSIS_DSP/Source/TransformFunctions/arm_cfft_radix4_f32.c ****             i3 = i2 + n2;
 808:../Dave/Generated/CMSIS_DSP/Source/TransformFunctions/arm_cfft_radix4_f32.c **** 
 809:../Dave/Generated/CMSIS_DSP/Source/TransformFunctions/arm_cfft_radix4_f32.c ****             xaIn = pSrc[(2U * i0)];
 810:../Dave/Generated/CMSIS_DSP/Source/TransformFunctions/arm_cfft_radix4_f32.c ****             yaIn = pSrc[(2U * i0) + 1U];
 811:../Dave/Generated/CMSIS_DSP/Source/TransformFunctions/arm_cfft_radix4_f32.c **** 
 812:../Dave/Generated/CMSIS_DSP/Source/TransformFunctions/arm_cfft_radix4_f32.c ****             xbIn = pSrc[(2U * i1)];
 813:../Dave/Generated/CMSIS_DSP/Source/TransformFunctions/arm_cfft_radix4_f32.c ****             ybIn = pSrc[(2U * i1) + 1U];
 814:../Dave/Generated/CMSIS_DSP/Source/TransformFunctions/arm_cfft_radix4_f32.c **** 
 815:../Dave/Generated/CMSIS_DSP/Source/TransformFunctions/arm_cfft_radix4_f32.c ****             xcIn = pSrc[(2U * i2)];
 816:../Dave/Generated/CMSIS_DSP/Source/TransformFunctions/arm_cfft_radix4_f32.c ****             ycIn = pSrc[(2U * i2) + 1U];
 817:../Dave/Generated/CMSIS_DSP/Source/TransformFunctions/arm_cfft_radix4_f32.c **** 
 818:../Dave/Generated/CMSIS_DSP/Source/TransformFunctions/arm_cfft_radix4_f32.c ****             xdIn = pSrc[(2U * i3)];
 819:../Dave/Generated/CMSIS_DSP/Source/TransformFunctions/arm_cfft_radix4_f32.c ****             ydIn = pSrc[(2U * i3) + 1U];
 820:../Dave/Generated/CMSIS_DSP/Source/TransformFunctions/arm_cfft_radix4_f32.c **** 
 821:../Dave/Generated/CMSIS_DSP/Source/TransformFunctions/arm_cfft_radix4_f32.c ****             /* xa - xc */
 822:../Dave/Generated/CMSIS_DSP/Source/TransformFunctions/arm_cfft_radix4_f32.c ****             Xaminusc = xaIn - xcIn;
 823:../Dave/Generated/CMSIS_DSP/Source/TransformFunctions/arm_cfft_radix4_f32.c ****             /* (xb - xd) */
 824:../Dave/Generated/CMSIS_DSP/Source/TransformFunctions/arm_cfft_radix4_f32.c ****             Xbminusd = xbIn - xdIn;
 825:../Dave/Generated/CMSIS_DSP/Source/TransformFunctions/arm_cfft_radix4_f32.c ****             /* ya - yc */
 826:../Dave/Generated/CMSIS_DSP/Source/TransformFunctions/arm_cfft_radix4_f32.c ****             Yaminusc = yaIn - ycIn;
 827:../Dave/Generated/CMSIS_DSP/Source/TransformFunctions/arm_cfft_radix4_f32.c ****             /* (yb - yd) */
 828:../Dave/Generated/CMSIS_DSP/Source/TransformFunctions/arm_cfft_radix4_f32.c ****             Ybminusd = ybIn - ydIn;
 829:../Dave/Generated/CMSIS_DSP/Source/TransformFunctions/arm_cfft_radix4_f32.c **** 
 830:../Dave/Generated/CMSIS_DSP/Source/TransformFunctions/arm_cfft_radix4_f32.c ****             /* xa + xc */
 831:../Dave/Generated/CMSIS_DSP/Source/TransformFunctions/arm_cfft_radix4_f32.c ****             Xaplusc = xaIn + xcIn;
 832:../Dave/Generated/CMSIS_DSP/Source/TransformFunctions/arm_cfft_radix4_f32.c ****             /* xb + xd */
 833:../Dave/Generated/CMSIS_DSP/Source/TransformFunctions/arm_cfft_radix4_f32.c ****             Xbplusd = xbIn + xdIn;
 834:../Dave/Generated/CMSIS_DSP/Source/TransformFunctions/arm_cfft_radix4_f32.c ****             /* ya + yc */
 835:../Dave/Generated/CMSIS_DSP/Source/TransformFunctions/arm_cfft_radix4_f32.c ****             Yaplusc = yaIn + ycIn;
 836:../Dave/Generated/CMSIS_DSP/Source/TransformFunctions/arm_cfft_radix4_f32.c ****             /* yb + yd */
 837:../Dave/Generated/CMSIS_DSP/Source/TransformFunctions/arm_cfft_radix4_f32.c ****             Ybplusd = ybIn + ydIn;
 838:../Dave/Generated/CMSIS_DSP/Source/TransformFunctions/arm_cfft_radix4_f32.c **** 
 839:../Dave/Generated/CMSIS_DSP/Source/TransformFunctions/arm_cfft_radix4_f32.c ****             /* (xa - xc) - (yb - yd) */
 840:../Dave/Generated/CMSIS_DSP/Source/TransformFunctions/arm_cfft_radix4_f32.c ****             Xb12C_out = (Xaminusc - Ybminusd);
 841:../Dave/Generated/CMSIS_DSP/Source/TransformFunctions/arm_cfft_radix4_f32.c ****             /* (ya - yc) +  (xb - xd) */
 842:../Dave/Generated/CMSIS_DSP/Source/TransformFunctions/arm_cfft_radix4_f32.c ****             Yb12C_out = (Yaminusc + Xbminusd);
 843:../Dave/Generated/CMSIS_DSP/Source/TransformFunctions/arm_cfft_radix4_f32.c ****             /* xa + xc -(xb + xd) */
 844:../Dave/Generated/CMSIS_DSP/Source/TransformFunctions/arm_cfft_radix4_f32.c ****             Xc12C_out = (Xaplusc - Xbplusd);
 845:../Dave/Generated/CMSIS_DSP/Source/TransformFunctions/arm_cfft_radix4_f32.c ****             /* (ya + yc) - (yb + yd) */
 846:../Dave/Generated/CMSIS_DSP/Source/TransformFunctions/arm_cfft_radix4_f32.c ****             Yc12C_out = (Yaplusc - Ybplusd);
 847:../Dave/Generated/CMSIS_DSP/Source/TransformFunctions/arm_cfft_radix4_f32.c ****             /* (xa - xc) + (yb - yd) */
 848:../Dave/Generated/CMSIS_DSP/Source/TransformFunctions/arm_cfft_radix4_f32.c ****             Xd12C_out = (Xaminusc + Ybminusd);
 849:../Dave/Generated/CMSIS_DSP/Source/TransformFunctions/arm_cfft_radix4_f32.c ****             /* (ya - yc) -  (xb - xd) */
 850:../Dave/Generated/CMSIS_DSP/Source/TransformFunctions/arm_cfft_radix4_f32.c ****             Yd12C_out = (Yaminusc - Xbminusd);
 851:../Dave/Generated/CMSIS_DSP/Source/TransformFunctions/arm_cfft_radix4_f32.c **** 
 852:../Dave/Generated/CMSIS_DSP/Source/TransformFunctions/arm_cfft_radix4_f32.c ****             pSrc[(2U * i0)] = Xaplusc + Xbplusd;
 853:../Dave/Generated/CMSIS_DSP/Source/TransformFunctions/arm_cfft_radix4_f32.c ****             pSrc[(2U * i0) + 1U] = Yaplusc + Ybplusd;
 854:../Dave/Generated/CMSIS_DSP/Source/TransformFunctions/arm_cfft_radix4_f32.c **** 
 855:../Dave/Generated/CMSIS_DSP/Source/TransformFunctions/arm_cfft_radix4_f32.c ****             Xb12_out = Xb12C_out * co1;
 856:../Dave/Generated/CMSIS_DSP/Source/TransformFunctions/arm_cfft_radix4_f32.c ****             Yb12_out = Yb12C_out * co1;
 857:../Dave/Generated/CMSIS_DSP/Source/TransformFunctions/arm_cfft_radix4_f32.c ****             Xc12_out = Xc12C_out * co2;
 858:../Dave/Generated/CMSIS_DSP/Source/TransformFunctions/arm_cfft_radix4_f32.c ****             Yc12_out = Yc12C_out * co2;
 859:../Dave/Generated/CMSIS_DSP/Source/TransformFunctions/arm_cfft_radix4_f32.c ****             Xd12_out = Xd12C_out * co3;
 860:../Dave/Generated/CMSIS_DSP/Source/TransformFunctions/arm_cfft_radix4_f32.c ****             Yd12_out = Yd12C_out * co3;
 861:../Dave/Generated/CMSIS_DSP/Source/TransformFunctions/arm_cfft_radix4_f32.c **** 
 862:../Dave/Generated/CMSIS_DSP/Source/TransformFunctions/arm_cfft_radix4_f32.c ****             /* xb' = (xa+yb-xc-yd)co1 - (ya-xb-yc+xd)(si1) */
 863:../Dave/Generated/CMSIS_DSP/Source/TransformFunctions/arm_cfft_radix4_f32.c ****             //Xb12_out -= Yb12C_out * si1;
 864:../Dave/Generated/CMSIS_DSP/Source/TransformFunctions/arm_cfft_radix4_f32.c ****             p0 = Yb12C_out * si1;
 865:../Dave/Generated/CMSIS_DSP/Source/TransformFunctions/arm_cfft_radix4_f32.c ****             /* yb' = (ya-xb-yc+xd)co1 + (xa+yb-xc-yd)(si1) */
 866:../Dave/Generated/CMSIS_DSP/Source/TransformFunctions/arm_cfft_radix4_f32.c ****             //Yb12_out += Xb12C_out * si1;
 867:../Dave/Generated/CMSIS_DSP/Source/TransformFunctions/arm_cfft_radix4_f32.c ****             p1 = Xb12C_out * si1;
 868:../Dave/Generated/CMSIS_DSP/Source/TransformFunctions/arm_cfft_radix4_f32.c ****             /* xc' = (xa-xb+xc-xd)co2 - (ya-yb+yc-yd)(si2) */
 869:../Dave/Generated/CMSIS_DSP/Source/TransformFunctions/arm_cfft_radix4_f32.c ****             //Xc12_out -= Yc12C_out * si2;
 870:../Dave/Generated/CMSIS_DSP/Source/TransformFunctions/arm_cfft_radix4_f32.c ****             p2 = Yc12C_out * si2;
 871:../Dave/Generated/CMSIS_DSP/Source/TransformFunctions/arm_cfft_radix4_f32.c ****             /* yc' = (ya-yb+yc-yd)co2 + (xa-xb+xc-xd)(si2) */
 872:../Dave/Generated/CMSIS_DSP/Source/TransformFunctions/arm_cfft_radix4_f32.c ****             //Yc12_out += Xc12C_out * si2;
 873:../Dave/Generated/CMSIS_DSP/Source/TransformFunctions/arm_cfft_radix4_f32.c ****             p3 = Xc12C_out * si2;
 874:../Dave/Generated/CMSIS_DSP/Source/TransformFunctions/arm_cfft_radix4_f32.c ****             /* xd' = (xa-yb-xc+yd)co3 - (ya+xb-yc-xd)(si3) */
 875:../Dave/Generated/CMSIS_DSP/Source/TransformFunctions/arm_cfft_radix4_f32.c ****             //Xd12_out -= Yd12C_out * si3;
 876:../Dave/Generated/CMSIS_DSP/Source/TransformFunctions/arm_cfft_radix4_f32.c ****             p4 = Yd12C_out * si3;
 877:../Dave/Generated/CMSIS_DSP/Source/TransformFunctions/arm_cfft_radix4_f32.c ****             /* yd' = (ya+xb-yc-xd)co3 + (xa-yb-xc+yd)(si3) */
 878:../Dave/Generated/CMSIS_DSP/Source/TransformFunctions/arm_cfft_radix4_f32.c ****             //Yd12_out += Xd12C_out * si3;
 879:../Dave/Generated/CMSIS_DSP/Source/TransformFunctions/arm_cfft_radix4_f32.c ****             p5 = Xd12C_out * si3;
 880:../Dave/Generated/CMSIS_DSP/Source/TransformFunctions/arm_cfft_radix4_f32.c **** 
 881:../Dave/Generated/CMSIS_DSP/Source/TransformFunctions/arm_cfft_radix4_f32.c ****             Xb12_out -= p0;
 882:../Dave/Generated/CMSIS_DSP/Source/TransformFunctions/arm_cfft_radix4_f32.c ****             Yb12_out += p1;
 883:../Dave/Generated/CMSIS_DSP/Source/TransformFunctions/arm_cfft_radix4_f32.c ****             Xc12_out -= p2;
 884:../Dave/Generated/CMSIS_DSP/Source/TransformFunctions/arm_cfft_radix4_f32.c ****             Yc12_out += p3;
 885:../Dave/Generated/CMSIS_DSP/Source/TransformFunctions/arm_cfft_radix4_f32.c ****             Xd12_out -= p4;
 886:../Dave/Generated/CMSIS_DSP/Source/TransformFunctions/arm_cfft_radix4_f32.c ****             Yd12_out += p5;
 887:../Dave/Generated/CMSIS_DSP/Source/TransformFunctions/arm_cfft_radix4_f32.c **** 
 888:../Dave/Generated/CMSIS_DSP/Source/TransformFunctions/arm_cfft_radix4_f32.c ****             /* xc' = (xa-xb+xc-xd)co2 - (ya-yb+yc-yd)(si2) */
 889:../Dave/Generated/CMSIS_DSP/Source/TransformFunctions/arm_cfft_radix4_f32.c ****             pSrc[2U * i1] = Xc12_out;
 890:../Dave/Generated/CMSIS_DSP/Source/TransformFunctions/arm_cfft_radix4_f32.c **** 
 891:../Dave/Generated/CMSIS_DSP/Source/TransformFunctions/arm_cfft_radix4_f32.c ****             /* yc' = (ya-yb+yc-yd)co2 + (xa-xb+xc-xd)(si2) */
 892:../Dave/Generated/CMSIS_DSP/Source/TransformFunctions/arm_cfft_radix4_f32.c ****             pSrc[(2U * i1) + 1U] = Yc12_out;
 893:../Dave/Generated/CMSIS_DSP/Source/TransformFunctions/arm_cfft_radix4_f32.c **** 
 894:../Dave/Generated/CMSIS_DSP/Source/TransformFunctions/arm_cfft_radix4_f32.c ****             /* xb' = (xa+yb-xc-yd)co1 - (ya-xb-yc+xd)(si1) */
 895:../Dave/Generated/CMSIS_DSP/Source/TransformFunctions/arm_cfft_radix4_f32.c ****             pSrc[2U * i2] = Xb12_out;
 896:../Dave/Generated/CMSIS_DSP/Source/TransformFunctions/arm_cfft_radix4_f32.c **** 
 897:../Dave/Generated/CMSIS_DSP/Source/TransformFunctions/arm_cfft_radix4_f32.c ****             /* yb' = (ya-xb-yc+xd)co1 + (xa+yb-xc-yd)(si1) */
 898:../Dave/Generated/CMSIS_DSP/Source/TransformFunctions/arm_cfft_radix4_f32.c ****             pSrc[(2U * i2) + 1U] = Yb12_out;
 899:../Dave/Generated/CMSIS_DSP/Source/TransformFunctions/arm_cfft_radix4_f32.c **** 
 900:../Dave/Generated/CMSIS_DSP/Source/TransformFunctions/arm_cfft_radix4_f32.c ****             /* xd' = (xa-yb-xc+yd)co3 - (ya+xb-yc-xd)(si3) */
 901:../Dave/Generated/CMSIS_DSP/Source/TransformFunctions/arm_cfft_radix4_f32.c ****             pSrc[2U * i3] = Xd12_out;
 902:../Dave/Generated/CMSIS_DSP/Source/TransformFunctions/arm_cfft_radix4_f32.c **** 
 903:../Dave/Generated/CMSIS_DSP/Source/TransformFunctions/arm_cfft_radix4_f32.c ****             /* yd' = (ya+xb-yc-xd)co3 + (xa-yb-xc+yd)(si3) */
 904:../Dave/Generated/CMSIS_DSP/Source/TransformFunctions/arm_cfft_radix4_f32.c ****             pSrc[(2U * i3) + 1U] = Yd12_out;
 905:../Dave/Generated/CMSIS_DSP/Source/TransformFunctions/arm_cfft_radix4_f32.c **** 
 906:../Dave/Generated/CMSIS_DSP/Source/TransformFunctions/arm_cfft_radix4_f32.c ****             i0 += n1;
 907:../Dave/Generated/CMSIS_DSP/Source/TransformFunctions/arm_cfft_radix4_f32.c ****          } while (i0 < fftLen);
 908:../Dave/Generated/CMSIS_DSP/Source/TransformFunctions/arm_cfft_radix4_f32.c ****          j++;
 909:../Dave/Generated/CMSIS_DSP/Source/TransformFunctions/arm_cfft_radix4_f32.c ****       } while (j <= (n2 - 1U));
 910:../Dave/Generated/CMSIS_DSP/Source/TransformFunctions/arm_cfft_radix4_f32.c ****       twidCoefModifier <<= 2U;
 911:../Dave/Generated/CMSIS_DSP/Source/TransformFunctions/arm_cfft_radix4_f32.c ****    }
 912:../Dave/Generated/CMSIS_DSP/Source/TransformFunctions/arm_cfft_radix4_f32.c ****    /*  Initializations of last stage */
 913:../Dave/Generated/CMSIS_DSP/Source/TransformFunctions/arm_cfft_radix4_f32.c **** 
 914:../Dave/Generated/CMSIS_DSP/Source/TransformFunctions/arm_cfft_radix4_f32.c ****    j = fftLen >> 2;
 915:../Dave/Generated/CMSIS_DSP/Source/TransformFunctions/arm_cfft_radix4_f32.c ****    ptr1 = &pSrc[0];
 916:../Dave/Generated/CMSIS_DSP/Source/TransformFunctions/arm_cfft_radix4_f32.c **** 
 917:../Dave/Generated/CMSIS_DSP/Source/TransformFunctions/arm_cfft_radix4_f32.c ****    /*  Calculations of last stage */
 918:../Dave/Generated/CMSIS_DSP/Source/TransformFunctions/arm_cfft_radix4_f32.c ****    do
 919:../Dave/Generated/CMSIS_DSP/Source/TransformFunctions/arm_cfft_radix4_f32.c ****    {
 920:../Dave/Generated/CMSIS_DSP/Source/TransformFunctions/arm_cfft_radix4_f32.c ****       xaIn = ptr1[0];
 921:../Dave/Generated/CMSIS_DSP/Source/TransformFunctions/arm_cfft_radix4_f32.c ****       yaIn = ptr1[1];
 922:../Dave/Generated/CMSIS_DSP/Source/TransformFunctions/arm_cfft_radix4_f32.c ****       xbIn = ptr1[2];
 923:../Dave/Generated/CMSIS_DSP/Source/TransformFunctions/arm_cfft_radix4_f32.c ****       ybIn = ptr1[3];
 924:../Dave/Generated/CMSIS_DSP/Source/TransformFunctions/arm_cfft_radix4_f32.c ****       xcIn = ptr1[4];
 925:../Dave/Generated/CMSIS_DSP/Source/TransformFunctions/arm_cfft_radix4_f32.c ****       ycIn = ptr1[5];
 926:../Dave/Generated/CMSIS_DSP/Source/TransformFunctions/arm_cfft_radix4_f32.c ****       xdIn = ptr1[6];
 927:../Dave/Generated/CMSIS_DSP/Source/TransformFunctions/arm_cfft_radix4_f32.c ****       ydIn = ptr1[7];
 928:../Dave/Generated/CMSIS_DSP/Source/TransformFunctions/arm_cfft_radix4_f32.c **** 
 929:../Dave/Generated/CMSIS_DSP/Source/TransformFunctions/arm_cfft_radix4_f32.c ****       /*  Butterfly implementation */
 930:../Dave/Generated/CMSIS_DSP/Source/TransformFunctions/arm_cfft_radix4_f32.c ****       /* xa + xc */
 931:../Dave/Generated/CMSIS_DSP/Source/TransformFunctions/arm_cfft_radix4_f32.c ****       Xaplusc = xaIn + xcIn;
 932:../Dave/Generated/CMSIS_DSP/Source/TransformFunctions/arm_cfft_radix4_f32.c **** 
 933:../Dave/Generated/CMSIS_DSP/Source/TransformFunctions/arm_cfft_radix4_f32.c ****       /* xa - xc */
 934:../Dave/Generated/CMSIS_DSP/Source/TransformFunctions/arm_cfft_radix4_f32.c ****       Xaminusc = xaIn - xcIn;
 935:../Dave/Generated/CMSIS_DSP/Source/TransformFunctions/arm_cfft_radix4_f32.c **** 
 936:../Dave/Generated/CMSIS_DSP/Source/TransformFunctions/arm_cfft_radix4_f32.c ****       /* ya + yc */
 937:../Dave/Generated/CMSIS_DSP/Source/TransformFunctions/arm_cfft_radix4_f32.c ****       Yaplusc = yaIn + ycIn;
 938:../Dave/Generated/CMSIS_DSP/Source/TransformFunctions/arm_cfft_radix4_f32.c **** 
 939:../Dave/Generated/CMSIS_DSP/Source/TransformFunctions/arm_cfft_radix4_f32.c ****       /* ya - yc */
 940:../Dave/Generated/CMSIS_DSP/Source/TransformFunctions/arm_cfft_radix4_f32.c ****       Yaminusc = yaIn - ycIn;
 941:../Dave/Generated/CMSIS_DSP/Source/TransformFunctions/arm_cfft_radix4_f32.c **** 
 942:../Dave/Generated/CMSIS_DSP/Source/TransformFunctions/arm_cfft_radix4_f32.c ****       /* xb + xd */
 943:../Dave/Generated/CMSIS_DSP/Source/TransformFunctions/arm_cfft_radix4_f32.c ****       Xbplusd = xbIn + xdIn;
 944:../Dave/Generated/CMSIS_DSP/Source/TransformFunctions/arm_cfft_radix4_f32.c **** 
 945:../Dave/Generated/CMSIS_DSP/Source/TransformFunctions/arm_cfft_radix4_f32.c ****       /* yb + yd */
 946:../Dave/Generated/CMSIS_DSP/Source/TransformFunctions/arm_cfft_radix4_f32.c ****       Ybplusd = ybIn + ydIn;
 947:../Dave/Generated/CMSIS_DSP/Source/TransformFunctions/arm_cfft_radix4_f32.c **** 
 948:../Dave/Generated/CMSIS_DSP/Source/TransformFunctions/arm_cfft_radix4_f32.c ****       /* (xb-xd) */
 949:../Dave/Generated/CMSIS_DSP/Source/TransformFunctions/arm_cfft_radix4_f32.c ****       Xbminusd = xbIn - xdIn;
 950:../Dave/Generated/CMSIS_DSP/Source/TransformFunctions/arm_cfft_radix4_f32.c **** 
 951:../Dave/Generated/CMSIS_DSP/Source/TransformFunctions/arm_cfft_radix4_f32.c ****       /* (yb-yd) */
 952:../Dave/Generated/CMSIS_DSP/Source/TransformFunctions/arm_cfft_radix4_f32.c ****       Ybminusd = ybIn - ydIn;
 953:../Dave/Generated/CMSIS_DSP/Source/TransformFunctions/arm_cfft_radix4_f32.c **** 
 954:../Dave/Generated/CMSIS_DSP/Source/TransformFunctions/arm_cfft_radix4_f32.c ****       /* xa' = (xa+xb+xc+xd) * onebyfftLen */
 955:../Dave/Generated/CMSIS_DSP/Source/TransformFunctions/arm_cfft_radix4_f32.c ****       a0 = (Xaplusc + Xbplusd);
 956:../Dave/Generated/CMSIS_DSP/Source/TransformFunctions/arm_cfft_radix4_f32.c ****       /* ya' = (ya+yb+yc+yd) * onebyfftLen */
 957:../Dave/Generated/CMSIS_DSP/Source/TransformFunctions/arm_cfft_radix4_f32.c ****       a1 = (Yaplusc + Ybplusd);
 958:../Dave/Generated/CMSIS_DSP/Source/TransformFunctions/arm_cfft_radix4_f32.c ****       /* xc' = (xa-xb+xc-xd) * onebyfftLen */
 959:../Dave/Generated/CMSIS_DSP/Source/TransformFunctions/arm_cfft_radix4_f32.c ****       a2 = (Xaplusc - Xbplusd);
 960:../Dave/Generated/CMSIS_DSP/Source/TransformFunctions/arm_cfft_radix4_f32.c ****       /* yc' = (ya-yb+yc-yd) * onebyfftLen  */
 961:../Dave/Generated/CMSIS_DSP/Source/TransformFunctions/arm_cfft_radix4_f32.c ****       a3 = (Yaplusc - Ybplusd);
 962:../Dave/Generated/CMSIS_DSP/Source/TransformFunctions/arm_cfft_radix4_f32.c ****       /* xb' = (xa-yb-xc+yd) * onebyfftLen */
 963:../Dave/Generated/CMSIS_DSP/Source/TransformFunctions/arm_cfft_radix4_f32.c ****       a4 = (Xaminusc - Ybminusd);
 964:../Dave/Generated/CMSIS_DSP/Source/TransformFunctions/arm_cfft_radix4_f32.c ****       /* yb' = (ya+xb-yc-xd) * onebyfftLen */
 965:../Dave/Generated/CMSIS_DSP/Source/TransformFunctions/arm_cfft_radix4_f32.c ****       a5 = (Yaminusc + Xbminusd);
 966:../Dave/Generated/CMSIS_DSP/Source/TransformFunctions/arm_cfft_radix4_f32.c ****       /* xd' = (xa-yb-xc+yd) * onebyfftLen */
 967:../Dave/Generated/CMSIS_DSP/Source/TransformFunctions/arm_cfft_radix4_f32.c ****       a6 = (Xaminusc + Ybminusd);
 968:../Dave/Generated/CMSIS_DSP/Source/TransformFunctions/arm_cfft_radix4_f32.c ****       /* yd' = (ya-xb-yc+xd) * onebyfftLen */
 969:../Dave/Generated/CMSIS_DSP/Source/TransformFunctions/arm_cfft_radix4_f32.c ****       a7 = (Yaminusc - Xbminusd);
 970:../Dave/Generated/CMSIS_DSP/Source/TransformFunctions/arm_cfft_radix4_f32.c **** 
 971:../Dave/Generated/CMSIS_DSP/Source/TransformFunctions/arm_cfft_radix4_f32.c ****       p0 = a0 * onebyfftLen;
 972:../Dave/Generated/CMSIS_DSP/Source/TransformFunctions/arm_cfft_radix4_f32.c ****       p1 = a1 * onebyfftLen;
 973:../Dave/Generated/CMSIS_DSP/Source/TransformFunctions/arm_cfft_radix4_f32.c ****       p2 = a2 * onebyfftLen;
 974:../Dave/Generated/CMSIS_DSP/Source/TransformFunctions/arm_cfft_radix4_f32.c ****       p3 = a3 * onebyfftLen;
 975:../Dave/Generated/CMSIS_DSP/Source/TransformFunctions/arm_cfft_radix4_f32.c ****       p4 = a4 * onebyfftLen;
 976:../Dave/Generated/CMSIS_DSP/Source/TransformFunctions/arm_cfft_radix4_f32.c ****       p5 = a5 * onebyfftLen;
 977:../Dave/Generated/CMSIS_DSP/Source/TransformFunctions/arm_cfft_radix4_f32.c ****       p6 = a6 * onebyfftLen;
 978:../Dave/Generated/CMSIS_DSP/Source/TransformFunctions/arm_cfft_radix4_f32.c ****       p7 = a7 * onebyfftLen;
 979:../Dave/Generated/CMSIS_DSP/Source/TransformFunctions/arm_cfft_radix4_f32.c **** 
 980:../Dave/Generated/CMSIS_DSP/Source/TransformFunctions/arm_cfft_radix4_f32.c ****       /* xa' = (xa+xb+xc+xd) * onebyfftLen */
 981:../Dave/Generated/CMSIS_DSP/Source/TransformFunctions/arm_cfft_radix4_f32.c ****       ptr1[0] = p0;
 982:../Dave/Generated/CMSIS_DSP/Source/TransformFunctions/arm_cfft_radix4_f32.c ****       /* ya' = (ya+yb+yc+yd) * onebyfftLen */
 983:../Dave/Generated/CMSIS_DSP/Source/TransformFunctions/arm_cfft_radix4_f32.c ****       ptr1[1] = p1;
 984:../Dave/Generated/CMSIS_DSP/Source/TransformFunctions/arm_cfft_radix4_f32.c ****       /* xc' = (xa-xb+xc-xd) * onebyfftLen */
 985:../Dave/Generated/CMSIS_DSP/Source/TransformFunctions/arm_cfft_radix4_f32.c ****       ptr1[2] = p2;
 986:../Dave/Generated/CMSIS_DSP/Source/TransformFunctions/arm_cfft_radix4_f32.c ****       /* yc' = (ya-yb+yc-yd) * onebyfftLen  */
 987:../Dave/Generated/CMSIS_DSP/Source/TransformFunctions/arm_cfft_radix4_f32.c ****       ptr1[3] = p3;
 988:../Dave/Generated/CMSIS_DSP/Source/TransformFunctions/arm_cfft_radix4_f32.c ****       /* xb' = (xa-yb-xc+yd) * onebyfftLen */
 989:../Dave/Generated/CMSIS_DSP/Source/TransformFunctions/arm_cfft_radix4_f32.c ****       ptr1[4] = p4;
 990:../Dave/Generated/CMSIS_DSP/Source/TransformFunctions/arm_cfft_radix4_f32.c ****       /* yb' = (ya+xb-yc-xd) * onebyfftLen */
 991:../Dave/Generated/CMSIS_DSP/Source/TransformFunctions/arm_cfft_radix4_f32.c ****       ptr1[5] = p5;
 992:../Dave/Generated/CMSIS_DSP/Source/TransformFunctions/arm_cfft_radix4_f32.c ****       /* xd' = (xa-yb-xc+yd) * onebyfftLen */
 993:../Dave/Generated/CMSIS_DSP/Source/TransformFunctions/arm_cfft_radix4_f32.c ****       ptr1[6] = p6;
 994:../Dave/Generated/CMSIS_DSP/Source/TransformFunctions/arm_cfft_radix4_f32.c ****       /* yd' = (ya-xb-yc+xd) * onebyfftLen */
 995:../Dave/Generated/CMSIS_DSP/Source/TransformFunctions/arm_cfft_radix4_f32.c ****       ptr1[7] = p7;
 996:../Dave/Generated/CMSIS_DSP/Source/TransformFunctions/arm_cfft_radix4_f32.c **** 
 997:../Dave/Generated/CMSIS_DSP/Source/TransformFunctions/arm_cfft_radix4_f32.c ****       /* increment source pointer by 8 for next calculations */
 998:../Dave/Generated/CMSIS_DSP/Source/TransformFunctions/arm_cfft_radix4_f32.c ****       ptr1 = ptr1 + 8U;
 999:../Dave/Generated/CMSIS_DSP/Source/TransformFunctions/arm_cfft_radix4_f32.c **** 
1000:../Dave/Generated/CMSIS_DSP/Source/TransformFunctions/arm_cfft_radix4_f32.c ****    } while (--j);
1001:../Dave/Generated/CMSIS_DSP/Source/TransformFunctions/arm_cfft_radix4_f32.c **** 
1002:../Dave/Generated/CMSIS_DSP/Source/TransformFunctions/arm_cfft_radix4_f32.c **** #else
1003:../Dave/Generated/CMSIS_DSP/Source/TransformFunctions/arm_cfft_radix4_f32.c **** 
1004:../Dave/Generated/CMSIS_DSP/Source/TransformFunctions/arm_cfft_radix4_f32.c ****         float32_t t1, t2, r1, r2, s1, s2;
1005:../Dave/Generated/CMSIS_DSP/Source/TransformFunctions/arm_cfft_radix4_f32.c **** 
1006:../Dave/Generated/CMSIS_DSP/Source/TransformFunctions/arm_cfft_radix4_f32.c ****    /*  Initializations for the first stage */
1007:../Dave/Generated/CMSIS_DSP/Source/TransformFunctions/arm_cfft_radix4_f32.c ****    n2 = fftLen;
 558              	 .loc 1 1007 0
 559 0014 7B89     	 ldrh r3,[r7,#10]
 560 0016 7B66     	 str r3,[r7,#100]
1008:../Dave/Generated/CMSIS_DSP/Source/TransformFunctions/arm_cfft_radix4_f32.c ****    n1 = n2;
 561              	 .loc 1 1008 0
 562 0018 7B6E     	 ldr r3,[r7,#100]
 563 001a BB65     	 str r3,[r7,#88]
1009:../Dave/Generated/CMSIS_DSP/Source/TransformFunctions/arm_cfft_radix4_f32.c **** 
1010:../Dave/Generated/CMSIS_DSP/Source/TransformFunctions/arm_cfft_radix4_f32.c ****    /*  Calculation of first stage */
1011:../Dave/Generated/CMSIS_DSP/Source/TransformFunctions/arm_cfft_radix4_f32.c ****    for (k = fftLen; k > 4U; k >>= 2U)
 564              	 .loc 1 1011 0
 565 001c 7B89     	 ldrh r3,[r7,#10]
 566 001e FB65     	 str r3,[r7,#92]
 567 0020 ADE1     	 b .L11
 568              	.L14:
1012:../Dave/Generated/CMSIS_DSP/Source/TransformFunctions/arm_cfft_radix4_f32.c ****    {
1013:../Dave/Generated/CMSIS_DSP/Source/TransformFunctions/arm_cfft_radix4_f32.c ****       /*  Initializations for the first stage */
1014:../Dave/Generated/CMSIS_DSP/Source/TransformFunctions/arm_cfft_radix4_f32.c ****       n1 = n2;
 569              	 .loc 1 1014 0
 570 0022 7B6E     	 ldr r3,[r7,#100]
 571 0024 BB65     	 str r3,[r7,#88]
1015:../Dave/Generated/CMSIS_DSP/Source/TransformFunctions/arm_cfft_radix4_f32.c ****       n2 >>= 2U;
 572              	 .loc 1 1015 0
 573 0026 7B6E     	 ldr r3,[r7,#100]
 574 0028 9B08     	 lsrs r3,r3,#2
 575 002a 7B66     	 str r3,[r7,#100]
1016:../Dave/Generated/CMSIS_DSP/Source/TransformFunctions/arm_cfft_radix4_f32.c ****       ia1 = 0U;
 576              	 .loc 1 1016 0
 577 002c 0023     	 movs r3,#0
 578 002e FB66     	 str r3,[r7,#108]
1017:../Dave/Generated/CMSIS_DSP/Source/TransformFunctions/arm_cfft_radix4_f32.c **** 
1018:../Dave/Generated/CMSIS_DSP/Source/TransformFunctions/arm_cfft_radix4_f32.c ****       /*  Calculation of first stage */
1019:../Dave/Generated/CMSIS_DSP/Source/TransformFunctions/arm_cfft_radix4_f32.c ****       j = 0;
 579              	 .loc 1 1019 0
 580 0030 0023     	 movs r3,#0
 581 0032 3B66     	 str r3,[r7,#96]
 582              	.L13:
1020:../Dave/Generated/CMSIS_DSP/Source/TransformFunctions/arm_cfft_radix4_f32.c ****       do
1021:../Dave/Generated/CMSIS_DSP/Source/TransformFunctions/arm_cfft_radix4_f32.c ****       {
1022:../Dave/Generated/CMSIS_DSP/Source/TransformFunctions/arm_cfft_radix4_f32.c ****          /*  index calculation for the coefficients */
1023:../Dave/Generated/CMSIS_DSP/Source/TransformFunctions/arm_cfft_radix4_f32.c ****          ia2 = ia1 + ia1;
 583              	 .loc 1 1023 0
 584 0034 FA6E     	 ldr r2,[r7,#108]
 585 0036 FB6E     	 ldr r3,[r7,#108]
 586 0038 1344     	 add r3,r3,r2
 587 003a 7B65     	 str r3,[r7,#84]
1024:../Dave/Generated/CMSIS_DSP/Source/TransformFunctions/arm_cfft_radix4_f32.c ****          ia3 = ia2 + ia1;
 588              	 .loc 1 1024 0
 589 003c 7A6D     	 ldr r2,[r7,#84]
 590 003e FB6E     	 ldr r3,[r7,#108]
 591 0040 1344     	 add r3,r3,r2
 592 0042 3B65     	 str r3,[r7,#80]
1025:../Dave/Generated/CMSIS_DSP/Source/TransformFunctions/arm_cfft_radix4_f32.c ****          co1 = pCoef[ia1 * 2U];
 593              	 .loc 1 1025 0
 594 0044 FB6E     	 ldr r3,[r7,#108]
 595 0046 DB00     	 lsls r3,r3,#3
 596 0048 7A68     	 ldr r2,[r7,#4]
 597 004a 1344     	 add r3,r3,r2
 598 004c 1B68     	 ldr r3,[r3]
 599 004e FB64     	 str r3,[r7,#76]
1026:../Dave/Generated/CMSIS_DSP/Source/TransformFunctions/arm_cfft_radix4_f32.c ****          si1 = pCoef[(ia1 * 2U) + 1U];
 600              	 .loc 1 1026 0
 601 0050 FB6E     	 ldr r3,[r7,#108]
 602 0052 DB00     	 lsls r3,r3,#3
 603 0054 0433     	 adds r3,r3,#4
 604 0056 7A68     	 ldr r2,[r7,#4]
 605 0058 1344     	 add r3,r3,r2
 606 005a 1B68     	 ldr r3,[r3]
 607 005c BB64     	 str r3,[r7,#72]
1027:../Dave/Generated/CMSIS_DSP/Source/TransformFunctions/arm_cfft_radix4_f32.c ****          co2 = pCoef[ia2 * 2U];
 608              	 .loc 1 1027 0
 609 005e 7B6D     	 ldr r3,[r7,#84]
 610 0060 DB00     	 lsls r3,r3,#3
 611 0062 7A68     	 ldr r2,[r7,#4]
 612 0064 1344     	 add r3,r3,r2
 613 0066 1B68     	 ldr r3,[r3]
 614 0068 7B64     	 str r3,[r7,#68]
1028:../Dave/Generated/CMSIS_DSP/Source/TransformFunctions/arm_cfft_radix4_f32.c ****          si2 = pCoef[(ia2 * 2U) + 1U];
 615              	 .loc 1 1028 0
 616 006a 7B6D     	 ldr r3,[r7,#84]
 617 006c DB00     	 lsls r3,r3,#3
 618 006e 0433     	 adds r3,r3,#4
 619 0070 7A68     	 ldr r2,[r7,#4]
 620 0072 1344     	 add r3,r3,r2
 621 0074 1B68     	 ldr r3,[r3]
 622 0076 3B64     	 str r3,[r7,#64]
1029:../Dave/Generated/CMSIS_DSP/Source/TransformFunctions/arm_cfft_radix4_f32.c ****          co3 = pCoef[ia3 * 2U];
 623              	 .loc 1 1029 0
 624 0078 3B6D     	 ldr r3,[r7,#80]
 625 007a DB00     	 lsls r3,r3,#3
 626 007c 7A68     	 ldr r2,[r7,#4]
 627 007e 1344     	 add r3,r3,r2
 628 0080 1B68     	 ldr r3,[r3]
 629 0082 FB63     	 str r3,[r7,#60]
1030:../Dave/Generated/CMSIS_DSP/Source/TransformFunctions/arm_cfft_radix4_f32.c ****          si3 = pCoef[(ia3 * 2U) + 1U];
 630              	 .loc 1 1030 0
 631 0084 3B6D     	 ldr r3,[r7,#80]
 632 0086 DB00     	 lsls r3,r3,#3
 633 0088 0433     	 adds r3,r3,#4
 634 008a 7A68     	 ldr r2,[r7,#4]
 635 008c 1344     	 add r3,r3,r2
 636 008e 1B68     	 ldr r3,[r3]
 637 0090 BB63     	 str r3,[r7,#56]
1031:../Dave/Generated/CMSIS_DSP/Source/TransformFunctions/arm_cfft_radix4_f32.c **** 
1032:../Dave/Generated/CMSIS_DSP/Source/TransformFunctions/arm_cfft_radix4_f32.c ****          /*  Twiddle coefficients index modifier */
1033:../Dave/Generated/CMSIS_DSP/Source/TransformFunctions/arm_cfft_radix4_f32.c ****          ia1 = ia1 + twidCoefModifier;
 638              	 .loc 1 1033 0
 639 0092 3B89     	 ldrh r3,[r7,#8]
 640 0094 FA6E     	 ldr r2,[r7,#108]
 641 0096 1344     	 add r3,r3,r2
 642 0098 FB66     	 str r3,[r7,#108]
1034:../Dave/Generated/CMSIS_DSP/Source/TransformFunctions/arm_cfft_radix4_f32.c **** 
1035:../Dave/Generated/CMSIS_DSP/Source/TransformFunctions/arm_cfft_radix4_f32.c ****          i0 = j;
 643              	 .loc 1 1035 0
 644 009a 3B6E     	 ldr r3,[r7,#96]
 645 009c BB66     	 str r3,[r7,#104]
 646              	.L12:
1036:../Dave/Generated/CMSIS_DSP/Source/TransformFunctions/arm_cfft_radix4_f32.c ****          do
1037:../Dave/Generated/CMSIS_DSP/Source/TransformFunctions/arm_cfft_radix4_f32.c ****          {
1038:../Dave/Generated/CMSIS_DSP/Source/TransformFunctions/arm_cfft_radix4_f32.c ****             /*  index calculation for the input as, */
1039:../Dave/Generated/CMSIS_DSP/Source/TransformFunctions/arm_cfft_radix4_f32.c ****             /*  pSrc[i0 + 0], pSrc[i0 + fftLen/4], pSrc[i0 + fftLen/2], pSrc[i0 + 3fftLen/4] */
1040:../Dave/Generated/CMSIS_DSP/Source/TransformFunctions/arm_cfft_radix4_f32.c ****             i1 = i0 + n2;
 647              	 .loc 1 1040 0 discriminator 1
 648 009e BA6E     	 ldr r2,[r7,#104]
 649 00a0 7B6E     	 ldr r3,[r7,#100]
 650 00a2 1344     	 add r3,r3,r2
 651 00a4 7B63     	 str r3,[r7,#52]
1041:../Dave/Generated/CMSIS_DSP/Source/TransformFunctions/arm_cfft_radix4_f32.c ****             i2 = i1 + n2;
 652              	 .loc 1 1041 0 discriminator 1
 653 00a6 7A6B     	 ldr r2,[r7,#52]
 654 00a8 7B6E     	 ldr r3,[r7,#100]
 655 00aa 1344     	 add r3,r3,r2
 656 00ac 3B63     	 str r3,[r7,#48]
1042:../Dave/Generated/CMSIS_DSP/Source/TransformFunctions/arm_cfft_radix4_f32.c ****             i3 = i2 + n2;
 657              	 .loc 1 1042 0 discriminator 1
 658 00ae 3A6B     	 ldr r2,[r7,#48]
 659 00b0 7B6E     	 ldr r3,[r7,#100]
 660 00b2 1344     	 add r3,r3,r2
 661 00b4 FB62     	 str r3,[r7,#44]
1043:../Dave/Generated/CMSIS_DSP/Source/TransformFunctions/arm_cfft_radix4_f32.c **** 
1044:../Dave/Generated/CMSIS_DSP/Source/TransformFunctions/arm_cfft_radix4_f32.c ****             /* xa + xc */
1045:../Dave/Generated/CMSIS_DSP/Source/TransformFunctions/arm_cfft_radix4_f32.c ****             r1 = pSrc[(2U * i0)] + pSrc[(2U * i2)];
 662              	 .loc 1 1045 0 discriminator 1
 663 00b6 BB6E     	 ldr r3,[r7,#104]
 664 00b8 DB00     	 lsls r3,r3,#3
 665 00ba FA68     	 ldr r2,[r7,#12]
 666 00bc 1344     	 add r3,r3,r2
 667 00be 93ED007A 	 flds s14,[r3]
 668 00c2 3B6B     	 ldr r3,[r7,#48]
 669 00c4 DB00     	 lsls r3,r3,#3
 670 00c6 FA68     	 ldr r2,[r7,#12]
 671 00c8 1344     	 add r3,r3,r2
 672 00ca D3ED007A 	 flds s15,[r3]
 673 00ce 77EE277A 	 fadds s15,s14,s15
 674 00d2 C7ED0A7A 	 fsts s15,[r7,#40]
1046:../Dave/Generated/CMSIS_DSP/Source/TransformFunctions/arm_cfft_radix4_f32.c **** 
1047:../Dave/Generated/CMSIS_DSP/Source/TransformFunctions/arm_cfft_radix4_f32.c ****             /* xa - xc */
1048:../Dave/Generated/CMSIS_DSP/Source/TransformFunctions/arm_cfft_radix4_f32.c ****             r2 = pSrc[(2U * i0)] - pSrc[(2U * i2)];
 675              	 .loc 1 1048 0 discriminator 1
 676 00d6 BB6E     	 ldr r3,[r7,#104]
 677 00d8 DB00     	 lsls r3,r3,#3
 678 00da FA68     	 ldr r2,[r7,#12]
 679 00dc 1344     	 add r3,r3,r2
 680 00de 93ED007A 	 flds s14,[r3]
 681 00e2 3B6B     	 ldr r3,[r7,#48]
 682 00e4 DB00     	 lsls r3,r3,#3
 683 00e6 FA68     	 ldr r2,[r7,#12]
 684 00e8 1344     	 add r3,r3,r2
 685 00ea D3ED007A 	 flds s15,[r3]
 686 00ee 77EE677A 	 fsubs s15,s14,s15
 687 00f2 C7ED097A 	 fsts s15,[r7,#36]
1049:../Dave/Generated/CMSIS_DSP/Source/TransformFunctions/arm_cfft_radix4_f32.c **** 
1050:../Dave/Generated/CMSIS_DSP/Source/TransformFunctions/arm_cfft_radix4_f32.c ****             /* ya + yc */
1051:../Dave/Generated/CMSIS_DSP/Source/TransformFunctions/arm_cfft_radix4_f32.c ****             s1 = pSrc[(2U * i0) + 1U] + pSrc[(2U * i2) + 1U];
 688              	 .loc 1 1051 0 discriminator 1
 689 00f6 BB6E     	 ldr r3,[r7,#104]
 690 00f8 DB00     	 lsls r3,r3,#3
 691 00fa 0433     	 adds r3,r3,#4
 692 00fc FA68     	 ldr r2,[r7,#12]
 693 00fe 1344     	 add r3,r3,r2
 694 0100 93ED007A 	 flds s14,[r3]
 695 0104 3B6B     	 ldr r3,[r7,#48]
 696 0106 DB00     	 lsls r3,r3,#3
 697 0108 0433     	 adds r3,r3,#4
 698 010a FA68     	 ldr r2,[r7,#12]
 699 010c 1344     	 add r3,r3,r2
 700 010e D3ED007A 	 flds s15,[r3]
 701 0112 77EE277A 	 fadds s15,s14,s15
 702 0116 C7ED087A 	 fsts s15,[r7,#32]
1052:../Dave/Generated/CMSIS_DSP/Source/TransformFunctions/arm_cfft_radix4_f32.c **** 
1053:../Dave/Generated/CMSIS_DSP/Source/TransformFunctions/arm_cfft_radix4_f32.c ****             /* ya - yc */
1054:../Dave/Generated/CMSIS_DSP/Source/TransformFunctions/arm_cfft_radix4_f32.c ****             s2 = pSrc[(2U * i0) + 1U] - pSrc[(2U * i2) + 1U];
 703              	 .loc 1 1054 0 discriminator 1
 704 011a BB6E     	 ldr r3,[r7,#104]
 705 011c DB00     	 lsls r3,r3,#3
 706 011e 0433     	 adds r3,r3,#4
 707 0120 FA68     	 ldr r2,[r7,#12]
 708 0122 1344     	 add r3,r3,r2
 709 0124 93ED007A 	 flds s14,[r3]
 710 0128 3B6B     	 ldr r3,[r7,#48]
 711 012a DB00     	 lsls r3,r3,#3
 712 012c 0433     	 adds r3,r3,#4
 713 012e FA68     	 ldr r2,[r7,#12]
 714 0130 1344     	 add r3,r3,r2
 715 0132 D3ED007A 	 flds s15,[r3]
 716 0136 77EE677A 	 fsubs s15,s14,s15
 717 013a C7ED077A 	 fsts s15,[r7,#28]
1055:../Dave/Generated/CMSIS_DSP/Source/TransformFunctions/arm_cfft_radix4_f32.c **** 
1056:../Dave/Generated/CMSIS_DSP/Source/TransformFunctions/arm_cfft_radix4_f32.c ****             /* xb + xd */
1057:../Dave/Generated/CMSIS_DSP/Source/TransformFunctions/arm_cfft_radix4_f32.c ****             t1 = pSrc[2U * i1] + pSrc[2U * i3];
 718              	 .loc 1 1057 0 discriminator 1
 719 013e 7B6B     	 ldr r3,[r7,#52]
 720 0140 DB00     	 lsls r3,r3,#3
 721 0142 FA68     	 ldr r2,[r7,#12]
 722 0144 1344     	 add r3,r3,r2
 723 0146 93ED007A 	 flds s14,[r3]
 724 014a FB6A     	 ldr r3,[r7,#44]
 725 014c DB00     	 lsls r3,r3,#3
 726 014e FA68     	 ldr r2,[r7,#12]
 727 0150 1344     	 add r3,r3,r2
 728 0152 D3ED007A 	 flds s15,[r3]
 729 0156 77EE277A 	 fadds s15,s14,s15
 730 015a C7ED067A 	 fsts s15,[r7,#24]
1058:../Dave/Generated/CMSIS_DSP/Source/TransformFunctions/arm_cfft_radix4_f32.c **** 
1059:../Dave/Generated/CMSIS_DSP/Source/TransformFunctions/arm_cfft_radix4_f32.c ****             /* xa' = xa + xb + xc + xd */
1060:../Dave/Generated/CMSIS_DSP/Source/TransformFunctions/arm_cfft_radix4_f32.c ****             pSrc[2U * i0] = r1 + t1;
 731              	 .loc 1 1060 0 discriminator 1
 732 015e BB6E     	 ldr r3,[r7,#104]
 733 0160 DB00     	 lsls r3,r3,#3
 734 0162 FA68     	 ldr r2,[r7,#12]
 735 0164 1344     	 add r3,r3,r2
 736 0166 97ED0A7A 	 flds s14,[r7,#40]
 737 016a D7ED067A 	 flds s15,[r7,#24]
 738 016e 77EE277A 	 fadds s15,s14,s15
 739 0172 C3ED007A 	 fsts s15,[r3]
1061:../Dave/Generated/CMSIS_DSP/Source/TransformFunctions/arm_cfft_radix4_f32.c **** 
1062:../Dave/Generated/CMSIS_DSP/Source/TransformFunctions/arm_cfft_radix4_f32.c ****             /* xa + xc -(xb + xd) */
1063:../Dave/Generated/CMSIS_DSP/Source/TransformFunctions/arm_cfft_radix4_f32.c ****             r1 = r1 - t1;
 740              	 .loc 1 1063 0 discriminator 1
 741 0176 97ED0A7A 	 flds s14,[r7,#40]
 742 017a D7ED067A 	 flds s15,[r7,#24]
 743 017e 77EE677A 	 fsubs s15,s14,s15
 744 0182 C7ED0A7A 	 fsts s15,[r7,#40]
1064:../Dave/Generated/CMSIS_DSP/Source/TransformFunctions/arm_cfft_radix4_f32.c **** 
1065:../Dave/Generated/CMSIS_DSP/Source/TransformFunctions/arm_cfft_radix4_f32.c ****             /* yb + yd */
1066:../Dave/Generated/CMSIS_DSP/Source/TransformFunctions/arm_cfft_radix4_f32.c ****             t2 = pSrc[(2U * i1) + 1U] + pSrc[(2U * i3) + 1U];
 745              	 .loc 1 1066 0 discriminator 1
 746 0186 7B6B     	 ldr r3,[r7,#52]
 747 0188 DB00     	 lsls r3,r3,#3
 748 018a 0433     	 adds r3,r3,#4
 749 018c FA68     	 ldr r2,[r7,#12]
 750 018e 1344     	 add r3,r3,r2
 751 0190 93ED007A 	 flds s14,[r3]
 752 0194 FB6A     	 ldr r3,[r7,#44]
 753 0196 DB00     	 lsls r3,r3,#3
 754 0198 0433     	 adds r3,r3,#4
 755 019a FA68     	 ldr r2,[r7,#12]
 756 019c 1344     	 add r3,r3,r2
 757 019e D3ED007A 	 flds s15,[r3]
 758 01a2 77EE277A 	 fadds s15,s14,s15
 759 01a6 C7ED057A 	 fsts s15,[r7,#20]
1067:../Dave/Generated/CMSIS_DSP/Source/TransformFunctions/arm_cfft_radix4_f32.c **** 
1068:../Dave/Generated/CMSIS_DSP/Source/TransformFunctions/arm_cfft_radix4_f32.c ****             /* ya' = ya + yb + yc + yd */
1069:../Dave/Generated/CMSIS_DSP/Source/TransformFunctions/arm_cfft_radix4_f32.c ****             pSrc[(2U * i0) + 1U] = s1 + t2;
 760              	 .loc 1 1069 0 discriminator 1
 761 01aa BB6E     	 ldr r3,[r7,#104]
 762 01ac DB00     	 lsls r3,r3,#3
 763 01ae 0433     	 adds r3,r3,#4
 764 01b0 FA68     	 ldr r2,[r7,#12]
 765 01b2 1344     	 add r3,r3,r2
 766 01b4 97ED087A 	 flds s14,[r7,#32]
 767 01b8 D7ED057A 	 flds s15,[r7,#20]
 768 01bc 77EE277A 	 fadds s15,s14,s15
 769 01c0 C3ED007A 	 fsts s15,[r3]
1070:../Dave/Generated/CMSIS_DSP/Source/TransformFunctions/arm_cfft_radix4_f32.c **** 
1071:../Dave/Generated/CMSIS_DSP/Source/TransformFunctions/arm_cfft_radix4_f32.c ****             /* (ya + yc) - (yb + yd) */
1072:../Dave/Generated/CMSIS_DSP/Source/TransformFunctions/arm_cfft_radix4_f32.c ****             s1 = s1 - t2;
 770              	 .loc 1 1072 0 discriminator 1
 771 01c4 97ED087A 	 flds s14,[r7,#32]
 772 01c8 D7ED057A 	 flds s15,[r7,#20]
 773 01cc 77EE677A 	 fsubs s15,s14,s15
 774 01d0 C7ED087A 	 fsts s15,[r7,#32]
1073:../Dave/Generated/CMSIS_DSP/Source/TransformFunctions/arm_cfft_radix4_f32.c **** 
1074:../Dave/Generated/CMSIS_DSP/Source/TransformFunctions/arm_cfft_radix4_f32.c ****             /* (yb - yd) */
1075:../Dave/Generated/CMSIS_DSP/Source/TransformFunctions/arm_cfft_radix4_f32.c ****             t1 = pSrc[(2U * i1) + 1U] - pSrc[(2U * i3) + 1U];
 775              	 .loc 1 1075 0 discriminator 1
 776 01d4 7B6B     	 ldr r3,[r7,#52]
 777 01d6 DB00     	 lsls r3,r3,#3
 778 01d8 0433     	 adds r3,r3,#4
 779 01da FA68     	 ldr r2,[r7,#12]
 780 01dc 1344     	 add r3,r3,r2
 781 01de 93ED007A 	 flds s14,[r3]
 782 01e2 FB6A     	 ldr r3,[r7,#44]
 783 01e4 DB00     	 lsls r3,r3,#3
 784 01e6 0433     	 adds r3,r3,#4
 785 01e8 FA68     	 ldr r2,[r7,#12]
 786 01ea 1344     	 add r3,r3,r2
 787 01ec D3ED007A 	 flds s15,[r3]
 788 01f0 77EE677A 	 fsubs s15,s14,s15
 789 01f4 C7ED067A 	 fsts s15,[r7,#24]
1076:../Dave/Generated/CMSIS_DSP/Source/TransformFunctions/arm_cfft_radix4_f32.c **** 
1077:../Dave/Generated/CMSIS_DSP/Source/TransformFunctions/arm_cfft_radix4_f32.c ****             /* (xb - xd) */
1078:../Dave/Generated/CMSIS_DSP/Source/TransformFunctions/arm_cfft_radix4_f32.c ****             t2 = pSrc[2U * i1] - pSrc[2U * i3];
 790              	 .loc 1 1078 0 discriminator 1
 791 01f8 7B6B     	 ldr r3,[r7,#52]
 792 01fa DB00     	 lsls r3,r3,#3
 793 01fc FA68     	 ldr r2,[r7,#12]
 794 01fe 1344     	 add r3,r3,r2
 795 0200 93ED007A 	 flds s14,[r3]
 796 0204 FB6A     	 ldr r3,[r7,#44]
 797 0206 DB00     	 lsls r3,r3,#3
 798 0208 FA68     	 ldr r2,[r7,#12]
 799 020a 1344     	 add r3,r3,r2
 800 020c D3ED007A 	 flds s15,[r3]
 801 0210 77EE677A 	 fsubs s15,s14,s15
 802 0214 C7ED057A 	 fsts s15,[r7,#20]
1079:../Dave/Generated/CMSIS_DSP/Source/TransformFunctions/arm_cfft_radix4_f32.c **** 
1080:../Dave/Generated/CMSIS_DSP/Source/TransformFunctions/arm_cfft_radix4_f32.c ****             /* xc' = (xa-xb+xc-xd)co2 - (ya-yb+yc-yd)(si2) */
1081:../Dave/Generated/CMSIS_DSP/Source/TransformFunctions/arm_cfft_radix4_f32.c ****             pSrc[2U * i1] = (r1 * co2) - (s1 * si2);
 803              	 .loc 1 1081 0 discriminator 1
 804 0218 7B6B     	 ldr r3,[r7,#52]
 805 021a DB00     	 lsls r3,r3,#3
 806 021c FA68     	 ldr r2,[r7,#12]
 807 021e 1344     	 add r3,r3,r2
 808 0220 97ED0A7A 	 flds s14,[r7,#40]
 809 0224 D7ED117A 	 flds s15,[r7,#68]
 810 0228 27EE277A 	 fmuls s14,s14,s15
 811 022c D7ED086A 	 flds s13,[r7,#32]
 812 0230 D7ED107A 	 flds s15,[r7,#64]
 813 0234 66EEA77A 	 fmuls s15,s13,s15
 814 0238 77EE677A 	 fsubs s15,s14,s15
 815 023c C3ED007A 	 fsts s15,[r3]
1082:../Dave/Generated/CMSIS_DSP/Source/TransformFunctions/arm_cfft_radix4_f32.c **** 
1083:../Dave/Generated/CMSIS_DSP/Source/TransformFunctions/arm_cfft_radix4_f32.c ****             /* yc' = (ya-yb+yc-yd)co2 + (xa-xb+xc-xd)(si2) */
1084:../Dave/Generated/CMSIS_DSP/Source/TransformFunctions/arm_cfft_radix4_f32.c ****             pSrc[(2U * i1) + 1U] = (s1 * co2) + (r1 * si2);
 816              	 .loc 1 1084 0 discriminator 1
 817 0240 7B6B     	 ldr r3,[r7,#52]
 818 0242 DB00     	 lsls r3,r3,#3
 819 0244 0433     	 adds r3,r3,#4
 820 0246 FA68     	 ldr r2,[r7,#12]
 821 0248 1344     	 add r3,r3,r2
 822 024a 97ED087A 	 flds s14,[r7,#32]
 823 024e D7ED117A 	 flds s15,[r7,#68]
 824 0252 27EE277A 	 fmuls s14,s14,s15
 825 0256 D7ED0A6A 	 flds s13,[r7,#40]
 826 025a D7ED107A 	 flds s15,[r7,#64]
 827 025e 66EEA77A 	 fmuls s15,s13,s15
 828 0262 77EE277A 	 fadds s15,s14,s15
 829 0266 C3ED007A 	 fsts s15,[r3]
1085:../Dave/Generated/CMSIS_DSP/Source/TransformFunctions/arm_cfft_radix4_f32.c **** 
1086:../Dave/Generated/CMSIS_DSP/Source/TransformFunctions/arm_cfft_radix4_f32.c ****             /* (xa - xc) - (yb - yd) */
1087:../Dave/Generated/CMSIS_DSP/Source/TransformFunctions/arm_cfft_radix4_f32.c ****             r1 = r2 - t1;
 830              	 .loc 1 1087 0 discriminator 1
 831 026a 97ED097A 	 flds s14,[r7,#36]
 832 026e D7ED067A 	 flds s15,[r7,#24]
 833 0272 77EE677A 	 fsubs s15,s14,s15
 834 0276 C7ED0A7A 	 fsts s15,[r7,#40]
1088:../Dave/Generated/CMSIS_DSP/Source/TransformFunctions/arm_cfft_radix4_f32.c **** 
1089:../Dave/Generated/CMSIS_DSP/Source/TransformFunctions/arm_cfft_radix4_f32.c ****             /* (xa - xc) + (yb - yd) */
1090:../Dave/Generated/CMSIS_DSP/Source/TransformFunctions/arm_cfft_radix4_f32.c ****             r2 = r2 + t1;
 835              	 .loc 1 1090 0 discriminator 1
 836 027a 97ED097A 	 flds s14,[r7,#36]
 837 027e D7ED067A 	 flds s15,[r7,#24]
 838 0282 77EE277A 	 fadds s15,s14,s15
 839 0286 C7ED097A 	 fsts s15,[r7,#36]
1091:../Dave/Generated/CMSIS_DSP/Source/TransformFunctions/arm_cfft_radix4_f32.c **** 
1092:../Dave/Generated/CMSIS_DSP/Source/TransformFunctions/arm_cfft_radix4_f32.c ****             /* (ya - yc) +  (xb - xd) */
1093:../Dave/Generated/CMSIS_DSP/Source/TransformFunctions/arm_cfft_radix4_f32.c ****             s1 = s2 + t2;
 840              	 .loc 1 1093 0 discriminator 1
 841 028a 97ED077A 	 flds s14,[r7,#28]
 842 028e D7ED057A 	 flds s15,[r7,#20]
 843 0292 77EE277A 	 fadds s15,s14,s15
 844 0296 C7ED087A 	 fsts s15,[r7,#32]
1094:../Dave/Generated/CMSIS_DSP/Source/TransformFunctions/arm_cfft_radix4_f32.c **** 
1095:../Dave/Generated/CMSIS_DSP/Source/TransformFunctions/arm_cfft_radix4_f32.c ****             /* (ya - yc) -  (xb - xd) */
1096:../Dave/Generated/CMSIS_DSP/Source/TransformFunctions/arm_cfft_radix4_f32.c ****             s2 = s2 - t2;
 845              	 .loc 1 1096 0 discriminator 1
 846 029a 97ED077A 	 flds s14,[r7,#28]
 847 029e D7ED057A 	 flds s15,[r7,#20]
 848 02a2 77EE677A 	 fsubs s15,s14,s15
 849 02a6 C7ED077A 	 fsts s15,[r7,#28]
1097:../Dave/Generated/CMSIS_DSP/Source/TransformFunctions/arm_cfft_radix4_f32.c **** 
1098:../Dave/Generated/CMSIS_DSP/Source/TransformFunctions/arm_cfft_radix4_f32.c ****             /* xb' = (xa+yb-xc-yd)co1 - (ya-xb-yc+xd)(si1) */
1099:../Dave/Generated/CMSIS_DSP/Source/TransformFunctions/arm_cfft_radix4_f32.c ****             pSrc[2U * i2] = (r1 * co1) - (s1 * si1);
 850              	 .loc 1 1099 0 discriminator 1
 851 02aa 3B6B     	 ldr r3,[r7,#48]
 852 02ac DB00     	 lsls r3,r3,#3
 853 02ae FA68     	 ldr r2,[r7,#12]
 854 02b0 1344     	 add r3,r3,r2
 855 02b2 97ED0A7A 	 flds s14,[r7,#40]
 856 02b6 D7ED137A 	 flds s15,[r7,#76]
 857 02ba 27EE277A 	 fmuls s14,s14,s15
 858 02be D7ED086A 	 flds s13,[r7,#32]
 859 02c2 D7ED127A 	 flds s15,[r7,#72]
 860 02c6 66EEA77A 	 fmuls s15,s13,s15
 861 02ca 77EE677A 	 fsubs s15,s14,s15
 862 02ce C3ED007A 	 fsts s15,[r3]
1100:../Dave/Generated/CMSIS_DSP/Source/TransformFunctions/arm_cfft_radix4_f32.c **** 
1101:../Dave/Generated/CMSIS_DSP/Source/TransformFunctions/arm_cfft_radix4_f32.c ****             /* yb' = (ya-xb-yc+xd)co1 + (xa+yb-xc-yd)(si1) */
1102:../Dave/Generated/CMSIS_DSP/Source/TransformFunctions/arm_cfft_radix4_f32.c ****             pSrc[(2U * i2) + 1U] = (s1 * co1) + (r1 * si1);
 863              	 .loc 1 1102 0 discriminator 1
 864 02d2 3B6B     	 ldr r3,[r7,#48]
 865 02d4 DB00     	 lsls r3,r3,#3
 866 02d6 0433     	 adds r3,r3,#4
 867 02d8 FA68     	 ldr r2,[r7,#12]
 868 02da 1344     	 add r3,r3,r2
 869 02dc 97ED087A 	 flds s14,[r7,#32]
 870 02e0 D7ED137A 	 flds s15,[r7,#76]
 871 02e4 27EE277A 	 fmuls s14,s14,s15
 872 02e8 D7ED0A6A 	 flds s13,[r7,#40]
 873 02ec D7ED127A 	 flds s15,[r7,#72]
 874 02f0 66EEA77A 	 fmuls s15,s13,s15
 875 02f4 77EE277A 	 fadds s15,s14,s15
 876 02f8 C3ED007A 	 fsts s15,[r3]
1103:../Dave/Generated/CMSIS_DSP/Source/TransformFunctions/arm_cfft_radix4_f32.c **** 
1104:../Dave/Generated/CMSIS_DSP/Source/TransformFunctions/arm_cfft_radix4_f32.c ****             /* xd' = (xa-yb-xc+yd)co3 - (ya+xb-yc-xd)(si3) */
1105:../Dave/Generated/CMSIS_DSP/Source/TransformFunctions/arm_cfft_radix4_f32.c ****             pSrc[2U * i3] = (r2 * co3) - (s2 * si3);
 877              	 .loc 1 1105 0 discriminator 1
 878 02fc FB6A     	 ldr r3,[r7,#44]
 879 02fe DB00     	 lsls r3,r3,#3
 880 0300 FA68     	 ldr r2,[r7,#12]
 881 0302 1344     	 add r3,r3,r2
 882 0304 97ED097A 	 flds s14,[r7,#36]
 883 0308 D7ED0F7A 	 flds s15,[r7,#60]
 884 030c 27EE277A 	 fmuls s14,s14,s15
 885 0310 D7ED076A 	 flds s13,[r7,#28]
 886 0314 D7ED0E7A 	 flds s15,[r7,#56]
 887 0318 66EEA77A 	 fmuls s15,s13,s15
 888 031c 77EE677A 	 fsubs s15,s14,s15
 889 0320 C3ED007A 	 fsts s15,[r3]
1106:../Dave/Generated/CMSIS_DSP/Source/TransformFunctions/arm_cfft_radix4_f32.c **** 
1107:../Dave/Generated/CMSIS_DSP/Source/TransformFunctions/arm_cfft_radix4_f32.c ****             /* yd' = (ya+xb-yc-xd)co3 + (xa-yb-xc+yd)(si3) */
1108:../Dave/Generated/CMSIS_DSP/Source/TransformFunctions/arm_cfft_radix4_f32.c ****             pSrc[(2U * i3) + 1U] = (s2 * co3) + (r2 * si3);
 890              	 .loc 1 1108 0 discriminator 1
 891 0324 FB6A     	 ldr r3,[r7,#44]
 892 0326 DB00     	 lsls r3,r3,#3
 893 0328 0433     	 adds r3,r3,#4
 894 032a FA68     	 ldr r2,[r7,#12]
 895 032c 1344     	 add r3,r3,r2
 896 032e 97ED077A 	 flds s14,[r7,#28]
 897 0332 D7ED0F7A 	 flds s15,[r7,#60]
 898 0336 27EE277A 	 fmuls s14,s14,s15
 899 033a D7ED096A 	 flds s13,[r7,#36]
 900 033e D7ED0E7A 	 flds s15,[r7,#56]
 901 0342 66EEA77A 	 fmuls s15,s13,s15
 902 0346 77EE277A 	 fadds s15,s14,s15
 903 034a C3ED007A 	 fsts s15,[r3]
1109:../Dave/Generated/CMSIS_DSP/Source/TransformFunctions/arm_cfft_radix4_f32.c **** 
1110:../Dave/Generated/CMSIS_DSP/Source/TransformFunctions/arm_cfft_radix4_f32.c ****             i0 += n1;
 904              	 .loc 1 1110 0 discriminator 1
 905 034e BA6E     	 ldr r2,[r7,#104]
 906 0350 BB6D     	 ldr r3,[r7,#88]
 907 0352 1344     	 add r3,r3,r2
 908 0354 BB66     	 str r3,[r7,#104]
1111:../Dave/Generated/CMSIS_DSP/Source/TransformFunctions/arm_cfft_radix4_f32.c ****          } while ( i0 < fftLen);
 909              	 .loc 1 1111 0 discriminator 1
 910 0356 7A89     	 ldrh r2,[r7,#10]
 911 0358 BB6E     	 ldr r3,[r7,#104]
 912 035a 9A42     	 cmp r2,r3
 913 035c 3FF69FAE 	 bhi .L12
1112:../Dave/Generated/CMSIS_DSP/Source/TransformFunctions/arm_cfft_radix4_f32.c ****          j++;
 914              	 .loc 1 1112 0
 915 0360 3B6E     	 ldr r3,[r7,#96]
 916 0362 0133     	 adds r3,r3,#1
 917 0364 3B66     	 str r3,[r7,#96]
1113:../Dave/Generated/CMSIS_DSP/Source/TransformFunctions/arm_cfft_radix4_f32.c ****       } while (j <= (n2 - 1U));
 918              	 .loc 1 1113 0
 919 0366 7B6E     	 ldr r3,[r7,#100]
 920 0368 5A1E     	 subs r2,r3,#1
 921 036a 3B6E     	 ldr r3,[r7,#96]
 922 036c 9A42     	 cmp r2,r3
 923 036e BFF461AE 	 bcs .L13
1114:../Dave/Generated/CMSIS_DSP/Source/TransformFunctions/arm_cfft_radix4_f32.c ****       twidCoefModifier <<= 2U;
 924              	 .loc 1 1114 0 discriminator 2
 925 0372 3B89     	 ldrh r3,[r7,#8]
 926 0374 9B00     	 lsls r3,r3,#2
 927 0376 3B81     	 strh r3,[r7,#8]
1011:../Dave/Generated/CMSIS_DSP/Source/TransformFunctions/arm_cfft_radix4_f32.c ****    {
 928              	 .loc 1 1011 0 discriminator 2
 929 0378 FB6D     	 ldr r3,[r7,#92]
 930 037a 9B08     	 lsrs r3,r3,#2
 931 037c FB65     	 str r3,[r7,#92]
 932              	.L11:
1011:../Dave/Generated/CMSIS_DSP/Source/TransformFunctions/arm_cfft_radix4_f32.c ****    {
 933              	 .loc 1 1011 0 is_stmt 0 discriminator 1
 934 037e FB6D     	 ldr r3,[r7,#92]
 935 0380 042B     	 cmp r3,#4
 936 0382 3FF64EAE 	 bhi .L14
1115:../Dave/Generated/CMSIS_DSP/Source/TransformFunctions/arm_cfft_radix4_f32.c ****    }
1116:../Dave/Generated/CMSIS_DSP/Source/TransformFunctions/arm_cfft_radix4_f32.c ****    /*  Initializations of last stage */
1117:../Dave/Generated/CMSIS_DSP/Source/TransformFunctions/arm_cfft_radix4_f32.c ****    n1 = n2;
 937              	 .loc 1 1117 0 is_stmt 1
 938 0386 7B6E     	 ldr r3,[r7,#100]
 939 0388 BB65     	 str r3,[r7,#88]
1118:../Dave/Generated/CMSIS_DSP/Source/TransformFunctions/arm_cfft_radix4_f32.c ****    n2 >>= 2U;
 940              	 .loc 1 1118 0
 941 038a 7B6E     	 ldr r3,[r7,#100]
 942 038c 9B08     	 lsrs r3,r3,#2
 943 038e 7B66     	 str r3,[r7,#100]
1119:../Dave/Generated/CMSIS_DSP/Source/TransformFunctions/arm_cfft_radix4_f32.c **** 
1120:../Dave/Generated/CMSIS_DSP/Source/TransformFunctions/arm_cfft_radix4_f32.c ****    /*  Calculations of last stage */
1121:../Dave/Generated/CMSIS_DSP/Source/TransformFunctions/arm_cfft_radix4_f32.c ****    for (i0 = 0U; i0 <= (fftLen - n1); i0 += n1)
 944              	 .loc 1 1121 0
 945 0390 0023     	 movs r3,#0
 946 0392 BB66     	 str r3,[r7,#104]
 947 0394 33E1     	 b .L15
 948              	.L16:
1122:../Dave/Generated/CMSIS_DSP/Source/TransformFunctions/arm_cfft_radix4_f32.c ****    {
1123:../Dave/Generated/CMSIS_DSP/Source/TransformFunctions/arm_cfft_radix4_f32.c ****       /*  index calculation for the input as, */
1124:../Dave/Generated/CMSIS_DSP/Source/TransformFunctions/arm_cfft_radix4_f32.c ****       /*  pSrc[i0 + 0], pSrc[i0 + fftLen/4], pSrc[i0 + fftLen/2], pSrc[i0 + 3fftLen/4] */
1125:../Dave/Generated/CMSIS_DSP/Source/TransformFunctions/arm_cfft_radix4_f32.c ****       i1 = i0 + n2;
 949              	 .loc 1 1125 0 discriminator 3
 950 0396 BA6E     	 ldr r2,[r7,#104]
 951 0398 7B6E     	 ldr r3,[r7,#100]
 952 039a 1344     	 add r3,r3,r2
 953 039c 7B63     	 str r3,[r7,#52]
1126:../Dave/Generated/CMSIS_DSP/Source/TransformFunctions/arm_cfft_radix4_f32.c ****       i2 = i1 + n2;
 954              	 .loc 1 1126 0 discriminator 3
 955 039e 7A6B     	 ldr r2,[r7,#52]
 956 03a0 7B6E     	 ldr r3,[r7,#100]
 957 03a2 1344     	 add r3,r3,r2
 958 03a4 3B63     	 str r3,[r7,#48]
1127:../Dave/Generated/CMSIS_DSP/Source/TransformFunctions/arm_cfft_radix4_f32.c ****       i3 = i2 + n2;
 959              	 .loc 1 1127 0 discriminator 3
 960 03a6 3A6B     	 ldr r2,[r7,#48]
 961 03a8 7B6E     	 ldr r3,[r7,#100]
 962 03aa 1344     	 add r3,r3,r2
 963 03ac FB62     	 str r3,[r7,#44]
1128:../Dave/Generated/CMSIS_DSP/Source/TransformFunctions/arm_cfft_radix4_f32.c **** 
1129:../Dave/Generated/CMSIS_DSP/Source/TransformFunctions/arm_cfft_radix4_f32.c ****       /*  Butterfly implementation */
1130:../Dave/Generated/CMSIS_DSP/Source/TransformFunctions/arm_cfft_radix4_f32.c ****       /* xa + xc */
1131:../Dave/Generated/CMSIS_DSP/Source/TransformFunctions/arm_cfft_radix4_f32.c ****       r1 = pSrc[2U * i0] + pSrc[2U * i2];
 964              	 .loc 1 1131 0 discriminator 3
 965 03ae BB6E     	 ldr r3,[r7,#104]
 966 03b0 DB00     	 lsls r3,r3,#3
 967 03b2 FA68     	 ldr r2,[r7,#12]
 968 03b4 1344     	 add r3,r3,r2
 969 03b6 93ED007A 	 flds s14,[r3]
 970 03ba 3B6B     	 ldr r3,[r7,#48]
 971 03bc DB00     	 lsls r3,r3,#3
 972 03be FA68     	 ldr r2,[r7,#12]
 973 03c0 1344     	 add r3,r3,r2
 974 03c2 D3ED007A 	 flds s15,[r3]
 975 03c6 77EE277A 	 fadds s15,s14,s15
 976 03ca C7ED0A7A 	 fsts s15,[r7,#40]
1132:../Dave/Generated/CMSIS_DSP/Source/TransformFunctions/arm_cfft_radix4_f32.c **** 
1133:../Dave/Generated/CMSIS_DSP/Source/TransformFunctions/arm_cfft_radix4_f32.c ****       /* xa - xc */
1134:../Dave/Generated/CMSIS_DSP/Source/TransformFunctions/arm_cfft_radix4_f32.c ****       r2 = pSrc[2U * i0] - pSrc[2U * i2];
 977              	 .loc 1 1134 0 discriminator 3
 978 03ce BB6E     	 ldr r3,[r7,#104]
 979 03d0 DB00     	 lsls r3,r3,#3
 980 03d2 FA68     	 ldr r2,[r7,#12]
 981 03d4 1344     	 add r3,r3,r2
 982 03d6 93ED007A 	 flds s14,[r3]
 983 03da 3B6B     	 ldr r3,[r7,#48]
 984 03dc DB00     	 lsls r3,r3,#3
 985 03de FA68     	 ldr r2,[r7,#12]
 986 03e0 1344     	 add r3,r3,r2
 987 03e2 D3ED007A 	 flds s15,[r3]
 988 03e6 77EE677A 	 fsubs s15,s14,s15
 989 03ea C7ED097A 	 fsts s15,[r7,#36]
1135:../Dave/Generated/CMSIS_DSP/Source/TransformFunctions/arm_cfft_radix4_f32.c **** 
1136:../Dave/Generated/CMSIS_DSP/Source/TransformFunctions/arm_cfft_radix4_f32.c ****       /* ya + yc */
1137:../Dave/Generated/CMSIS_DSP/Source/TransformFunctions/arm_cfft_radix4_f32.c ****       s1 = pSrc[(2U * i0) + 1U] + pSrc[(2U * i2) + 1U];
 990              	 .loc 1 1137 0 discriminator 3
 991 03ee BB6E     	 ldr r3,[r7,#104]
 992 03f0 DB00     	 lsls r3,r3,#3
 993 03f2 0433     	 adds r3,r3,#4
 994 03f4 FA68     	 ldr r2,[r7,#12]
 995 03f6 1344     	 add r3,r3,r2
 996 03f8 93ED007A 	 flds s14,[r3]
 997 03fc 3B6B     	 ldr r3,[r7,#48]
 998 03fe DB00     	 lsls r3,r3,#3
 999 0400 0433     	 adds r3,r3,#4
 1000 0402 FA68     	 ldr r2,[r7,#12]
 1001 0404 1344     	 add r3,r3,r2
 1002 0406 D3ED007A 	 flds s15,[r3]
 1003 040a 77EE277A 	 fadds s15,s14,s15
 1004 040e C7ED087A 	 fsts s15,[r7,#32]
1138:../Dave/Generated/CMSIS_DSP/Source/TransformFunctions/arm_cfft_radix4_f32.c **** 
1139:../Dave/Generated/CMSIS_DSP/Source/TransformFunctions/arm_cfft_radix4_f32.c ****       /* ya - yc */
1140:../Dave/Generated/CMSIS_DSP/Source/TransformFunctions/arm_cfft_radix4_f32.c ****       s2 = pSrc[(2U * i0) + 1U] - pSrc[(2U * i2) + 1U];
 1005              	 .loc 1 1140 0 discriminator 3
 1006 0412 BB6E     	 ldr r3,[r7,#104]
 1007 0414 DB00     	 lsls r3,r3,#3
 1008 0416 0433     	 adds r3,r3,#4
 1009 0418 FA68     	 ldr r2,[r7,#12]
 1010 041a 1344     	 add r3,r3,r2
 1011 041c 93ED007A 	 flds s14,[r3]
 1012 0420 3B6B     	 ldr r3,[r7,#48]
 1013 0422 DB00     	 lsls r3,r3,#3
 1014 0424 0433     	 adds r3,r3,#4
 1015 0426 FA68     	 ldr r2,[r7,#12]
 1016 0428 1344     	 add r3,r3,r2
 1017 042a D3ED007A 	 flds s15,[r3]
 1018 042e 77EE677A 	 fsubs s15,s14,s15
 1019 0432 C7ED077A 	 fsts s15,[r7,#28]
1141:../Dave/Generated/CMSIS_DSP/Source/TransformFunctions/arm_cfft_radix4_f32.c **** 
1142:../Dave/Generated/CMSIS_DSP/Source/TransformFunctions/arm_cfft_radix4_f32.c ****       /* xc + xd */
1143:../Dave/Generated/CMSIS_DSP/Source/TransformFunctions/arm_cfft_radix4_f32.c ****       t1 = pSrc[2U * i1] + pSrc[2U * i3];
 1020              	 .loc 1 1143 0 discriminator 3
 1021 0436 7B6B     	 ldr r3,[r7,#52]
 1022 0438 DB00     	 lsls r3,r3,#3
 1023 043a FA68     	 ldr r2,[r7,#12]
 1024 043c 1344     	 add r3,r3,r2
 1025 043e 93ED007A 	 flds s14,[r3]
 1026 0442 FB6A     	 ldr r3,[r7,#44]
 1027 0444 DB00     	 lsls r3,r3,#3
 1028 0446 FA68     	 ldr r2,[r7,#12]
 1029 0448 1344     	 add r3,r3,r2
 1030 044a D3ED007A 	 flds s15,[r3]
 1031 044e 77EE277A 	 fadds s15,s14,s15
 1032 0452 C7ED067A 	 fsts s15,[r7,#24]
1144:../Dave/Generated/CMSIS_DSP/Source/TransformFunctions/arm_cfft_radix4_f32.c **** 
1145:../Dave/Generated/CMSIS_DSP/Source/TransformFunctions/arm_cfft_radix4_f32.c ****       /* xa' = xa + xb + xc + xd */
1146:../Dave/Generated/CMSIS_DSP/Source/TransformFunctions/arm_cfft_radix4_f32.c ****       pSrc[2U * i0] = (r1 + t1) * onebyfftLen;
 1033              	 .loc 1 1146 0 discriminator 3
 1034 0456 BB6E     	 ldr r3,[r7,#104]
 1035 0458 DB00     	 lsls r3,r3,#3
 1036 045a FA68     	 ldr r2,[r7,#12]
 1037 045c 1344     	 add r3,r3,r2
 1038 045e 97ED0A7A 	 flds s14,[r7,#40]
 1039 0462 D7ED067A 	 flds s15,[r7,#24]
 1040 0466 37EE277A 	 fadds s14,s14,s15
 1041 046a D7ED1E7A 	 flds s15,[r7,#120]
 1042 046e 67EE277A 	 fmuls s15,s14,s15
 1043 0472 C3ED007A 	 fsts s15,[r3]
1147:../Dave/Generated/CMSIS_DSP/Source/TransformFunctions/arm_cfft_radix4_f32.c **** 
1148:../Dave/Generated/CMSIS_DSP/Source/TransformFunctions/arm_cfft_radix4_f32.c ****       /* (xa + xb) - (xc + xd) */
1149:../Dave/Generated/CMSIS_DSP/Source/TransformFunctions/arm_cfft_radix4_f32.c ****       r1 = r1 - t1;
 1044              	 .loc 1 1149 0 discriminator 3
 1045 0476 97ED0A7A 	 flds s14,[r7,#40]
 1046 047a D7ED067A 	 flds s15,[r7,#24]
 1047 047e 77EE677A 	 fsubs s15,s14,s15
 1048 0482 C7ED0A7A 	 fsts s15,[r7,#40]
1150:../Dave/Generated/CMSIS_DSP/Source/TransformFunctions/arm_cfft_radix4_f32.c **** 
1151:../Dave/Generated/CMSIS_DSP/Source/TransformFunctions/arm_cfft_radix4_f32.c ****       /* yb + yd */
1152:../Dave/Generated/CMSIS_DSP/Source/TransformFunctions/arm_cfft_radix4_f32.c ****       t2 = pSrc[(2U * i1) + 1U] + pSrc[(2U * i3) + 1U];
 1049              	 .loc 1 1152 0 discriminator 3
 1050 0486 7B6B     	 ldr r3,[r7,#52]
 1051 0488 DB00     	 lsls r3,r3,#3
 1052 048a 0433     	 adds r3,r3,#4
 1053 048c FA68     	 ldr r2,[r7,#12]
 1054 048e 1344     	 add r3,r3,r2
 1055 0490 93ED007A 	 flds s14,[r3]
 1056 0494 FB6A     	 ldr r3,[r7,#44]
 1057 0496 DB00     	 lsls r3,r3,#3
 1058 0498 0433     	 adds r3,r3,#4
 1059 049a FA68     	 ldr r2,[r7,#12]
 1060 049c 1344     	 add r3,r3,r2
 1061 049e D3ED007A 	 flds s15,[r3]
 1062 04a2 77EE277A 	 fadds s15,s14,s15
 1063 04a6 C7ED057A 	 fsts s15,[r7,#20]
1153:../Dave/Generated/CMSIS_DSP/Source/TransformFunctions/arm_cfft_radix4_f32.c **** 
1154:../Dave/Generated/CMSIS_DSP/Source/TransformFunctions/arm_cfft_radix4_f32.c ****       /* ya' = ya + yb + yc + yd */
1155:../Dave/Generated/CMSIS_DSP/Source/TransformFunctions/arm_cfft_radix4_f32.c ****       pSrc[(2U * i0) + 1U] = (s1 + t2) * onebyfftLen;
 1064              	 .loc 1 1155 0 discriminator 3
 1065 04aa BB6E     	 ldr r3,[r7,#104]
 1066 04ac DB00     	 lsls r3,r3,#3
 1067 04ae 0433     	 adds r3,r3,#4
 1068 04b0 FA68     	 ldr r2,[r7,#12]
 1069 04b2 1344     	 add r3,r3,r2
 1070 04b4 97ED087A 	 flds s14,[r7,#32]
 1071 04b8 D7ED057A 	 flds s15,[r7,#20]
 1072 04bc 37EE277A 	 fadds s14,s14,s15
 1073 04c0 D7ED1E7A 	 flds s15,[r7,#120]
 1074 04c4 67EE277A 	 fmuls s15,s14,s15
 1075 04c8 C3ED007A 	 fsts s15,[r3]
1156:../Dave/Generated/CMSIS_DSP/Source/TransformFunctions/arm_cfft_radix4_f32.c **** 
1157:../Dave/Generated/CMSIS_DSP/Source/TransformFunctions/arm_cfft_radix4_f32.c ****       /* (ya + yc) - (yb + yd) */
1158:../Dave/Generated/CMSIS_DSP/Source/TransformFunctions/arm_cfft_radix4_f32.c ****       s1 = s1 - t2;
 1076              	 .loc 1 1158 0 discriminator 3
 1077 04cc 97ED087A 	 flds s14,[r7,#32]
 1078 04d0 D7ED057A 	 flds s15,[r7,#20]
 1079 04d4 77EE677A 	 fsubs s15,s14,s15
 1080 04d8 C7ED087A 	 fsts s15,[r7,#32]
1159:../Dave/Generated/CMSIS_DSP/Source/TransformFunctions/arm_cfft_radix4_f32.c **** 
1160:../Dave/Generated/CMSIS_DSP/Source/TransformFunctions/arm_cfft_radix4_f32.c ****       /* (yb-yd) */
1161:../Dave/Generated/CMSIS_DSP/Source/TransformFunctions/arm_cfft_radix4_f32.c ****       t1 = pSrc[(2U * i1) + 1U] - pSrc[(2U * i3) + 1U];
 1081              	 .loc 1 1161 0 discriminator 3
 1082 04dc 7B6B     	 ldr r3,[r7,#52]
 1083 04de DB00     	 lsls r3,r3,#3
 1084 04e0 0433     	 adds r3,r3,#4
 1085 04e2 FA68     	 ldr r2,[r7,#12]
 1086 04e4 1344     	 add r3,r3,r2
 1087 04e6 93ED007A 	 flds s14,[r3]
 1088 04ea FB6A     	 ldr r3,[r7,#44]
 1089 04ec DB00     	 lsls r3,r3,#3
 1090 04ee 0433     	 adds r3,r3,#4
 1091 04f0 FA68     	 ldr r2,[r7,#12]
 1092 04f2 1344     	 add r3,r3,r2
 1093 04f4 D3ED007A 	 flds s15,[r3]
 1094 04f8 77EE677A 	 fsubs s15,s14,s15
 1095 04fc C7ED067A 	 fsts s15,[r7,#24]
1162:../Dave/Generated/CMSIS_DSP/Source/TransformFunctions/arm_cfft_radix4_f32.c **** 
1163:../Dave/Generated/CMSIS_DSP/Source/TransformFunctions/arm_cfft_radix4_f32.c ****       /* (xb-xd) */
1164:../Dave/Generated/CMSIS_DSP/Source/TransformFunctions/arm_cfft_radix4_f32.c ****       t2 = pSrc[2U * i1] - pSrc[2U * i3];
 1096              	 .loc 1 1164 0 discriminator 3
 1097 0500 7B6B     	 ldr r3,[r7,#52]
 1098 0502 DB00     	 lsls r3,r3,#3
 1099 0504 FA68     	 ldr r2,[r7,#12]
 1100 0506 1344     	 add r3,r3,r2
 1101 0508 93ED007A 	 flds s14,[r3]
 1102 050c FB6A     	 ldr r3,[r7,#44]
 1103 050e DB00     	 lsls r3,r3,#3
 1104 0510 FA68     	 ldr r2,[r7,#12]
 1105 0512 1344     	 add r3,r3,r2
 1106 0514 D3ED007A 	 flds s15,[r3]
 1107 0518 77EE677A 	 fsubs s15,s14,s15
 1108 051c C7ED057A 	 fsts s15,[r7,#20]
1165:../Dave/Generated/CMSIS_DSP/Source/TransformFunctions/arm_cfft_radix4_f32.c **** 
1166:../Dave/Generated/CMSIS_DSP/Source/TransformFunctions/arm_cfft_radix4_f32.c ****       /* xc' = (xa-xb+xc-xd)co2 - (ya-yb+yc-yd)(si2) */
1167:../Dave/Generated/CMSIS_DSP/Source/TransformFunctions/arm_cfft_radix4_f32.c ****       pSrc[2U * i1] = r1 * onebyfftLen;
 1109              	 .loc 1 1167 0 discriminator 3
 1110 0520 7B6B     	 ldr r3,[r7,#52]
 1111 0522 DB00     	 lsls r3,r3,#3
 1112 0524 FA68     	 ldr r2,[r7,#12]
 1113 0526 1344     	 add r3,r3,r2
 1114 0528 97ED0A7A 	 flds s14,[r7,#40]
 1115 052c D7ED1E7A 	 flds s15,[r7,#120]
 1116 0530 67EE277A 	 fmuls s15,s14,s15
 1117 0534 C3ED007A 	 fsts s15,[r3]
1168:../Dave/Generated/CMSIS_DSP/Source/TransformFunctions/arm_cfft_radix4_f32.c **** 
1169:../Dave/Generated/CMSIS_DSP/Source/TransformFunctions/arm_cfft_radix4_f32.c ****       /* yc' = (ya-yb+yc-yd)co2 + (xa-xb+xc-xd)(si2) */
1170:../Dave/Generated/CMSIS_DSP/Source/TransformFunctions/arm_cfft_radix4_f32.c ****       pSrc[(2U * i1) + 1U] = s1 * onebyfftLen;
 1118              	 .loc 1 1170 0 discriminator 3
 1119 0538 7B6B     	 ldr r3,[r7,#52]
 1120 053a DB00     	 lsls r3,r3,#3
 1121 053c 0433     	 adds r3,r3,#4
 1122 053e FA68     	 ldr r2,[r7,#12]
 1123 0540 1344     	 add r3,r3,r2
 1124 0542 97ED087A 	 flds s14,[r7,#32]
 1125 0546 D7ED1E7A 	 flds s15,[r7,#120]
 1126 054a 67EE277A 	 fmuls s15,s14,s15
 1127 054e C3ED007A 	 fsts s15,[r3]
1171:../Dave/Generated/CMSIS_DSP/Source/TransformFunctions/arm_cfft_radix4_f32.c **** 
1172:../Dave/Generated/CMSIS_DSP/Source/TransformFunctions/arm_cfft_radix4_f32.c ****       /* (xa - xc) - (yb-yd) */
1173:../Dave/Generated/CMSIS_DSP/Source/TransformFunctions/arm_cfft_radix4_f32.c ****       r1 = r2 - t1;
 1128              	 .loc 1 1173 0 discriminator 3
 1129 0552 97ED097A 	 flds s14,[r7,#36]
 1130 0556 D7ED067A 	 flds s15,[r7,#24]
 1131 055a 77EE677A 	 fsubs s15,s14,s15
 1132 055e C7ED0A7A 	 fsts s15,[r7,#40]
1174:../Dave/Generated/CMSIS_DSP/Source/TransformFunctions/arm_cfft_radix4_f32.c **** 
1175:../Dave/Generated/CMSIS_DSP/Source/TransformFunctions/arm_cfft_radix4_f32.c ****       /* (xa - xc) + (yb-yd) */
1176:../Dave/Generated/CMSIS_DSP/Source/TransformFunctions/arm_cfft_radix4_f32.c ****       r2 = r2 + t1;
 1133              	 .loc 1 1176 0 discriminator 3
 1134 0562 97ED097A 	 flds s14,[r7,#36]
 1135 0566 D7ED067A 	 flds s15,[r7,#24]
 1136 056a 77EE277A 	 fadds s15,s14,s15
 1137 056e C7ED097A 	 fsts s15,[r7,#36]
1177:../Dave/Generated/CMSIS_DSP/Source/TransformFunctions/arm_cfft_radix4_f32.c **** 
1178:../Dave/Generated/CMSIS_DSP/Source/TransformFunctions/arm_cfft_radix4_f32.c ****       /* (ya - yc) + (xb-xd) */
1179:../Dave/Generated/CMSIS_DSP/Source/TransformFunctions/arm_cfft_radix4_f32.c ****       s1 = s2 + t2;
 1138              	 .loc 1 1179 0 discriminator 3
 1139 0572 97ED077A 	 flds s14,[r7,#28]
 1140 0576 D7ED057A 	 flds s15,[r7,#20]
 1141 057a 77EE277A 	 fadds s15,s14,s15
 1142 057e C7ED087A 	 fsts s15,[r7,#32]
1180:../Dave/Generated/CMSIS_DSP/Source/TransformFunctions/arm_cfft_radix4_f32.c **** 
1181:../Dave/Generated/CMSIS_DSP/Source/TransformFunctions/arm_cfft_radix4_f32.c ****       /* (ya - yc) - (xb-xd) */
1182:../Dave/Generated/CMSIS_DSP/Source/TransformFunctions/arm_cfft_radix4_f32.c ****       s2 = s2 - t2;
 1143              	 .loc 1 1182 0 discriminator 3
 1144 0582 97ED077A 	 flds s14,[r7,#28]
 1145 0586 D7ED057A 	 flds s15,[r7,#20]
 1146 058a 77EE677A 	 fsubs s15,s14,s15
 1147 058e C7ED077A 	 fsts s15,[r7,#28]
1183:../Dave/Generated/CMSIS_DSP/Source/TransformFunctions/arm_cfft_radix4_f32.c **** 
1184:../Dave/Generated/CMSIS_DSP/Source/TransformFunctions/arm_cfft_radix4_f32.c ****       /* xb' = (xa+yb-xc-yd)co1 - (ya-xb-yc+xd)(si1) */
1185:../Dave/Generated/CMSIS_DSP/Source/TransformFunctions/arm_cfft_radix4_f32.c ****       pSrc[2U * i2] = r1 * onebyfftLen;
 1148              	 .loc 1 1185 0 discriminator 3
 1149 0592 3B6B     	 ldr r3,[r7,#48]
 1150 0594 DB00     	 lsls r3,r3,#3
 1151 0596 FA68     	 ldr r2,[r7,#12]
 1152 0598 1344     	 add r3,r3,r2
 1153 059a 97ED0A7A 	 flds s14,[r7,#40]
 1154 059e D7ED1E7A 	 flds s15,[r7,#120]
 1155 05a2 67EE277A 	 fmuls s15,s14,s15
 1156 05a6 C3ED007A 	 fsts s15,[r3]
1186:../Dave/Generated/CMSIS_DSP/Source/TransformFunctions/arm_cfft_radix4_f32.c **** 
1187:../Dave/Generated/CMSIS_DSP/Source/TransformFunctions/arm_cfft_radix4_f32.c ****       /* yb' = (ya-xb-yc+xd)co1 + (xa+yb-xc-yd)(si1) */
1188:../Dave/Generated/CMSIS_DSP/Source/TransformFunctions/arm_cfft_radix4_f32.c ****       pSrc[(2U * i2) + 1U] = s1 * onebyfftLen;
 1157              	 .loc 1 1188 0 discriminator 3
 1158 05aa 3B6B     	 ldr r3,[r7,#48]
 1159 05ac DB00     	 lsls r3,r3,#3
 1160 05ae 0433     	 adds r3,r3,#4
 1161 05b0 FA68     	 ldr r2,[r7,#12]
 1162 05b2 1344     	 add r3,r3,r2
 1163 05b4 97ED087A 	 flds s14,[r7,#32]
 1164 05b8 D7ED1E7A 	 flds s15,[r7,#120]
 1165 05bc 67EE277A 	 fmuls s15,s14,s15
 1166 05c0 C3ED007A 	 fsts s15,[r3]
1189:../Dave/Generated/CMSIS_DSP/Source/TransformFunctions/arm_cfft_radix4_f32.c **** 
1190:../Dave/Generated/CMSIS_DSP/Source/TransformFunctions/arm_cfft_radix4_f32.c ****       /* xd' = (xa-yb-xc+yd)co3 - (ya+xb-yc-xd)(si3) */
1191:../Dave/Generated/CMSIS_DSP/Source/TransformFunctions/arm_cfft_radix4_f32.c ****       pSrc[2U * i3] = r2 * onebyfftLen;
 1167              	 .loc 1 1191 0 discriminator 3
 1168 05c4 FB6A     	 ldr r3,[r7,#44]
 1169 05c6 DB00     	 lsls r3,r3,#3
 1170 05c8 FA68     	 ldr r2,[r7,#12]
 1171 05ca 1344     	 add r3,r3,r2
 1172 05cc 97ED097A 	 flds s14,[r7,#36]
 1173 05d0 D7ED1E7A 	 flds s15,[r7,#120]
 1174 05d4 67EE277A 	 fmuls s15,s14,s15
 1175 05d8 C3ED007A 	 fsts s15,[r3]
1192:../Dave/Generated/CMSIS_DSP/Source/TransformFunctions/arm_cfft_radix4_f32.c **** 
1193:../Dave/Generated/CMSIS_DSP/Source/TransformFunctions/arm_cfft_radix4_f32.c ****       /* yd' = (ya+xb-yc-xd)co3 + (xa-yb-xc+yd)(si3) */
1194:../Dave/Generated/CMSIS_DSP/Source/TransformFunctions/arm_cfft_radix4_f32.c ****       pSrc[(2U * i3) + 1U] = s2 * onebyfftLen;
 1176              	 .loc 1 1194 0 discriminator 3
 1177 05dc FB6A     	 ldr r3,[r7,#44]
 1178 05de DB00     	 lsls r3,r3,#3
 1179 05e0 0433     	 adds r3,r3,#4
 1180 05e2 FA68     	 ldr r2,[r7,#12]
 1181 05e4 1344     	 add r3,r3,r2
 1182 05e6 97ED077A 	 flds s14,[r7,#28]
 1183 05ea D7ED1E7A 	 flds s15,[r7,#120]
 1184 05ee 67EE277A 	 fmuls s15,s14,s15
 1185 05f2 C3ED007A 	 fsts s15,[r3]
1121:../Dave/Generated/CMSIS_DSP/Source/TransformFunctions/arm_cfft_radix4_f32.c ****    {
 1186              	 .loc 1 1121 0 discriminator 3
 1187 05f6 BA6E     	 ldr r2,[r7,#104]
 1188 05f8 BB6D     	 ldr r3,[r7,#88]
 1189 05fa 1344     	 add r3,r3,r2
 1190 05fc BB66     	 str r3,[r7,#104]
 1191              	.L15:
1121:../Dave/Generated/CMSIS_DSP/Source/TransformFunctions/arm_cfft_radix4_f32.c ****    {
 1192              	 .loc 1 1121 0 is_stmt 0 discriminator 1
 1193 05fe 7A89     	 ldrh r2,[r7,#10]
 1194 0600 BB6D     	 ldr r3,[r7,#88]
 1195 0602 D21A     	 subs r2,r2,r3
 1196 0604 BB6E     	 ldr r3,[r7,#104]
 1197 0606 9A42     	 cmp r2,r3
 1198 0608 BFF4C5AE 	 bcs .L16
1195:../Dave/Generated/CMSIS_DSP/Source/TransformFunctions/arm_cfft_radix4_f32.c ****    }
1196:../Dave/Generated/CMSIS_DSP/Source/TransformFunctions/arm_cfft_radix4_f32.c **** 
1197:../Dave/Generated/CMSIS_DSP/Source/TransformFunctions/arm_cfft_radix4_f32.c **** #endif /* #if defined (ARM_MATH_LOOPUNROLL) */
1198:../Dave/Generated/CMSIS_DSP/Source/TransformFunctions/arm_cfft_radix4_f32.c **** }
 1199              	 .loc 1 1198 0 is_stmt 1
 1200 060c 7437     	 adds r7,r7,#116
 1201              	.LCFI14:
 1202              	 .cfi_def_cfa_offset 4
 1203 060e BD46     	 mov sp,r7
 1204              	.LCFI15:
 1205              	 .cfi_def_cfa_register 13
 1206              	 
 1207 0610 5DF8047B 	 ldr r7,[sp],#4
 1208              	.LCFI16:
 1209              	 .cfi_restore 7
 1210              	 .cfi_def_cfa_offset 0
 1211 0614 7047     	 bx lr
 1212              	 .cfi_endproc
 1213              	.LFE151:
 1215 0616 00BF     	 .text
 1216              	.Letext0:
 1217              	 .file 2 "c:\\infineon\\tools\\dave ide\\4.5.0.202105191637\\eclipse\\arm-gcc-49\\arm-none-eabi\\include\\machine\\_default_types.h"
 1218              	 .file 3 "c:\\infineon\\tools\\dave ide\\4.5.0.202105191637\\eclipse\\arm-gcc-49\\arm-none-eabi\\include\\stdint.h"
 1219              	 .file 4 "C:/Users/Rui Mendes/Desktop/DAVE/_Naive/_ForTesting/Dave/Generated/CMSIS_DSP/Include/arm_math.h"
 1220              	 .file 5 "C:/Users/Rui Mendes/Desktop/DAVE/_Naive/_ForTesting/Libraries/CMSIS/Include/cmsis_gcc.h"