   1              	 .syntax unified
   2              	 .cpu cortex-m4
   3              	 .eabi_attribute 27,3
   4              	 .fpu fpv4-sp-d16
   5              	 .eabi_attribute 20,1
   6              	 .eabi_attribute 21,1
   7              	 .eabi_attribute 23,3
   8              	 .eabi_attribute 24,1
   9              	 .eabi_attribute 25,1
  10              	 .eabi_attribute 26,1
  11              	 .eabi_attribute 30,6
  12              	 .eabi_attribute 34,1
  13              	 .eabi_attribute 18,4
  14              	 .thumb
  15              	 .file "arm_dct4_init_q31.c"
  16              	 .text
  17              	.Ltext0:
  18              	 .cfi_sections .debug_frame
  19              	 .section .text.arm_dct4_init_q31,"ax",%progbits
  20              	 .align 2
  21              	 .global arm_dct4_init_q31
  22              	 .thumb
  23              	 .thumb_func
  25              	arm_dct4_init_q31:
  26              	.LFB149:
  27              	 .file 1 "../Dave/Generated/CMSIS_DSP/Source/TransformFunctions/arm_dct4_init_q31.c"
   1:../Dave/Generated/CMSIS_DSP/Source/TransformFunctions/arm_dct4_init_q31.c **** /* ----------------------------------------------------------------------
   2:../Dave/Generated/CMSIS_DSP/Source/TransformFunctions/arm_dct4_init_q31.c ****  * Project:      CMSIS DSP Library
   3:../Dave/Generated/CMSIS_DSP/Source/TransformFunctions/arm_dct4_init_q31.c ****  * Title:        arm_dct4_init_q31.c
   4:../Dave/Generated/CMSIS_DSP/Source/TransformFunctions/arm_dct4_init_q31.c ****  * Description:  Initialization function of DCT-4 & IDCT4 Q31
   5:../Dave/Generated/CMSIS_DSP/Source/TransformFunctions/arm_dct4_init_q31.c ****  *
   6:../Dave/Generated/CMSIS_DSP/Source/TransformFunctions/arm_dct4_init_q31.c ****  * $Date:        18. March 2019
   7:../Dave/Generated/CMSIS_DSP/Source/TransformFunctions/arm_dct4_init_q31.c ****  * $Revision:    V1.6.0
   8:../Dave/Generated/CMSIS_DSP/Source/TransformFunctions/arm_dct4_init_q31.c ****  *
   9:../Dave/Generated/CMSIS_DSP/Source/TransformFunctions/arm_dct4_init_q31.c ****  * Target Processor: Cortex-M cores
  10:../Dave/Generated/CMSIS_DSP/Source/TransformFunctions/arm_dct4_init_q31.c ****  * -------------------------------------------------------------------- */
  11:../Dave/Generated/CMSIS_DSP/Source/TransformFunctions/arm_dct4_init_q31.c **** /*
  12:../Dave/Generated/CMSIS_DSP/Source/TransformFunctions/arm_dct4_init_q31.c ****  * Copyright (C) 2010-2019 ARM Limited or its affiliates. All rights reserved.
  13:../Dave/Generated/CMSIS_DSP/Source/TransformFunctions/arm_dct4_init_q31.c ****  *
  14:../Dave/Generated/CMSIS_DSP/Source/TransformFunctions/arm_dct4_init_q31.c ****  * SPDX-License-Identifier: Apache-2.0
  15:../Dave/Generated/CMSIS_DSP/Source/TransformFunctions/arm_dct4_init_q31.c ****  *
  16:../Dave/Generated/CMSIS_DSP/Source/TransformFunctions/arm_dct4_init_q31.c ****  * Licensed under the Apache License, Version 2.0 (the License); you may
  17:../Dave/Generated/CMSIS_DSP/Source/TransformFunctions/arm_dct4_init_q31.c ****  * not use this file except in compliance with the License.
  18:../Dave/Generated/CMSIS_DSP/Source/TransformFunctions/arm_dct4_init_q31.c ****  * You may obtain a copy of the License at
  19:../Dave/Generated/CMSIS_DSP/Source/TransformFunctions/arm_dct4_init_q31.c ****  *
  20:../Dave/Generated/CMSIS_DSP/Source/TransformFunctions/arm_dct4_init_q31.c ****  * www.apache.org/licenses/LICENSE-2.0
  21:../Dave/Generated/CMSIS_DSP/Source/TransformFunctions/arm_dct4_init_q31.c ****  *
  22:../Dave/Generated/CMSIS_DSP/Source/TransformFunctions/arm_dct4_init_q31.c ****  * Unless required by applicable law or agreed to in writing, software
  23:../Dave/Generated/CMSIS_DSP/Source/TransformFunctions/arm_dct4_init_q31.c ****  * distributed under the License is distributed on an AS IS BASIS, WITHOUT
  24:../Dave/Generated/CMSIS_DSP/Source/TransformFunctions/arm_dct4_init_q31.c ****  * WARRANTIES OR CONDITIONS OF ANY KIND, either express or implied.
  25:../Dave/Generated/CMSIS_DSP/Source/TransformFunctions/arm_dct4_init_q31.c ****  * See the License for the specific language governing permissions and
  26:../Dave/Generated/CMSIS_DSP/Source/TransformFunctions/arm_dct4_init_q31.c ****  * limitations under the License.
  27:../Dave/Generated/CMSIS_DSP/Source/TransformFunctions/arm_dct4_init_q31.c ****  */
  28:../Dave/Generated/CMSIS_DSP/Source/TransformFunctions/arm_dct4_init_q31.c **** 
  29:../Dave/Generated/CMSIS_DSP/Source/TransformFunctions/arm_dct4_init_q31.c **** #include "CMSIS_DSP/cmsis_dsp.h"
  30:../Dave/Generated/CMSIS_DSP/Source/TransformFunctions/arm_dct4_init_q31.c **** #include "CMSIS_DSP/Include/arm_common_tables.h"
  31:../Dave/Generated/CMSIS_DSP/Source/TransformFunctions/arm_dct4_init_q31.c **** 
  32:../Dave/Generated/CMSIS_DSP/Source/TransformFunctions/arm_dct4_init_q31.c **** /**
  33:../Dave/Generated/CMSIS_DSP/Source/TransformFunctions/arm_dct4_init_q31.c ****   @ingroup groupTransforms
  34:../Dave/Generated/CMSIS_DSP/Source/TransformFunctions/arm_dct4_init_q31.c ****  */
  35:../Dave/Generated/CMSIS_DSP/Source/TransformFunctions/arm_dct4_init_q31.c **** 
  36:../Dave/Generated/CMSIS_DSP/Source/TransformFunctions/arm_dct4_init_q31.c ****  /**
  37:../Dave/Generated/CMSIS_DSP/Source/TransformFunctions/arm_dct4_init_q31.c ****   @addtogroup DCT4_IDCT4
  38:../Dave/Generated/CMSIS_DSP/Source/TransformFunctions/arm_dct4_init_q31.c ****   @{
  39:../Dave/Generated/CMSIS_DSP/Source/TransformFunctions/arm_dct4_init_q31.c ****  */
  40:../Dave/Generated/CMSIS_DSP/Source/TransformFunctions/arm_dct4_init_q31.c **** 
  41:../Dave/Generated/CMSIS_DSP/Source/TransformFunctions/arm_dct4_init_q31.c **** /**
  42:../Dave/Generated/CMSIS_DSP/Source/TransformFunctions/arm_dct4_init_q31.c ****   @brief  Initialization function for the Q31 DCT4/IDCT4.
  43:../Dave/Generated/CMSIS_DSP/Source/TransformFunctions/arm_dct4_init_q31.c ****   @param[in,out] S          points to an instance of Q31 DCT4/IDCT4 structure.
  44:../Dave/Generated/CMSIS_DSP/Source/TransformFunctions/arm_dct4_init_q31.c ****   @param[in]     S_RFFT     points to an instance of Q31 RFFT/RIFFT structure
  45:../Dave/Generated/CMSIS_DSP/Source/TransformFunctions/arm_dct4_init_q31.c ****   @param[in]     S_CFFT     points to an instance of Q31 CFFT/CIFFT structure
  46:../Dave/Generated/CMSIS_DSP/Source/TransformFunctions/arm_dct4_init_q31.c ****   @param[in]     N          length of the DCT4.
  47:../Dave/Generated/CMSIS_DSP/Source/TransformFunctions/arm_dct4_init_q31.c ****   @param[in]     Nby2       half of the length of the DCT4.
  48:../Dave/Generated/CMSIS_DSP/Source/TransformFunctions/arm_dct4_init_q31.c ****   @param[in]     normalize  normalizing factor.
  49:../Dave/Generated/CMSIS_DSP/Source/TransformFunctions/arm_dct4_init_q31.c ****   @return        execution status
  50:../Dave/Generated/CMSIS_DSP/Source/TransformFunctions/arm_dct4_init_q31.c ****                    - \ref ARM_MATH_SUCCESS        : Operation successful
  51:../Dave/Generated/CMSIS_DSP/Source/TransformFunctions/arm_dct4_init_q31.c ****                    - \ref ARM_MATH_ARGUMENT_ERROR : <code>N</code> is not a supported transform len
  52:../Dave/Generated/CMSIS_DSP/Source/TransformFunctions/arm_dct4_init_q31.c **** 
  53:../Dave/Generated/CMSIS_DSP/Source/TransformFunctions/arm_dct4_init_q31.c ****   @par           Normalizing factor:
  54:../Dave/Generated/CMSIS_DSP/Source/TransformFunctions/arm_dct4_init_q31.c ****                    The normalizing factor is <code>sqrt(2/N)</code>, which depends on the size of t
  55:../Dave/Generated/CMSIS_DSP/Source/TransformFunctions/arm_dct4_init_q31.c ****                    Normalizing factors in 1.31 format are mentioned in the table below for differen
  56:../Dave/Generated/CMSIS_DSP/Source/TransformFunctions/arm_dct4_init_q31.c **** 
  57:../Dave/Generated/CMSIS_DSP/Source/TransformFunctions/arm_dct4_init_q31.c ****                    \image html dct4NormalizingQ31Table.gif
  58:../Dave/Generated/CMSIS_DSP/Source/TransformFunctions/arm_dct4_init_q31.c ****  */
  59:../Dave/Generated/CMSIS_DSP/Source/TransformFunctions/arm_dct4_init_q31.c **** 
  60:../Dave/Generated/CMSIS_DSP/Source/TransformFunctions/arm_dct4_init_q31.c **** arm_status arm_dct4_init_q31(
  61:../Dave/Generated/CMSIS_DSP/Source/TransformFunctions/arm_dct4_init_q31.c ****   arm_dct4_instance_q31 * S,
  62:../Dave/Generated/CMSIS_DSP/Source/TransformFunctions/arm_dct4_init_q31.c ****   arm_rfft_instance_q31 * S_RFFT,
  63:../Dave/Generated/CMSIS_DSP/Source/TransformFunctions/arm_dct4_init_q31.c ****   arm_cfft_radix4_instance_q31 * S_CFFT,
  64:../Dave/Generated/CMSIS_DSP/Source/TransformFunctions/arm_dct4_init_q31.c ****   uint16_t N,
  65:../Dave/Generated/CMSIS_DSP/Source/TransformFunctions/arm_dct4_init_q31.c ****   uint16_t Nby2,
  66:../Dave/Generated/CMSIS_DSP/Source/TransformFunctions/arm_dct4_init_q31.c ****   q31_t normalize)
  67:../Dave/Generated/CMSIS_DSP/Source/TransformFunctions/arm_dct4_init_q31.c **** {
  28              	 .loc 1 67 0
  29              	 .cfi_startproc
  30              	 
  31              	 
  32 0000 80B5     	 push {r7,lr}
  33              	.LCFI0:
  34              	 .cfi_def_cfa_offset 8
  35              	 .cfi_offset 7,-8
  36              	 .cfi_offset 14,-4
  37 0002 86B0     	 sub sp,sp,#24
  38              	.LCFI1:
  39              	 .cfi_def_cfa_offset 32
  40 0004 00AF     	 add r7,sp,#0
  41              	.LCFI2:
  42              	 .cfi_def_cfa_register 7
  43 0006 F860     	 str r0,[r7,#12]
  44 0008 B960     	 str r1,[r7,#8]
  45 000a 7A60     	 str r2,[r7,#4]
  46 000c 7B80     	 strh r3,[r7,#2]
  68:../Dave/Generated/CMSIS_DSP/Source/TransformFunctions/arm_dct4_init_q31.c ****   /* Initialize the default arm status */
  69:../Dave/Generated/CMSIS_DSP/Source/TransformFunctions/arm_dct4_init_q31.c ****   arm_status status = ARM_MATH_SUCCESS;
  47              	 .loc 1 69 0
  48 000e 0023     	 movs r3,#0
  49 0010 FB75     	 strb r3,[r7,#23]
  70:../Dave/Generated/CMSIS_DSP/Source/TransformFunctions/arm_dct4_init_q31.c **** 
  71:../Dave/Generated/CMSIS_DSP/Source/TransformFunctions/arm_dct4_init_q31.c ****   /* Initialize the DCT4 length */
  72:../Dave/Generated/CMSIS_DSP/Source/TransformFunctions/arm_dct4_init_q31.c ****   S->N = N;
  50              	 .loc 1 72 0
  51 0012 FB68     	 ldr r3,[r7,#12]
  52 0014 7A88     	 ldrh r2,[r7,#2]
  53 0016 1A80     	 strh r2,[r3]
  73:../Dave/Generated/CMSIS_DSP/Source/TransformFunctions/arm_dct4_init_q31.c **** 
  74:../Dave/Generated/CMSIS_DSP/Source/TransformFunctions/arm_dct4_init_q31.c ****   /* Initialize the half of DCT4 length */
  75:../Dave/Generated/CMSIS_DSP/Source/TransformFunctions/arm_dct4_init_q31.c ****   S->Nby2 = Nby2;
  54              	 .loc 1 75 0
  55 0018 FB68     	 ldr r3,[r7,#12]
  56 001a 3A8C     	 ldrh r2,[r7,#32]
  57 001c 5A80     	 strh r2,[r3,#2]
  76:../Dave/Generated/CMSIS_DSP/Source/TransformFunctions/arm_dct4_init_q31.c **** 
  77:../Dave/Generated/CMSIS_DSP/Source/TransformFunctions/arm_dct4_init_q31.c ****   /* Initialize the DCT4 Normalizing factor */
  78:../Dave/Generated/CMSIS_DSP/Source/TransformFunctions/arm_dct4_init_q31.c ****   S->normalize = normalize;
  58              	 .loc 1 78 0
  59 001e FB68     	 ldr r3,[r7,#12]
  60 0020 7A6A     	 ldr r2,[r7,#36]
  61 0022 5A60     	 str r2,[r3,#4]
  79:../Dave/Generated/CMSIS_DSP/Source/TransformFunctions/arm_dct4_init_q31.c **** 
  80:../Dave/Generated/CMSIS_DSP/Source/TransformFunctions/arm_dct4_init_q31.c ****   /* Initialize Real FFT Instance */
  81:../Dave/Generated/CMSIS_DSP/Source/TransformFunctions/arm_dct4_init_q31.c ****   S->pRfft = S_RFFT;
  62              	 .loc 1 81 0
  63 0024 FB68     	 ldr r3,[r7,#12]
  64 0026 BA68     	 ldr r2,[r7,#8]
  65 0028 1A61     	 str r2,[r3,#16]
  82:../Dave/Generated/CMSIS_DSP/Source/TransformFunctions/arm_dct4_init_q31.c **** 
  83:../Dave/Generated/CMSIS_DSP/Source/TransformFunctions/arm_dct4_init_q31.c ****   /* Initialize Complex FFT Instance */
  84:../Dave/Generated/CMSIS_DSP/Source/TransformFunctions/arm_dct4_init_q31.c ****   S->pCfft = S_CFFT;
  66              	 .loc 1 84 0
  67 002a FB68     	 ldr r3,[r7,#12]
  68 002c 7A68     	 ldr r2,[r7,#4]
  69 002e 5A61     	 str r2,[r3,#20]
  85:../Dave/Generated/CMSIS_DSP/Source/TransformFunctions/arm_dct4_init_q31.c **** 
  86:../Dave/Generated/CMSIS_DSP/Source/TransformFunctions/arm_dct4_init_q31.c ****   switch (N)
  70              	 .loc 1 86 0
  71 0030 7B88     	 ldrh r3,[r7,#2]
  72 0032 B3F5007F 	 cmp r3,#512
  73 0036 19D0     	 beq .L3
  74 0038 B3F5007F 	 cmp r3,#512
  75 003c 02DC     	 bgt .L4
  76 003e 802B     	 cmp r3,#128
  77 0040 1BD0     	 beq .L5
  78 0042 21E0     	 b .L2
  79              	.L4:
  80 0044 B3F5006F 	 cmp r3,#2048
  81 0048 09D0     	 beq .L6
  82 004a B3F5005F 	 cmp r3,#8192
  83 004e 1BD1     	 bne .L2
  87:../Dave/Generated/CMSIS_DSP/Source/TransformFunctions/arm_dct4_init_q31.c ****   {
  88:../Dave/Generated/CMSIS_DSP/Source/TransformFunctions/arm_dct4_init_q31.c ****   #if !defined(ARM_DSP_CONFIG_TABLES) || defined(ARM_ALL_FFT_TABLES) || defined(ARM_TABLE_DCT4_Q31_
  89:../Dave/Generated/CMSIS_DSP/Source/TransformFunctions/arm_dct4_init_q31.c ****     /* Initialize the table modifier values */
  90:../Dave/Generated/CMSIS_DSP/Source/TransformFunctions/arm_dct4_init_q31.c ****   case 8192U:
  91:../Dave/Generated/CMSIS_DSP/Source/TransformFunctions/arm_dct4_init_q31.c ****     S->pTwiddle = WeightsQ31_8192;
  84              	 .loc 1 91 0
  85 0050 FB68     	 ldr r3,[r7,#12]
  86 0052 164A     	 ldr r2,.L10
  87 0054 9A60     	 str r2,[r3,#8]
  92:../Dave/Generated/CMSIS_DSP/Source/TransformFunctions/arm_dct4_init_q31.c ****     S->pCosFactor = cos_factorsQ31_8192;
  88              	 .loc 1 92 0
  89 0056 FB68     	 ldr r3,[r7,#12]
  90 0058 154A     	 ldr r2,.L10+4
  91 005a DA60     	 str r2,[r3,#12]
  93:../Dave/Generated/CMSIS_DSP/Source/TransformFunctions/arm_dct4_init_q31.c ****     break;
  92              	 .loc 1 93 0
  93 005c 16E0     	 b .L8
  94              	.L6:
  94:../Dave/Generated/CMSIS_DSP/Source/TransformFunctions/arm_dct4_init_q31.c ****   #endif
  95:../Dave/Generated/CMSIS_DSP/Source/TransformFunctions/arm_dct4_init_q31.c **** 
  96:../Dave/Generated/CMSIS_DSP/Source/TransformFunctions/arm_dct4_init_q31.c ****   #if !defined(ARM_DSP_CONFIG_TABLES) || defined(ARM_ALL_FFT_TABLES) || defined(ARM_TABLE_DCT4_Q31_
  97:../Dave/Generated/CMSIS_DSP/Source/TransformFunctions/arm_dct4_init_q31.c ****   case 2048U:
  98:../Dave/Generated/CMSIS_DSP/Source/TransformFunctions/arm_dct4_init_q31.c ****     S->pTwiddle = WeightsQ31_2048;
  95              	 .loc 1 98 0
  96 005e FB68     	 ldr r3,[r7,#12]
  97 0060 144A     	 ldr r2,.L10+8
  98 0062 9A60     	 str r2,[r3,#8]
  99:../Dave/Generated/CMSIS_DSP/Source/TransformFunctions/arm_dct4_init_q31.c ****     S->pCosFactor = cos_factorsQ31_2048;
  99              	 .loc 1 99 0
 100 0064 FB68     	 ldr r3,[r7,#12]
 101 0066 144A     	 ldr r2,.L10+12
 102 0068 DA60     	 str r2,[r3,#12]
 100:../Dave/Generated/CMSIS_DSP/Source/TransformFunctions/arm_dct4_init_q31.c ****     break;
 103              	 .loc 1 100 0
 104 006a 0FE0     	 b .L8
 105              	.L3:
 101:../Dave/Generated/CMSIS_DSP/Source/TransformFunctions/arm_dct4_init_q31.c ****   #endif 
 102:../Dave/Generated/CMSIS_DSP/Source/TransformFunctions/arm_dct4_init_q31.c **** 
 103:../Dave/Generated/CMSIS_DSP/Source/TransformFunctions/arm_dct4_init_q31.c ****   #if !defined(ARM_DSP_CONFIG_TABLES) || defined(ARM_ALL_FFT_TABLES) || defined(ARM_TABLE_DCT4_Q31_
 104:../Dave/Generated/CMSIS_DSP/Source/TransformFunctions/arm_dct4_init_q31.c ****   case 512U:
 105:../Dave/Generated/CMSIS_DSP/Source/TransformFunctions/arm_dct4_init_q31.c ****     S->pTwiddle = WeightsQ31_512;
 106              	 .loc 1 105 0
 107 006c FB68     	 ldr r3,[r7,#12]
 108 006e 134A     	 ldr r2,.L10+16
 109 0070 9A60     	 str r2,[r3,#8]
 106:../Dave/Generated/CMSIS_DSP/Source/TransformFunctions/arm_dct4_init_q31.c ****     S->pCosFactor = cos_factorsQ31_512;
 110              	 .loc 1 106 0
 111 0072 FB68     	 ldr r3,[r7,#12]
 112 0074 124A     	 ldr r2,.L10+20
 113 0076 DA60     	 str r2,[r3,#12]
 107:../Dave/Generated/CMSIS_DSP/Source/TransformFunctions/arm_dct4_init_q31.c ****     break;
 114              	 .loc 1 107 0
 115 0078 08E0     	 b .L8
 116              	.L5:
 108:../Dave/Generated/CMSIS_DSP/Source/TransformFunctions/arm_dct4_init_q31.c ****   #endif 
 109:../Dave/Generated/CMSIS_DSP/Source/TransformFunctions/arm_dct4_init_q31.c **** 
 110:../Dave/Generated/CMSIS_DSP/Source/TransformFunctions/arm_dct4_init_q31.c ****   #if !defined(ARM_DSP_CONFIG_TABLES) || defined(ARM_ALL_FFT_TABLES) || defined(ARM_TABLE_DCT4_Q31_
 111:../Dave/Generated/CMSIS_DSP/Source/TransformFunctions/arm_dct4_init_q31.c ****   case 128U:
 112:../Dave/Generated/CMSIS_DSP/Source/TransformFunctions/arm_dct4_init_q31.c ****     S->pTwiddle = WeightsQ31_128;
 117              	 .loc 1 112 0
 118 007a FB68     	 ldr r3,[r7,#12]
 119 007c 114A     	 ldr r2,.L10+24
 120 007e 9A60     	 str r2,[r3,#8]
 113:../Dave/Generated/CMSIS_DSP/Source/TransformFunctions/arm_dct4_init_q31.c ****     S->pCosFactor = cos_factorsQ31_128;
 121              	 .loc 1 113 0
 122 0080 FB68     	 ldr r3,[r7,#12]
 123 0082 114A     	 ldr r2,.L10+28
 124 0084 DA60     	 str r2,[r3,#12]
 114:../Dave/Generated/CMSIS_DSP/Source/TransformFunctions/arm_dct4_init_q31.c ****     break;
 125              	 .loc 1 114 0
 126 0086 01E0     	 b .L8
 127              	.L2:
 115:../Dave/Generated/CMSIS_DSP/Source/TransformFunctions/arm_dct4_init_q31.c ****   #endif
 116:../Dave/Generated/CMSIS_DSP/Source/TransformFunctions/arm_dct4_init_q31.c ****   default:
 117:../Dave/Generated/CMSIS_DSP/Source/TransformFunctions/arm_dct4_init_q31.c ****     status = ARM_MATH_ARGUMENT_ERROR;
 128              	 .loc 1 117 0
 129 0088 FF23     	 movs r3,#255
 130 008a FB75     	 strb r3,[r7,#23]
 131              	.L8:
 118:../Dave/Generated/CMSIS_DSP/Source/TransformFunctions/arm_dct4_init_q31.c ****   }
 119:../Dave/Generated/CMSIS_DSP/Source/TransformFunctions/arm_dct4_init_q31.c **** 
 120:../Dave/Generated/CMSIS_DSP/Source/TransformFunctions/arm_dct4_init_q31.c ****   /* Initialize the RFFT/RIFFT Function */
 121:../Dave/Generated/CMSIS_DSP/Source/TransformFunctions/arm_dct4_init_q31.c ****   arm_rfft_init_q31(S->pRfft,  S->N, 0U, 1U);
 132              	 .loc 1 121 0
 133 008c FB68     	 ldr r3,[r7,#12]
 134 008e 1A69     	 ldr r2,[r3,#16]
 135 0090 FB68     	 ldr r3,[r7,#12]
 136 0092 1B88     	 ldrh r3,[r3]
 137 0094 1046     	 mov r0,r2
 138 0096 1946     	 mov r1,r3
 139 0098 0022     	 movs r2,#0
 140 009a 0123     	 movs r3,#1
 141 009c FFF7FEFF 	 bl arm_rfft_init_q31
 122:../Dave/Generated/CMSIS_DSP/Source/TransformFunctions/arm_dct4_init_q31.c **** 
 123:../Dave/Generated/CMSIS_DSP/Source/TransformFunctions/arm_dct4_init_q31.c ****   /* return the status of DCT4 Init function */
 124:../Dave/Generated/CMSIS_DSP/Source/TransformFunctions/arm_dct4_init_q31.c ****   return (status);
 142              	 .loc 1 124 0
 143 00a0 FB7D     	 ldrb r3,[r7,#23]
 144 00a2 5BB2     	 sxtb r3,r3
 125:../Dave/Generated/CMSIS_DSP/Source/TransformFunctions/arm_dct4_init_q31.c **** }
 145              	 .loc 1 125 0
 146 00a4 1846     	 mov r0,r3
 147 00a6 1837     	 adds r7,r7,#24
 148              	.LCFI3:
 149              	 .cfi_def_cfa_offset 8
 150 00a8 BD46     	 mov sp,r7
 151              	.LCFI4:
 152              	 .cfi_def_cfa_register 13
 153              	 
 154 00aa 80BD     	 pop {r7,pc}
 155              	.L11:
 156              	 .align 2
 157              	.L10:
 158 00ac 00000000 	 .word WeightsQ31_8192
 159 00b0 00000000 	 .word cos_factorsQ31_8192
 160 00b4 00000000 	 .word WeightsQ31_2048
 161 00b8 00000000 	 .word cos_factorsQ31_2048
 162 00bc 00000000 	 .word WeightsQ31_512
 163 00c0 00000000 	 .word cos_factorsQ31_512
 164 00c4 00000000 	 .word WeightsQ31_128
 165 00c8 00000000 	 .word cos_factorsQ31_128
 166              	 .cfi_endproc
 167              	.LFE149:
 169              	 .text
 170              	.Letext0:
 171              	 .file 2 "c:\\infineon\\tools\\dave ide\\4.5.0.202105191637\\eclipse\\arm-gcc-49\\arm-none-eabi\\include\\machine\\_default_types.h"
 172              	 .file 3 "c:\\infineon\\tools\\dave ide\\4.5.0.202105191637\\eclipse\\arm-gcc-49\\arm-none-eabi\\include\\stdint.h"
 173              	 .file 4 "C:/Users/Rui Mendes/Desktop/DAVE/_Naive/_ForTesting/Dave/Generated/CMSIS_DSP/Include/arm_math.h"
 174              	 .file 5 "C:/Users/Rui Mendes/Desktop/DAVE/_Naive/_ForTesting/Libraries/CMSIS/Include/cmsis_gcc.h"
 175              	 .file 6 "C:/Users/Rui Mendes/Desktop/DAVE/_Naive/_ForTesting/Dave/Generated/CMSIS_DSP/Include/arm_common_tables.h"