   1              	 .syntax unified
   2              	 .cpu cortex-m4
   3              	 .eabi_attribute 27,3
   4              	 .fpu fpv4-sp-d16
   5              	 .eabi_attribute 20,1
   6              	 .eabi_attribute 21,1
   7              	 .eabi_attribute 23,3
   8              	 .eabi_attribute 24,1
   9              	 .eabi_attribute 25,1
  10              	 .eabi_attribute 26,1
  11              	 .eabi_attribute 30,6
  12              	 .eabi_attribute 34,1
  13              	 .eabi_attribute 18,4
  14              	 .thumb
  15              	 .file "arm_cfft_f64.c"
  16              	 .text
  17              	.Ltext0:
  18              	 .cfi_sections .debug_frame
  19              	 .global __aeabi_dadd
  20              	 .global __aeabi_dsub
  21              	 .global __aeabi_dmul
  22              	 .section .text.arm_radix4_butterfly_f64,"ax",%progbits
  23              	 .align 2
  24              	 .global arm_radix4_butterfly_f64
  25              	 .thumb
  26              	 .thumb_func
  28              	arm_radix4_butterfly_f64:
  29              	.LFB149:
  30              	 .file 1 "../Dave/Generated/CMSIS_DSP/Source/TransformFunctions/arm_cfft_f64.c"
   1:../Dave/Generated/CMSIS_DSP/Source/TransformFunctions/arm_cfft_f64.c **** /* ----------------------------------------------------------------------
   2:../Dave/Generated/CMSIS_DSP/Source/TransformFunctions/arm_cfft_f64.c ****  * Project:      CMSIS DSP Library
   3:../Dave/Generated/CMSIS_DSP/Source/TransformFunctions/arm_cfft_f64.c ****  * Title:        arm_cfft_f64.c
   4:../Dave/Generated/CMSIS_DSP/Source/TransformFunctions/arm_cfft_f64.c ****  * Description:  Combined Radix Decimation in Frequency CFFT Double Precision Floating point proces
   5:../Dave/Generated/CMSIS_DSP/Source/TransformFunctions/arm_cfft_f64.c ****  *
   6:../Dave/Generated/CMSIS_DSP/Source/TransformFunctions/arm_cfft_f64.c ****  * $Date:        29. November 2019
   7:../Dave/Generated/CMSIS_DSP/Source/TransformFunctions/arm_cfft_f64.c ****  * $Revision:    V1.0.0
   8:../Dave/Generated/CMSIS_DSP/Source/TransformFunctions/arm_cfft_f64.c ****  *
   9:../Dave/Generated/CMSIS_DSP/Source/TransformFunctions/arm_cfft_f64.c ****  * Target Processor: Cortex-M cores
  10:../Dave/Generated/CMSIS_DSP/Source/TransformFunctions/arm_cfft_f64.c ****  * -------------------------------------------------------------------- */
  11:../Dave/Generated/CMSIS_DSP/Source/TransformFunctions/arm_cfft_f64.c **** /*
  12:../Dave/Generated/CMSIS_DSP/Source/TransformFunctions/arm_cfft_f64.c ****  * Copyright (C) 2010-2019 ARM Limited or its affiliates. All rights reserved.
  13:../Dave/Generated/CMSIS_DSP/Source/TransformFunctions/arm_cfft_f64.c ****  *
  14:../Dave/Generated/CMSIS_DSP/Source/TransformFunctions/arm_cfft_f64.c ****  * SPDX-License-Identifier: Apache-2.0
  15:../Dave/Generated/CMSIS_DSP/Source/TransformFunctions/arm_cfft_f64.c ****  *
  16:../Dave/Generated/CMSIS_DSP/Source/TransformFunctions/arm_cfft_f64.c ****  * Licensed under the Apache License, Version 2.0 (the License); you may
  17:../Dave/Generated/CMSIS_DSP/Source/TransformFunctions/arm_cfft_f64.c ****  * not use this file except in compliance with the License.
  18:../Dave/Generated/CMSIS_DSP/Source/TransformFunctions/arm_cfft_f64.c ****  * You may obtain a copy of the License at
  19:../Dave/Generated/CMSIS_DSP/Source/TransformFunctions/arm_cfft_f64.c ****  *
  20:../Dave/Generated/CMSIS_DSP/Source/TransformFunctions/arm_cfft_f64.c ****  * www.apache.org/licenses/LICENSE-2.0
  21:../Dave/Generated/CMSIS_DSP/Source/TransformFunctions/arm_cfft_f64.c ****  *
  22:../Dave/Generated/CMSIS_DSP/Source/TransformFunctions/arm_cfft_f64.c ****  * Unless required by applicable law or agreed to in writing, software
  23:../Dave/Generated/CMSIS_DSP/Source/TransformFunctions/arm_cfft_f64.c ****  * distributed under the License is distributed on an AS IS BASIS, WITHOUT
  24:../Dave/Generated/CMSIS_DSP/Source/TransformFunctions/arm_cfft_f64.c ****  * WARRANTIES OR CONDITIONS OF ANY KIND, either express or implied.
  25:../Dave/Generated/CMSIS_DSP/Source/TransformFunctions/arm_cfft_f64.c ****  * See the License for the specific language governing permissions and
  26:../Dave/Generated/CMSIS_DSP/Source/TransformFunctions/arm_cfft_f64.c ****  * limitations under the License.
  27:../Dave/Generated/CMSIS_DSP/Source/TransformFunctions/arm_cfft_f64.c ****  */
  28:../Dave/Generated/CMSIS_DSP/Source/TransformFunctions/arm_cfft_f64.c **** 
  29:../Dave/Generated/CMSIS_DSP/Source/TransformFunctions/arm_cfft_f64.c **** #include "CMSIS_DSP/cmsis_dsp.h"
  30:../Dave/Generated/CMSIS_DSP/Source/TransformFunctions/arm_cfft_f64.c **** #include "CMSIS_DSP/Include/arm_common_tables.h"
  31:../Dave/Generated/CMSIS_DSP/Source/TransformFunctions/arm_cfft_f64.c **** 
  32:../Dave/Generated/CMSIS_DSP/Source/TransformFunctions/arm_cfft_f64.c **** 
  33:../Dave/Generated/CMSIS_DSP/Source/TransformFunctions/arm_cfft_f64.c **** extern void arm_radix4_butterfly_f64(
  34:../Dave/Generated/CMSIS_DSP/Source/TransformFunctions/arm_cfft_f64.c ****         float64_t * pSrc,
  35:../Dave/Generated/CMSIS_DSP/Source/TransformFunctions/arm_cfft_f64.c ****         uint16_t fftLen,
  36:../Dave/Generated/CMSIS_DSP/Source/TransformFunctions/arm_cfft_f64.c ****   const float64_t * pCoef,
  37:../Dave/Generated/CMSIS_DSP/Source/TransformFunctions/arm_cfft_f64.c ****         uint16_t twidCoefModifier);
  38:../Dave/Generated/CMSIS_DSP/Source/TransformFunctions/arm_cfft_f64.c **** 
  39:../Dave/Generated/CMSIS_DSP/Source/TransformFunctions/arm_cfft_f64.c **** extern void arm_bitreversal_64(
  40:../Dave/Generated/CMSIS_DSP/Source/TransformFunctions/arm_cfft_f64.c ****         uint64_t * pSrc,
  41:../Dave/Generated/CMSIS_DSP/Source/TransformFunctions/arm_cfft_f64.c ****   const uint16_t   bitRevLen,
  42:../Dave/Generated/CMSIS_DSP/Source/TransformFunctions/arm_cfft_f64.c ****   const uint16_t * pBitRevTable);
  43:../Dave/Generated/CMSIS_DSP/Source/TransformFunctions/arm_cfft_f64.c **** 
  44:../Dave/Generated/CMSIS_DSP/Source/TransformFunctions/arm_cfft_f64.c **** /**
  45:../Dave/Generated/CMSIS_DSP/Source/TransformFunctions/arm_cfft_f64.c **** * @} end of ComplexFFT group
  46:../Dave/Generated/CMSIS_DSP/Source/TransformFunctions/arm_cfft_f64.c **** */
  47:../Dave/Generated/CMSIS_DSP/Source/TransformFunctions/arm_cfft_f64.c **** 
  48:../Dave/Generated/CMSIS_DSP/Source/TransformFunctions/arm_cfft_f64.c **** /* ----------------------------------------------------------------------
  49:../Dave/Generated/CMSIS_DSP/Source/TransformFunctions/arm_cfft_f64.c ****  * Internal helper function used by the FFTs
  50:../Dave/Generated/CMSIS_DSP/Source/TransformFunctions/arm_cfft_f64.c ****  * ---------------------------------------------------------------------- */
  51:../Dave/Generated/CMSIS_DSP/Source/TransformFunctions/arm_cfft_f64.c **** 
  52:../Dave/Generated/CMSIS_DSP/Source/TransformFunctions/arm_cfft_f64.c **** /*
  53:../Dave/Generated/CMSIS_DSP/Source/TransformFunctions/arm_cfft_f64.c **** * @brief  Core function for the Double Precision floating-point CFFT butterfly process.
  54:../Dave/Generated/CMSIS_DSP/Source/TransformFunctions/arm_cfft_f64.c **** * @param[in, out] *pSrc            points to the in-place buffer of F64 data type.
  55:../Dave/Generated/CMSIS_DSP/Source/TransformFunctions/arm_cfft_f64.c **** * @param[in]      fftLen           length of the FFT.
  56:../Dave/Generated/CMSIS_DSP/Source/TransformFunctions/arm_cfft_f64.c **** * @param[in]      *pCoef           points to the twiddle coefficient buffer.
  57:../Dave/Generated/CMSIS_DSP/Source/TransformFunctions/arm_cfft_f64.c **** * @param[in]      twidCoefModifier twiddle coefficient modifier that supports different size FFTs w
  58:../Dave/Generated/CMSIS_DSP/Source/TransformFunctions/arm_cfft_f64.c **** * @return none.
  59:../Dave/Generated/CMSIS_DSP/Source/TransformFunctions/arm_cfft_f64.c **** */
  60:../Dave/Generated/CMSIS_DSP/Source/TransformFunctions/arm_cfft_f64.c **** 
  61:../Dave/Generated/CMSIS_DSP/Source/TransformFunctions/arm_cfft_f64.c **** void arm_radix4_butterfly_f64(
  62:../Dave/Generated/CMSIS_DSP/Source/TransformFunctions/arm_cfft_f64.c ****         float64_t * pSrc,
  63:../Dave/Generated/CMSIS_DSP/Source/TransformFunctions/arm_cfft_f64.c ****         uint16_t fftLen,
  64:../Dave/Generated/CMSIS_DSP/Source/TransformFunctions/arm_cfft_f64.c ****   const float64_t * pCoef,
  65:../Dave/Generated/CMSIS_DSP/Source/TransformFunctions/arm_cfft_f64.c ****         uint16_t twidCoefModifier)
  66:../Dave/Generated/CMSIS_DSP/Source/TransformFunctions/arm_cfft_f64.c **** {
  31              	 .loc 1 66 0
  32              	 .cfi_startproc
  33              	 
  34              	 
  35 0000 2DE99043 	 push {r4,r7,r8,r9,lr}
  36              	.LCFI0:
  37              	 .cfi_def_cfa_offset 20
  38              	 .cfi_offset 4,-20
  39              	 .cfi_offset 7,-16
  40              	 .cfi_offset 8,-12
  41              	 .cfi_offset 9,-8
  42              	 .cfi_offset 14,-4
  43 0004 A9B0     	 sub sp,sp,#164
  44              	.LCFI1:
  45              	 .cfi_def_cfa_offset 184
  46 0006 00AF     	 add r7,sp,#0
  47              	.LCFI2:
  48              	 .cfi_def_cfa_register 7
  49 0008 F860     	 str r0,[r7,#12]
  50 000a 7A60     	 str r2,[r7,#4]
  51 000c 1A46     	 mov r2,r3
  52 000e 0B46     	 mov r3,r1
  53 0010 7B81     	 strh r3,[r7,#10]
  54 0012 1346     	 mov r3,r2
  55 0014 3B81     	 strh r3,[r7,#8]
  67:../Dave/Generated/CMSIS_DSP/Source/TransformFunctions/arm_cfft_f64.c **** 
  68:../Dave/Generated/CMSIS_DSP/Source/TransformFunctions/arm_cfft_f64.c ****    float64_t co1, co2, co3, si1, si2, si3;
  69:../Dave/Generated/CMSIS_DSP/Source/TransformFunctions/arm_cfft_f64.c ****    uint32_t ia1, ia2, ia3;
  70:../Dave/Generated/CMSIS_DSP/Source/TransformFunctions/arm_cfft_f64.c ****    uint32_t i0, i1, i2, i3;
  71:../Dave/Generated/CMSIS_DSP/Source/TransformFunctions/arm_cfft_f64.c ****    uint32_t n1, n2, j, k;
  72:../Dave/Generated/CMSIS_DSP/Source/TransformFunctions/arm_cfft_f64.c **** 
  73:../Dave/Generated/CMSIS_DSP/Source/TransformFunctions/arm_cfft_f64.c ****    float64_t t1, t2, r1, r2, s1, s2;
  74:../Dave/Generated/CMSIS_DSP/Source/TransformFunctions/arm_cfft_f64.c **** 
  75:../Dave/Generated/CMSIS_DSP/Source/TransformFunctions/arm_cfft_f64.c **** 
  76:../Dave/Generated/CMSIS_DSP/Source/TransformFunctions/arm_cfft_f64.c ****    /*  Initializations for the fft calculation */
  77:../Dave/Generated/CMSIS_DSP/Source/TransformFunctions/arm_cfft_f64.c ****    n2 = fftLen;
  56              	 .loc 1 77 0
  57 0016 7B89     	 ldrh r3,[r7,#10]
  58 0018 C7F89430 	 str r3,[r7,#148]
  78:../Dave/Generated/CMSIS_DSP/Source/TransformFunctions/arm_cfft_f64.c ****    n1 = n2;
  59              	 .loc 1 78 0
  60 001c D7F89430 	 ldr r3,[r7,#148]
  61 0020 C7F88830 	 str r3,[r7,#136]
  79:../Dave/Generated/CMSIS_DSP/Source/TransformFunctions/arm_cfft_f64.c ****    for (k = fftLen; k > 1U; k >>= 2U)
  62              	 .loc 1 79 0
  63 0024 7B89     	 ldrh r3,[r7,#10]
  64 0026 C7F88C30 	 str r3,[r7,#140]
  65 002a 3FE2     	 b .L2
  66              	.L5:
  80:../Dave/Generated/CMSIS_DSP/Source/TransformFunctions/arm_cfft_f64.c ****    {
  81:../Dave/Generated/CMSIS_DSP/Source/TransformFunctions/arm_cfft_f64.c ****       /*  Initializations for the fft calculation */
  82:../Dave/Generated/CMSIS_DSP/Source/TransformFunctions/arm_cfft_f64.c ****       n1 = n2;
  67              	 .loc 1 82 0
  68 002c D7F89430 	 ldr r3,[r7,#148]
  69 0030 C7F88830 	 str r3,[r7,#136]
  83:../Dave/Generated/CMSIS_DSP/Source/TransformFunctions/arm_cfft_f64.c ****       n2 >>= 2U;
  70              	 .loc 1 83 0
  71 0034 D7F89430 	 ldr r3,[r7,#148]
  72 0038 9B08     	 lsrs r3,r3,#2
  73 003a C7F89430 	 str r3,[r7,#148]
  84:../Dave/Generated/CMSIS_DSP/Source/TransformFunctions/arm_cfft_f64.c ****       ia1 = 0U;
  74              	 .loc 1 84 0
  75 003e 0023     	 movs r3,#0
  76 0040 C7F89C30 	 str r3,[r7,#156]
  85:../Dave/Generated/CMSIS_DSP/Source/TransformFunctions/arm_cfft_f64.c **** 
  86:../Dave/Generated/CMSIS_DSP/Source/TransformFunctions/arm_cfft_f64.c ****       /*  FFT Calculation */
  87:../Dave/Generated/CMSIS_DSP/Source/TransformFunctions/arm_cfft_f64.c ****       j = 0;
  77              	 .loc 1 87 0
  78 0044 0023     	 movs r3,#0
  79 0046 C7F89030 	 str r3,[r7,#144]
  80              	.L4:
  88:../Dave/Generated/CMSIS_DSP/Source/TransformFunctions/arm_cfft_f64.c ****       do
  89:../Dave/Generated/CMSIS_DSP/Source/TransformFunctions/arm_cfft_f64.c ****       {
  90:../Dave/Generated/CMSIS_DSP/Source/TransformFunctions/arm_cfft_f64.c ****          /*  index calculation for the coefficients */
  91:../Dave/Generated/CMSIS_DSP/Source/TransformFunctions/arm_cfft_f64.c ****          ia2 = ia1 + ia1;
  81              	 .loc 1 91 0
  82 004a D7F89C20 	 ldr r2,[r7,#156]
  83 004e D7F89C30 	 ldr r3,[r7,#156]
  84 0052 1344     	 add r3,r3,r2
  85 0054 C7F88430 	 str r3,[r7,#132]
  92:../Dave/Generated/CMSIS_DSP/Source/TransformFunctions/arm_cfft_f64.c ****          ia3 = ia2 + ia1;
  86              	 .loc 1 92 0
  87 0058 D7F88420 	 ldr r2,[r7,#132]
  88 005c D7F89C30 	 ldr r3,[r7,#156]
  89 0060 1344     	 add r3,r3,r2
  90 0062 C7F88030 	 str r3,[r7,#128]
  93:../Dave/Generated/CMSIS_DSP/Source/TransformFunctions/arm_cfft_f64.c ****          co1 = pCoef[ia1 * 2U];
  91              	 .loc 1 93 0
  92 0066 D7F89C30 	 ldr r3,[r7,#156]
  93 006a 1B01     	 lsls r3,r3,#4
  94 006c 7A68     	 ldr r2,[r7,#4]
  95 006e 1344     	 add r3,r3,r2
  96 0070 D3E90023 	 ldrd r2,[r3]
  97 0074 C7E91E23 	 strd r2,[r7,#120]
  94:../Dave/Generated/CMSIS_DSP/Source/TransformFunctions/arm_cfft_f64.c ****          si1 = pCoef[(ia1 * 2U) + 1U];
  98              	 .loc 1 94 0
  99 0078 D7F89C30 	 ldr r3,[r7,#156]
 100 007c 1B01     	 lsls r3,r3,#4
 101 007e 0833     	 adds r3,r3,#8
 102 0080 7A68     	 ldr r2,[r7,#4]
 103 0082 1344     	 add r3,r3,r2
 104 0084 D3E90023 	 ldrd r2,[r3]
 105 0088 C7E91C23 	 strd r2,[r7,#112]
  95:../Dave/Generated/CMSIS_DSP/Source/TransformFunctions/arm_cfft_f64.c ****          co2 = pCoef[ia2 * 2U];
 106              	 .loc 1 95 0
 107 008c D7F88430 	 ldr r3,[r7,#132]
 108 0090 1B01     	 lsls r3,r3,#4
 109 0092 7A68     	 ldr r2,[r7,#4]
 110 0094 1344     	 add r3,r3,r2
 111 0096 D3E90023 	 ldrd r2,[r3]
 112 009a C7E91A23 	 strd r2,[r7,#104]
  96:../Dave/Generated/CMSIS_DSP/Source/TransformFunctions/arm_cfft_f64.c ****          si2 = pCoef[(ia2 * 2U) + 1U];
 113              	 .loc 1 96 0
 114 009e D7F88430 	 ldr r3,[r7,#132]
 115 00a2 1B01     	 lsls r3,r3,#4
 116 00a4 0833     	 adds r3,r3,#8
 117 00a6 7A68     	 ldr r2,[r7,#4]
 118 00a8 1344     	 add r3,r3,r2
 119 00aa D3E90023 	 ldrd r2,[r3]
 120 00ae C7E91823 	 strd r2,[r7,#96]
  97:../Dave/Generated/CMSIS_DSP/Source/TransformFunctions/arm_cfft_f64.c ****          co3 = pCoef[ia3 * 2U];
 121              	 .loc 1 97 0
 122 00b2 D7F88030 	 ldr r3,[r7,#128]
 123 00b6 1B01     	 lsls r3,r3,#4
 124 00b8 7A68     	 ldr r2,[r7,#4]
 125 00ba 1344     	 add r3,r3,r2
 126 00bc D3E90023 	 ldrd r2,[r3]
 127 00c0 C7E91623 	 strd r2,[r7,#88]
  98:../Dave/Generated/CMSIS_DSP/Source/TransformFunctions/arm_cfft_f64.c ****          si3 = pCoef[(ia3 * 2U) + 1U];
 128              	 .loc 1 98 0
 129 00c4 D7F88030 	 ldr r3,[r7,#128]
 130 00c8 1B01     	 lsls r3,r3,#4
 131 00ca 0833     	 adds r3,r3,#8
 132 00cc 7A68     	 ldr r2,[r7,#4]
 133 00ce 1344     	 add r3,r3,r2
 134 00d0 D3E90023 	 ldrd r2,[r3]
 135 00d4 C7E91423 	 strd r2,[r7,#80]
  99:../Dave/Generated/CMSIS_DSP/Source/TransformFunctions/arm_cfft_f64.c **** 
 100:../Dave/Generated/CMSIS_DSP/Source/TransformFunctions/arm_cfft_f64.c ****          /*  Twiddle coefficients index modifier */
 101:../Dave/Generated/CMSIS_DSP/Source/TransformFunctions/arm_cfft_f64.c ****          ia1 = ia1 + twidCoefModifier;
 136              	 .loc 1 101 0
 137 00d8 3B89     	 ldrh r3,[r7,#8]
 138 00da D7F89C20 	 ldr r2,[r7,#156]
 139 00de 1344     	 add r3,r3,r2
 140 00e0 C7F89C30 	 str r3,[r7,#156]
 102:../Dave/Generated/CMSIS_DSP/Source/TransformFunctions/arm_cfft_f64.c **** 
 103:../Dave/Generated/CMSIS_DSP/Source/TransformFunctions/arm_cfft_f64.c ****          i0 = j;
 141              	 .loc 1 103 0
 142 00e4 D7F89030 	 ldr r3,[r7,#144]
 143 00e8 C7F89830 	 str r3,[r7,#152]
 144              	.L3:
 104:../Dave/Generated/CMSIS_DSP/Source/TransformFunctions/arm_cfft_f64.c ****          do
 105:../Dave/Generated/CMSIS_DSP/Source/TransformFunctions/arm_cfft_f64.c ****          {
 106:../Dave/Generated/CMSIS_DSP/Source/TransformFunctions/arm_cfft_f64.c ****             /*  index calculation for the input as, */
 107:../Dave/Generated/CMSIS_DSP/Source/TransformFunctions/arm_cfft_f64.c ****             /*  pSrc[i0 + 0], pSrc[i0 + fftLen/4], pSrc[i0 + fftLen/2], pSrc[i0 + 3fftLen/4] */
 108:../Dave/Generated/CMSIS_DSP/Source/TransformFunctions/arm_cfft_f64.c ****             i1 = i0 + n2;
 145              	 .loc 1 108 0 discriminator 1
 146 00ec D7F89820 	 ldr r2,[r7,#152]
 147 00f0 D7F89430 	 ldr r3,[r7,#148]
 148 00f4 1344     	 add r3,r3,r2
 149 00f6 FB64     	 str r3,[r7,#76]
 109:../Dave/Generated/CMSIS_DSP/Source/TransformFunctions/arm_cfft_f64.c ****             i2 = i1 + n2;
 150              	 .loc 1 109 0 discriminator 1
 151 00f8 FA6C     	 ldr r2,[r7,#76]
 152 00fa D7F89430 	 ldr r3,[r7,#148]
 153 00fe 1344     	 add r3,r3,r2
 154 0100 BB64     	 str r3,[r7,#72]
 110:../Dave/Generated/CMSIS_DSP/Source/TransformFunctions/arm_cfft_f64.c ****             i3 = i2 + n2;
 155              	 .loc 1 110 0 discriminator 1
 156 0102 BA6C     	 ldr r2,[r7,#72]
 157 0104 D7F89430 	 ldr r3,[r7,#148]
 158 0108 1344     	 add r3,r3,r2
 159 010a 7B64     	 str r3,[r7,#68]
 111:../Dave/Generated/CMSIS_DSP/Source/TransformFunctions/arm_cfft_f64.c **** 
 112:../Dave/Generated/CMSIS_DSP/Source/TransformFunctions/arm_cfft_f64.c ****             /* xa + xc */
 113:../Dave/Generated/CMSIS_DSP/Source/TransformFunctions/arm_cfft_f64.c ****             r1 = pSrc[(2U * i0)] + pSrc[(2U * i2)];
 160              	 .loc 1 113 0 discriminator 1
 161 010c D7F89830 	 ldr r3,[r7,#152]
 162 0110 1B01     	 lsls r3,r3,#4
 163 0112 FA68     	 ldr r2,[r7,#12]
 164 0114 1344     	 add r3,r3,r2
 165 0116 D3E90001 	 ldrd r0,[r3]
 166 011a BB6C     	 ldr r3,[r7,#72]
 167 011c 1B01     	 lsls r3,r3,#4
 168 011e FA68     	 ldr r2,[r7,#12]
 169 0120 1344     	 add r3,r3,r2
 170 0122 D3E90023 	 ldrd r2,[r3]
 171 0126 FFF7FEFF 	 bl __aeabi_dadd
 172 012a 0246     	 mov r2,r0
 173 012c 0B46     	 mov r3,r1
 174 012e C7E90E23 	 strd r2,[r7,#56]
 114:../Dave/Generated/CMSIS_DSP/Source/TransformFunctions/arm_cfft_f64.c **** 
 115:../Dave/Generated/CMSIS_DSP/Source/TransformFunctions/arm_cfft_f64.c ****             /* xa - xc */
 116:../Dave/Generated/CMSIS_DSP/Source/TransformFunctions/arm_cfft_f64.c ****             r2 = pSrc[(2U * i0)] - pSrc[(2U * i2)];
 175              	 .loc 1 116 0 discriminator 1
 176 0132 D7F89830 	 ldr r3,[r7,#152]
 177 0136 1B01     	 lsls r3,r3,#4
 178 0138 FA68     	 ldr r2,[r7,#12]
 179 013a 1344     	 add r3,r3,r2
 180 013c D3E90001 	 ldrd r0,[r3]
 181 0140 BB6C     	 ldr r3,[r7,#72]
 182 0142 1B01     	 lsls r3,r3,#4
 183 0144 FA68     	 ldr r2,[r7,#12]
 184 0146 1344     	 add r3,r3,r2
 185 0148 D3E90023 	 ldrd r2,[r3]
 186 014c FFF7FEFF 	 bl __aeabi_dsub
 187 0150 0246     	 mov r2,r0
 188 0152 0B46     	 mov r3,r1
 189 0154 C7E90C23 	 strd r2,[r7,#48]
 117:../Dave/Generated/CMSIS_DSP/Source/TransformFunctions/arm_cfft_f64.c **** 
 118:../Dave/Generated/CMSIS_DSP/Source/TransformFunctions/arm_cfft_f64.c ****             /* ya + yc */
 119:../Dave/Generated/CMSIS_DSP/Source/TransformFunctions/arm_cfft_f64.c ****             s1 = pSrc[(2U * i0) + 1U] + pSrc[(2U * i2) + 1U];
 190              	 .loc 1 119 0 discriminator 1
 191 0158 D7F89830 	 ldr r3,[r7,#152]
 192 015c 1B01     	 lsls r3,r3,#4
 193 015e 0833     	 adds r3,r3,#8
 194 0160 FA68     	 ldr r2,[r7,#12]
 195 0162 1344     	 add r3,r3,r2
 196 0164 D3E90001 	 ldrd r0,[r3]
 197 0168 BB6C     	 ldr r3,[r7,#72]
 198 016a 1B01     	 lsls r3,r3,#4
 199 016c 0833     	 adds r3,r3,#8
 200 016e FA68     	 ldr r2,[r7,#12]
 201 0170 1344     	 add r3,r3,r2
 202 0172 D3E90023 	 ldrd r2,[r3]
 203 0176 FFF7FEFF 	 bl __aeabi_dadd
 204 017a 0246     	 mov r2,r0
 205 017c 0B46     	 mov r3,r1
 206 017e C7E90A23 	 strd r2,[r7,#40]
 120:../Dave/Generated/CMSIS_DSP/Source/TransformFunctions/arm_cfft_f64.c **** 
 121:../Dave/Generated/CMSIS_DSP/Source/TransformFunctions/arm_cfft_f64.c ****             /* ya - yc */
 122:../Dave/Generated/CMSIS_DSP/Source/TransformFunctions/arm_cfft_f64.c ****             s2 = pSrc[(2U * i0) + 1U] - pSrc[(2U * i2) + 1U];
 207              	 .loc 1 122 0 discriminator 1
 208 0182 D7F89830 	 ldr r3,[r7,#152]
 209 0186 1B01     	 lsls r3,r3,#4
 210 0188 0833     	 adds r3,r3,#8
 211 018a FA68     	 ldr r2,[r7,#12]
 212 018c 1344     	 add r3,r3,r2
 213 018e D3E90001 	 ldrd r0,[r3]
 214 0192 BB6C     	 ldr r3,[r7,#72]
 215 0194 1B01     	 lsls r3,r3,#4
 216 0196 0833     	 adds r3,r3,#8
 217 0198 FA68     	 ldr r2,[r7,#12]
 218 019a 1344     	 add r3,r3,r2
 219 019c D3E90023 	 ldrd r2,[r3]
 220 01a0 FFF7FEFF 	 bl __aeabi_dsub
 221 01a4 0246     	 mov r2,r0
 222 01a6 0B46     	 mov r3,r1
 223 01a8 C7E90823 	 strd r2,[r7,#32]
 123:../Dave/Generated/CMSIS_DSP/Source/TransformFunctions/arm_cfft_f64.c **** 
 124:../Dave/Generated/CMSIS_DSP/Source/TransformFunctions/arm_cfft_f64.c ****             /* xb + xd */
 125:../Dave/Generated/CMSIS_DSP/Source/TransformFunctions/arm_cfft_f64.c ****             t1 = pSrc[2U * i1] + pSrc[2U * i3];
 224              	 .loc 1 125 0 discriminator 1
 225 01ac FB6C     	 ldr r3,[r7,#76]
 226 01ae 1B01     	 lsls r3,r3,#4
 227 01b0 FA68     	 ldr r2,[r7,#12]
 228 01b2 1344     	 add r3,r3,r2
 229 01b4 D3E90001 	 ldrd r0,[r3]
 230 01b8 7B6C     	 ldr r3,[r7,#68]
 231 01ba 1B01     	 lsls r3,r3,#4
 232 01bc FA68     	 ldr r2,[r7,#12]
 233 01be 1344     	 add r3,r3,r2
 234 01c0 D3E90023 	 ldrd r2,[r3]
 235 01c4 FFF7FEFF 	 bl __aeabi_dadd
 236 01c8 0246     	 mov r2,r0
 237 01ca 0B46     	 mov r3,r1
 238 01cc C7E90623 	 strd r2,[r7,#24]
 126:../Dave/Generated/CMSIS_DSP/Source/TransformFunctions/arm_cfft_f64.c **** 
 127:../Dave/Generated/CMSIS_DSP/Source/TransformFunctions/arm_cfft_f64.c ****             /* xa' = xa + xb + xc + xd */
 128:../Dave/Generated/CMSIS_DSP/Source/TransformFunctions/arm_cfft_f64.c ****             pSrc[2U * i0] = r1 + t1;
 239              	 .loc 1 128 0 discriminator 1
 240 01d0 D7F89830 	 ldr r3,[r7,#152]
 241 01d4 1B01     	 lsls r3,r3,#4
 242 01d6 FA68     	 ldr r2,[r7,#12]
 243 01d8 D418     	 adds r4,r2,r3
 244 01da D7E90E01 	 ldrd r0,[r7,#56]
 245 01de D7E90623 	 ldrd r2,[r7,#24]
 246 01e2 FFF7FEFF 	 bl __aeabi_dadd
 247 01e6 0246     	 mov r2,r0
 248 01e8 0B46     	 mov r3,r1
 249 01ea C4E90023 	 strd r2,[r4]
 129:../Dave/Generated/CMSIS_DSP/Source/TransformFunctions/arm_cfft_f64.c **** 
 130:../Dave/Generated/CMSIS_DSP/Source/TransformFunctions/arm_cfft_f64.c ****             /* xa + xc -(xb + xd) */
 131:../Dave/Generated/CMSIS_DSP/Source/TransformFunctions/arm_cfft_f64.c ****             r1 = r1 - t1;
 250              	 .loc 1 131 0 discriminator 1
 251 01ee D7E90E01 	 ldrd r0,[r7,#56]
 252 01f2 D7E90623 	 ldrd r2,[r7,#24]
 253 01f6 FFF7FEFF 	 bl __aeabi_dsub
 254 01fa 0246     	 mov r2,r0
 255 01fc 0B46     	 mov r3,r1
 256 01fe C7E90E23 	 strd r2,[r7,#56]
 132:../Dave/Generated/CMSIS_DSP/Source/TransformFunctions/arm_cfft_f64.c **** 
 133:../Dave/Generated/CMSIS_DSP/Source/TransformFunctions/arm_cfft_f64.c ****             /* yb + yd */
 134:../Dave/Generated/CMSIS_DSP/Source/TransformFunctions/arm_cfft_f64.c ****             t2 = pSrc[(2U * i1) + 1U] + pSrc[(2U * i3) + 1U];
 257              	 .loc 1 134 0 discriminator 1
 258 0202 FB6C     	 ldr r3,[r7,#76]
 259 0204 1B01     	 lsls r3,r3,#4
 260 0206 0833     	 adds r3,r3,#8
 261 0208 FA68     	 ldr r2,[r7,#12]
 262 020a 1344     	 add r3,r3,r2
 263 020c D3E90001 	 ldrd r0,[r3]
 264 0210 7B6C     	 ldr r3,[r7,#68]
 265 0212 1B01     	 lsls r3,r3,#4
 266 0214 0833     	 adds r3,r3,#8
 267 0216 FA68     	 ldr r2,[r7,#12]
 268 0218 1344     	 add r3,r3,r2
 269 021a D3E90023 	 ldrd r2,[r3]
 270 021e FFF7FEFF 	 bl __aeabi_dadd
 271 0222 0246     	 mov r2,r0
 272 0224 0B46     	 mov r3,r1
 273 0226 C7E90423 	 strd r2,[r7,#16]
 135:../Dave/Generated/CMSIS_DSP/Source/TransformFunctions/arm_cfft_f64.c **** 
 136:../Dave/Generated/CMSIS_DSP/Source/TransformFunctions/arm_cfft_f64.c ****             /* ya' = ya + yb + yc + yd */
 137:../Dave/Generated/CMSIS_DSP/Source/TransformFunctions/arm_cfft_f64.c ****             pSrc[(2U * i0) + 1U] = s1 + t2;
 274              	 .loc 1 137 0 discriminator 1
 275 022a D7F89830 	 ldr r3,[r7,#152]
 276 022e 1B01     	 lsls r3,r3,#4
 277 0230 0833     	 adds r3,r3,#8
 278 0232 FA68     	 ldr r2,[r7,#12]
 279 0234 D418     	 adds r4,r2,r3
 280 0236 D7E90A01 	 ldrd r0,[r7,#40]
 281 023a D7E90423 	 ldrd r2,[r7,#16]
 282 023e FFF7FEFF 	 bl __aeabi_dadd
 283 0242 0246     	 mov r2,r0
 284 0244 0B46     	 mov r3,r1
 285 0246 C4E90023 	 strd r2,[r4]
 138:../Dave/Generated/CMSIS_DSP/Source/TransformFunctions/arm_cfft_f64.c **** 
 139:../Dave/Generated/CMSIS_DSP/Source/TransformFunctions/arm_cfft_f64.c ****             /* (ya + yc) - (yb + yd) */
 140:../Dave/Generated/CMSIS_DSP/Source/TransformFunctions/arm_cfft_f64.c ****             s1 = s1 - t2;
 286              	 .loc 1 140 0 discriminator 1
 287 024a D7E90A01 	 ldrd r0,[r7,#40]
 288 024e D7E90423 	 ldrd r2,[r7,#16]
 289 0252 FFF7FEFF 	 bl __aeabi_dsub
 290 0256 0246     	 mov r2,r0
 291 0258 0B46     	 mov r3,r1
 292 025a C7E90A23 	 strd r2,[r7,#40]
 141:../Dave/Generated/CMSIS_DSP/Source/TransformFunctions/arm_cfft_f64.c **** 
 142:../Dave/Generated/CMSIS_DSP/Source/TransformFunctions/arm_cfft_f64.c ****             /* (yb - yd) */
 143:../Dave/Generated/CMSIS_DSP/Source/TransformFunctions/arm_cfft_f64.c ****             t1 = pSrc[(2U * i1) + 1U] - pSrc[(2U * i3) + 1U];
 293              	 .loc 1 143 0 discriminator 1
 294 025e FB6C     	 ldr r3,[r7,#76]
 295 0260 1B01     	 lsls r3,r3,#4
 296 0262 0833     	 adds r3,r3,#8
 297 0264 FA68     	 ldr r2,[r7,#12]
 298 0266 1344     	 add r3,r3,r2
 299 0268 D3E90001 	 ldrd r0,[r3]
 300 026c 7B6C     	 ldr r3,[r7,#68]
 301 026e 1B01     	 lsls r3,r3,#4
 302 0270 0833     	 adds r3,r3,#8
 303 0272 FA68     	 ldr r2,[r7,#12]
 304 0274 1344     	 add r3,r3,r2
 305 0276 D3E90023 	 ldrd r2,[r3]
 306 027a FFF7FEFF 	 bl __aeabi_dsub
 307 027e 0246     	 mov r2,r0
 308 0280 0B46     	 mov r3,r1
 309 0282 C7E90623 	 strd r2,[r7,#24]
 144:../Dave/Generated/CMSIS_DSP/Source/TransformFunctions/arm_cfft_f64.c **** 
 145:../Dave/Generated/CMSIS_DSP/Source/TransformFunctions/arm_cfft_f64.c ****             /* (xb - xd) */
 146:../Dave/Generated/CMSIS_DSP/Source/TransformFunctions/arm_cfft_f64.c ****             t2 = pSrc[2U * i1] - pSrc[2U * i3];
 310              	 .loc 1 146 0 discriminator 1
 311 0286 FB6C     	 ldr r3,[r7,#76]
 312 0288 1B01     	 lsls r3,r3,#4
 313 028a FA68     	 ldr r2,[r7,#12]
 314 028c 1344     	 add r3,r3,r2
 315 028e D3E90001 	 ldrd r0,[r3]
 316 0292 7B6C     	 ldr r3,[r7,#68]
 317 0294 1B01     	 lsls r3,r3,#4
 318 0296 FA68     	 ldr r2,[r7,#12]
 319 0298 1344     	 add r3,r3,r2
 320 029a D3E90023 	 ldrd r2,[r3]
 321 029e FFF7FEFF 	 bl __aeabi_dsub
 322 02a2 0246     	 mov r2,r0
 323 02a4 0B46     	 mov r3,r1
 324 02a6 C7E90423 	 strd r2,[r7,#16]
 147:../Dave/Generated/CMSIS_DSP/Source/TransformFunctions/arm_cfft_f64.c **** 
 148:../Dave/Generated/CMSIS_DSP/Source/TransformFunctions/arm_cfft_f64.c ****             /* xc' = (xa-xb+xc-xd)co2 + (ya-yb+yc-yd)(si2) */
 149:../Dave/Generated/CMSIS_DSP/Source/TransformFunctions/arm_cfft_f64.c ****             pSrc[2U * i1] = (r1 * co2) + (s1 * si2);
 325              	 .loc 1 149 0 discriminator 1
 326 02aa FB6C     	 ldr r3,[r7,#76]
 327 02ac 1B01     	 lsls r3,r3,#4
 328 02ae FA68     	 ldr r2,[r7,#12]
 329 02b0 D418     	 adds r4,r2,r3
 330 02b2 D7E90E01 	 ldrd r0,[r7,#56]
 331 02b6 D7E91A23 	 ldrd r2,[r7,#104]
 332 02ba FFF7FEFF 	 bl __aeabi_dmul
 333 02be 0246     	 mov r2,r0
 334 02c0 0B46     	 mov r3,r1
 335 02c2 9046     	 mov r8,r2
 336 02c4 9946     	 mov r9,r3
 337 02c6 D7E90A01 	 ldrd r0,[r7,#40]
 338 02ca D7E91823 	 ldrd r2,[r7,#96]
 339 02ce FFF7FEFF 	 bl __aeabi_dmul
 340 02d2 0246     	 mov r2,r0
 341 02d4 0B46     	 mov r3,r1
 342 02d6 4046     	 mov r0,r8
 343 02d8 4946     	 mov r1,r9
 344 02da FFF7FEFF 	 bl __aeabi_dadd
 345 02de 0246     	 mov r2,r0
 346 02e0 0B46     	 mov r3,r1
 347 02e2 C4E90023 	 strd r2,[r4]
 150:../Dave/Generated/CMSIS_DSP/Source/TransformFunctions/arm_cfft_f64.c **** 
 151:../Dave/Generated/CMSIS_DSP/Source/TransformFunctions/arm_cfft_f64.c ****             /* yc' = (ya-yb+yc-yd)co2 - (xa-xb+xc-xd)(si2) */
 152:../Dave/Generated/CMSIS_DSP/Source/TransformFunctions/arm_cfft_f64.c ****             pSrc[(2U * i1) + 1U] = (s1 * co2) - (r1 * si2);
 348              	 .loc 1 152 0 discriminator 1
 349 02e6 FB6C     	 ldr r3,[r7,#76]
 350 02e8 1B01     	 lsls r3,r3,#4
 351 02ea 0833     	 adds r3,r3,#8
 352 02ec FA68     	 ldr r2,[r7,#12]
 353 02ee D418     	 adds r4,r2,r3
 354 02f0 D7E90A01 	 ldrd r0,[r7,#40]
 355 02f4 D7E91A23 	 ldrd r2,[r7,#104]
 356 02f8 FFF7FEFF 	 bl __aeabi_dmul
 357 02fc 0246     	 mov r2,r0
 358 02fe 0B46     	 mov r3,r1
 359 0300 9046     	 mov r8,r2
 360 0302 9946     	 mov r9,r3
 361 0304 D7E90E01 	 ldrd r0,[r7,#56]
 362 0308 D7E91823 	 ldrd r2,[r7,#96]
 363 030c FFF7FEFF 	 bl __aeabi_dmul
 364 0310 0246     	 mov r2,r0
 365 0312 0B46     	 mov r3,r1
 366 0314 4046     	 mov r0,r8
 367 0316 4946     	 mov r1,r9
 368 0318 FFF7FEFF 	 bl __aeabi_dsub
 369 031c 0246     	 mov r2,r0
 370 031e 0B46     	 mov r3,r1
 371 0320 C4E90023 	 strd r2,[r4]
 153:../Dave/Generated/CMSIS_DSP/Source/TransformFunctions/arm_cfft_f64.c **** 
 154:../Dave/Generated/CMSIS_DSP/Source/TransformFunctions/arm_cfft_f64.c ****             /* (xa - xc) + (yb - yd) */
 155:../Dave/Generated/CMSIS_DSP/Source/TransformFunctions/arm_cfft_f64.c ****             r1 = r2 + t1;
 372              	 .loc 1 155 0 discriminator 1
 373 0324 D7E90C01 	 ldrd r0,[r7,#48]
 374 0328 D7E90623 	 ldrd r2,[r7,#24]
 375 032c FFF7FEFF 	 bl __aeabi_dadd
 376 0330 0246     	 mov r2,r0
 377 0332 0B46     	 mov r3,r1
 378 0334 C7E90E23 	 strd r2,[r7,#56]
 156:../Dave/Generated/CMSIS_DSP/Source/TransformFunctions/arm_cfft_f64.c **** 
 157:../Dave/Generated/CMSIS_DSP/Source/TransformFunctions/arm_cfft_f64.c ****             /* (xa - xc) - (yb - yd) */
 158:../Dave/Generated/CMSIS_DSP/Source/TransformFunctions/arm_cfft_f64.c ****             r2 = r2 - t1;
 379              	 .loc 1 158 0 discriminator 1
 380 0338 D7E90C01 	 ldrd r0,[r7,#48]
 381 033c D7E90623 	 ldrd r2,[r7,#24]
 382 0340 FFF7FEFF 	 bl __aeabi_dsub
 383 0344 0246     	 mov r2,r0
 384 0346 0B46     	 mov r3,r1
 385 0348 C7E90C23 	 strd r2,[r7,#48]
 159:../Dave/Generated/CMSIS_DSP/Source/TransformFunctions/arm_cfft_f64.c **** 
 160:../Dave/Generated/CMSIS_DSP/Source/TransformFunctions/arm_cfft_f64.c ****             /* (ya - yc) -  (xb - xd) */
 161:../Dave/Generated/CMSIS_DSP/Source/TransformFunctions/arm_cfft_f64.c ****             s1 = s2 - t2;
 386              	 .loc 1 161 0 discriminator 1
 387 034c D7E90801 	 ldrd r0,[r7,#32]
 388 0350 D7E90423 	 ldrd r2,[r7,#16]
 389 0354 FFF7FEFF 	 bl __aeabi_dsub
 390 0358 0246     	 mov r2,r0
 391 035a 0B46     	 mov r3,r1
 392 035c C7E90A23 	 strd r2,[r7,#40]
 162:../Dave/Generated/CMSIS_DSP/Source/TransformFunctions/arm_cfft_f64.c **** 
 163:../Dave/Generated/CMSIS_DSP/Source/TransformFunctions/arm_cfft_f64.c ****             /* (ya - yc) +  (xb - xd) */
 164:../Dave/Generated/CMSIS_DSP/Source/TransformFunctions/arm_cfft_f64.c ****             s2 = s2 + t2;
 393              	 .loc 1 164 0 discriminator 1
 394 0360 D7E90801 	 ldrd r0,[r7,#32]
 395 0364 D7E90423 	 ldrd r2,[r7,#16]
 396 0368 FFF7FEFF 	 bl __aeabi_dadd
 397 036c 0246     	 mov r2,r0
 398 036e 0B46     	 mov r3,r1
 399 0370 C7E90823 	 strd r2,[r7,#32]
 165:../Dave/Generated/CMSIS_DSP/Source/TransformFunctions/arm_cfft_f64.c **** 
 166:../Dave/Generated/CMSIS_DSP/Source/TransformFunctions/arm_cfft_f64.c ****             /* xb' = (xa+yb-xc-yd)co1 + (ya-xb-yc+xd)(si1) */
 167:../Dave/Generated/CMSIS_DSP/Source/TransformFunctions/arm_cfft_f64.c ****             pSrc[2U * i2] = (r1 * co1) + (s1 * si1);
 400              	 .loc 1 167 0 discriminator 1
 401 0374 BB6C     	 ldr r3,[r7,#72]
 402 0376 1B01     	 lsls r3,r3,#4
 403 0378 FA68     	 ldr r2,[r7,#12]
 404 037a D418     	 adds r4,r2,r3
 405 037c D7E90E01 	 ldrd r0,[r7,#56]
 406 0380 D7E91E23 	 ldrd r2,[r7,#120]
 407 0384 FFF7FEFF 	 bl __aeabi_dmul
 408 0388 0246     	 mov r2,r0
 409 038a 0B46     	 mov r3,r1
 410 038c 9046     	 mov r8,r2
 411 038e 9946     	 mov r9,r3
 412 0390 D7E90A01 	 ldrd r0,[r7,#40]
 413 0394 D7E91C23 	 ldrd r2,[r7,#112]
 414 0398 FFF7FEFF 	 bl __aeabi_dmul
 415 039c 0246     	 mov r2,r0
 416 039e 0B46     	 mov r3,r1
 417 03a0 4046     	 mov r0,r8
 418 03a2 4946     	 mov r1,r9
 419 03a4 FFF7FEFF 	 bl __aeabi_dadd
 420 03a8 0246     	 mov r2,r0
 421 03aa 0B46     	 mov r3,r1
 422 03ac C4E90023 	 strd r2,[r4]
 168:../Dave/Generated/CMSIS_DSP/Source/TransformFunctions/arm_cfft_f64.c **** 
 169:../Dave/Generated/CMSIS_DSP/Source/TransformFunctions/arm_cfft_f64.c ****             /* yb' = (ya-xb-yc+xd)co1 - (xa+yb-xc-yd)(si1) */
 170:../Dave/Generated/CMSIS_DSP/Source/TransformFunctions/arm_cfft_f64.c ****             pSrc[(2U * i2) + 1U] = (s1 * co1) - (r1 * si1);
 423              	 .loc 1 170 0 discriminator 1
 424 03b0 BB6C     	 ldr r3,[r7,#72]
 425 03b2 1B01     	 lsls r3,r3,#4
 426 03b4 0833     	 adds r3,r3,#8
 427 03b6 FA68     	 ldr r2,[r7,#12]
 428 03b8 D418     	 adds r4,r2,r3
 429 03ba D7E90A01 	 ldrd r0,[r7,#40]
 430 03be D7E91E23 	 ldrd r2,[r7,#120]
 431 03c2 FFF7FEFF 	 bl __aeabi_dmul
 432 03c6 0246     	 mov r2,r0
 433 03c8 0B46     	 mov r3,r1
 434 03ca 9046     	 mov r8,r2
 435 03cc 9946     	 mov r9,r3
 436 03ce D7E90E01 	 ldrd r0,[r7,#56]
 437 03d2 D7E91C23 	 ldrd r2,[r7,#112]
 438 03d6 FFF7FEFF 	 bl __aeabi_dmul
 439 03da 0246     	 mov r2,r0
 440 03dc 0B46     	 mov r3,r1
 441 03de 4046     	 mov r0,r8
 442 03e0 4946     	 mov r1,r9
 443 03e2 FFF7FEFF 	 bl __aeabi_dsub
 444 03e6 0246     	 mov r2,r0
 445 03e8 0B46     	 mov r3,r1
 446 03ea C4E90023 	 strd r2,[r4]
 171:../Dave/Generated/CMSIS_DSP/Source/TransformFunctions/arm_cfft_f64.c **** 
 172:../Dave/Generated/CMSIS_DSP/Source/TransformFunctions/arm_cfft_f64.c ****             /* xd' = (xa-yb-xc+yd)co3 + (ya+xb-yc-xd)(si3) */
 173:../Dave/Generated/CMSIS_DSP/Source/TransformFunctions/arm_cfft_f64.c ****             pSrc[2U * i3] = (r2 * co3) + (s2 * si3);
 447              	 .loc 1 173 0 discriminator 1
 448 03ee 7B6C     	 ldr r3,[r7,#68]
 449 03f0 1B01     	 lsls r3,r3,#4
 450 03f2 FA68     	 ldr r2,[r7,#12]
 451 03f4 D418     	 adds r4,r2,r3
 452 03f6 D7E90C01 	 ldrd r0,[r7,#48]
 453 03fa D7E91623 	 ldrd r2,[r7,#88]
 454 03fe FFF7FEFF 	 bl __aeabi_dmul
 455 0402 0246     	 mov r2,r0
 456 0404 0B46     	 mov r3,r1
 457 0406 9046     	 mov r8,r2
 458 0408 9946     	 mov r9,r3
 459 040a D7E90801 	 ldrd r0,[r7,#32]
 460 040e D7E91423 	 ldrd r2,[r7,#80]
 461 0412 FFF7FEFF 	 bl __aeabi_dmul
 462 0416 0246     	 mov r2,r0
 463 0418 0B46     	 mov r3,r1
 464 041a 4046     	 mov r0,r8
 465 041c 4946     	 mov r1,r9
 466 041e FFF7FEFF 	 bl __aeabi_dadd
 467 0422 0246     	 mov r2,r0
 468 0424 0B46     	 mov r3,r1
 469 0426 C4E90023 	 strd r2,[r4]
 174:../Dave/Generated/CMSIS_DSP/Source/TransformFunctions/arm_cfft_f64.c **** 
 175:../Dave/Generated/CMSIS_DSP/Source/TransformFunctions/arm_cfft_f64.c ****             /* yd' = (ya+xb-yc-xd)co3 - (xa-yb-xc+yd)(si3) */
 176:../Dave/Generated/CMSIS_DSP/Source/TransformFunctions/arm_cfft_f64.c ****             pSrc[(2U * i3) + 1U] = (s2 * co3) - (r2 * si3);
 470              	 .loc 1 176 0 discriminator 1
 471 042a 7B6C     	 ldr r3,[r7,#68]
 472 042c 1B01     	 lsls r3,r3,#4
 473 042e 0833     	 adds r3,r3,#8
 474 0430 FA68     	 ldr r2,[r7,#12]
 475 0432 D418     	 adds r4,r2,r3
 476 0434 D7E90801 	 ldrd r0,[r7,#32]
 477 0438 D7E91623 	 ldrd r2,[r7,#88]
 478 043c FFF7FEFF 	 bl __aeabi_dmul
 479 0440 0246     	 mov r2,r0
 480 0442 0B46     	 mov r3,r1
 481 0444 9046     	 mov r8,r2
 482 0446 9946     	 mov r9,r3
 483 0448 D7E90C01 	 ldrd r0,[r7,#48]
 484 044c D7E91423 	 ldrd r2,[r7,#80]
 485 0450 FFF7FEFF 	 bl __aeabi_dmul
 486 0454 0246     	 mov r2,r0
 487 0456 0B46     	 mov r3,r1
 488 0458 4046     	 mov r0,r8
 489 045a 4946     	 mov r1,r9
 490 045c FFF7FEFF 	 bl __aeabi_dsub
 491 0460 0246     	 mov r2,r0
 492 0462 0B46     	 mov r3,r1
 493 0464 C4E90023 	 strd r2,[r4]
 177:../Dave/Generated/CMSIS_DSP/Source/TransformFunctions/arm_cfft_f64.c **** 
 178:../Dave/Generated/CMSIS_DSP/Source/TransformFunctions/arm_cfft_f64.c ****             i0 += n1;
 494              	 .loc 1 178 0 discriminator 1
 495 0468 D7F89820 	 ldr r2,[r7,#152]
 496 046c D7F88830 	 ldr r3,[r7,#136]
 497 0470 1344     	 add r3,r3,r2
 498 0472 C7F89830 	 str r3,[r7,#152]
 179:../Dave/Generated/CMSIS_DSP/Source/TransformFunctions/arm_cfft_f64.c ****          } while ( i0 < fftLen);
 499              	 .loc 1 179 0 discriminator 1
 500 0476 7A89     	 ldrh r2,[r7,#10]
 501 0478 D7F89830 	 ldr r3,[r7,#152]
 502 047c 9A42     	 cmp r2,r3
 503 047e 3FF635AE 	 bhi .L3
 180:../Dave/Generated/CMSIS_DSP/Source/TransformFunctions/arm_cfft_f64.c ****          j++;
 504              	 .loc 1 180 0
 505 0482 D7F89030 	 ldr r3,[r7,#144]
 506 0486 0133     	 adds r3,r3,#1
 507 0488 C7F89030 	 str r3,[r7,#144]
 181:../Dave/Generated/CMSIS_DSP/Source/TransformFunctions/arm_cfft_f64.c ****       } while (j <= (n2 - 1U));
 508              	 .loc 1 181 0
 509 048c D7F89430 	 ldr r3,[r7,#148]
 510 0490 5A1E     	 subs r2,r3,#1
 511 0492 D7F89030 	 ldr r3,[r7,#144]
 512 0496 9A42     	 cmp r2,r3
 513 0498 BFF4D7AD 	 bcs .L4
 182:../Dave/Generated/CMSIS_DSP/Source/TransformFunctions/arm_cfft_f64.c ****       twidCoefModifier <<= 2U;
 514              	 .loc 1 182 0 discriminator 2
 515 049c 3B89     	 ldrh r3,[r7,#8]
 516 049e 9B00     	 lsls r3,r3,#2
 517 04a0 3B81     	 strh r3,[r7,#8]
  79:../Dave/Generated/CMSIS_DSP/Source/TransformFunctions/arm_cfft_f64.c ****    {
 518              	 .loc 1 79 0 discriminator 2
 519 04a2 D7F88C30 	 ldr r3,[r7,#140]
 520 04a6 9B08     	 lsrs r3,r3,#2
 521 04a8 C7F88C30 	 str r3,[r7,#140]
 522              	.L2:
  79:../Dave/Generated/CMSIS_DSP/Source/TransformFunctions/arm_cfft_f64.c ****    {
 523              	 .loc 1 79 0 is_stmt 0 discriminator 1
 524 04ac D7F88C30 	 ldr r3,[r7,#140]
 525 04b0 012B     	 cmp r3,#1
 526 04b2 3FF6BBAD 	 bhi .L5
 183:../Dave/Generated/CMSIS_DSP/Source/TransformFunctions/arm_cfft_f64.c ****    }
 184:../Dave/Generated/CMSIS_DSP/Source/TransformFunctions/arm_cfft_f64.c **** }
 527              	 .loc 1 184 0 is_stmt 1
 528 04b6 A437     	 adds r7,r7,#164
 529              	.LCFI3:
 530              	 .cfi_def_cfa_offset 20
 531 04b8 BD46     	 mov sp,r7
 532              	.LCFI4:
 533              	 .cfi_def_cfa_register 13
 534              	 
 535 04ba BDE89083 	 pop {r4,r7,r8,r9,pc}
 536              	 .cfi_endproc
 537              	.LFE149:
 539 04be 00BF     	 .section .text.arm_cfft_radix4by2_f64,"ax",%progbits
 540              	 .align 2
 541              	 .global arm_cfft_radix4by2_f64
 542              	 .thumb
 543              	 .thumb_func
 545              	arm_cfft_radix4by2_f64:
 546              	.LFB150:
 185:../Dave/Generated/CMSIS_DSP/Source/TransformFunctions/arm_cfft_f64.c **** 
 186:../Dave/Generated/CMSIS_DSP/Source/TransformFunctions/arm_cfft_f64.c **** /*
 187:../Dave/Generated/CMSIS_DSP/Source/TransformFunctions/arm_cfft_f64.c **** * @brief  Core function for the Double Precision floating-point CFFT butterfly process.
 188:../Dave/Generated/CMSIS_DSP/Source/TransformFunctions/arm_cfft_f64.c **** * @param[in, out] *pSrc            points to the in-place buffer of F64 data type.
 189:../Dave/Generated/CMSIS_DSP/Source/TransformFunctions/arm_cfft_f64.c **** * @param[in]      fftLen           length of the FFT.
 190:../Dave/Generated/CMSIS_DSP/Source/TransformFunctions/arm_cfft_f64.c **** * @param[in]      *pCoef           points to the twiddle coefficient buffer.
 191:../Dave/Generated/CMSIS_DSP/Source/TransformFunctions/arm_cfft_f64.c **** * @param[in]      twidCoefModifier twiddle coefficient modifier that supports different size FFTs w
 192:../Dave/Generated/CMSIS_DSP/Source/TransformFunctions/arm_cfft_f64.c **** * @return none.
 193:../Dave/Generated/CMSIS_DSP/Source/TransformFunctions/arm_cfft_f64.c **** */
 194:../Dave/Generated/CMSIS_DSP/Source/TransformFunctions/arm_cfft_f64.c **** 
 195:../Dave/Generated/CMSIS_DSP/Source/TransformFunctions/arm_cfft_f64.c **** void arm_cfft_radix4by2_f64(
 196:../Dave/Generated/CMSIS_DSP/Source/TransformFunctions/arm_cfft_f64.c ****     float64_t * pSrc,
 197:../Dave/Generated/CMSIS_DSP/Source/TransformFunctions/arm_cfft_f64.c ****     uint32_t fftLen,
 198:../Dave/Generated/CMSIS_DSP/Source/TransformFunctions/arm_cfft_f64.c ****     const float64_t * pCoef)
 199:../Dave/Generated/CMSIS_DSP/Source/TransformFunctions/arm_cfft_f64.c **** {
 547              	 .loc 1 199 0
 548              	 .cfi_startproc
 549              	 
 550              	 
 551 0000 90B5     	 push {r4,r7,lr}
 552              	.LCFI5:
 553              	 .cfi_def_cfa_offset 12
 554              	 .cfi_offset 4,-12
 555              	 .cfi_offset 7,-8
 556              	 .cfi_offset 14,-4
 557 0002 9FB0     	 sub sp,sp,#124
 558              	.LCFI6:
 559              	 .cfi_def_cfa_offset 136
 560 0004 00AF     	 add r7,sp,#0
 561              	.LCFI7:
 562              	 .cfi_def_cfa_register 7
 563 0006 F860     	 str r0,[r7,#12]
 564 0008 B960     	 str r1,[r7,#8]
 565 000a 7A60     	 str r2,[r7,#4]
 200:../Dave/Generated/CMSIS_DSP/Source/TransformFunctions/arm_cfft_f64.c ****     uint32_t i, l;
 201:../Dave/Generated/CMSIS_DSP/Source/TransformFunctions/arm_cfft_f64.c ****     uint32_t n2, ia;
 202:../Dave/Generated/CMSIS_DSP/Source/TransformFunctions/arm_cfft_f64.c ****     float64_t xt, yt, cosVal, sinVal;
 203:../Dave/Generated/CMSIS_DSP/Source/TransformFunctions/arm_cfft_f64.c ****     float64_t p0, p1,p2,p3,a0,a1;
 204:../Dave/Generated/CMSIS_DSP/Source/TransformFunctions/arm_cfft_f64.c **** 
 205:../Dave/Generated/CMSIS_DSP/Source/TransformFunctions/arm_cfft_f64.c ****     n2 = fftLen >> 1;
 566              	 .loc 1 205 0
 567 000c BB68     	 ldr r3,[r7,#8]
 568 000e 5B08     	 lsrs r3,r3,#1
 569 0010 FB66     	 str r3,[r7,#108]
 206:../Dave/Generated/CMSIS_DSP/Source/TransformFunctions/arm_cfft_f64.c ****     ia = 0;
 570              	 .loc 1 206 0
 571 0012 0023     	 movs r3,#0
 572 0014 3B67     	 str r3,[r7,#112]
 207:../Dave/Generated/CMSIS_DSP/Source/TransformFunctions/arm_cfft_f64.c ****     for (i = 0; i < n2; i++)
 573              	 .loc 1 207 0
 574 0016 0023     	 movs r3,#0
 575 0018 7B67     	 str r3,[r7,#116]
 576 001a BCE0     	 b .L7
 577              	.L8:
 208:../Dave/Generated/CMSIS_DSP/Source/TransformFunctions/arm_cfft_f64.c ****     {
 209:../Dave/Generated/CMSIS_DSP/Source/TransformFunctions/arm_cfft_f64.c ****         cosVal = pCoef[2*ia];
 578              	 .loc 1 209 0 discriminator 3
 579 001c 3B6F     	 ldr r3,[r7,#112]
 580 001e 1B01     	 lsls r3,r3,#4
 581 0020 7A68     	 ldr r2,[r7,#4]
 582 0022 1344     	 add r3,r3,r2
 583 0024 D3E90023 	 ldrd r2,[r3]
 584 0028 C7E91823 	 strd r2,[r7,#96]
 210:../Dave/Generated/CMSIS_DSP/Source/TransformFunctions/arm_cfft_f64.c ****         sinVal = pCoef[2*ia + 1];
 585              	 .loc 1 210 0 discriminator 3
 586 002c 3B6F     	 ldr r3,[r7,#112]
 587 002e 1B01     	 lsls r3,r3,#4
 588 0030 0833     	 adds r3,r3,#8
 589 0032 7A68     	 ldr r2,[r7,#4]
 590 0034 1344     	 add r3,r3,r2
 591 0036 D3E90023 	 ldrd r2,[r3]
 592 003a C7E91623 	 strd r2,[r7,#88]
 211:../Dave/Generated/CMSIS_DSP/Source/TransformFunctions/arm_cfft_f64.c ****         ia++;
 593              	 .loc 1 211 0 discriminator 3
 594 003e 3B6F     	 ldr r3,[r7,#112]
 595 0040 0133     	 adds r3,r3,#1
 596 0042 3B67     	 str r3,[r7,#112]
 212:../Dave/Generated/CMSIS_DSP/Source/TransformFunctions/arm_cfft_f64.c **** 
 213:../Dave/Generated/CMSIS_DSP/Source/TransformFunctions/arm_cfft_f64.c ****         l = i + n2;
 597              	 .loc 1 213 0 discriminator 3
 598 0044 7A6F     	 ldr r2,[r7,#116]
 599 0046 FB6E     	 ldr r3,[r7,#108]
 600 0048 1344     	 add r3,r3,r2
 601 004a 7B65     	 str r3,[r7,#84]
 214:../Dave/Generated/CMSIS_DSP/Source/TransformFunctions/arm_cfft_f64.c **** 
 215:../Dave/Generated/CMSIS_DSP/Source/TransformFunctions/arm_cfft_f64.c ****         /*  Butterfly implementation */
 216:../Dave/Generated/CMSIS_DSP/Source/TransformFunctions/arm_cfft_f64.c ****         a0 = pSrc[2 * i] + pSrc[2 * l];
 602              	 .loc 1 216 0 discriminator 3
 603 004c 7B6F     	 ldr r3,[r7,#116]
 604 004e 1B01     	 lsls r3,r3,#4
 605 0050 FA68     	 ldr r2,[r7,#12]
 606 0052 1344     	 add r3,r3,r2
 607 0054 D3E90001 	 ldrd r0,[r3]
 608 0058 7B6D     	 ldr r3,[r7,#84]
 609 005a 1B01     	 lsls r3,r3,#4
 610 005c FA68     	 ldr r2,[r7,#12]
 611 005e 1344     	 add r3,r3,r2
 612 0060 D3E90023 	 ldrd r2,[r3]
 613 0064 FFF7FEFF 	 bl __aeabi_dadd
 614 0068 0246     	 mov r2,r0
 615 006a 0B46     	 mov r3,r1
 616 006c C7E91223 	 strd r2,[r7,#72]
 217:../Dave/Generated/CMSIS_DSP/Source/TransformFunctions/arm_cfft_f64.c ****         xt = pSrc[2 * i] - pSrc[2 * l];
 617              	 .loc 1 217 0 discriminator 3
 618 0070 7B6F     	 ldr r3,[r7,#116]
 619 0072 1B01     	 lsls r3,r3,#4
 620 0074 FA68     	 ldr r2,[r7,#12]
 621 0076 1344     	 add r3,r3,r2
 622 0078 D3E90001 	 ldrd r0,[r3]
 623 007c 7B6D     	 ldr r3,[r7,#84]
 624 007e 1B01     	 lsls r3,r3,#4
 625 0080 FA68     	 ldr r2,[r7,#12]
 626 0082 1344     	 add r3,r3,r2
 627 0084 D3E90023 	 ldrd r2,[r3]
 628 0088 FFF7FEFF 	 bl __aeabi_dsub
 629 008c 0246     	 mov r2,r0
 630 008e 0B46     	 mov r3,r1
 631 0090 C7E91023 	 strd r2,[r7,#64]
 218:../Dave/Generated/CMSIS_DSP/Source/TransformFunctions/arm_cfft_f64.c **** 
 219:../Dave/Generated/CMSIS_DSP/Source/TransformFunctions/arm_cfft_f64.c ****         yt = pSrc[2 * i + 1] - pSrc[2 * l + 1];
 632              	 .loc 1 219 0 discriminator 3
 633 0094 7B6F     	 ldr r3,[r7,#116]
 634 0096 1B01     	 lsls r3,r3,#4
 635 0098 0833     	 adds r3,r3,#8
 636 009a FA68     	 ldr r2,[r7,#12]
 637 009c 1344     	 add r3,r3,r2
 638 009e D3E90001 	 ldrd r0,[r3]
 639 00a2 7B6D     	 ldr r3,[r7,#84]
 640 00a4 1B01     	 lsls r3,r3,#4
 641 00a6 0833     	 adds r3,r3,#8
 642 00a8 FA68     	 ldr r2,[r7,#12]
 643 00aa 1344     	 add r3,r3,r2
 644 00ac D3E90023 	 ldrd r2,[r3]
 645 00b0 FFF7FEFF 	 bl __aeabi_dsub
 646 00b4 0246     	 mov r2,r0
 647 00b6 0B46     	 mov r3,r1
 648 00b8 C7E90E23 	 strd r2,[r7,#56]
 220:../Dave/Generated/CMSIS_DSP/Source/TransformFunctions/arm_cfft_f64.c ****         a1 = pSrc[2 * l + 1] + pSrc[2 * i + 1];
 649              	 .loc 1 220 0 discriminator 3
 650 00bc 7B6D     	 ldr r3,[r7,#84]
 651 00be 1B01     	 lsls r3,r3,#4
 652 00c0 0833     	 adds r3,r3,#8
 653 00c2 FA68     	 ldr r2,[r7,#12]
 654 00c4 1344     	 add r3,r3,r2
 655 00c6 D3E90001 	 ldrd r0,[r3]
 656 00ca 7B6F     	 ldr r3,[r7,#116]
 657 00cc 1B01     	 lsls r3,r3,#4
 658 00ce 0833     	 adds r3,r3,#8
 659 00d0 FA68     	 ldr r2,[r7,#12]
 660 00d2 1344     	 add r3,r3,r2
 661 00d4 D3E90023 	 ldrd r2,[r3]
 662 00d8 FFF7FEFF 	 bl __aeabi_dadd
 663 00dc 0246     	 mov r2,r0
 664 00de 0B46     	 mov r3,r1
 665 00e0 C7E90C23 	 strd r2,[r7,#48]
 221:../Dave/Generated/CMSIS_DSP/Source/TransformFunctions/arm_cfft_f64.c **** 
 222:../Dave/Generated/CMSIS_DSP/Source/TransformFunctions/arm_cfft_f64.c ****         p0 = xt * cosVal;
 666              	 .loc 1 222 0 discriminator 3
 667 00e4 D7E91001 	 ldrd r0,[r7,#64]
 668 00e8 D7E91823 	 ldrd r2,[r7,#96]
 669 00ec FFF7FEFF 	 bl __aeabi_dmul
 670 00f0 0246     	 mov r2,r0
 671 00f2 0B46     	 mov r3,r1
 672 00f4 C7E90A23 	 strd r2,[r7,#40]
 223:../Dave/Generated/CMSIS_DSP/Source/TransformFunctions/arm_cfft_f64.c ****         p1 = yt * sinVal;
 673              	 .loc 1 223 0 discriminator 3
 674 00f8 D7E90E01 	 ldrd r0,[r7,#56]
 675 00fc D7E91623 	 ldrd r2,[r7,#88]
 676 0100 FFF7FEFF 	 bl __aeabi_dmul
 677 0104 0246     	 mov r2,r0
 678 0106 0B46     	 mov r3,r1
 679 0108 C7E90823 	 strd r2,[r7,#32]
 224:../Dave/Generated/CMSIS_DSP/Source/TransformFunctions/arm_cfft_f64.c ****         p2 = yt * cosVal;
 680              	 .loc 1 224 0 discriminator 3
 681 010c D7E90E01 	 ldrd r0,[r7,#56]
 682 0110 D7E91823 	 ldrd r2,[r7,#96]
 683 0114 FFF7FEFF 	 bl __aeabi_dmul
 684 0118 0246     	 mov r2,r0
 685 011a 0B46     	 mov r3,r1
 686 011c C7E90623 	 strd r2,[r7,#24]
 225:../Dave/Generated/CMSIS_DSP/Source/TransformFunctions/arm_cfft_f64.c ****         p3 = xt * sinVal;
 687              	 .loc 1 225 0 discriminator 3
 688 0120 D7E91001 	 ldrd r0,[r7,#64]
 689 0124 D7E91623 	 ldrd r2,[r7,#88]
 690 0128 FFF7FEFF 	 bl __aeabi_dmul
 691 012c 0246     	 mov r2,r0
 692 012e 0B46     	 mov r3,r1
 693 0130 C7E90423 	 strd r2,[r7,#16]
 226:../Dave/Generated/CMSIS_DSP/Source/TransformFunctions/arm_cfft_f64.c **** 
 227:../Dave/Generated/CMSIS_DSP/Source/TransformFunctions/arm_cfft_f64.c ****         pSrc[2 * i]     = a0;
 694              	 .loc 1 227 0 discriminator 3
 695 0134 7B6F     	 ldr r3,[r7,#116]
 696 0136 1B01     	 lsls r3,r3,#4
 697 0138 FA68     	 ldr r2,[r7,#12]
 698 013a D118     	 adds r1,r2,r3
 699 013c D7E91223 	 ldrd r2,[r7,#72]
 700 0140 C1E90023 	 strd r2,[r1]
 228:../Dave/Generated/CMSIS_DSP/Source/TransformFunctions/arm_cfft_f64.c ****         pSrc[2 * i + 1] = a1;
 701              	 .loc 1 228 0 discriminator 3
 702 0144 7B6F     	 ldr r3,[r7,#116]
 703 0146 1B01     	 lsls r3,r3,#4
 704 0148 0833     	 adds r3,r3,#8
 705 014a FA68     	 ldr r2,[r7,#12]
 706 014c D118     	 adds r1,r2,r3
 707 014e D7E90C23 	 ldrd r2,[r7,#48]
 708 0152 C1E90023 	 strd r2,[r1]
 229:../Dave/Generated/CMSIS_DSP/Source/TransformFunctions/arm_cfft_f64.c **** 
 230:../Dave/Generated/CMSIS_DSP/Source/TransformFunctions/arm_cfft_f64.c ****         pSrc[2 * l]     = p0 + p1;
 709              	 .loc 1 230 0 discriminator 3
 710 0156 7B6D     	 ldr r3,[r7,#84]
 711 0158 1B01     	 lsls r3,r3,#4
 712 015a FA68     	 ldr r2,[r7,#12]
 713 015c D418     	 adds r4,r2,r3
 714 015e D7E90A01 	 ldrd r0,[r7,#40]
 715 0162 D7E90823 	 ldrd r2,[r7,#32]
 716 0166 FFF7FEFF 	 bl __aeabi_dadd
 717 016a 0246     	 mov r2,r0
 718 016c 0B46     	 mov r3,r1
 719 016e C4E90023 	 strd r2,[r4]
 231:../Dave/Generated/CMSIS_DSP/Source/TransformFunctions/arm_cfft_f64.c ****         pSrc[2 * l + 1] = p2 - p3;
 720              	 .loc 1 231 0 discriminator 3
 721 0172 7B6D     	 ldr r3,[r7,#84]
 722 0174 1B01     	 lsls r3,r3,#4
 723 0176 0833     	 adds r3,r3,#8
 724 0178 FA68     	 ldr r2,[r7,#12]
 725 017a D418     	 adds r4,r2,r3
 726 017c D7E90601 	 ldrd r0,[r7,#24]
 727 0180 D7E90423 	 ldrd r2,[r7,#16]
 728 0184 FFF7FEFF 	 bl __aeabi_dsub
 729 0188 0246     	 mov r2,r0
 730 018a 0B46     	 mov r3,r1
 731 018c C4E90023 	 strd r2,[r4]
 207:../Dave/Generated/CMSIS_DSP/Source/TransformFunctions/arm_cfft_f64.c ****     {
 732              	 .loc 1 207 0 discriminator 3
 733 0190 7B6F     	 ldr r3,[r7,#116]
 734 0192 0133     	 adds r3,r3,#1
 735 0194 7B67     	 str r3,[r7,#116]
 736              	.L7:
 207:../Dave/Generated/CMSIS_DSP/Source/TransformFunctions/arm_cfft_f64.c ****     {
 737              	 .loc 1 207 0 is_stmt 0 discriminator 1
 738 0196 7A6F     	 ldr r2,[r7,#116]
 739 0198 FB6E     	 ldr r3,[r7,#108]
 740 019a 9A42     	 cmp r2,r3
 741 019c FFF43EAF 	 bcc .L8
 232:../Dave/Generated/CMSIS_DSP/Source/TransformFunctions/arm_cfft_f64.c **** 
 233:../Dave/Generated/CMSIS_DSP/Source/TransformFunctions/arm_cfft_f64.c ****     }
 234:../Dave/Generated/CMSIS_DSP/Source/TransformFunctions/arm_cfft_f64.c **** 
 235:../Dave/Generated/CMSIS_DSP/Source/TransformFunctions/arm_cfft_f64.c ****     // first col
 236:../Dave/Generated/CMSIS_DSP/Source/TransformFunctions/arm_cfft_f64.c ****     arm_radix4_butterfly_f64( pSrc, n2, (float64_t*)pCoef, 2U);
 742              	 .loc 1 236 0 is_stmt 1
 743 01a0 FB6E     	 ldr r3,[r7,#108]
 744 01a2 9BB2     	 uxth r3,r3
 745 01a4 F868     	 ldr r0,[r7,#12]
 746 01a6 1946     	 mov r1,r3
 747 01a8 7A68     	 ldr r2,[r7,#4]
 748 01aa 0223     	 movs r3,#2
 749 01ac FFF7FEFF 	 bl arm_radix4_butterfly_f64
 237:../Dave/Generated/CMSIS_DSP/Source/TransformFunctions/arm_cfft_f64.c ****     // second col
 238:../Dave/Generated/CMSIS_DSP/Source/TransformFunctions/arm_cfft_f64.c ****     arm_radix4_butterfly_f64( pSrc + fftLen, n2, (float64_t*)pCoef, 2U);
 750              	 .loc 1 238 0
 751 01b0 BB68     	 ldr r3,[r7,#8]
 752 01b2 DB00     	 lsls r3,r3,#3
 753 01b4 FA68     	 ldr r2,[r7,#12]
 754 01b6 1A44     	 add r2,r2,r3
 755 01b8 FB6E     	 ldr r3,[r7,#108]
 756 01ba 9BB2     	 uxth r3,r3
 757 01bc 1046     	 mov r0,r2
 758 01be 1946     	 mov r1,r3
 759 01c0 7A68     	 ldr r2,[r7,#4]
 760 01c2 0223     	 movs r3,#2
 761 01c4 FFF7FEFF 	 bl arm_radix4_butterfly_f64
 239:../Dave/Generated/CMSIS_DSP/Source/TransformFunctions/arm_cfft_f64.c **** 
 240:../Dave/Generated/CMSIS_DSP/Source/TransformFunctions/arm_cfft_f64.c **** }
 762              	 .loc 1 240 0
 763 01c8 7C37     	 adds r7,r7,#124
 764              	.LCFI8:
 765              	 .cfi_def_cfa_offset 12
 766 01ca BD46     	 mov sp,r7
 767              	.LCFI9:
 768              	 .cfi_def_cfa_register 13
 769              	 
 770 01cc 90BD     	 pop {r4,r7,pc}
 771              	 .cfi_endproc
 772              	.LFE150:
 774              	 .global __aeabi_ui2d
 775              	 .global __aeabi_ddiv
 776 01ce 00BF     	 .section .text.arm_cfft_f64,"ax",%progbits
 777              	 .align 2
 778              	 .global arm_cfft_f64
 779              	 .thumb
 780              	 .thumb_func
 782              	arm_cfft_f64:
 783              	.LFB151:
 241:../Dave/Generated/CMSIS_DSP/Source/TransformFunctions/arm_cfft_f64.c **** 
 242:../Dave/Generated/CMSIS_DSP/Source/TransformFunctions/arm_cfft_f64.c **** /**
 243:../Dave/Generated/CMSIS_DSP/Source/TransformFunctions/arm_cfft_f64.c ****   @addtogroup ComplexFFT
 244:../Dave/Generated/CMSIS_DSP/Source/TransformFunctions/arm_cfft_f64.c ****   @{
 245:../Dave/Generated/CMSIS_DSP/Source/TransformFunctions/arm_cfft_f64.c ****  */
 246:../Dave/Generated/CMSIS_DSP/Source/TransformFunctions/arm_cfft_f64.c **** 
 247:../Dave/Generated/CMSIS_DSP/Source/TransformFunctions/arm_cfft_f64.c **** /**
 248:../Dave/Generated/CMSIS_DSP/Source/TransformFunctions/arm_cfft_f64.c ****   @brief         Processing function for the Double Precision floating-point complex FFT.
 249:../Dave/Generated/CMSIS_DSP/Source/TransformFunctions/arm_cfft_f64.c ****   @param[in]     S              points to an instance of the Double Precision floating-point CFFT s
 250:../Dave/Generated/CMSIS_DSP/Source/TransformFunctions/arm_cfft_f64.c ****   @param[in,out] p1             points to the complex data buffer of size <code>2*fftLen</code>. Pr
 251:../Dave/Generated/CMSIS_DSP/Source/TransformFunctions/arm_cfft_f64.c ****   @param[in]     ifftFlag       flag that selects transform direction
 252:../Dave/Generated/CMSIS_DSP/Source/TransformFunctions/arm_cfft_f64.c ****                    - value = 0: forward transform
 253:../Dave/Generated/CMSIS_DSP/Source/TransformFunctions/arm_cfft_f64.c ****                    - value = 1: inverse transform
 254:../Dave/Generated/CMSIS_DSP/Source/TransformFunctions/arm_cfft_f64.c ****   @param[in]     bitReverseFlag flag that enables / disables bit reversal of output
 255:../Dave/Generated/CMSIS_DSP/Source/TransformFunctions/arm_cfft_f64.c ****                    - value = 0: disables bit reversal of output
 256:../Dave/Generated/CMSIS_DSP/Source/TransformFunctions/arm_cfft_f64.c ****                    - value = 1: enables bit reversal of output
 257:../Dave/Generated/CMSIS_DSP/Source/TransformFunctions/arm_cfft_f64.c ****   @return        none
 258:../Dave/Generated/CMSIS_DSP/Source/TransformFunctions/arm_cfft_f64.c ****  */
 259:../Dave/Generated/CMSIS_DSP/Source/TransformFunctions/arm_cfft_f64.c **** 
 260:../Dave/Generated/CMSIS_DSP/Source/TransformFunctions/arm_cfft_f64.c **** void arm_cfft_f64(
 261:../Dave/Generated/CMSIS_DSP/Source/TransformFunctions/arm_cfft_f64.c ****   const arm_cfft_instance_f64 * S,
 262:../Dave/Generated/CMSIS_DSP/Source/TransformFunctions/arm_cfft_f64.c ****         float64_t * p1,
 263:../Dave/Generated/CMSIS_DSP/Source/TransformFunctions/arm_cfft_f64.c ****         uint8_t ifftFlag,
 264:../Dave/Generated/CMSIS_DSP/Source/TransformFunctions/arm_cfft_f64.c ****         uint8_t bitReverseFlag)
 265:../Dave/Generated/CMSIS_DSP/Source/TransformFunctions/arm_cfft_f64.c **** {
 784              	 .loc 1 265 0
 785              	 .cfi_startproc
 786              	 
 787              	 
 788 0000 2DE9B043 	 push {r4,r5,r7,r8,r9,lr}
 789              	.LCFI10:
 790              	 .cfi_def_cfa_offset 24
 791              	 .cfi_offset 4,-24
 792              	 .cfi_offset 5,-20
 793              	 .cfi_offset 7,-16
 794              	 .cfi_offset 8,-12
 795              	 .cfi_offset 9,-8
 796              	 .cfi_offset 14,-4
 797 0004 8AB0     	 sub sp,sp,#40
 798              	.LCFI11:
 799              	 .cfi_def_cfa_offset 64
 800 0006 00AF     	 add r7,sp,#0
 801              	.LCFI12:
 802              	 .cfi_def_cfa_register 7
 803 0008 F860     	 str r0,[r7,#12]
 804 000a B960     	 str r1,[r7,#8]
 805 000c 1146     	 mov r1,r2
 806 000e 1A46     	 mov r2,r3
 807 0010 0B46     	 mov r3,r1
 808 0012 FB71     	 strb r3,[r7,#7]
 809 0014 1346     	 mov r3,r2
 810 0016 BB71     	 strb r3,[r7,#6]
 266:../Dave/Generated/CMSIS_DSP/Source/TransformFunctions/arm_cfft_f64.c ****     uint32_t  L = S->fftLen, l;
 811              	 .loc 1 266 0
 812 0018 FB68     	 ldr r3,[r7,#12]
 813 001a 1B88     	 ldrh r3,[r3]
 814 001c FB61     	 str r3,[r7,#28]
 267:../Dave/Generated/CMSIS_DSP/Source/TransformFunctions/arm_cfft_f64.c ****     float64_t invL, * pSrc;
 268:../Dave/Generated/CMSIS_DSP/Source/TransformFunctions/arm_cfft_f64.c **** 
 269:../Dave/Generated/CMSIS_DSP/Source/TransformFunctions/arm_cfft_f64.c ****     if (ifftFlag == 1U)
 815              	 .loc 1 269 0
 816 001e FB79     	 ldrb r3,[r7,#7]
 817 0020 012B     	 cmp r3,#1
 818 0022 18D1     	 bne .L10
 270:../Dave/Generated/CMSIS_DSP/Source/TransformFunctions/arm_cfft_f64.c ****     {
 271:../Dave/Generated/CMSIS_DSP/Source/TransformFunctions/arm_cfft_f64.c ****         /*  Conjugate input data  */
 272:../Dave/Generated/CMSIS_DSP/Source/TransformFunctions/arm_cfft_f64.c ****         pSrc = p1 + 1;
 819              	 .loc 1 272 0
 820 0024 BB68     	 ldr r3,[r7,#8]
 821 0026 0833     	 adds r3,r3,#8
 822 0028 3B62     	 str r3,[r7,#32]
 273:../Dave/Generated/CMSIS_DSP/Source/TransformFunctions/arm_cfft_f64.c ****         for(l=0; l<L; l++)
 823              	 .loc 1 273 0
 824 002a 0023     	 movs r3,#0
 825 002c 7B62     	 str r3,[r7,#36]
 826 002e 0EE0     	 b .L11
 827              	.L12:
 274:../Dave/Generated/CMSIS_DSP/Source/TransformFunctions/arm_cfft_f64.c ****         {
 275:../Dave/Generated/CMSIS_DSP/Source/TransformFunctions/arm_cfft_f64.c ****             *pSrc = -*pSrc;
 828              	 .loc 1 275 0 discriminator 3
 829 0030 3B6A     	 ldr r3,[r7,#32]
 830 0032 D3E90023 	 ldrd r2,[r3]
 831 0036 1446     	 mov r4,r2
 832 0038 83F00045 	 eor r5,r3,#-2147483648
 833 003c 3B6A     	 ldr r3,[r7,#32]
 834 003e C3E90045 	 strd r4,[r3]
 276:../Dave/Generated/CMSIS_DSP/Source/TransformFunctions/arm_cfft_f64.c ****             pSrc += 2;
 835              	 .loc 1 276 0 discriminator 3
 836 0042 3B6A     	 ldr r3,[r7,#32]
 837 0044 1033     	 adds r3,r3,#16
 838 0046 3B62     	 str r3,[r7,#32]
 273:../Dave/Generated/CMSIS_DSP/Source/TransformFunctions/arm_cfft_f64.c ****         for(l=0; l<L; l++)
 839              	 .loc 1 273 0 discriminator 3
 840 0048 7B6A     	 ldr r3,[r7,#36]
 841 004a 0133     	 adds r3,r3,#1
 842 004c 7B62     	 str r3,[r7,#36]
 843              	.L11:
 273:../Dave/Generated/CMSIS_DSP/Source/TransformFunctions/arm_cfft_f64.c ****         for(l=0; l<L; l++)
 844              	 .loc 1 273 0 is_stmt 0 discriminator 1
 845 004e 7A6A     	 ldr r2,[r7,#36]
 846 0050 FB69     	 ldr r3,[r7,#28]
 847 0052 9A42     	 cmp r2,r3
 848 0054 ECD3     	 bcc .L12
 849              	.L10:
 277:../Dave/Generated/CMSIS_DSP/Source/TransformFunctions/arm_cfft_f64.c ****         }
 278:../Dave/Generated/CMSIS_DSP/Source/TransformFunctions/arm_cfft_f64.c ****     }
 279:../Dave/Generated/CMSIS_DSP/Source/TransformFunctions/arm_cfft_f64.c **** 
 280:../Dave/Generated/CMSIS_DSP/Source/TransformFunctions/arm_cfft_f64.c ****     switch (L)
 850              	 .loc 1 280 0 is_stmt 1
 851 0056 FB69     	 ldr r3,[r7,#28]
 852 0058 B3F5807F 	 cmp r3,#256
 853 005c 1ED0     	 beq .L14
 854 005e B3F5807F 	 cmp r3,#256
 855 0062 0BD8     	 bhi .L15
 856 0064 202B     	 cmp r3,#32
 857 0066 24D0     	 beq .L16
 858 0068 202B     	 cmp r3,#32
 859 006a 02D8     	 bhi .L17
 860 006c 102B     	 cmp r3,#16
 861 006e 15D0     	 beq .L14
 862 0070 27E0     	 b .L13
 863              	.L17:
 864 0072 402B     	 cmp r3,#64
 865 0074 12D0     	 beq .L14
 866 0076 802B     	 cmp r3,#128
 867 0078 1BD0     	 beq .L16
 868 007a 22E0     	 b .L13
 869              	.L15:
 870 007c B3F5806F 	 cmp r3,#1024
 871 0080 0CD0     	 beq .L14
 872 0082 B3F5806F 	 cmp r3,#1024
 873 0086 03D8     	 bhi .L18
 874 0088 B3F5007F 	 cmp r3,#512
 875 008c 11D0     	 beq .L16
 876 008e 18E0     	 b .L13
 877              	.L18:
 878 0090 B3F5006F 	 cmp r3,#2048
 879 0094 0DD0     	 beq .L16
 880 0096 B3F5805F 	 cmp r3,#4096
 881 009a 12D1     	 bne .L13
 882              	.L14:
 281:../Dave/Generated/CMSIS_DSP/Source/TransformFunctions/arm_cfft_f64.c ****     {
 282:../Dave/Generated/CMSIS_DSP/Source/TransformFunctions/arm_cfft_f64.c ****         case 16:
 283:../Dave/Generated/CMSIS_DSP/Source/TransformFunctions/arm_cfft_f64.c ****         case 64:
 284:../Dave/Generated/CMSIS_DSP/Source/TransformFunctions/arm_cfft_f64.c ****         case 256:
 285:../Dave/Generated/CMSIS_DSP/Source/TransformFunctions/arm_cfft_f64.c ****         case 1024:
 286:../Dave/Generated/CMSIS_DSP/Source/TransformFunctions/arm_cfft_f64.c ****         case 4096:
 287:../Dave/Generated/CMSIS_DSP/Source/TransformFunctions/arm_cfft_f64.c ****         arm_radix4_butterfly_f64  (p1, L, (float64_t*)S->pTwiddle, 1U);
 883              	 .loc 1 287 0
 884 009c FB69     	 ldr r3,[r7,#28]
 885 009e 9AB2     	 uxth r2,r3
 886 00a0 FB68     	 ldr r3,[r7,#12]
 887 00a2 5B68     	 ldr r3,[r3,#4]
 888 00a4 B868     	 ldr r0,[r7,#8]
 889 00a6 1146     	 mov r1,r2
 890 00a8 1A46     	 mov r2,r3
 891 00aa 0123     	 movs r3,#1
 892 00ac FFF7FEFF 	 bl arm_radix4_butterfly_f64
 288:../Dave/Generated/CMSIS_DSP/Source/TransformFunctions/arm_cfft_f64.c ****         break;
 893              	 .loc 1 288 0
 894 00b0 07E0     	 b .L13
 895              	.L16:
 289:../Dave/Generated/CMSIS_DSP/Source/TransformFunctions/arm_cfft_f64.c **** 
 290:../Dave/Generated/CMSIS_DSP/Source/TransformFunctions/arm_cfft_f64.c ****         case 32:
 291:../Dave/Generated/CMSIS_DSP/Source/TransformFunctions/arm_cfft_f64.c ****         case 128:
 292:../Dave/Generated/CMSIS_DSP/Source/TransformFunctions/arm_cfft_f64.c ****         case 512:
 293:../Dave/Generated/CMSIS_DSP/Source/TransformFunctions/arm_cfft_f64.c ****         case 2048:
 294:../Dave/Generated/CMSIS_DSP/Source/TransformFunctions/arm_cfft_f64.c ****         arm_cfft_radix4by2_f64  ( p1, L, (float64_t*)S->pTwiddle);
 896              	 .loc 1 294 0
 897 00b2 FB68     	 ldr r3,[r7,#12]
 898 00b4 5B68     	 ldr r3,[r3,#4]
 899 00b6 B868     	 ldr r0,[r7,#8]
 900 00b8 F969     	 ldr r1,[r7,#28]
 901 00ba 1A46     	 mov r2,r3
 902 00bc FFF7FEFF 	 bl arm_cfft_radix4by2_f64
 295:../Dave/Generated/CMSIS_DSP/Source/TransformFunctions/arm_cfft_f64.c ****         break;
 903              	 .loc 1 295 0
 904 00c0 00BF     	 nop
 905              	.L13:
 296:../Dave/Generated/CMSIS_DSP/Source/TransformFunctions/arm_cfft_f64.c **** 
 297:../Dave/Generated/CMSIS_DSP/Source/TransformFunctions/arm_cfft_f64.c ****     }
 298:../Dave/Generated/CMSIS_DSP/Source/TransformFunctions/arm_cfft_f64.c **** 
 299:../Dave/Generated/CMSIS_DSP/Source/TransformFunctions/arm_cfft_f64.c ****     if ( bitReverseFlag )
 906              	 .loc 1 299 0
 907 00c2 BB79     	 ldrb r3,[r7,#6]
 908 00c4 002B     	 cmp r3,#0
 909 00c6 08D0     	 beq .L19
 300:../Dave/Generated/CMSIS_DSP/Source/TransformFunctions/arm_cfft_f64.c ****         arm_bitreversal_64((uint64_t*)p1, S->bitRevLength,S->pBitRevTable);
 910              	 .loc 1 300 0
 911 00c8 FB68     	 ldr r3,[r7,#12]
 912 00ca 9A89     	 ldrh r2,[r3,#12]
 913 00cc FB68     	 ldr r3,[r7,#12]
 914 00ce 9B68     	 ldr r3,[r3,#8]
 915 00d0 B868     	 ldr r0,[r7,#8]
 916 00d2 1146     	 mov r1,r2
 917 00d4 1A46     	 mov r2,r3
 918 00d6 FFF7FEFF 	 bl arm_bitreversal_64
 919              	.L19:
 301:../Dave/Generated/CMSIS_DSP/Source/TransformFunctions/arm_cfft_f64.c **** 
 302:../Dave/Generated/CMSIS_DSP/Source/TransformFunctions/arm_cfft_f64.c ****     if (ifftFlag == 1U)
 920              	 .loc 1 302 0
 921 00da FB79     	 ldrb r3,[r7,#7]
 922 00dc 012B     	 cmp r3,#1
 923 00de 3DD1     	 bne .L9
 303:../Dave/Generated/CMSIS_DSP/Source/TransformFunctions/arm_cfft_f64.c ****     {
 304:../Dave/Generated/CMSIS_DSP/Source/TransformFunctions/arm_cfft_f64.c ****         invL = 1.0 / (float64_t)L;
 924              	 .loc 1 304 0
 925 00e0 F869     	 ldr r0,[r7,#28]
 926 00e2 FFF7FEFF 	 bl __aeabi_ui2d
 927 00e6 0246     	 mov r2,r0
 928 00e8 0B46     	 mov r3,r1
 929 00ea 4FF00000 	 mov r0,#0
 930 00ee 1D49     	 ldr r1,.L23
 931 00f0 FFF7FEFF 	 bl __aeabi_ddiv
 932 00f4 0246     	 mov r2,r0
 933 00f6 0B46     	 mov r3,r1
 934 00f8 C7E90423 	 strd r2,[r7,#16]
 305:../Dave/Generated/CMSIS_DSP/Source/TransformFunctions/arm_cfft_f64.c ****         /*  Conjugate and scale output data */
 306:../Dave/Generated/CMSIS_DSP/Source/TransformFunctions/arm_cfft_f64.c ****         pSrc = p1;
 935              	 .loc 1 306 0
 936 00fc BB68     	 ldr r3,[r7,#8]
 937 00fe 3B62     	 str r3,[r7,#32]
 307:../Dave/Generated/CMSIS_DSP/Source/TransformFunctions/arm_cfft_f64.c ****         for(l=0; l<L; l++)
 938              	 .loc 1 307 0
 939 0100 0023     	 movs r3,#0
 940 0102 7B62     	 str r3,[r7,#36]
 941 0104 26E0     	 b .L21
 942              	.L22:
 308:../Dave/Generated/CMSIS_DSP/Source/TransformFunctions/arm_cfft_f64.c ****         {
 309:../Dave/Generated/CMSIS_DSP/Source/TransformFunctions/arm_cfft_f64.c ****             *pSrc++ *=   invL ;
 943              	 .loc 1 309 0 discriminator 3
 944 0106 3C6A     	 ldr r4,[r7,#32]
 945 0108 04F10803 	 add r3,r4,#8
 946 010c 3B62     	 str r3,[r7,#32]
 947 010e D4E90023 	 ldrd r2,[r4]
 948 0112 1046     	 mov r0,r2
 949 0114 1946     	 mov r1,r3
 950 0116 D7E90423 	 ldrd r2,[r7,#16]
 951 011a FFF7FEFF 	 bl __aeabi_dmul
 952 011e 0246     	 mov r2,r0
 953 0120 0B46     	 mov r3,r1
 954 0122 C4E90023 	 strd r2,[r4]
 310:../Dave/Generated/CMSIS_DSP/Source/TransformFunctions/arm_cfft_f64.c ****             *pSrc  = -(*pSrc) * invL;
 955              	 .loc 1 310 0 discriminator 3
 956 0126 3B6A     	 ldr r3,[r7,#32]
 957 0128 D3E90023 	 ldrd r2,[r3]
 958 012c 9046     	 mov r8,r2
 959 012e 83F00049 	 eor r9,r3,#-2147483648
 960 0132 4046     	 mov r0,r8
 961 0134 4946     	 mov r1,r9
 962 0136 D7E90423 	 ldrd r2,[r7,#16]
 963 013a FFF7FEFF 	 bl __aeabi_dmul
 964 013e 0246     	 mov r2,r0
 965 0140 0B46     	 mov r3,r1
 966 0142 396A     	 ldr r1,[r7,#32]
 967 0144 C1E90023 	 strd r2,[r1]
 311:../Dave/Generated/CMSIS_DSP/Source/TransformFunctions/arm_cfft_f64.c ****             pSrc++;
 968              	 .loc 1 311 0 discriminator 3
 969 0148 3B6A     	 ldr r3,[r7,#32]
 970 014a 0833     	 adds r3,r3,#8
 971 014c 3B62     	 str r3,[r7,#32]
 307:../Dave/Generated/CMSIS_DSP/Source/TransformFunctions/arm_cfft_f64.c ****         {
 972              	 .loc 1 307 0 discriminator 3
 973 014e 7B6A     	 ldr r3,[r7,#36]
 974 0150 0133     	 adds r3,r3,#1
 975 0152 7B62     	 str r3,[r7,#36]
 976              	.L21:
 307:../Dave/Generated/CMSIS_DSP/Source/TransformFunctions/arm_cfft_f64.c ****         {
 977              	 .loc 1 307 0 is_stmt 0 discriminator 1
 978 0154 7A6A     	 ldr r2,[r7,#36]
 979 0156 FB69     	 ldr r3,[r7,#28]
 980 0158 9A42     	 cmp r2,r3
 981 015a D4D3     	 bcc .L22
 982              	.L9:
 312:../Dave/Generated/CMSIS_DSP/Source/TransformFunctions/arm_cfft_f64.c ****         }
 313:../Dave/Generated/CMSIS_DSP/Source/TransformFunctions/arm_cfft_f64.c ****     }
 314:../Dave/Generated/CMSIS_DSP/Source/TransformFunctions/arm_cfft_f64.c **** }
 983              	 .loc 1 314 0 is_stmt 1
 984 015c 2837     	 adds r7,r7,#40
 985              	.LCFI13:
 986              	 .cfi_def_cfa_offset 24
 987 015e BD46     	 mov sp,r7
 988              	.LCFI14:
 989              	 .cfi_def_cfa_register 13
 990              	 
 991 0160 BDE8B083 	 pop {r4,r5,r7,r8,r9,pc}
 992              	.L24:
 993              	 .align 2
 994              	.L23:
 995 0164 0000F03F 	 .word 1072693248
 996              	 .cfi_endproc
 997              	.LFE151:
 999              	 .text
 1000              	.Letext0:
 1001              	 .file 2 "c:\\infineon\\tools\\dave ide\\4.5.0.202105191637\\eclipse\\arm-gcc-49\\arm-none-eabi\\include\\machine\\_default_types.h"
 1002              	 .file 3 "c:\\infineon\\tools\\dave ide\\4.5.0.202105191637\\eclipse\\arm-gcc-49\\arm-none-eabi\\include\\stdint.h"
 1003              	 .file 4 "C:/Users/Rui Mendes/Desktop/DAVE/_Naive/_ForTesting/Dave/Generated/CMSIS_DSP/Include/arm_math.h"
 1004              	 .file 5 "C:/Users/Rui Mendes/Desktop/DAVE/_Naive/_ForTesting/Libraries/CMSIS/Include/cmsis_gcc.h"