   1              	 .syntax unified
   2              	 .cpu cortex-m4
   3              	 .eabi_attribute 27,3
   4              	 .fpu fpv4-sp-d16
   5              	 .eabi_attribute 20,1
   6              	 .eabi_attribute 21,1
   7              	 .eabi_attribute 23,3
   8              	 .eabi_attribute 24,1
   9              	 .eabi_attribute 25,1
  10              	 .eabi_attribute 26,1
  11              	 .eabi_attribute 30,6
  12              	 .eabi_attribute 34,1
  13              	 .eabi_attribute 18,4
  14              	 .thumb
  15              	 .file "arm_cfft_radix4_q15.c"
  16              	 .text
  17              	.Ltext0:
  18              	 .cfi_sections .debug_frame
  19              	 .section .text.arm_cfft_radix4_q15,"ax",%progbits
  20              	 .align 2
  21              	 .global arm_cfft_radix4_q15
  22              	 .thumb
  23              	 .thumb_func
  25              	arm_cfft_radix4_q15:
  26              	.LFB149:
  27              	 .file 1 "../Dave/Generated/CMSIS_DSP/Source/TransformFunctions/arm_cfft_radix4_q15.c"
   1:../Dave/Generated/CMSIS_DSP/Source/TransformFunctions/arm_cfft_radix4_q15.c **** /* ----------------------------------------------------------------------
   2:../Dave/Generated/CMSIS_DSP/Source/TransformFunctions/arm_cfft_radix4_q15.c ****  * Project:      CMSIS DSP Library
   3:../Dave/Generated/CMSIS_DSP/Source/TransformFunctions/arm_cfft_radix4_q15.c ****  * Title:        arm_cfft_radix4_q15.c
   4:../Dave/Generated/CMSIS_DSP/Source/TransformFunctions/arm_cfft_radix4_q15.c ****  * Description:  This file has function definition of Radix-4 FFT & IFFT function and
   5:../Dave/Generated/CMSIS_DSP/Source/TransformFunctions/arm_cfft_radix4_q15.c ****  *               In-place bit reversal using bit reversal table
   6:../Dave/Generated/CMSIS_DSP/Source/TransformFunctions/arm_cfft_radix4_q15.c ****  *
   7:../Dave/Generated/CMSIS_DSP/Source/TransformFunctions/arm_cfft_radix4_q15.c ****  * $Date:        18. March 2019
   8:../Dave/Generated/CMSIS_DSP/Source/TransformFunctions/arm_cfft_radix4_q15.c ****  * $Revision:    V1.6.0
   9:../Dave/Generated/CMSIS_DSP/Source/TransformFunctions/arm_cfft_radix4_q15.c ****  *
  10:../Dave/Generated/CMSIS_DSP/Source/TransformFunctions/arm_cfft_radix4_q15.c ****  * Target Processor: Cortex-M cores
  11:../Dave/Generated/CMSIS_DSP/Source/TransformFunctions/arm_cfft_radix4_q15.c ****  * -------------------------------------------------------------------- */
  12:../Dave/Generated/CMSIS_DSP/Source/TransformFunctions/arm_cfft_radix4_q15.c **** /*
  13:../Dave/Generated/CMSIS_DSP/Source/TransformFunctions/arm_cfft_radix4_q15.c ****  * Copyright (C) 2010-2019 ARM Limited or its affiliates. All rights reserved.
  14:../Dave/Generated/CMSIS_DSP/Source/TransformFunctions/arm_cfft_radix4_q15.c ****  *
  15:../Dave/Generated/CMSIS_DSP/Source/TransformFunctions/arm_cfft_radix4_q15.c ****  * SPDX-License-Identifier: Apache-2.0
  16:../Dave/Generated/CMSIS_DSP/Source/TransformFunctions/arm_cfft_radix4_q15.c ****  *
  17:../Dave/Generated/CMSIS_DSP/Source/TransformFunctions/arm_cfft_radix4_q15.c ****  * Licensed under the Apache License, Version 2.0 (the License); you may
  18:../Dave/Generated/CMSIS_DSP/Source/TransformFunctions/arm_cfft_radix4_q15.c ****  * not use this file except in compliance with the License.
  19:../Dave/Generated/CMSIS_DSP/Source/TransformFunctions/arm_cfft_radix4_q15.c ****  * You may obtain a copy of the License at
  20:../Dave/Generated/CMSIS_DSP/Source/TransformFunctions/arm_cfft_radix4_q15.c ****  *
  21:../Dave/Generated/CMSIS_DSP/Source/TransformFunctions/arm_cfft_radix4_q15.c ****  * www.apache.org/licenses/LICENSE-2.0
  22:../Dave/Generated/CMSIS_DSP/Source/TransformFunctions/arm_cfft_radix4_q15.c ****  *
  23:../Dave/Generated/CMSIS_DSP/Source/TransformFunctions/arm_cfft_radix4_q15.c ****  * Unless required by applicable law or agreed to in writing, software
  24:../Dave/Generated/CMSIS_DSP/Source/TransformFunctions/arm_cfft_radix4_q15.c ****  * distributed under the License is distributed on an AS IS BASIS, WITHOUT
  25:../Dave/Generated/CMSIS_DSP/Source/TransformFunctions/arm_cfft_radix4_q15.c ****  * WARRANTIES OR CONDITIONS OF ANY KIND, either express or implied.
  26:../Dave/Generated/CMSIS_DSP/Source/TransformFunctions/arm_cfft_radix4_q15.c ****  * See the License for the specific language governing permissions and
  27:../Dave/Generated/CMSIS_DSP/Source/TransformFunctions/arm_cfft_radix4_q15.c ****  * limitations under the License.
  28:../Dave/Generated/CMSIS_DSP/Source/TransformFunctions/arm_cfft_radix4_q15.c ****  */
  29:../Dave/Generated/CMSIS_DSP/Source/TransformFunctions/arm_cfft_radix4_q15.c **** 
  30:../Dave/Generated/CMSIS_DSP/Source/TransformFunctions/arm_cfft_radix4_q15.c **** #include "CMSIS_DSP/cmsis_dsp.h"
  31:../Dave/Generated/CMSIS_DSP/Source/TransformFunctions/arm_cfft_radix4_q15.c **** 
  32:../Dave/Generated/CMSIS_DSP/Source/TransformFunctions/arm_cfft_radix4_q15.c **** 
  33:../Dave/Generated/CMSIS_DSP/Source/TransformFunctions/arm_cfft_radix4_q15.c **** void arm_radix4_butterfly_q15(
  34:../Dave/Generated/CMSIS_DSP/Source/TransformFunctions/arm_cfft_radix4_q15.c ****         q15_t * pSrc16,
  35:../Dave/Generated/CMSIS_DSP/Source/TransformFunctions/arm_cfft_radix4_q15.c ****         uint32_t fftLen,
  36:../Dave/Generated/CMSIS_DSP/Source/TransformFunctions/arm_cfft_radix4_q15.c ****   const q15_t * pCoef16,
  37:../Dave/Generated/CMSIS_DSP/Source/TransformFunctions/arm_cfft_radix4_q15.c ****         uint32_t twidCoefModifier);
  38:../Dave/Generated/CMSIS_DSP/Source/TransformFunctions/arm_cfft_radix4_q15.c **** 
  39:../Dave/Generated/CMSIS_DSP/Source/TransformFunctions/arm_cfft_radix4_q15.c **** void arm_radix4_butterfly_inverse_q15(
  40:../Dave/Generated/CMSIS_DSP/Source/TransformFunctions/arm_cfft_radix4_q15.c ****         q15_t * pSrc16,
  41:../Dave/Generated/CMSIS_DSP/Source/TransformFunctions/arm_cfft_radix4_q15.c ****         uint32_t fftLen,
  42:../Dave/Generated/CMSIS_DSP/Source/TransformFunctions/arm_cfft_radix4_q15.c ****   const q15_t * pCoef16,
  43:../Dave/Generated/CMSIS_DSP/Source/TransformFunctions/arm_cfft_radix4_q15.c ****         uint32_t twidCoefModifier);
  44:../Dave/Generated/CMSIS_DSP/Source/TransformFunctions/arm_cfft_radix4_q15.c **** 
  45:../Dave/Generated/CMSIS_DSP/Source/TransformFunctions/arm_cfft_radix4_q15.c **** void arm_bitreversal_q15(
  46:../Dave/Generated/CMSIS_DSP/Source/TransformFunctions/arm_cfft_radix4_q15.c ****         q15_t * pSrc,
  47:../Dave/Generated/CMSIS_DSP/Source/TransformFunctions/arm_cfft_radix4_q15.c ****         uint32_t fftLen,
  48:../Dave/Generated/CMSIS_DSP/Source/TransformFunctions/arm_cfft_radix4_q15.c ****         uint16_t bitRevFactor,
  49:../Dave/Generated/CMSIS_DSP/Source/TransformFunctions/arm_cfft_radix4_q15.c ****   const uint16_t * pBitRevTab);
  50:../Dave/Generated/CMSIS_DSP/Source/TransformFunctions/arm_cfft_radix4_q15.c **** 
  51:../Dave/Generated/CMSIS_DSP/Source/TransformFunctions/arm_cfft_radix4_q15.c **** /**
  52:../Dave/Generated/CMSIS_DSP/Source/TransformFunctions/arm_cfft_radix4_q15.c ****   @ingroup groupTransforms
  53:../Dave/Generated/CMSIS_DSP/Source/TransformFunctions/arm_cfft_radix4_q15.c ****  */
  54:../Dave/Generated/CMSIS_DSP/Source/TransformFunctions/arm_cfft_radix4_q15.c **** 
  55:../Dave/Generated/CMSIS_DSP/Source/TransformFunctions/arm_cfft_radix4_q15.c **** /**
  56:../Dave/Generated/CMSIS_DSP/Source/TransformFunctions/arm_cfft_radix4_q15.c ****   @addtogroup ComplexFFT
  57:../Dave/Generated/CMSIS_DSP/Source/TransformFunctions/arm_cfft_radix4_q15.c ****   @{
  58:../Dave/Generated/CMSIS_DSP/Source/TransformFunctions/arm_cfft_radix4_q15.c ****  */
  59:../Dave/Generated/CMSIS_DSP/Source/TransformFunctions/arm_cfft_radix4_q15.c **** 
  60:../Dave/Generated/CMSIS_DSP/Source/TransformFunctions/arm_cfft_radix4_q15.c **** 
  61:../Dave/Generated/CMSIS_DSP/Source/TransformFunctions/arm_cfft_radix4_q15.c **** /**
  62:../Dave/Generated/CMSIS_DSP/Source/TransformFunctions/arm_cfft_radix4_q15.c ****   @brief               Processing function for the Q15 CFFT/CIFFT.
  63:../Dave/Generated/CMSIS_DSP/Source/TransformFunctions/arm_cfft_radix4_q15.c ****   @deprecated          Do not use this function.  It has been superseded by \ref arm_cfft_q15 and w
  64:../Dave/Generated/CMSIS_DSP/Source/TransformFunctions/arm_cfft_radix4_q15.c ****   @param[in]     S     points to an instance of the Q15 CFFT/CIFFT structure.
  65:../Dave/Generated/CMSIS_DSP/Source/TransformFunctions/arm_cfft_radix4_q15.c ****   @param[in,out] pSrc  points to the complex data buffer. Processing occurs in-place.
  66:../Dave/Generated/CMSIS_DSP/Source/TransformFunctions/arm_cfft_radix4_q15.c ****   @return        none
  67:../Dave/Generated/CMSIS_DSP/Source/TransformFunctions/arm_cfft_radix4_q15.c ****  
  68:../Dave/Generated/CMSIS_DSP/Source/TransformFunctions/arm_cfft_radix4_q15.c ****   @par Input and output formats:
  69:../Dave/Generated/CMSIS_DSP/Source/TransformFunctions/arm_cfft_radix4_q15.c ****                  Internally input is downscaled by 2 for every stage to avoid saturations inside CF
  70:../Dave/Generated/CMSIS_DSP/Source/TransformFunctions/arm_cfft_radix4_q15.c ****                  Hence the output format is different for different FFT sizes.
  71:../Dave/Generated/CMSIS_DSP/Source/TransformFunctions/arm_cfft_radix4_q15.c ****                  The input and output formats for different FFT sizes and number of bits to upscale
  72:../Dave/Generated/CMSIS_DSP/Source/TransformFunctions/arm_cfft_radix4_q15.c ****   @par
  73:../Dave/Generated/CMSIS_DSP/Source/TransformFunctions/arm_cfft_radix4_q15.c ****                  \image html CFFTQ15.gif "Input and Output Formats for Q15 CFFT"
  74:../Dave/Generated/CMSIS_DSP/Source/TransformFunctions/arm_cfft_radix4_q15.c ****                  \image html CIFFTQ15.gif "Input and Output Formats for Q15 CIFFT"
  75:../Dave/Generated/CMSIS_DSP/Source/TransformFunctions/arm_cfft_radix4_q15.c ****  */
  76:../Dave/Generated/CMSIS_DSP/Source/TransformFunctions/arm_cfft_radix4_q15.c **** 
  77:../Dave/Generated/CMSIS_DSP/Source/TransformFunctions/arm_cfft_radix4_q15.c **** void arm_cfft_radix4_q15(
  78:../Dave/Generated/CMSIS_DSP/Source/TransformFunctions/arm_cfft_radix4_q15.c ****   const arm_cfft_radix4_instance_q15 * S,
  79:../Dave/Generated/CMSIS_DSP/Source/TransformFunctions/arm_cfft_radix4_q15.c ****         q15_t * pSrc)
  80:../Dave/Generated/CMSIS_DSP/Source/TransformFunctions/arm_cfft_radix4_q15.c **** {
  28              	 .loc 1 80 0
  29              	 .cfi_startproc
  30              	 
  31              	 
  32 0000 80B5     	 push {r7,lr}
  33              	.LCFI0:
  34              	 .cfi_def_cfa_offset 8
  35              	 .cfi_offset 7,-8
  36              	 .cfi_offset 14,-4
  37 0002 82B0     	 sub sp,sp,#8
  38              	.LCFI1:
  39              	 .cfi_def_cfa_offset 16
  40 0004 00AF     	 add r7,sp,#0
  41              	.LCFI2:
  42              	 .cfi_def_cfa_register 7
  43 0006 7860     	 str r0,[r7,#4]
  44 0008 3960     	 str r1,[r7]
  81:../Dave/Generated/CMSIS_DSP/Source/TransformFunctions/arm_cfft_radix4_q15.c ****   if (S->ifftFlag == 1U)
  45              	 .loc 1 81 0
  46 000a 7B68     	 ldr r3,[r7,#4]
  47 000c 9B78     	 ldrb r3,[r3,#2]
  48 000e 012B     	 cmp r3,#1
  49 0010 0AD1     	 bne .L2
  82:../Dave/Generated/CMSIS_DSP/Source/TransformFunctions/arm_cfft_radix4_q15.c ****   {
  83:../Dave/Generated/CMSIS_DSP/Source/TransformFunctions/arm_cfft_radix4_q15.c ****     /*  Complex IFFT radix-4  */
  84:../Dave/Generated/CMSIS_DSP/Source/TransformFunctions/arm_cfft_radix4_q15.c ****     arm_radix4_butterfly_inverse_q15(pSrc, S->fftLen, S->pTwiddle, S->twidCoefModifier);
  50              	 .loc 1 84 0
  51 0012 7B68     	 ldr r3,[r7,#4]
  52 0014 1B88     	 ldrh r3,[r3]
  53 0016 1946     	 mov r1,r3
  54 0018 7B68     	 ldr r3,[r7,#4]
  55 001a 5A68     	 ldr r2,[r3,#4]
  56 001c 7B68     	 ldr r3,[r7,#4]
  57 001e 9B89     	 ldrh r3,[r3,#12]
  58 0020 3868     	 ldr r0,[r7]
  59 0022 FFF7FEFF 	 bl arm_radix4_butterfly_inverse_q15
  60 0026 09E0     	 b .L3
  61              	.L2:
  85:../Dave/Generated/CMSIS_DSP/Source/TransformFunctions/arm_cfft_radix4_q15.c ****   }
  86:../Dave/Generated/CMSIS_DSP/Source/TransformFunctions/arm_cfft_radix4_q15.c ****   else
  87:../Dave/Generated/CMSIS_DSP/Source/TransformFunctions/arm_cfft_radix4_q15.c ****   {
  88:../Dave/Generated/CMSIS_DSP/Source/TransformFunctions/arm_cfft_radix4_q15.c ****     /*  Complex FFT radix-4  */
  89:../Dave/Generated/CMSIS_DSP/Source/TransformFunctions/arm_cfft_radix4_q15.c ****     arm_radix4_butterfly_q15(pSrc, S->fftLen, S->pTwiddle, S->twidCoefModifier);
  62              	 .loc 1 89 0
  63 0028 7B68     	 ldr r3,[r7,#4]
  64 002a 1B88     	 ldrh r3,[r3]
  65 002c 1946     	 mov r1,r3
  66 002e 7B68     	 ldr r3,[r7,#4]
  67 0030 5A68     	 ldr r2,[r3,#4]
  68 0032 7B68     	 ldr r3,[r7,#4]
  69 0034 9B89     	 ldrh r3,[r3,#12]
  70 0036 3868     	 ldr r0,[r7]
  71 0038 FFF7FEFF 	 bl arm_radix4_butterfly_q15
  72              	.L3:
  90:../Dave/Generated/CMSIS_DSP/Source/TransformFunctions/arm_cfft_radix4_q15.c ****   }
  91:../Dave/Generated/CMSIS_DSP/Source/TransformFunctions/arm_cfft_radix4_q15.c **** 
  92:../Dave/Generated/CMSIS_DSP/Source/TransformFunctions/arm_cfft_radix4_q15.c ****   if (S->bitReverseFlag == 1U)
  73              	 .loc 1 92 0
  74 003c 7B68     	 ldr r3,[r7,#4]
  75 003e DB78     	 ldrb r3,[r3,#3]
  76 0040 012B     	 cmp r3,#1
  77 0042 09D1     	 bne .L1
  93:../Dave/Generated/CMSIS_DSP/Source/TransformFunctions/arm_cfft_radix4_q15.c ****   {
  94:../Dave/Generated/CMSIS_DSP/Source/TransformFunctions/arm_cfft_radix4_q15.c ****     /*  Bit Reversal */
  95:../Dave/Generated/CMSIS_DSP/Source/TransformFunctions/arm_cfft_radix4_q15.c ****     arm_bitreversal_q15(pSrc, S->fftLen, S->bitRevFactor, S->pBitRevTable);
  78              	 .loc 1 95 0
  79 0044 7B68     	 ldr r3,[r7,#4]
  80 0046 1B88     	 ldrh r3,[r3]
  81 0048 1946     	 mov r1,r3
  82 004a 7B68     	 ldr r3,[r7,#4]
  83 004c DA89     	 ldrh r2,[r3,#14]
  84 004e 7B68     	 ldr r3,[r7,#4]
  85 0050 9B68     	 ldr r3,[r3,#8]
  86 0052 3868     	 ldr r0,[r7]
  87 0054 FFF7FEFF 	 bl arm_bitreversal_q15
  88              	.L1:
  96:../Dave/Generated/CMSIS_DSP/Source/TransformFunctions/arm_cfft_radix4_q15.c ****   }
  97:../Dave/Generated/CMSIS_DSP/Source/TransformFunctions/arm_cfft_radix4_q15.c **** 
  98:../Dave/Generated/CMSIS_DSP/Source/TransformFunctions/arm_cfft_radix4_q15.c **** }
  89              	 .loc 1 98 0
  90 0058 0837     	 adds r7,r7,#8
  91              	.LCFI3:
  92              	 .cfi_def_cfa_offset 8
  93 005a BD46     	 mov sp,r7
  94              	.LCFI4:
  95              	 .cfi_def_cfa_register 13
  96              	 
  97 005c 80BD     	 pop {r7,pc}
  98              	 .cfi_endproc
  99              	.LFE149:
 101 005e 00BF     	 .section .text.arm_radix4_butterfly_q15,"ax",%progbits
 102              	 .align 2
 103              	 .global arm_radix4_butterfly_q15
 104              	 .thumb
 105              	 .thumb_func
 107              	arm_radix4_butterfly_q15:
 108              	.LFB150:
  99:../Dave/Generated/CMSIS_DSP/Source/TransformFunctions/arm_cfft_radix4_q15.c **** 
 100:../Dave/Generated/CMSIS_DSP/Source/TransformFunctions/arm_cfft_radix4_q15.c **** /**
 101:../Dave/Generated/CMSIS_DSP/Source/TransformFunctions/arm_cfft_radix4_q15.c ****   @} end of ComplexFFT group
 102:../Dave/Generated/CMSIS_DSP/Source/TransformFunctions/arm_cfft_radix4_q15.c ****  */
 103:../Dave/Generated/CMSIS_DSP/Source/TransformFunctions/arm_cfft_radix4_q15.c **** 
 104:../Dave/Generated/CMSIS_DSP/Source/TransformFunctions/arm_cfft_radix4_q15.c **** /*
 105:../Dave/Generated/CMSIS_DSP/Source/TransformFunctions/arm_cfft_radix4_q15.c ****  * Radix-4 FFT algorithm used is :
 106:../Dave/Generated/CMSIS_DSP/Source/TransformFunctions/arm_cfft_radix4_q15.c ****  *
 107:../Dave/Generated/CMSIS_DSP/Source/TransformFunctions/arm_cfft_radix4_q15.c ****  * Input real and imaginary data:
 108:../Dave/Generated/CMSIS_DSP/Source/TransformFunctions/arm_cfft_radix4_q15.c ****  * x(n) = xa + j * ya
 109:../Dave/Generated/CMSIS_DSP/Source/TransformFunctions/arm_cfft_radix4_q15.c ****  * x(n+N/4 ) = xb + j * yb
 110:../Dave/Generated/CMSIS_DSP/Source/TransformFunctions/arm_cfft_radix4_q15.c ****  * x(n+N/2 ) = xc + j * yc
 111:../Dave/Generated/CMSIS_DSP/Source/TransformFunctions/arm_cfft_radix4_q15.c ****  * x(n+3N 4) = xd + j * yd
 112:../Dave/Generated/CMSIS_DSP/Source/TransformFunctions/arm_cfft_radix4_q15.c ****  *
 113:../Dave/Generated/CMSIS_DSP/Source/TransformFunctions/arm_cfft_radix4_q15.c ****  *
 114:../Dave/Generated/CMSIS_DSP/Source/TransformFunctions/arm_cfft_radix4_q15.c ****  * Output real and imaginary data:
 115:../Dave/Generated/CMSIS_DSP/Source/TransformFunctions/arm_cfft_radix4_q15.c ****  * x(4r) = xa'+ j * ya'
 116:../Dave/Generated/CMSIS_DSP/Source/TransformFunctions/arm_cfft_radix4_q15.c ****  * x(4r+1) = xb'+ j * yb'
 117:../Dave/Generated/CMSIS_DSP/Source/TransformFunctions/arm_cfft_radix4_q15.c ****  * x(4r+2) = xc'+ j * yc'
 118:../Dave/Generated/CMSIS_DSP/Source/TransformFunctions/arm_cfft_radix4_q15.c ****  * x(4r+3) = xd'+ j * yd'
 119:../Dave/Generated/CMSIS_DSP/Source/TransformFunctions/arm_cfft_radix4_q15.c ****  *
 120:../Dave/Generated/CMSIS_DSP/Source/TransformFunctions/arm_cfft_radix4_q15.c ****  *
 121:../Dave/Generated/CMSIS_DSP/Source/TransformFunctions/arm_cfft_radix4_q15.c ****  * Twiddle factors for radix-4 FFT:
 122:../Dave/Generated/CMSIS_DSP/Source/TransformFunctions/arm_cfft_radix4_q15.c ****  * Wn = co1 + j * (- si1)
 123:../Dave/Generated/CMSIS_DSP/Source/TransformFunctions/arm_cfft_radix4_q15.c ****  * W2n = co2 + j * (- si2)
 124:../Dave/Generated/CMSIS_DSP/Source/TransformFunctions/arm_cfft_radix4_q15.c ****  * W3n = co3 + j * (- si3)
 125:../Dave/Generated/CMSIS_DSP/Source/TransformFunctions/arm_cfft_radix4_q15.c ****  
 126:../Dave/Generated/CMSIS_DSP/Source/TransformFunctions/arm_cfft_radix4_q15.c ****  * The real and imaginary output values for the radix-4 butterfly are
 127:../Dave/Generated/CMSIS_DSP/Source/TransformFunctions/arm_cfft_radix4_q15.c ****  * xa' = xa + xb + xc + xd
 128:../Dave/Generated/CMSIS_DSP/Source/TransformFunctions/arm_cfft_radix4_q15.c ****  * ya' = ya + yb + yc + yd
 129:../Dave/Generated/CMSIS_DSP/Source/TransformFunctions/arm_cfft_radix4_q15.c ****  * xb' = (xa+yb-xc-yd)* co1 + (ya-xb-yc+xd)* (si1)
 130:../Dave/Generated/CMSIS_DSP/Source/TransformFunctions/arm_cfft_radix4_q15.c ****  * yb' = (ya-xb-yc+xd)* co1 - (xa+yb-xc-yd)* (si1)
 131:../Dave/Generated/CMSIS_DSP/Source/TransformFunctions/arm_cfft_radix4_q15.c ****  * xc' = (xa-xb+xc-xd)* co2 + (ya-yb+yc-yd)* (si2)
 132:../Dave/Generated/CMSIS_DSP/Source/TransformFunctions/arm_cfft_radix4_q15.c ****  * yc' = (ya-yb+yc-yd)* co2 - (xa-xb+xc-xd)* (si2)
 133:../Dave/Generated/CMSIS_DSP/Source/TransformFunctions/arm_cfft_radix4_q15.c ****  * xd' = (xa-yb-xc+yd)* co3 + (ya+xb-yc-xd)* (si3)
 134:../Dave/Generated/CMSIS_DSP/Source/TransformFunctions/arm_cfft_radix4_q15.c ****  * yd' = (ya+xb-yc-xd)* co3 - (xa-yb-xc+yd)* (si3)
 135:../Dave/Generated/CMSIS_DSP/Source/TransformFunctions/arm_cfft_radix4_q15.c ****  *
 136:../Dave/Generated/CMSIS_DSP/Source/TransformFunctions/arm_cfft_radix4_q15.c ****  */
 137:../Dave/Generated/CMSIS_DSP/Source/TransformFunctions/arm_cfft_radix4_q15.c **** 
 138:../Dave/Generated/CMSIS_DSP/Source/TransformFunctions/arm_cfft_radix4_q15.c **** /**
 139:../Dave/Generated/CMSIS_DSP/Source/TransformFunctions/arm_cfft_radix4_q15.c ****   @brief         Core function for the Q15 CFFT butterfly process.
 140:../Dave/Generated/CMSIS_DSP/Source/TransformFunctions/arm_cfft_radix4_q15.c ****   @param[in,out] pSrc16          points to the in-place buffer of Q15 data type
 141:../Dave/Generated/CMSIS_DSP/Source/TransformFunctions/arm_cfft_radix4_q15.c ****   @param[in]     fftLen           length of the FFT
 142:../Dave/Generated/CMSIS_DSP/Source/TransformFunctions/arm_cfft_radix4_q15.c ****   @param[in]     pCoef16         points to twiddle coefficient buffer
 143:../Dave/Generated/CMSIS_DSP/Source/TransformFunctions/arm_cfft_radix4_q15.c ****   @param[in]     twidCoefModifier twiddle coefficient modifier that supports different size FFTs wi
 144:../Dave/Generated/CMSIS_DSP/Source/TransformFunctions/arm_cfft_radix4_q15.c ****   @return        none
 145:../Dave/Generated/CMSIS_DSP/Source/TransformFunctions/arm_cfft_radix4_q15.c ****  */
 146:../Dave/Generated/CMSIS_DSP/Source/TransformFunctions/arm_cfft_radix4_q15.c **** 
 147:../Dave/Generated/CMSIS_DSP/Source/TransformFunctions/arm_cfft_radix4_q15.c **** void arm_radix4_butterfly_q15(
 148:../Dave/Generated/CMSIS_DSP/Source/TransformFunctions/arm_cfft_radix4_q15.c ****         q15_t * pSrc16,
 149:../Dave/Generated/CMSIS_DSP/Source/TransformFunctions/arm_cfft_radix4_q15.c ****         uint32_t fftLen,
 150:../Dave/Generated/CMSIS_DSP/Source/TransformFunctions/arm_cfft_radix4_q15.c ****   const q15_t * pCoef16,
 151:../Dave/Generated/CMSIS_DSP/Source/TransformFunctions/arm_cfft_radix4_q15.c ****         uint32_t twidCoefModifier)
 152:../Dave/Generated/CMSIS_DSP/Source/TransformFunctions/arm_cfft_radix4_q15.c **** {
 109              	 .loc 1 152 0
 110              	 .cfi_startproc
 111              	 
 112              	 
 113 0000 90B5     	 push {r4,r7,lr}
 114              	.LCFI5:
 115              	 .cfi_def_cfa_offset 12
 116              	 .cfi_offset 4,-12
 117              	 .cfi_offset 7,-8
 118              	 .cfi_offset 14,-4
 119 0002 ADF20C4D 	 subw sp,sp,#1036
 120              	.LCFI6:
 121              	 .cfi_def_cfa_offset 1048
 122 0006 00AF     	 add r7,sp,#0
 123              	.LCFI7:
 124              	 .cfi_def_cfa_register 7
 125 0008 07F10C04 	 add r4,r7,#12
 126 000c 2060     	 str r0,[r4]
 127 000e 07F10800 	 add r0,r7,#8
 128 0012 0160     	 str r1,[r0]
 129 0014 391D     	 adds r1,r7,#4
 130 0016 0A60     	 str r2,[r1]
 131 0018 3A46     	 mov r2,r7
 132 001a 1360     	 str r3,[r2]
 153:../Dave/Generated/CMSIS_DSP/Source/TransformFunctions/arm_cfft_radix4_q15.c **** 
 154:../Dave/Generated/CMSIS_DSP/Source/TransformFunctions/arm_cfft_radix4_q15.c **** #if defined (ARM_MATH_DSP)
 155:../Dave/Generated/CMSIS_DSP/Source/TransformFunctions/arm_cfft_radix4_q15.c **** 
 156:../Dave/Generated/CMSIS_DSP/Source/TransformFunctions/arm_cfft_radix4_q15.c ****         q31_t R, S, T, U;
 157:../Dave/Generated/CMSIS_DSP/Source/TransformFunctions/arm_cfft_radix4_q15.c ****         q31_t C1, C2, C3, out1, out2;
 158:../Dave/Generated/CMSIS_DSP/Source/TransformFunctions/arm_cfft_radix4_q15.c ****         uint32_t n1, n2, ic, i0, j, k;
 159:../Dave/Generated/CMSIS_DSP/Source/TransformFunctions/arm_cfft_radix4_q15.c **** 
 160:../Dave/Generated/CMSIS_DSP/Source/TransformFunctions/arm_cfft_radix4_q15.c ****         q15_t *ptr1;
 161:../Dave/Generated/CMSIS_DSP/Source/TransformFunctions/arm_cfft_radix4_q15.c ****         q15_t *pSi0;
 162:../Dave/Generated/CMSIS_DSP/Source/TransformFunctions/arm_cfft_radix4_q15.c ****         q15_t *pSi1;
 163:../Dave/Generated/CMSIS_DSP/Source/TransformFunctions/arm_cfft_radix4_q15.c ****         q15_t *pSi2;
 164:../Dave/Generated/CMSIS_DSP/Source/TransformFunctions/arm_cfft_radix4_q15.c ****         q15_t *pSi3;
 165:../Dave/Generated/CMSIS_DSP/Source/TransformFunctions/arm_cfft_radix4_q15.c **** 
 166:../Dave/Generated/CMSIS_DSP/Source/TransformFunctions/arm_cfft_radix4_q15.c ****         q31_t xaya, xbyb, xcyc, xdyd;
 167:../Dave/Generated/CMSIS_DSP/Source/TransformFunctions/arm_cfft_radix4_q15.c **** 
 168:../Dave/Generated/CMSIS_DSP/Source/TransformFunctions/arm_cfft_radix4_q15.c ****   /* Total process is divided into three stages */
 169:../Dave/Generated/CMSIS_DSP/Source/TransformFunctions/arm_cfft_radix4_q15.c **** 
 170:../Dave/Generated/CMSIS_DSP/Source/TransformFunctions/arm_cfft_radix4_q15.c ****   /* process first stage, middle stages, & last stage */
 171:../Dave/Generated/CMSIS_DSP/Source/TransformFunctions/arm_cfft_radix4_q15.c **** 
 172:../Dave/Generated/CMSIS_DSP/Source/TransformFunctions/arm_cfft_radix4_q15.c ****   /*  Initializations for the first stage */
 173:../Dave/Generated/CMSIS_DSP/Source/TransformFunctions/arm_cfft_radix4_q15.c ****   n2 = fftLen;
 133              	 .loc 1 173 0
 134 001c 07F10803 	 add r3,r7,#8
 135 0020 1B68     	 ldr r3,[r3]
 136 0022 C7F80434 	 str r3,[r7,#1028]
 174:../Dave/Generated/CMSIS_DSP/Source/TransformFunctions/arm_cfft_radix4_q15.c ****   n1 = n2;
 137              	 .loc 1 174 0
 138 0026 D7F80434 	 ldr r3,[r7,#1028]
 139 002a C7F8F033 	 str r3,[r7,#1008]
 175:../Dave/Generated/CMSIS_DSP/Source/TransformFunctions/arm_cfft_radix4_q15.c **** 
 176:../Dave/Generated/CMSIS_DSP/Source/TransformFunctions/arm_cfft_radix4_q15.c ****   /* n2 = fftLen/4 */
 177:../Dave/Generated/CMSIS_DSP/Source/TransformFunctions/arm_cfft_radix4_q15.c ****   n2 >>= 2U;
 140              	 .loc 1 177 0
 141 002e D7F80434 	 ldr r3,[r7,#1028]
 142 0032 9B08     	 lsrs r3,r3,#2
 143 0034 C7F80434 	 str r3,[r7,#1028]
 178:../Dave/Generated/CMSIS_DSP/Source/TransformFunctions/arm_cfft_radix4_q15.c **** 
 179:../Dave/Generated/CMSIS_DSP/Source/TransformFunctions/arm_cfft_radix4_q15.c ****   /* Index for twiddle coefficient */
 180:../Dave/Generated/CMSIS_DSP/Source/TransformFunctions/arm_cfft_radix4_q15.c ****   ic = 0U;
 144              	 .loc 1 180 0
 145 0038 0023     	 movs r3,#0
 146 003a C7F80034 	 str r3,[r7,#1024]
 181:../Dave/Generated/CMSIS_DSP/Source/TransformFunctions/arm_cfft_radix4_q15.c **** 
 182:../Dave/Generated/CMSIS_DSP/Source/TransformFunctions/arm_cfft_radix4_q15.c ****   /* Index for input read and output write */
 183:../Dave/Generated/CMSIS_DSP/Source/TransformFunctions/arm_cfft_radix4_q15.c ****   j = n2;
 147              	 .loc 1 183 0
 148 003e D7F80434 	 ldr r3,[r7,#1028]
 149 0042 C7F8F833 	 str r3,[r7,#1016]
 184:../Dave/Generated/CMSIS_DSP/Source/TransformFunctions/arm_cfft_radix4_q15.c **** 
 185:../Dave/Generated/CMSIS_DSP/Source/TransformFunctions/arm_cfft_radix4_q15.c ****   pSi0 = pSrc16;
 150              	 .loc 1 185 0
 151 0046 07F1A403 	 add r3,r7,#164
 152 004a 07F10C02 	 add r2,r7,#12
 153 004e 1268     	 ldr r2,[r2]
 154 0050 1A60     	 str r2,[r3]
 186:../Dave/Generated/CMSIS_DSP/Source/TransformFunctions/arm_cfft_radix4_q15.c ****   pSi1 = pSi0 + 2 * n2;
 155              	 .loc 1 186 0
 156 0052 07F1A403 	 add r3,r7,#164
 157 0056 1A68     	 ldr r2,[r3]
 158 0058 D7F80434 	 ldr r3,[r7,#1028]
 159 005c 9B00     	 lsls r3,r3,#2
 160 005e 1A44     	 add r2,r2,r3
 161 0060 07F1A003 	 add r3,r7,#160
 162 0064 1A60     	 str r2,[r3]
 187:../Dave/Generated/CMSIS_DSP/Source/TransformFunctions/arm_cfft_radix4_q15.c ****   pSi2 = pSi1 + 2 * n2;
 163              	 .loc 1 187 0
 164 0066 07F1A003 	 add r3,r7,#160
 165 006a 1A68     	 ldr r2,[r3]
 166 006c D7F80434 	 ldr r3,[r7,#1028]
 167 0070 9B00     	 lsls r3,r3,#2
 168 0072 1A44     	 add r2,r2,r3
 169 0074 07F19C03 	 add r3,r7,#156
 170 0078 1A60     	 str r2,[r3]
 188:../Dave/Generated/CMSIS_DSP/Source/TransformFunctions/arm_cfft_radix4_q15.c ****   pSi3 = pSi2 + 2 * n2;
 171              	 .loc 1 188 0
 172 007a 07F19C03 	 add r3,r7,#156
 173 007e 1A68     	 ldr r2,[r3]
 174 0080 D7F80434 	 ldr r3,[r7,#1028]
 175 0084 9B00     	 lsls r3,r3,#2
 176 0086 1A44     	 add r2,r2,r3
 177 0088 07F19803 	 add r3,r7,#152
 178 008c 1A60     	 str r2,[r3]
 179              	.L41:
 189:../Dave/Generated/CMSIS_DSP/Source/TransformFunctions/arm_cfft_radix4_q15.c **** 
 190:../Dave/Generated/CMSIS_DSP/Source/TransformFunctions/arm_cfft_radix4_q15.c ****   /* Input is in 1.15(q15) format */
 191:../Dave/Generated/CMSIS_DSP/Source/TransformFunctions/arm_cfft_radix4_q15.c **** 
 192:../Dave/Generated/CMSIS_DSP/Source/TransformFunctions/arm_cfft_radix4_q15.c ****   /*  start of first stage process */
 193:../Dave/Generated/CMSIS_DSP/Source/TransformFunctions/arm_cfft_radix4_q15.c ****   do
 194:../Dave/Generated/CMSIS_DSP/Source/TransformFunctions/arm_cfft_radix4_q15.c ****   {
 195:../Dave/Generated/CMSIS_DSP/Source/TransformFunctions/arm_cfft_radix4_q15.c ****     /*  Butterfly implementation */
 196:../Dave/Generated/CMSIS_DSP/Source/TransformFunctions/arm_cfft_radix4_q15.c **** 
 197:../Dave/Generated/CMSIS_DSP/Source/TransformFunctions/arm_cfft_radix4_q15.c ****     /* Reading i0, i0+fftLen/2 inputs */
 198:../Dave/Generated/CMSIS_DSP/Source/TransformFunctions/arm_cfft_radix4_q15.c ****     /* Read ya (real), xa(imag) input */
 199:../Dave/Generated/CMSIS_DSP/Source/TransformFunctions/arm_cfft_radix4_q15.c ****     T = read_q15x2 (pSi0);
 180              	 .loc 1 199 0 discriminator 1
 181 008e 07F1A403 	 add r3,r7,#164
 182 0092 1B68     	 ldr r3,[r3]
 183 0094 C7F8B833 	 str r3,[r7,#952]
 184              	.LBB338:
 185              	.LBB339:
 186              	 .file 2 "C:/Users/Rui Mendes/Desktop/DAVE/_Naive/_ForTesting/Dave/Generated/CMSIS_DSP/Include/arm_math.h"
   1:C:/Users/Rui Mendes/Desktop/DAVE/_Naive/_ForTesting/Dave/Generated/CMSIS_DSP/Include\arm_math.h **** /******************************************************************************
   2:C:/Users/Rui Mendes/Desktop/DAVE/_Naive/_ForTesting/Dave/Generated/CMSIS_DSP/Include\arm_math.h ****  * @file     arm_math.h
   3:C:/Users/Rui Mendes/Desktop/DAVE/_Naive/_ForTesting/Dave/Generated/CMSIS_DSP/Include\arm_math.h ****  * @brief    Public header file for CMSIS DSP Library
   4:C:/Users/Rui Mendes/Desktop/DAVE/_Naive/_ForTesting/Dave/Generated/CMSIS_DSP/Include\arm_math.h ****  * @version  V1.7.0
   5:C:/Users/Rui Mendes/Desktop/DAVE/_Naive/_ForTesting/Dave/Generated/CMSIS_DSP/Include\arm_math.h ****  * @date     18. March 2019
   6:C:/Users/Rui Mendes/Desktop/DAVE/_Naive/_ForTesting/Dave/Generated/CMSIS_DSP/Include\arm_math.h ****  ******************************************************************************/
   7:C:/Users/Rui Mendes/Desktop/DAVE/_Naive/_ForTesting/Dave/Generated/CMSIS_DSP/Include\arm_math.h **** /*
   8:C:/Users/Rui Mendes/Desktop/DAVE/_Naive/_ForTesting/Dave/Generated/CMSIS_DSP/Include\arm_math.h ****  * Copyright (c) 2010-2019 Arm Limited or its affiliates. All rights reserved.
   9:C:/Users/Rui Mendes/Desktop/DAVE/_Naive/_ForTesting/Dave/Generated/CMSIS_DSP/Include\arm_math.h ****  *
  10:C:/Users/Rui Mendes/Desktop/DAVE/_Naive/_ForTesting/Dave/Generated/CMSIS_DSP/Include\arm_math.h ****  * SPDX-License-Identifier: Apache-2.0
  11:C:/Users/Rui Mendes/Desktop/DAVE/_Naive/_ForTesting/Dave/Generated/CMSIS_DSP/Include\arm_math.h ****  *
  12:C:/Users/Rui Mendes/Desktop/DAVE/_Naive/_ForTesting/Dave/Generated/CMSIS_DSP/Include\arm_math.h ****  * Licensed under the Apache License, Version 2.0 (the License); you may
  13:C:/Users/Rui Mendes/Desktop/DAVE/_Naive/_ForTesting/Dave/Generated/CMSIS_DSP/Include\arm_math.h ****  * not use this file except in compliance with the License.
  14:C:/Users/Rui Mendes/Desktop/DAVE/_Naive/_ForTesting/Dave/Generated/CMSIS_DSP/Include\arm_math.h ****  * You may obtain a copy of the License at
  15:C:/Users/Rui Mendes/Desktop/DAVE/_Naive/_ForTesting/Dave/Generated/CMSIS_DSP/Include\arm_math.h ****  *
  16:C:/Users/Rui Mendes/Desktop/DAVE/_Naive/_ForTesting/Dave/Generated/CMSIS_DSP/Include\arm_math.h ****  * www.apache.org/licenses/LICENSE-2.0
  17:C:/Users/Rui Mendes/Desktop/DAVE/_Naive/_ForTesting/Dave/Generated/CMSIS_DSP/Include\arm_math.h ****  *
  18:C:/Users/Rui Mendes/Desktop/DAVE/_Naive/_ForTesting/Dave/Generated/CMSIS_DSP/Include\arm_math.h ****  * Unless required by applicable law or agreed to in writing, software
  19:C:/Users/Rui Mendes/Desktop/DAVE/_Naive/_ForTesting/Dave/Generated/CMSIS_DSP/Include\arm_math.h ****  * distributed under the License is distributed on an AS IS BASIS, WITHOUT
  20:C:/Users/Rui Mendes/Desktop/DAVE/_Naive/_ForTesting/Dave/Generated/CMSIS_DSP/Include\arm_math.h ****  * WARRANTIES OR CONDITIONS OF ANY KIND, either express or implied.
  21:C:/Users/Rui Mendes/Desktop/DAVE/_Naive/_ForTesting/Dave/Generated/CMSIS_DSP/Include\arm_math.h ****  * See the License for the specific language governing permissions and
  22:C:/Users/Rui Mendes/Desktop/DAVE/_Naive/_ForTesting/Dave/Generated/CMSIS_DSP/Include\arm_math.h ****  * limitations under the License.
  23:C:/Users/Rui Mendes/Desktop/DAVE/_Naive/_ForTesting/Dave/Generated/CMSIS_DSP/Include\arm_math.h ****  */
  24:C:/Users/Rui Mendes/Desktop/DAVE/_Naive/_ForTesting/Dave/Generated/CMSIS_DSP/Include\arm_math.h **** 
  25:C:/Users/Rui Mendes/Desktop/DAVE/_Naive/_ForTesting/Dave/Generated/CMSIS_DSP/Include\arm_math.h **** /**
  26:C:/Users/Rui Mendes/Desktop/DAVE/_Naive/_ForTesting/Dave/Generated/CMSIS_DSP/Include\arm_math.h ****    \mainpage CMSIS DSP Software Library
  27:C:/Users/Rui Mendes/Desktop/DAVE/_Naive/_ForTesting/Dave/Generated/CMSIS_DSP/Include\arm_math.h ****    *
  28:C:/Users/Rui Mendes/Desktop/DAVE/_Naive/_ForTesting/Dave/Generated/CMSIS_DSP/Include\arm_math.h ****    * Introduction
  29:C:/Users/Rui Mendes/Desktop/DAVE/_Naive/_ForTesting/Dave/Generated/CMSIS_DSP/Include\arm_math.h ****    * ------------
  30:C:/Users/Rui Mendes/Desktop/DAVE/_Naive/_ForTesting/Dave/Generated/CMSIS_DSP/Include\arm_math.h ****    *
  31:C:/Users/Rui Mendes/Desktop/DAVE/_Naive/_ForTesting/Dave/Generated/CMSIS_DSP/Include\arm_math.h ****    * This user manual describes the CMSIS DSP software library,
  32:C:/Users/Rui Mendes/Desktop/DAVE/_Naive/_ForTesting/Dave/Generated/CMSIS_DSP/Include\arm_math.h ****    * a suite of common signal processing functions for use on Cortex-M and Cortex-A processor 
  33:C:/Users/Rui Mendes/Desktop/DAVE/_Naive/_ForTesting/Dave/Generated/CMSIS_DSP/Include\arm_math.h ****    * based devices.
  34:C:/Users/Rui Mendes/Desktop/DAVE/_Naive/_ForTesting/Dave/Generated/CMSIS_DSP/Include\arm_math.h ****    *
  35:C:/Users/Rui Mendes/Desktop/DAVE/_Naive/_ForTesting/Dave/Generated/CMSIS_DSP/Include\arm_math.h ****    * The library is divided into a number of functions each covering a specific category:
  36:C:/Users/Rui Mendes/Desktop/DAVE/_Naive/_ForTesting/Dave/Generated/CMSIS_DSP/Include\arm_math.h ****    * - Basic math functions
  37:C:/Users/Rui Mendes/Desktop/DAVE/_Naive/_ForTesting/Dave/Generated/CMSIS_DSP/Include\arm_math.h ****    * - Fast math functions
  38:C:/Users/Rui Mendes/Desktop/DAVE/_Naive/_ForTesting/Dave/Generated/CMSIS_DSP/Include\arm_math.h ****    * - Complex math functions
  39:C:/Users/Rui Mendes/Desktop/DAVE/_Naive/_ForTesting/Dave/Generated/CMSIS_DSP/Include\arm_math.h ****    * - Filtering functions
  40:C:/Users/Rui Mendes/Desktop/DAVE/_Naive/_ForTesting/Dave/Generated/CMSIS_DSP/Include\arm_math.h ****    * - Matrix functions
  41:C:/Users/Rui Mendes/Desktop/DAVE/_Naive/_ForTesting/Dave/Generated/CMSIS_DSP/Include\arm_math.h ****    * - Transform functions
  42:C:/Users/Rui Mendes/Desktop/DAVE/_Naive/_ForTesting/Dave/Generated/CMSIS_DSP/Include\arm_math.h ****    * - Motor control functions
  43:C:/Users/Rui Mendes/Desktop/DAVE/_Naive/_ForTesting/Dave/Generated/CMSIS_DSP/Include\arm_math.h ****    * - Statistical functions
  44:C:/Users/Rui Mendes/Desktop/DAVE/_Naive/_ForTesting/Dave/Generated/CMSIS_DSP/Include\arm_math.h ****    * - Support functions
  45:C:/Users/Rui Mendes/Desktop/DAVE/_Naive/_ForTesting/Dave/Generated/CMSIS_DSP/Include\arm_math.h ****    * - Interpolation functions
  46:C:/Users/Rui Mendes/Desktop/DAVE/_Naive/_ForTesting/Dave/Generated/CMSIS_DSP/Include\arm_math.h ****    * - Support Vector Machine functions (SVM)
  47:C:/Users/Rui Mendes/Desktop/DAVE/_Naive/_ForTesting/Dave/Generated/CMSIS_DSP/Include\arm_math.h ****    * - Bayes classifier functions
  48:C:/Users/Rui Mendes/Desktop/DAVE/_Naive/_ForTesting/Dave/Generated/CMSIS_DSP/Include\arm_math.h ****    * - Distance functions
  49:C:/Users/Rui Mendes/Desktop/DAVE/_Naive/_ForTesting/Dave/Generated/CMSIS_DSP/Include\arm_math.h ****    *
  50:C:/Users/Rui Mendes/Desktop/DAVE/_Naive/_ForTesting/Dave/Generated/CMSIS_DSP/Include\arm_math.h ****    * The library has generally separate functions for operating on 8-bit integers, 16-bit integers,
  51:C:/Users/Rui Mendes/Desktop/DAVE/_Naive/_ForTesting/Dave/Generated/CMSIS_DSP/Include\arm_math.h ****    * 32-bit integer and 32-bit floating-point values.
  52:C:/Users/Rui Mendes/Desktop/DAVE/_Naive/_ForTesting/Dave/Generated/CMSIS_DSP/Include\arm_math.h ****    *
  53:C:/Users/Rui Mendes/Desktop/DAVE/_Naive/_ForTesting/Dave/Generated/CMSIS_DSP/Include\arm_math.h ****    * Using the Library
  54:C:/Users/Rui Mendes/Desktop/DAVE/_Naive/_ForTesting/Dave/Generated/CMSIS_DSP/Include\arm_math.h ****    * ------------
  55:C:/Users/Rui Mendes/Desktop/DAVE/_Naive/_ForTesting/Dave/Generated/CMSIS_DSP/Include\arm_math.h ****    *
  56:C:/Users/Rui Mendes/Desktop/DAVE/_Naive/_ForTesting/Dave/Generated/CMSIS_DSP/Include\arm_math.h ****    * The library installer contains prebuilt versions of the libraries in the <code>Lib</code> fold
  57:C:/Users/Rui Mendes/Desktop/DAVE/_Naive/_ForTesting/Dave/Generated/CMSIS_DSP/Include\arm_math.h ****    *
  58:C:/Users/Rui Mendes/Desktop/DAVE/_Naive/_ForTesting/Dave/Generated/CMSIS_DSP/Include\arm_math.h ****    * Here is the list of pre-built libraries :
  59:C:/Users/Rui Mendes/Desktop/DAVE/_Naive/_ForTesting/Dave/Generated/CMSIS_DSP/Include\arm_math.h ****    * - arm_cortexM7lfdp_math.lib (Cortex-M7, Little endian, Double Precision Floating Point Unit)
  60:C:/Users/Rui Mendes/Desktop/DAVE/_Naive/_ForTesting/Dave/Generated/CMSIS_DSP/Include\arm_math.h ****    * - arm_cortexM7bfdp_math.lib (Cortex-M7, Big endian, Double Precision Floating Point Unit)
  61:C:/Users/Rui Mendes/Desktop/DAVE/_Naive/_ForTesting/Dave/Generated/CMSIS_DSP/Include\arm_math.h ****    * - arm_cortexM7lfsp_math.lib (Cortex-M7, Little endian, Single Precision Floating Point Unit)
  62:C:/Users/Rui Mendes/Desktop/DAVE/_Naive/_ForTesting/Dave/Generated/CMSIS_DSP/Include\arm_math.h ****    * - arm_cortexM7bfsp_math.lib (Cortex-M7, Big endian and Single Precision Floating Point Unit on
  63:C:/Users/Rui Mendes/Desktop/DAVE/_Naive/_ForTesting/Dave/Generated/CMSIS_DSP/Include\arm_math.h ****    * - arm_cortexM7l_math.lib (Cortex-M7, Little endian)
  64:C:/Users/Rui Mendes/Desktop/DAVE/_Naive/_ForTesting/Dave/Generated/CMSIS_DSP/Include\arm_math.h ****    * - arm_cortexM7b_math.lib (Cortex-M7, Big endian)
  65:C:/Users/Rui Mendes/Desktop/DAVE/_Naive/_ForTesting/Dave/Generated/CMSIS_DSP/Include\arm_math.h ****    * - arm_cortexM4lf_math.lib (Cortex-M4, Little endian, Floating Point Unit)
  66:C:/Users/Rui Mendes/Desktop/DAVE/_Naive/_ForTesting/Dave/Generated/CMSIS_DSP/Include\arm_math.h ****    * - arm_cortexM4bf_math.lib (Cortex-M4, Big endian, Floating Point Unit)
  67:C:/Users/Rui Mendes/Desktop/DAVE/_Naive/_ForTesting/Dave/Generated/CMSIS_DSP/Include\arm_math.h ****    * - arm_cortexM4l_math.lib (Cortex-M4, Little endian)
  68:C:/Users/Rui Mendes/Desktop/DAVE/_Naive/_ForTesting/Dave/Generated/CMSIS_DSP/Include\arm_math.h ****    * - arm_cortexM4b_math.lib (Cortex-M4, Big endian)
  69:C:/Users/Rui Mendes/Desktop/DAVE/_Naive/_ForTesting/Dave/Generated/CMSIS_DSP/Include\arm_math.h ****    * - arm_cortexM3l_math.lib (Cortex-M3, Little endian)
  70:C:/Users/Rui Mendes/Desktop/DAVE/_Naive/_ForTesting/Dave/Generated/CMSIS_DSP/Include\arm_math.h ****    * - arm_cortexM3b_math.lib (Cortex-M3, Big endian)
  71:C:/Users/Rui Mendes/Desktop/DAVE/_Naive/_ForTesting/Dave/Generated/CMSIS_DSP/Include\arm_math.h ****    * - arm_cortexM0l_math.lib (Cortex-M0 / Cortex-M0+, Little endian)
  72:C:/Users/Rui Mendes/Desktop/DAVE/_Naive/_ForTesting/Dave/Generated/CMSIS_DSP/Include\arm_math.h ****    * - arm_cortexM0b_math.lib (Cortex-M0 / Cortex-M0+, Big endian)
  73:C:/Users/Rui Mendes/Desktop/DAVE/_Naive/_ForTesting/Dave/Generated/CMSIS_DSP/Include\arm_math.h ****    * - arm_ARMv8MBLl_math.lib (Armv8-M Baseline, Little endian)
  74:C:/Users/Rui Mendes/Desktop/DAVE/_Naive/_ForTesting/Dave/Generated/CMSIS_DSP/Include\arm_math.h ****    * - arm_ARMv8MMLl_math.lib (Armv8-M Mainline, Little endian)
  75:C:/Users/Rui Mendes/Desktop/DAVE/_Naive/_ForTesting/Dave/Generated/CMSIS_DSP/Include\arm_math.h ****    * - arm_ARMv8MMLlfsp_math.lib (Armv8-M Mainline, Little endian, Single Precision Floating Point 
  76:C:/Users/Rui Mendes/Desktop/DAVE/_Naive/_ForTesting/Dave/Generated/CMSIS_DSP/Include\arm_math.h ****    * - arm_ARMv8MMLld_math.lib (Armv8-M Mainline, Little endian, DSP instructions)
  77:C:/Users/Rui Mendes/Desktop/DAVE/_Naive/_ForTesting/Dave/Generated/CMSIS_DSP/Include\arm_math.h ****    * - arm_ARMv8MMLldfsp_math.lib (Armv8-M Mainline, Little endian, DSP instructions, Single Precis
  78:C:/Users/Rui Mendes/Desktop/DAVE/_Naive/_ForTesting/Dave/Generated/CMSIS_DSP/Include\arm_math.h ****    *
  79:C:/Users/Rui Mendes/Desktop/DAVE/_Naive/_ForTesting/Dave/Generated/CMSIS_DSP/Include\arm_math.h ****    * The library functions are declared in the public file <code>arm_math.h</code> which is placed 
  80:C:/Users/Rui Mendes/Desktop/DAVE/_Naive/_ForTesting/Dave/Generated/CMSIS_DSP/Include\arm_math.h ****    * Simply include this file and link the appropriate library in the application and begin calling
  81:C:/Users/Rui Mendes/Desktop/DAVE/_Naive/_ForTesting/Dave/Generated/CMSIS_DSP/Include\arm_math.h ****    * public header file <code> arm_math.h</code> for Cortex-M cores with little endian and big endi
  82:C:/Users/Rui Mendes/Desktop/DAVE/_Naive/_ForTesting/Dave/Generated/CMSIS_DSP/Include\arm_math.h ****    *
  83:C:/Users/Rui Mendes/Desktop/DAVE/_Naive/_ForTesting/Dave/Generated/CMSIS_DSP/Include\arm_math.h ****    *
  84:C:/Users/Rui Mendes/Desktop/DAVE/_Naive/_ForTesting/Dave/Generated/CMSIS_DSP/Include\arm_math.h ****    * Examples
  85:C:/Users/Rui Mendes/Desktop/DAVE/_Naive/_ForTesting/Dave/Generated/CMSIS_DSP/Include\arm_math.h ****    * --------
  86:C:/Users/Rui Mendes/Desktop/DAVE/_Naive/_ForTesting/Dave/Generated/CMSIS_DSP/Include\arm_math.h ****    *
  87:C:/Users/Rui Mendes/Desktop/DAVE/_Naive/_ForTesting/Dave/Generated/CMSIS_DSP/Include\arm_math.h ****    * The library ships with a number of examples which demonstrate how to use the library functions
  88:C:/Users/Rui Mendes/Desktop/DAVE/_Naive/_ForTesting/Dave/Generated/CMSIS_DSP/Include\arm_math.h ****    *
  89:C:/Users/Rui Mendes/Desktop/DAVE/_Naive/_ForTesting/Dave/Generated/CMSIS_DSP/Include\arm_math.h ****    * Toolchain Support
  90:C:/Users/Rui Mendes/Desktop/DAVE/_Naive/_ForTesting/Dave/Generated/CMSIS_DSP/Include\arm_math.h ****    * ------------
  91:C:/Users/Rui Mendes/Desktop/DAVE/_Naive/_ForTesting/Dave/Generated/CMSIS_DSP/Include\arm_math.h ****    *
  92:C:/Users/Rui Mendes/Desktop/DAVE/_Naive/_ForTesting/Dave/Generated/CMSIS_DSP/Include\arm_math.h ****    * The library is now tested on Fast Models building with cmake.
  93:C:/Users/Rui Mendes/Desktop/DAVE/_Naive/_ForTesting/Dave/Generated/CMSIS_DSP/Include\arm_math.h ****    * Core M0, M7, A5 are tested.
  94:C:/Users/Rui Mendes/Desktop/DAVE/_Naive/_ForTesting/Dave/Generated/CMSIS_DSP/Include\arm_math.h ****    * 
  95:C:/Users/Rui Mendes/Desktop/DAVE/_Naive/_ForTesting/Dave/Generated/CMSIS_DSP/Include\arm_math.h ****    * 
  96:C:/Users/Rui Mendes/Desktop/DAVE/_Naive/_ForTesting/Dave/Generated/CMSIS_DSP/Include\arm_math.h ****    *
  97:C:/Users/Rui Mendes/Desktop/DAVE/_Naive/_ForTesting/Dave/Generated/CMSIS_DSP/Include\arm_math.h ****    * Building the Library
  98:C:/Users/Rui Mendes/Desktop/DAVE/_Naive/_ForTesting/Dave/Generated/CMSIS_DSP/Include\arm_math.h ****    * ------------
  99:C:/Users/Rui Mendes/Desktop/DAVE/_Naive/_ForTesting/Dave/Generated/CMSIS_DSP/Include\arm_math.h ****    *
 100:C:/Users/Rui Mendes/Desktop/DAVE/_Naive/_ForTesting/Dave/Generated/CMSIS_DSP/Include\arm_math.h ****    * The library installer contains a project file to rebuild libraries on MDK toolchain in the <co
 101:C:/Users/Rui Mendes/Desktop/DAVE/_Naive/_ForTesting/Dave/Generated/CMSIS_DSP/Include\arm_math.h ****    * - arm_cortexM_math.uvprojx
 102:C:/Users/Rui Mendes/Desktop/DAVE/_Naive/_ForTesting/Dave/Generated/CMSIS_DSP/Include\arm_math.h ****    *
 103:C:/Users/Rui Mendes/Desktop/DAVE/_Naive/_ForTesting/Dave/Generated/CMSIS_DSP/Include\arm_math.h ****    *
 104:C:/Users/Rui Mendes/Desktop/DAVE/_Naive/_ForTesting/Dave/Generated/CMSIS_DSP/Include\arm_math.h ****    * The libraries can be built by opening the arm_cortexM_math.uvprojx project in MDK-ARM, selecti
 105:C:/Users/Rui Mendes/Desktop/DAVE/_Naive/_ForTesting/Dave/Generated/CMSIS_DSP/Include\arm_math.h ****    *
 106:C:/Users/Rui Mendes/Desktop/DAVE/_Naive/_ForTesting/Dave/Generated/CMSIS_DSP/Include\arm_math.h ****    * There is also a work in progress cmake build. The README file is giving more details.
 107:C:/Users/Rui Mendes/Desktop/DAVE/_Naive/_ForTesting/Dave/Generated/CMSIS_DSP/Include\arm_math.h ****    *
 108:C:/Users/Rui Mendes/Desktop/DAVE/_Naive/_ForTesting/Dave/Generated/CMSIS_DSP/Include\arm_math.h ****    * Preprocessor Macros
 109:C:/Users/Rui Mendes/Desktop/DAVE/_Naive/_ForTesting/Dave/Generated/CMSIS_DSP/Include\arm_math.h ****    * ------------
 110:C:/Users/Rui Mendes/Desktop/DAVE/_Naive/_ForTesting/Dave/Generated/CMSIS_DSP/Include\arm_math.h ****    *
 111:C:/Users/Rui Mendes/Desktop/DAVE/_Naive/_ForTesting/Dave/Generated/CMSIS_DSP/Include\arm_math.h ****    * Each library project have different preprocessor macros.
 112:C:/Users/Rui Mendes/Desktop/DAVE/_Naive/_ForTesting/Dave/Generated/CMSIS_DSP/Include\arm_math.h ****    *
 113:C:/Users/Rui Mendes/Desktop/DAVE/_Naive/_ForTesting/Dave/Generated/CMSIS_DSP/Include\arm_math.h ****    * - ARM_MATH_BIG_ENDIAN:
 114:C:/Users/Rui Mendes/Desktop/DAVE/_Naive/_ForTesting/Dave/Generated/CMSIS_DSP/Include\arm_math.h ****    *
 115:C:/Users/Rui Mendes/Desktop/DAVE/_Naive/_ForTesting/Dave/Generated/CMSIS_DSP/Include\arm_math.h ****    * Define macro ARM_MATH_BIG_ENDIAN to build the library for big endian targets. By default libra
 116:C:/Users/Rui Mendes/Desktop/DAVE/_Naive/_ForTesting/Dave/Generated/CMSIS_DSP/Include\arm_math.h ****    *
 117:C:/Users/Rui Mendes/Desktop/DAVE/_Naive/_ForTesting/Dave/Generated/CMSIS_DSP/Include\arm_math.h ****    * - ARM_MATH_MATRIX_CHECK:
 118:C:/Users/Rui Mendes/Desktop/DAVE/_Naive/_ForTesting/Dave/Generated/CMSIS_DSP/Include\arm_math.h ****    *
 119:C:/Users/Rui Mendes/Desktop/DAVE/_Naive/_ForTesting/Dave/Generated/CMSIS_DSP/Include\arm_math.h ****    * Define macro ARM_MATH_MATRIX_CHECK for checking on the input and output sizes of matrices
 120:C:/Users/Rui Mendes/Desktop/DAVE/_Naive/_ForTesting/Dave/Generated/CMSIS_DSP/Include\arm_math.h ****    *
 121:C:/Users/Rui Mendes/Desktop/DAVE/_Naive/_ForTesting/Dave/Generated/CMSIS_DSP/Include\arm_math.h ****    * - ARM_MATH_ROUNDING:
 122:C:/Users/Rui Mendes/Desktop/DAVE/_Naive/_ForTesting/Dave/Generated/CMSIS_DSP/Include\arm_math.h ****    *
 123:C:/Users/Rui Mendes/Desktop/DAVE/_Naive/_ForTesting/Dave/Generated/CMSIS_DSP/Include\arm_math.h ****    * Define macro ARM_MATH_ROUNDING for rounding on support functions
 124:C:/Users/Rui Mendes/Desktop/DAVE/_Naive/_ForTesting/Dave/Generated/CMSIS_DSP/Include\arm_math.h ****    *
 125:C:/Users/Rui Mendes/Desktop/DAVE/_Naive/_ForTesting/Dave/Generated/CMSIS_DSP/Include\arm_math.h ****    * - ARM_MATH_LOOPUNROLL:
 126:C:/Users/Rui Mendes/Desktop/DAVE/_Naive/_ForTesting/Dave/Generated/CMSIS_DSP/Include\arm_math.h ****    *
 127:C:/Users/Rui Mendes/Desktop/DAVE/_Naive/_ForTesting/Dave/Generated/CMSIS_DSP/Include\arm_math.h ****    * Define macro ARM_MATH_LOOPUNROLL to enable manual loop unrolling in DSP functions
 128:C:/Users/Rui Mendes/Desktop/DAVE/_Naive/_ForTesting/Dave/Generated/CMSIS_DSP/Include\arm_math.h ****    *
 129:C:/Users/Rui Mendes/Desktop/DAVE/_Naive/_ForTesting/Dave/Generated/CMSIS_DSP/Include\arm_math.h ****    * - ARM_MATH_NEON:
 130:C:/Users/Rui Mendes/Desktop/DAVE/_Naive/_ForTesting/Dave/Generated/CMSIS_DSP/Include\arm_math.h ****    *
 131:C:/Users/Rui Mendes/Desktop/DAVE/_Naive/_ForTesting/Dave/Generated/CMSIS_DSP/Include\arm_math.h ****    * Define macro ARM_MATH_NEON to enable Neon versions of the DSP functions.
 132:C:/Users/Rui Mendes/Desktop/DAVE/_Naive/_ForTesting/Dave/Generated/CMSIS_DSP/Include\arm_math.h ****    * It is not enabled by default when Neon is available because performances are 
 133:C:/Users/Rui Mendes/Desktop/DAVE/_Naive/_ForTesting/Dave/Generated/CMSIS_DSP/Include\arm_math.h ****    * dependent on the compiler and target architecture.
 134:C:/Users/Rui Mendes/Desktop/DAVE/_Naive/_ForTesting/Dave/Generated/CMSIS_DSP/Include\arm_math.h ****    *
 135:C:/Users/Rui Mendes/Desktop/DAVE/_Naive/_ForTesting/Dave/Generated/CMSIS_DSP/Include\arm_math.h ****    * - ARM_MATH_NEON_EXPERIMENTAL:
 136:C:/Users/Rui Mendes/Desktop/DAVE/_Naive/_ForTesting/Dave/Generated/CMSIS_DSP/Include\arm_math.h ****    *
 137:C:/Users/Rui Mendes/Desktop/DAVE/_Naive/_ForTesting/Dave/Generated/CMSIS_DSP/Include\arm_math.h ****    * Define macro ARM_MATH_NEON_EXPERIMENTAL to enable experimental Neon versions of 
 138:C:/Users/Rui Mendes/Desktop/DAVE/_Naive/_ForTesting/Dave/Generated/CMSIS_DSP/Include\arm_math.h ****    * of some DSP functions. Experimental Neon versions currently do not have better
 139:C:/Users/Rui Mendes/Desktop/DAVE/_Naive/_ForTesting/Dave/Generated/CMSIS_DSP/Include\arm_math.h ****    * performances than the scalar versions.
 140:C:/Users/Rui Mendes/Desktop/DAVE/_Naive/_ForTesting/Dave/Generated/CMSIS_DSP/Include\arm_math.h ****    *
 141:C:/Users/Rui Mendes/Desktop/DAVE/_Naive/_ForTesting/Dave/Generated/CMSIS_DSP/Include\arm_math.h ****    * - ARM_MATH_HELIUM:
 142:C:/Users/Rui Mendes/Desktop/DAVE/_Naive/_ForTesting/Dave/Generated/CMSIS_DSP/Include\arm_math.h ****    *
 143:C:/Users/Rui Mendes/Desktop/DAVE/_Naive/_ForTesting/Dave/Generated/CMSIS_DSP/Include\arm_math.h ****    * It implies the flags ARM_MATH_MVEF and ARM_MATH_MVEI and ARM_MATH_FLOAT16.
 144:C:/Users/Rui Mendes/Desktop/DAVE/_Naive/_ForTesting/Dave/Generated/CMSIS_DSP/Include\arm_math.h ****    *
 145:C:/Users/Rui Mendes/Desktop/DAVE/_Naive/_ForTesting/Dave/Generated/CMSIS_DSP/Include\arm_math.h ****    * - ARM_MATH_MVEF:
 146:C:/Users/Rui Mendes/Desktop/DAVE/_Naive/_ForTesting/Dave/Generated/CMSIS_DSP/Include\arm_math.h ****    *
 147:C:/Users/Rui Mendes/Desktop/DAVE/_Naive/_ForTesting/Dave/Generated/CMSIS_DSP/Include\arm_math.h ****    * Select Helium versions of the f32 algorithms.
 148:C:/Users/Rui Mendes/Desktop/DAVE/_Naive/_ForTesting/Dave/Generated/CMSIS_DSP/Include\arm_math.h ****    * It implies ARM_MATH_FLOAT16 and ARM_MATH_MVEI.
 149:C:/Users/Rui Mendes/Desktop/DAVE/_Naive/_ForTesting/Dave/Generated/CMSIS_DSP/Include\arm_math.h ****    *
 150:C:/Users/Rui Mendes/Desktop/DAVE/_Naive/_ForTesting/Dave/Generated/CMSIS_DSP/Include\arm_math.h ****    * - ARM_MATH_MVEI:
 151:C:/Users/Rui Mendes/Desktop/DAVE/_Naive/_ForTesting/Dave/Generated/CMSIS_DSP/Include\arm_math.h ****    *
 152:C:/Users/Rui Mendes/Desktop/DAVE/_Naive/_ForTesting/Dave/Generated/CMSIS_DSP/Include\arm_math.h ****    * Select Helium versions of the int and fixed point algorithms.
 153:C:/Users/Rui Mendes/Desktop/DAVE/_Naive/_ForTesting/Dave/Generated/CMSIS_DSP/Include\arm_math.h ****    *
 154:C:/Users/Rui Mendes/Desktop/DAVE/_Naive/_ForTesting/Dave/Generated/CMSIS_DSP/Include\arm_math.h ****    * - ARM_MATH_FLOAT16:
 155:C:/Users/Rui Mendes/Desktop/DAVE/_Naive/_ForTesting/Dave/Generated/CMSIS_DSP/Include\arm_math.h ****    *
 156:C:/Users/Rui Mendes/Desktop/DAVE/_Naive/_ForTesting/Dave/Generated/CMSIS_DSP/Include\arm_math.h ****    * Float16 implementations of some algorithms (Requires MVE extension).
 157:C:/Users/Rui Mendes/Desktop/DAVE/_Naive/_ForTesting/Dave/Generated/CMSIS_DSP/Include\arm_math.h ****    *
 158:C:/Users/Rui Mendes/Desktop/DAVE/_Naive/_ForTesting/Dave/Generated/CMSIS_DSP/Include\arm_math.h ****    * <hr>
 159:C:/Users/Rui Mendes/Desktop/DAVE/_Naive/_ForTesting/Dave/Generated/CMSIS_DSP/Include\arm_math.h ****    * CMSIS-DSP in ARM::CMSIS Pack
 160:C:/Users/Rui Mendes/Desktop/DAVE/_Naive/_ForTesting/Dave/Generated/CMSIS_DSP/Include\arm_math.h ****    * -----------------------------
 161:C:/Users/Rui Mendes/Desktop/DAVE/_Naive/_ForTesting/Dave/Generated/CMSIS_DSP/Include\arm_math.h ****    *
 162:C:/Users/Rui Mendes/Desktop/DAVE/_Naive/_ForTesting/Dave/Generated/CMSIS_DSP/Include\arm_math.h ****    * The following files relevant to CMSIS-DSP are present in the <b>ARM::CMSIS</b> Pack directorie
 163:C:/Users/Rui Mendes/Desktop/DAVE/_Naive/_ForTesting/Dave/Generated/CMSIS_DSP/Include\arm_math.h ****    * |File/Folder                      |Content                                                    
 164:C:/Users/Rui Mendes/Desktop/DAVE/_Naive/_ForTesting/Dave/Generated/CMSIS_DSP/Include\arm_math.h ****    * |---------------------------------|-----------------------------------------------------------
 165:C:/Users/Rui Mendes/Desktop/DAVE/_Naive/_ForTesting/Dave/Generated/CMSIS_DSP/Include\arm_math.h ****    * |\b CMSIS\\Documentation\\DSP     | This documentation                                        
 166:C:/Users/Rui Mendes/Desktop/DAVE/_Naive/_ForTesting/Dave/Generated/CMSIS_DSP/Include\arm_math.h ****    * |\b CMSIS\\DSP\\DSP_Lib_TestSuite | DSP_Lib test suite                                        
 167:C:/Users/Rui Mendes/Desktop/DAVE/_Naive/_ForTesting/Dave/Generated/CMSIS_DSP/Include\arm_math.h ****    * |\b CMSIS\\DSP\\Examples          | Example projects demonstrating the usage of the library fu
 168:C:/Users/Rui Mendes/Desktop/DAVE/_Naive/_ForTesting/Dave/Generated/CMSIS_DSP/Include\arm_math.h ****    * |\b CMSIS\\DSP\\Include           | DSP_Lib include files                                     
 169:C:/Users/Rui Mendes/Desktop/DAVE/_Naive/_ForTesting/Dave/Generated/CMSIS_DSP/Include\arm_math.h ****    * |\b CMSIS\\DSP\\Lib               | DSP_Lib binaries                                          
 170:C:/Users/Rui Mendes/Desktop/DAVE/_Naive/_ForTesting/Dave/Generated/CMSIS_DSP/Include\arm_math.h ****    * |\b CMSIS\\DSP\\Projects          | Projects to rebuild DSP_Lib binaries                      
 171:C:/Users/Rui Mendes/Desktop/DAVE/_Naive/_ForTesting/Dave/Generated/CMSIS_DSP/Include\arm_math.h ****    * |\b CMSIS\\DSP\\Source            | DSP_Lib source files                                      
 172:C:/Users/Rui Mendes/Desktop/DAVE/_Naive/_ForTesting/Dave/Generated/CMSIS_DSP/Include\arm_math.h ****    *
 173:C:/Users/Rui Mendes/Desktop/DAVE/_Naive/_ForTesting/Dave/Generated/CMSIS_DSP/Include\arm_math.h ****    * <hr>
 174:C:/Users/Rui Mendes/Desktop/DAVE/_Naive/_ForTesting/Dave/Generated/CMSIS_DSP/Include\arm_math.h ****    * Revision History of CMSIS-DSP
 175:C:/Users/Rui Mendes/Desktop/DAVE/_Naive/_ForTesting/Dave/Generated/CMSIS_DSP/Include\arm_math.h ****    * ------------
 176:C:/Users/Rui Mendes/Desktop/DAVE/_Naive/_ForTesting/Dave/Generated/CMSIS_DSP/Include\arm_math.h ****    * Please refer to \ref ChangeLog_pg.
 177:C:/Users/Rui Mendes/Desktop/DAVE/_Naive/_ForTesting/Dave/Generated/CMSIS_DSP/Include\arm_math.h ****    */
 178:C:/Users/Rui Mendes/Desktop/DAVE/_Naive/_ForTesting/Dave/Generated/CMSIS_DSP/Include\arm_math.h **** 
 179:C:/Users/Rui Mendes/Desktop/DAVE/_Naive/_ForTesting/Dave/Generated/CMSIS_DSP/Include\arm_math.h **** 
 180:C:/Users/Rui Mendes/Desktop/DAVE/_Naive/_ForTesting/Dave/Generated/CMSIS_DSP/Include\arm_math.h **** /**
 181:C:/Users/Rui Mendes/Desktop/DAVE/_Naive/_ForTesting/Dave/Generated/CMSIS_DSP/Include\arm_math.h ****  * @defgroup groupMath Basic Math Functions
 182:C:/Users/Rui Mendes/Desktop/DAVE/_Naive/_ForTesting/Dave/Generated/CMSIS_DSP/Include\arm_math.h ****  */
 183:C:/Users/Rui Mendes/Desktop/DAVE/_Naive/_ForTesting/Dave/Generated/CMSIS_DSP/Include\arm_math.h **** 
 184:C:/Users/Rui Mendes/Desktop/DAVE/_Naive/_ForTesting/Dave/Generated/CMSIS_DSP/Include\arm_math.h **** /**
 185:C:/Users/Rui Mendes/Desktop/DAVE/_Naive/_ForTesting/Dave/Generated/CMSIS_DSP/Include\arm_math.h ****  * @defgroup groupFastMath Fast Math Functions
 186:C:/Users/Rui Mendes/Desktop/DAVE/_Naive/_ForTesting/Dave/Generated/CMSIS_DSP/Include\arm_math.h ****  * This set of functions provides a fast approximation to sine, cosine, and square root.
 187:C:/Users/Rui Mendes/Desktop/DAVE/_Naive/_ForTesting/Dave/Generated/CMSIS_DSP/Include\arm_math.h ****  * As compared to most of the other functions in the CMSIS math library, the fast math functions
 188:C:/Users/Rui Mendes/Desktop/DAVE/_Naive/_ForTesting/Dave/Generated/CMSIS_DSP/Include\arm_math.h ****  * operate on individual values and not arrays.
 189:C:/Users/Rui Mendes/Desktop/DAVE/_Naive/_ForTesting/Dave/Generated/CMSIS_DSP/Include\arm_math.h ****  * There are separate functions for Q15, Q31, and floating-point data.
 190:C:/Users/Rui Mendes/Desktop/DAVE/_Naive/_ForTesting/Dave/Generated/CMSIS_DSP/Include\arm_math.h ****  *
 191:C:/Users/Rui Mendes/Desktop/DAVE/_Naive/_ForTesting/Dave/Generated/CMSIS_DSP/Include\arm_math.h ****  */
 192:C:/Users/Rui Mendes/Desktop/DAVE/_Naive/_ForTesting/Dave/Generated/CMSIS_DSP/Include\arm_math.h **** 
 193:C:/Users/Rui Mendes/Desktop/DAVE/_Naive/_ForTesting/Dave/Generated/CMSIS_DSP/Include\arm_math.h **** /**
 194:C:/Users/Rui Mendes/Desktop/DAVE/_Naive/_ForTesting/Dave/Generated/CMSIS_DSP/Include\arm_math.h ****  * @defgroup groupCmplxMath Complex Math Functions
 195:C:/Users/Rui Mendes/Desktop/DAVE/_Naive/_ForTesting/Dave/Generated/CMSIS_DSP/Include\arm_math.h ****  * This set of functions operates on complex data vectors.
 196:C:/Users/Rui Mendes/Desktop/DAVE/_Naive/_ForTesting/Dave/Generated/CMSIS_DSP/Include\arm_math.h ****  * The data in the complex arrays is stored in an interleaved fashion
 197:C:/Users/Rui Mendes/Desktop/DAVE/_Naive/_ForTesting/Dave/Generated/CMSIS_DSP/Include\arm_math.h ****  * (real, imag, real, imag, ...).
 198:C:/Users/Rui Mendes/Desktop/DAVE/_Naive/_ForTesting/Dave/Generated/CMSIS_DSP/Include\arm_math.h ****  * In the API functions, the number of samples in a complex array refers
 199:C:/Users/Rui Mendes/Desktop/DAVE/_Naive/_ForTesting/Dave/Generated/CMSIS_DSP/Include\arm_math.h ****  * to the number of complex values; the array contains twice this number of
 200:C:/Users/Rui Mendes/Desktop/DAVE/_Naive/_ForTesting/Dave/Generated/CMSIS_DSP/Include\arm_math.h ****  * real values.
 201:C:/Users/Rui Mendes/Desktop/DAVE/_Naive/_ForTesting/Dave/Generated/CMSIS_DSP/Include\arm_math.h ****  */
 202:C:/Users/Rui Mendes/Desktop/DAVE/_Naive/_ForTesting/Dave/Generated/CMSIS_DSP/Include\arm_math.h **** 
 203:C:/Users/Rui Mendes/Desktop/DAVE/_Naive/_ForTesting/Dave/Generated/CMSIS_DSP/Include\arm_math.h **** /**
 204:C:/Users/Rui Mendes/Desktop/DAVE/_Naive/_ForTesting/Dave/Generated/CMSIS_DSP/Include\arm_math.h ****  * @defgroup groupFilters Filtering Functions
 205:C:/Users/Rui Mendes/Desktop/DAVE/_Naive/_ForTesting/Dave/Generated/CMSIS_DSP/Include\arm_math.h ****  */
 206:C:/Users/Rui Mendes/Desktop/DAVE/_Naive/_ForTesting/Dave/Generated/CMSIS_DSP/Include\arm_math.h **** 
 207:C:/Users/Rui Mendes/Desktop/DAVE/_Naive/_ForTesting/Dave/Generated/CMSIS_DSP/Include\arm_math.h **** /**
 208:C:/Users/Rui Mendes/Desktop/DAVE/_Naive/_ForTesting/Dave/Generated/CMSIS_DSP/Include\arm_math.h ****  * @defgroup groupMatrix Matrix Functions
 209:C:/Users/Rui Mendes/Desktop/DAVE/_Naive/_ForTesting/Dave/Generated/CMSIS_DSP/Include\arm_math.h ****  *
 210:C:/Users/Rui Mendes/Desktop/DAVE/_Naive/_ForTesting/Dave/Generated/CMSIS_DSP/Include\arm_math.h ****  * This set of functions provides basic matrix math operations.
 211:C:/Users/Rui Mendes/Desktop/DAVE/_Naive/_ForTesting/Dave/Generated/CMSIS_DSP/Include\arm_math.h ****  * The functions operate on matrix data structures.  For example,
 212:C:/Users/Rui Mendes/Desktop/DAVE/_Naive/_ForTesting/Dave/Generated/CMSIS_DSP/Include\arm_math.h ****  * the type
 213:C:/Users/Rui Mendes/Desktop/DAVE/_Naive/_ForTesting/Dave/Generated/CMSIS_DSP/Include\arm_math.h ****  * definition for the floating-point matrix structure is shown
 214:C:/Users/Rui Mendes/Desktop/DAVE/_Naive/_ForTesting/Dave/Generated/CMSIS_DSP/Include\arm_math.h ****  * below:
 215:C:/Users/Rui Mendes/Desktop/DAVE/_Naive/_ForTesting/Dave/Generated/CMSIS_DSP/Include\arm_math.h ****  * <pre>
 216:C:/Users/Rui Mendes/Desktop/DAVE/_Naive/_ForTesting/Dave/Generated/CMSIS_DSP/Include\arm_math.h ****  *     typedef struct
 217:C:/Users/Rui Mendes/Desktop/DAVE/_Naive/_ForTesting/Dave/Generated/CMSIS_DSP/Include\arm_math.h ****  *     {
 218:C:/Users/Rui Mendes/Desktop/DAVE/_Naive/_ForTesting/Dave/Generated/CMSIS_DSP/Include\arm_math.h ****  *       uint16_t numRows;     // number of rows of the matrix.
 219:C:/Users/Rui Mendes/Desktop/DAVE/_Naive/_ForTesting/Dave/Generated/CMSIS_DSP/Include\arm_math.h ****  *       uint16_t numCols;     // number of columns of the matrix.
 220:C:/Users/Rui Mendes/Desktop/DAVE/_Naive/_ForTesting/Dave/Generated/CMSIS_DSP/Include\arm_math.h ****  *       float32_t *pData;     // points to the data of the matrix.
 221:C:/Users/Rui Mendes/Desktop/DAVE/_Naive/_ForTesting/Dave/Generated/CMSIS_DSP/Include\arm_math.h ****  *     } arm_matrix_instance_f32;
 222:C:/Users/Rui Mendes/Desktop/DAVE/_Naive/_ForTesting/Dave/Generated/CMSIS_DSP/Include\arm_math.h ****  * </pre>
 223:C:/Users/Rui Mendes/Desktop/DAVE/_Naive/_ForTesting/Dave/Generated/CMSIS_DSP/Include\arm_math.h ****  * There are similar definitions for Q15 and Q31 data types.
 224:C:/Users/Rui Mendes/Desktop/DAVE/_Naive/_ForTesting/Dave/Generated/CMSIS_DSP/Include\arm_math.h ****  *
 225:C:/Users/Rui Mendes/Desktop/DAVE/_Naive/_ForTesting/Dave/Generated/CMSIS_DSP/Include\arm_math.h ****  * The structure specifies the size of the matrix and then points to
 226:C:/Users/Rui Mendes/Desktop/DAVE/_Naive/_ForTesting/Dave/Generated/CMSIS_DSP/Include\arm_math.h ****  * an array of data.  The array is of size <code>numRows X numCols</code>
 227:C:/Users/Rui Mendes/Desktop/DAVE/_Naive/_ForTesting/Dave/Generated/CMSIS_DSP/Include\arm_math.h ****  * and the values are arranged in row order.  That is, the
 228:C:/Users/Rui Mendes/Desktop/DAVE/_Naive/_ForTesting/Dave/Generated/CMSIS_DSP/Include\arm_math.h ****  * matrix element (i, j) is stored at:
 229:C:/Users/Rui Mendes/Desktop/DAVE/_Naive/_ForTesting/Dave/Generated/CMSIS_DSP/Include\arm_math.h ****  * <pre>
 230:C:/Users/Rui Mendes/Desktop/DAVE/_Naive/_ForTesting/Dave/Generated/CMSIS_DSP/Include\arm_math.h ****  *     pData[i*numCols + j]
 231:C:/Users/Rui Mendes/Desktop/DAVE/_Naive/_ForTesting/Dave/Generated/CMSIS_DSP/Include\arm_math.h ****  * </pre>
 232:C:/Users/Rui Mendes/Desktop/DAVE/_Naive/_ForTesting/Dave/Generated/CMSIS_DSP/Include\arm_math.h ****  *
 233:C:/Users/Rui Mendes/Desktop/DAVE/_Naive/_ForTesting/Dave/Generated/CMSIS_DSP/Include\arm_math.h ****  * \par Init Functions
 234:C:/Users/Rui Mendes/Desktop/DAVE/_Naive/_ForTesting/Dave/Generated/CMSIS_DSP/Include\arm_math.h ****  * There is an associated initialization function for each type of matrix
 235:C:/Users/Rui Mendes/Desktop/DAVE/_Naive/_ForTesting/Dave/Generated/CMSIS_DSP/Include\arm_math.h ****  * data structure.
 236:C:/Users/Rui Mendes/Desktop/DAVE/_Naive/_ForTesting/Dave/Generated/CMSIS_DSP/Include\arm_math.h ****  * The initialization function sets the values of the internal structure fields.
 237:C:/Users/Rui Mendes/Desktop/DAVE/_Naive/_ForTesting/Dave/Generated/CMSIS_DSP/Include\arm_math.h ****  * Refer to \ref arm_mat_init_f32(), \ref arm_mat_init_q31() and \ref arm_mat_init_q15()
 238:C:/Users/Rui Mendes/Desktop/DAVE/_Naive/_ForTesting/Dave/Generated/CMSIS_DSP/Include\arm_math.h ****  * for floating-point, Q31 and Q15 types,  respectively.
 239:C:/Users/Rui Mendes/Desktop/DAVE/_Naive/_ForTesting/Dave/Generated/CMSIS_DSP/Include\arm_math.h ****  *
 240:C:/Users/Rui Mendes/Desktop/DAVE/_Naive/_ForTesting/Dave/Generated/CMSIS_DSP/Include\arm_math.h ****  * \par
 241:C:/Users/Rui Mendes/Desktop/DAVE/_Naive/_ForTesting/Dave/Generated/CMSIS_DSP/Include\arm_math.h ****  * Use of the initialization function is optional. However, if initialization function is used
 242:C:/Users/Rui Mendes/Desktop/DAVE/_Naive/_ForTesting/Dave/Generated/CMSIS_DSP/Include\arm_math.h ****  * then the instance structure cannot be placed into a const data section.
 243:C:/Users/Rui Mendes/Desktop/DAVE/_Naive/_ForTesting/Dave/Generated/CMSIS_DSP/Include\arm_math.h ****  * To place the instance structure in a const data
 244:C:/Users/Rui Mendes/Desktop/DAVE/_Naive/_ForTesting/Dave/Generated/CMSIS_DSP/Include\arm_math.h ****  * section, manually initialize the data structure.  For example:
 245:C:/Users/Rui Mendes/Desktop/DAVE/_Naive/_ForTesting/Dave/Generated/CMSIS_DSP/Include\arm_math.h ****  * <pre>
 246:C:/Users/Rui Mendes/Desktop/DAVE/_Naive/_ForTesting/Dave/Generated/CMSIS_DSP/Include\arm_math.h ****  * <code>arm_matrix_instance_f32 S = {nRows, nColumns, pData};</code>
 247:C:/Users/Rui Mendes/Desktop/DAVE/_Naive/_ForTesting/Dave/Generated/CMSIS_DSP/Include\arm_math.h ****  * <code>arm_matrix_instance_q31 S = {nRows, nColumns, pData};</code>
 248:C:/Users/Rui Mendes/Desktop/DAVE/_Naive/_ForTesting/Dave/Generated/CMSIS_DSP/Include\arm_math.h ****  * <code>arm_matrix_instance_q15 S = {nRows, nColumns, pData};</code>
 249:C:/Users/Rui Mendes/Desktop/DAVE/_Naive/_ForTesting/Dave/Generated/CMSIS_DSP/Include\arm_math.h ****  * </pre>
 250:C:/Users/Rui Mendes/Desktop/DAVE/_Naive/_ForTesting/Dave/Generated/CMSIS_DSP/Include\arm_math.h ****  * where <code>nRows</code> specifies the number of rows, <code>nColumns</code>
 251:C:/Users/Rui Mendes/Desktop/DAVE/_Naive/_ForTesting/Dave/Generated/CMSIS_DSP/Include\arm_math.h ****  * specifies the number of columns, and <code>pData</code> points to the
 252:C:/Users/Rui Mendes/Desktop/DAVE/_Naive/_ForTesting/Dave/Generated/CMSIS_DSP/Include\arm_math.h ****  * data array.
 253:C:/Users/Rui Mendes/Desktop/DAVE/_Naive/_ForTesting/Dave/Generated/CMSIS_DSP/Include\arm_math.h ****  *
 254:C:/Users/Rui Mendes/Desktop/DAVE/_Naive/_ForTesting/Dave/Generated/CMSIS_DSP/Include\arm_math.h ****  * \par Size Checking
 255:C:/Users/Rui Mendes/Desktop/DAVE/_Naive/_ForTesting/Dave/Generated/CMSIS_DSP/Include\arm_math.h ****  * By default all of the matrix functions perform size checking on the input and
 256:C:/Users/Rui Mendes/Desktop/DAVE/_Naive/_ForTesting/Dave/Generated/CMSIS_DSP/Include\arm_math.h ****  * output matrices. For example, the matrix addition function verifies that the
 257:C:/Users/Rui Mendes/Desktop/DAVE/_Naive/_ForTesting/Dave/Generated/CMSIS_DSP/Include\arm_math.h ****  * two input matrices and the output matrix all have the same number of rows and
 258:C:/Users/Rui Mendes/Desktop/DAVE/_Naive/_ForTesting/Dave/Generated/CMSIS_DSP/Include\arm_math.h ****  * columns. If the size check fails the functions return:
 259:C:/Users/Rui Mendes/Desktop/DAVE/_Naive/_ForTesting/Dave/Generated/CMSIS_DSP/Include\arm_math.h ****  * <pre>
 260:C:/Users/Rui Mendes/Desktop/DAVE/_Naive/_ForTesting/Dave/Generated/CMSIS_DSP/Include\arm_math.h ****  *     ARM_MATH_SIZE_MISMATCH
 261:C:/Users/Rui Mendes/Desktop/DAVE/_Naive/_ForTesting/Dave/Generated/CMSIS_DSP/Include\arm_math.h ****  * </pre>
 262:C:/Users/Rui Mendes/Desktop/DAVE/_Naive/_ForTesting/Dave/Generated/CMSIS_DSP/Include\arm_math.h ****  * Otherwise the functions return
 263:C:/Users/Rui Mendes/Desktop/DAVE/_Naive/_ForTesting/Dave/Generated/CMSIS_DSP/Include\arm_math.h ****  * <pre>
 264:C:/Users/Rui Mendes/Desktop/DAVE/_Naive/_ForTesting/Dave/Generated/CMSIS_DSP/Include\arm_math.h ****  *     ARM_MATH_SUCCESS
 265:C:/Users/Rui Mendes/Desktop/DAVE/_Naive/_ForTesting/Dave/Generated/CMSIS_DSP/Include\arm_math.h ****  * </pre>
 266:C:/Users/Rui Mendes/Desktop/DAVE/_Naive/_ForTesting/Dave/Generated/CMSIS_DSP/Include\arm_math.h ****  * There is some overhead associated with this matrix size checking.
 267:C:/Users/Rui Mendes/Desktop/DAVE/_Naive/_ForTesting/Dave/Generated/CMSIS_DSP/Include\arm_math.h ****  * The matrix size checking is enabled via the \#define
 268:C:/Users/Rui Mendes/Desktop/DAVE/_Naive/_ForTesting/Dave/Generated/CMSIS_DSP/Include\arm_math.h ****  * <pre>
 269:C:/Users/Rui Mendes/Desktop/DAVE/_Naive/_ForTesting/Dave/Generated/CMSIS_DSP/Include\arm_math.h ****  *     ARM_MATH_MATRIX_CHECK
 270:C:/Users/Rui Mendes/Desktop/DAVE/_Naive/_ForTesting/Dave/Generated/CMSIS_DSP/Include\arm_math.h ****  * </pre>
 271:C:/Users/Rui Mendes/Desktop/DAVE/_Naive/_ForTesting/Dave/Generated/CMSIS_DSP/Include\arm_math.h ****  * within the library project settings.  By default this macro is defined
 272:C:/Users/Rui Mendes/Desktop/DAVE/_Naive/_ForTesting/Dave/Generated/CMSIS_DSP/Include\arm_math.h ****  * and size checking is enabled. By changing the project settings and
 273:C:/Users/Rui Mendes/Desktop/DAVE/_Naive/_ForTesting/Dave/Generated/CMSIS_DSP/Include\arm_math.h ****  * undefining this macro size checking is eliminated and the functions
 274:C:/Users/Rui Mendes/Desktop/DAVE/_Naive/_ForTesting/Dave/Generated/CMSIS_DSP/Include\arm_math.h ****  * run a bit faster. With size checking disabled the functions always
 275:C:/Users/Rui Mendes/Desktop/DAVE/_Naive/_ForTesting/Dave/Generated/CMSIS_DSP/Include\arm_math.h ****  * return <code>ARM_MATH_SUCCESS</code>.
 276:C:/Users/Rui Mendes/Desktop/DAVE/_Naive/_ForTesting/Dave/Generated/CMSIS_DSP/Include\arm_math.h ****  */
 277:C:/Users/Rui Mendes/Desktop/DAVE/_Naive/_ForTesting/Dave/Generated/CMSIS_DSP/Include\arm_math.h **** 
 278:C:/Users/Rui Mendes/Desktop/DAVE/_Naive/_ForTesting/Dave/Generated/CMSIS_DSP/Include\arm_math.h **** /**
 279:C:/Users/Rui Mendes/Desktop/DAVE/_Naive/_ForTesting/Dave/Generated/CMSIS_DSP/Include\arm_math.h ****  * @defgroup groupTransforms Transform Functions
 280:C:/Users/Rui Mendes/Desktop/DAVE/_Naive/_ForTesting/Dave/Generated/CMSIS_DSP/Include\arm_math.h ****  */
 281:C:/Users/Rui Mendes/Desktop/DAVE/_Naive/_ForTesting/Dave/Generated/CMSIS_DSP/Include\arm_math.h **** 
 282:C:/Users/Rui Mendes/Desktop/DAVE/_Naive/_ForTesting/Dave/Generated/CMSIS_DSP/Include\arm_math.h **** /**
 283:C:/Users/Rui Mendes/Desktop/DAVE/_Naive/_ForTesting/Dave/Generated/CMSIS_DSP/Include\arm_math.h ****  * @defgroup groupController Controller Functions
 284:C:/Users/Rui Mendes/Desktop/DAVE/_Naive/_ForTesting/Dave/Generated/CMSIS_DSP/Include\arm_math.h ****  */
 285:C:/Users/Rui Mendes/Desktop/DAVE/_Naive/_ForTesting/Dave/Generated/CMSIS_DSP/Include\arm_math.h **** 
 286:C:/Users/Rui Mendes/Desktop/DAVE/_Naive/_ForTesting/Dave/Generated/CMSIS_DSP/Include\arm_math.h **** /**
 287:C:/Users/Rui Mendes/Desktop/DAVE/_Naive/_ForTesting/Dave/Generated/CMSIS_DSP/Include\arm_math.h ****  * @defgroup groupStats Statistics Functions
 288:C:/Users/Rui Mendes/Desktop/DAVE/_Naive/_ForTesting/Dave/Generated/CMSIS_DSP/Include\arm_math.h ****  */
 289:C:/Users/Rui Mendes/Desktop/DAVE/_Naive/_ForTesting/Dave/Generated/CMSIS_DSP/Include\arm_math.h **** 
 290:C:/Users/Rui Mendes/Desktop/DAVE/_Naive/_ForTesting/Dave/Generated/CMSIS_DSP/Include\arm_math.h **** /**
 291:C:/Users/Rui Mendes/Desktop/DAVE/_Naive/_ForTesting/Dave/Generated/CMSIS_DSP/Include\arm_math.h ****  * @defgroup groupSupport Support Functions
 292:C:/Users/Rui Mendes/Desktop/DAVE/_Naive/_ForTesting/Dave/Generated/CMSIS_DSP/Include\arm_math.h ****  */
 293:C:/Users/Rui Mendes/Desktop/DAVE/_Naive/_ForTesting/Dave/Generated/CMSIS_DSP/Include\arm_math.h **** 
 294:C:/Users/Rui Mendes/Desktop/DAVE/_Naive/_ForTesting/Dave/Generated/CMSIS_DSP/Include\arm_math.h **** /**
 295:C:/Users/Rui Mendes/Desktop/DAVE/_Naive/_ForTesting/Dave/Generated/CMSIS_DSP/Include\arm_math.h ****  * @defgroup groupInterpolation Interpolation Functions
 296:C:/Users/Rui Mendes/Desktop/DAVE/_Naive/_ForTesting/Dave/Generated/CMSIS_DSP/Include\arm_math.h ****  * These functions perform 1- and 2-dimensional interpolation of data.
 297:C:/Users/Rui Mendes/Desktop/DAVE/_Naive/_ForTesting/Dave/Generated/CMSIS_DSP/Include\arm_math.h ****  * Linear interpolation is used for 1-dimensional data and
 298:C:/Users/Rui Mendes/Desktop/DAVE/_Naive/_ForTesting/Dave/Generated/CMSIS_DSP/Include\arm_math.h ****  * bilinear interpolation is used for 2-dimensional data.
 299:C:/Users/Rui Mendes/Desktop/DAVE/_Naive/_ForTesting/Dave/Generated/CMSIS_DSP/Include\arm_math.h ****  */
 300:C:/Users/Rui Mendes/Desktop/DAVE/_Naive/_ForTesting/Dave/Generated/CMSIS_DSP/Include\arm_math.h **** 
 301:C:/Users/Rui Mendes/Desktop/DAVE/_Naive/_ForTesting/Dave/Generated/CMSIS_DSP/Include\arm_math.h **** /**
 302:C:/Users/Rui Mendes/Desktop/DAVE/_Naive/_ForTesting/Dave/Generated/CMSIS_DSP/Include\arm_math.h ****  * @defgroup groupExamples Examples
 303:C:/Users/Rui Mendes/Desktop/DAVE/_Naive/_ForTesting/Dave/Generated/CMSIS_DSP/Include\arm_math.h ****  */
 304:C:/Users/Rui Mendes/Desktop/DAVE/_Naive/_ForTesting/Dave/Generated/CMSIS_DSP/Include\arm_math.h **** 
 305:C:/Users/Rui Mendes/Desktop/DAVE/_Naive/_ForTesting/Dave/Generated/CMSIS_DSP/Include\arm_math.h **** /**
 306:C:/Users/Rui Mendes/Desktop/DAVE/_Naive/_ForTesting/Dave/Generated/CMSIS_DSP/Include\arm_math.h ****  * @defgroup groupSVM SVM Functions
 307:C:/Users/Rui Mendes/Desktop/DAVE/_Naive/_ForTesting/Dave/Generated/CMSIS_DSP/Include\arm_math.h ****  * This set of functions is implementing SVM classification on 2 classes.
 308:C:/Users/Rui Mendes/Desktop/DAVE/_Naive/_ForTesting/Dave/Generated/CMSIS_DSP/Include\arm_math.h ****  * The training must be done from scikit-learn. The parameters can be easily
 309:C:/Users/Rui Mendes/Desktop/DAVE/_Naive/_ForTesting/Dave/Generated/CMSIS_DSP/Include\arm_math.h ****  * generated from the scikit-learn object. Some examples are given in
 310:C:/Users/Rui Mendes/Desktop/DAVE/_Naive/_ForTesting/Dave/Generated/CMSIS_DSP/Include\arm_math.h ****  * DSP/Testing/PatternGeneration/SVM.py
 311:C:/Users/Rui Mendes/Desktop/DAVE/_Naive/_ForTesting/Dave/Generated/CMSIS_DSP/Include\arm_math.h ****  *
 312:C:/Users/Rui Mendes/Desktop/DAVE/_Naive/_ForTesting/Dave/Generated/CMSIS_DSP/Include\arm_math.h ****  * If more than 2 classes are needed, the functions in this folder 
 313:C:/Users/Rui Mendes/Desktop/DAVE/_Naive/_ForTesting/Dave/Generated/CMSIS_DSP/Include\arm_math.h ****  * will have to be used, as building blocks, to do multi-class classification.
 314:C:/Users/Rui Mendes/Desktop/DAVE/_Naive/_ForTesting/Dave/Generated/CMSIS_DSP/Include\arm_math.h ****  *
 315:C:/Users/Rui Mendes/Desktop/DAVE/_Naive/_ForTesting/Dave/Generated/CMSIS_DSP/Include\arm_math.h ****  * No multi-class classification is provided in this SVM folder.
 316:C:/Users/Rui Mendes/Desktop/DAVE/_Naive/_ForTesting/Dave/Generated/CMSIS_DSP/Include\arm_math.h ****  * 
 317:C:/Users/Rui Mendes/Desktop/DAVE/_Naive/_ForTesting/Dave/Generated/CMSIS_DSP/Include\arm_math.h ****  */
 318:C:/Users/Rui Mendes/Desktop/DAVE/_Naive/_ForTesting/Dave/Generated/CMSIS_DSP/Include\arm_math.h **** 
 319:C:/Users/Rui Mendes/Desktop/DAVE/_Naive/_ForTesting/Dave/Generated/CMSIS_DSP/Include\arm_math.h **** 
 320:C:/Users/Rui Mendes/Desktop/DAVE/_Naive/_ForTesting/Dave/Generated/CMSIS_DSP/Include\arm_math.h **** /**
 321:C:/Users/Rui Mendes/Desktop/DAVE/_Naive/_ForTesting/Dave/Generated/CMSIS_DSP/Include\arm_math.h ****  * @defgroup groupBayes Bayesian estimators
 322:C:/Users/Rui Mendes/Desktop/DAVE/_Naive/_ForTesting/Dave/Generated/CMSIS_DSP/Include\arm_math.h ****  *
 323:C:/Users/Rui Mendes/Desktop/DAVE/_Naive/_ForTesting/Dave/Generated/CMSIS_DSP/Include\arm_math.h ****  * Implement the naive gaussian Bayes estimator.
 324:C:/Users/Rui Mendes/Desktop/DAVE/_Naive/_ForTesting/Dave/Generated/CMSIS_DSP/Include\arm_math.h ****  * The training must be done from scikit-learn.
 325:C:/Users/Rui Mendes/Desktop/DAVE/_Naive/_ForTesting/Dave/Generated/CMSIS_DSP/Include\arm_math.h ****  *
 326:C:/Users/Rui Mendes/Desktop/DAVE/_Naive/_ForTesting/Dave/Generated/CMSIS_DSP/Include\arm_math.h ****  * The parameters can be easily
 327:C:/Users/Rui Mendes/Desktop/DAVE/_Naive/_ForTesting/Dave/Generated/CMSIS_DSP/Include\arm_math.h ****  * generated from the scikit-learn object. Some examples are given in
 328:C:/Users/Rui Mendes/Desktop/DAVE/_Naive/_ForTesting/Dave/Generated/CMSIS_DSP/Include\arm_math.h ****  * DSP/Testing/PatternGeneration/Bayes.py
 329:C:/Users/Rui Mendes/Desktop/DAVE/_Naive/_ForTesting/Dave/Generated/CMSIS_DSP/Include\arm_math.h ****  */
 330:C:/Users/Rui Mendes/Desktop/DAVE/_Naive/_ForTesting/Dave/Generated/CMSIS_DSP/Include\arm_math.h **** 
 331:C:/Users/Rui Mendes/Desktop/DAVE/_Naive/_ForTesting/Dave/Generated/CMSIS_DSP/Include\arm_math.h **** /**
 332:C:/Users/Rui Mendes/Desktop/DAVE/_Naive/_ForTesting/Dave/Generated/CMSIS_DSP/Include\arm_math.h ****  * @defgroup groupDistance Distance functions
 333:C:/Users/Rui Mendes/Desktop/DAVE/_Naive/_ForTesting/Dave/Generated/CMSIS_DSP/Include\arm_math.h ****  *
 334:C:/Users/Rui Mendes/Desktop/DAVE/_Naive/_ForTesting/Dave/Generated/CMSIS_DSP/Include\arm_math.h ****  * Distance functions for use with clustering algorithms.
 335:C:/Users/Rui Mendes/Desktop/DAVE/_Naive/_ForTesting/Dave/Generated/CMSIS_DSP/Include\arm_math.h ****  * There are distance functions for float vectors and boolean vectors.
 336:C:/Users/Rui Mendes/Desktop/DAVE/_Naive/_ForTesting/Dave/Generated/CMSIS_DSP/Include\arm_math.h ****  *
 337:C:/Users/Rui Mendes/Desktop/DAVE/_Naive/_ForTesting/Dave/Generated/CMSIS_DSP/Include\arm_math.h ****  */
 338:C:/Users/Rui Mendes/Desktop/DAVE/_Naive/_ForTesting/Dave/Generated/CMSIS_DSP/Include\arm_math.h **** 
 339:C:/Users/Rui Mendes/Desktop/DAVE/_Naive/_ForTesting/Dave/Generated/CMSIS_DSP/Include\arm_math.h **** 
 340:C:/Users/Rui Mendes/Desktop/DAVE/_Naive/_ForTesting/Dave/Generated/CMSIS_DSP/Include\arm_math.h **** #ifndef _ARM_MATH_H
 341:C:/Users/Rui Mendes/Desktop/DAVE/_Naive/_ForTesting/Dave/Generated/CMSIS_DSP/Include\arm_math.h **** #define _ARM_MATH_H
 342:C:/Users/Rui Mendes/Desktop/DAVE/_Naive/_ForTesting/Dave/Generated/CMSIS_DSP/Include\arm_math.h **** 
 343:C:/Users/Rui Mendes/Desktop/DAVE/_Naive/_ForTesting/Dave/Generated/CMSIS_DSP/Include\arm_math.h **** #ifdef   __cplusplus
 344:C:/Users/Rui Mendes/Desktop/DAVE/_Naive/_ForTesting/Dave/Generated/CMSIS_DSP/Include\arm_math.h **** extern "C"
 345:C:/Users/Rui Mendes/Desktop/DAVE/_Naive/_ForTesting/Dave/Generated/CMSIS_DSP/Include\arm_math.h **** {
 346:C:/Users/Rui Mendes/Desktop/DAVE/_Naive/_ForTesting/Dave/Generated/CMSIS_DSP/Include\arm_math.h **** #endif
 347:C:/Users/Rui Mendes/Desktop/DAVE/_Naive/_ForTesting/Dave/Generated/CMSIS_DSP/Include\arm_math.h **** 
 348:C:/Users/Rui Mendes/Desktop/DAVE/_Naive/_ForTesting/Dave/Generated/CMSIS_DSP/Include\arm_math.h **** /* Compiler specific diagnostic adjustment */
 349:C:/Users/Rui Mendes/Desktop/DAVE/_Naive/_ForTesting/Dave/Generated/CMSIS_DSP/Include\arm_math.h **** #if   defined ( __CC_ARM )
 350:C:/Users/Rui Mendes/Desktop/DAVE/_Naive/_ForTesting/Dave/Generated/CMSIS_DSP/Include\arm_math.h **** 
 351:C:/Users/Rui Mendes/Desktop/DAVE/_Naive/_ForTesting/Dave/Generated/CMSIS_DSP/Include\arm_math.h **** #elif defined ( __ARMCC_VERSION ) && ( __ARMCC_VERSION >= 6010050 )
 352:C:/Users/Rui Mendes/Desktop/DAVE/_Naive/_ForTesting/Dave/Generated/CMSIS_DSP/Include\arm_math.h **** 
 353:C:/Users/Rui Mendes/Desktop/DAVE/_Naive/_ForTesting/Dave/Generated/CMSIS_DSP/Include\arm_math.h **** #elif defined ( __GNUC__ )
 354:C:/Users/Rui Mendes/Desktop/DAVE/_Naive/_ForTesting/Dave/Generated/CMSIS_DSP/Include\arm_math.h ****   #pragma GCC diagnostic push
 355:C:/Users/Rui Mendes/Desktop/DAVE/_Naive/_ForTesting/Dave/Generated/CMSIS_DSP/Include\arm_math.h ****   #pragma GCC diagnostic ignored "-Wsign-conversion"
 356:C:/Users/Rui Mendes/Desktop/DAVE/_Naive/_ForTesting/Dave/Generated/CMSIS_DSP/Include\arm_math.h ****   #pragma GCC diagnostic ignored "-Wconversion"
 357:C:/Users/Rui Mendes/Desktop/DAVE/_Naive/_ForTesting/Dave/Generated/CMSIS_DSP/Include\arm_math.h ****   #pragma GCC diagnostic ignored "-Wunused-parameter"
 358:C:/Users/Rui Mendes/Desktop/DAVE/_Naive/_ForTesting/Dave/Generated/CMSIS_DSP/Include\arm_math.h **** 
 359:C:/Users/Rui Mendes/Desktop/DAVE/_Naive/_ForTesting/Dave/Generated/CMSIS_DSP/Include\arm_math.h **** #elif defined ( __ICCARM__ )
 360:C:/Users/Rui Mendes/Desktop/DAVE/_Naive/_ForTesting/Dave/Generated/CMSIS_DSP/Include\arm_math.h **** 
 361:C:/Users/Rui Mendes/Desktop/DAVE/_Naive/_ForTesting/Dave/Generated/CMSIS_DSP/Include\arm_math.h **** #elif defined ( __TI_ARM__ )
 362:C:/Users/Rui Mendes/Desktop/DAVE/_Naive/_ForTesting/Dave/Generated/CMSIS_DSP/Include\arm_math.h **** 
 363:C:/Users/Rui Mendes/Desktop/DAVE/_Naive/_ForTesting/Dave/Generated/CMSIS_DSP/Include\arm_math.h **** #elif defined ( __CSMC__ )
 364:C:/Users/Rui Mendes/Desktop/DAVE/_Naive/_ForTesting/Dave/Generated/CMSIS_DSP/Include\arm_math.h **** 
 365:C:/Users/Rui Mendes/Desktop/DAVE/_Naive/_ForTesting/Dave/Generated/CMSIS_DSP/Include\arm_math.h **** #elif defined ( __TASKING__ )
 366:C:/Users/Rui Mendes/Desktop/DAVE/_Naive/_ForTesting/Dave/Generated/CMSIS_DSP/Include\arm_math.h **** 
 367:C:/Users/Rui Mendes/Desktop/DAVE/_Naive/_ForTesting/Dave/Generated/CMSIS_DSP/Include\arm_math.h **** #elif defined ( _MSC_VER )
 368:C:/Users/Rui Mendes/Desktop/DAVE/_Naive/_ForTesting/Dave/Generated/CMSIS_DSP/Include\arm_math.h **** 
 369:C:/Users/Rui Mendes/Desktop/DAVE/_Naive/_ForTesting/Dave/Generated/CMSIS_DSP/Include\arm_math.h **** #else
 370:C:/Users/Rui Mendes/Desktop/DAVE/_Naive/_ForTesting/Dave/Generated/CMSIS_DSP/Include\arm_math.h ****   #error Unknown compiler
 371:C:/Users/Rui Mendes/Desktop/DAVE/_Naive/_ForTesting/Dave/Generated/CMSIS_DSP/Include\arm_math.h **** #endif
 372:C:/Users/Rui Mendes/Desktop/DAVE/_Naive/_ForTesting/Dave/Generated/CMSIS_DSP/Include\arm_math.h **** 
 373:C:/Users/Rui Mendes/Desktop/DAVE/_Naive/_ForTesting/Dave/Generated/CMSIS_DSP/Include\arm_math.h **** 
 374:C:/Users/Rui Mendes/Desktop/DAVE/_Naive/_ForTesting/Dave/Generated/CMSIS_DSP/Include\arm_math.h **** /* Included for instrinsics definitions */
 375:C:/Users/Rui Mendes/Desktop/DAVE/_Naive/_ForTesting/Dave/Generated/CMSIS_DSP/Include\arm_math.h **** #if defined (_MSC_VER ) 
 376:C:/Users/Rui Mendes/Desktop/DAVE/_Naive/_ForTesting/Dave/Generated/CMSIS_DSP/Include\arm_math.h **** #include <stdint.h>
 377:C:/Users/Rui Mendes/Desktop/DAVE/_Naive/_ForTesting/Dave/Generated/CMSIS_DSP/Include\arm_math.h **** #define __STATIC_FORCEINLINE static __forceinline
 378:C:/Users/Rui Mendes/Desktop/DAVE/_Naive/_ForTesting/Dave/Generated/CMSIS_DSP/Include\arm_math.h **** #define __STATIC_INLINE static __inline
 379:C:/Users/Rui Mendes/Desktop/DAVE/_Naive/_ForTesting/Dave/Generated/CMSIS_DSP/Include\arm_math.h **** #define __ALIGNED(x) __declspec(align(x))
 380:C:/Users/Rui Mendes/Desktop/DAVE/_Naive/_ForTesting/Dave/Generated/CMSIS_DSP/Include\arm_math.h **** 
 381:C:/Users/Rui Mendes/Desktop/DAVE/_Naive/_ForTesting/Dave/Generated/CMSIS_DSP/Include\arm_math.h **** #elif defined (__GNUC_PYTHON__)
 382:C:/Users/Rui Mendes/Desktop/DAVE/_Naive/_ForTesting/Dave/Generated/CMSIS_DSP/Include\arm_math.h **** #include <stdint.h>
 383:C:/Users/Rui Mendes/Desktop/DAVE/_Naive/_ForTesting/Dave/Generated/CMSIS_DSP/Include\arm_math.h **** #define  __ALIGNED(x) __attribute__((aligned(x)))
 384:C:/Users/Rui Mendes/Desktop/DAVE/_Naive/_ForTesting/Dave/Generated/CMSIS_DSP/Include\arm_math.h **** #define __STATIC_FORCEINLINE static __attribute__((inline))
 385:C:/Users/Rui Mendes/Desktop/DAVE/_Naive/_ForTesting/Dave/Generated/CMSIS_DSP/Include\arm_math.h **** #define __STATIC_INLINE static __attribute__((inline))
 386:C:/Users/Rui Mendes/Desktop/DAVE/_Naive/_ForTesting/Dave/Generated/CMSIS_DSP/Include\arm_math.h **** #pragma GCC diagnostic ignored "-Wunused-function"
 387:C:/Users/Rui Mendes/Desktop/DAVE/_Naive/_ForTesting/Dave/Generated/CMSIS_DSP/Include\arm_math.h **** #pragma GCC diagnostic ignored "-Wattributes"
 388:C:/Users/Rui Mendes/Desktop/DAVE/_Naive/_ForTesting/Dave/Generated/CMSIS_DSP/Include\arm_math.h **** 
 389:C:/Users/Rui Mendes/Desktop/DAVE/_Naive/_ForTesting/Dave/Generated/CMSIS_DSP/Include\arm_math.h **** #else
 390:C:/Users/Rui Mendes/Desktop/DAVE/_Naive/_ForTesting/Dave/Generated/CMSIS_DSP/Include\arm_math.h **** #include "cmsis_compiler.h"
 391:C:/Users/Rui Mendes/Desktop/DAVE/_Naive/_ForTesting/Dave/Generated/CMSIS_DSP/Include\arm_math.h **** #endif
 392:C:/Users/Rui Mendes/Desktop/DAVE/_Naive/_ForTesting/Dave/Generated/CMSIS_DSP/Include\arm_math.h **** 
 393:C:/Users/Rui Mendes/Desktop/DAVE/_Naive/_ForTesting/Dave/Generated/CMSIS_DSP/Include\arm_math.h **** 
 394:C:/Users/Rui Mendes/Desktop/DAVE/_Naive/_ForTesting/Dave/Generated/CMSIS_DSP/Include\arm_math.h **** 
 395:C:/Users/Rui Mendes/Desktop/DAVE/_Naive/_ForTesting/Dave/Generated/CMSIS_DSP/Include\arm_math.h **** #include <string.h>
 396:C:/Users/Rui Mendes/Desktop/DAVE/_Naive/_ForTesting/Dave/Generated/CMSIS_DSP/Include\arm_math.h **** #include <math.h>
 397:C:/Users/Rui Mendes/Desktop/DAVE/_Naive/_ForTesting/Dave/Generated/CMSIS_DSP/Include\arm_math.h **** #include <float.h>
 398:C:/Users/Rui Mendes/Desktop/DAVE/_Naive/_ForTesting/Dave/Generated/CMSIS_DSP/Include\arm_math.h **** #include <limits.h>
 399:C:/Users/Rui Mendes/Desktop/DAVE/_Naive/_ForTesting/Dave/Generated/CMSIS_DSP/Include\arm_math.h **** 
 400:C:/Users/Rui Mendes/Desktop/DAVE/_Naive/_ForTesting/Dave/Generated/CMSIS_DSP/Include\arm_math.h **** 
 401:C:/Users/Rui Mendes/Desktop/DAVE/_Naive/_ForTesting/Dave/Generated/CMSIS_DSP/Include\arm_math.h **** #define F64_MAX   ((float64_t)DBL_MAX)
 402:C:/Users/Rui Mendes/Desktop/DAVE/_Naive/_ForTesting/Dave/Generated/CMSIS_DSP/Include\arm_math.h **** #define F32_MAX   ((float32_t)FLT_MAX)
 403:C:/Users/Rui Mendes/Desktop/DAVE/_Naive/_ForTesting/Dave/Generated/CMSIS_DSP/Include\arm_math.h **** 
 404:C:/Users/Rui Mendes/Desktop/DAVE/_Naive/_ForTesting/Dave/Generated/CMSIS_DSP/Include\arm_math.h **** #if defined(ARM_MATH_FLOAT16)
 405:C:/Users/Rui Mendes/Desktop/DAVE/_Naive/_ForTesting/Dave/Generated/CMSIS_DSP/Include\arm_math.h **** #define F16_MAX   ((float16_t)FLT_MAX)
 406:C:/Users/Rui Mendes/Desktop/DAVE/_Naive/_ForTesting/Dave/Generated/CMSIS_DSP/Include\arm_math.h **** #endif
 407:C:/Users/Rui Mendes/Desktop/DAVE/_Naive/_ForTesting/Dave/Generated/CMSIS_DSP/Include\arm_math.h **** 
 408:C:/Users/Rui Mendes/Desktop/DAVE/_Naive/_ForTesting/Dave/Generated/CMSIS_DSP/Include\arm_math.h **** #define F64_MIN   (-DBL_MAX)
 409:C:/Users/Rui Mendes/Desktop/DAVE/_Naive/_ForTesting/Dave/Generated/CMSIS_DSP/Include\arm_math.h **** #define F32_MIN   (-FLT_MAX)
 410:C:/Users/Rui Mendes/Desktop/DAVE/_Naive/_ForTesting/Dave/Generated/CMSIS_DSP/Include\arm_math.h **** 
 411:C:/Users/Rui Mendes/Desktop/DAVE/_Naive/_ForTesting/Dave/Generated/CMSIS_DSP/Include\arm_math.h **** #if defined(ARM_MATH_FLOAT16)
 412:C:/Users/Rui Mendes/Desktop/DAVE/_Naive/_ForTesting/Dave/Generated/CMSIS_DSP/Include\arm_math.h **** #define F16_MIN   (-(float16_t)FLT_MAX)
 413:C:/Users/Rui Mendes/Desktop/DAVE/_Naive/_ForTesting/Dave/Generated/CMSIS_DSP/Include\arm_math.h **** #endif
 414:C:/Users/Rui Mendes/Desktop/DAVE/_Naive/_ForTesting/Dave/Generated/CMSIS_DSP/Include\arm_math.h **** 
 415:C:/Users/Rui Mendes/Desktop/DAVE/_Naive/_ForTesting/Dave/Generated/CMSIS_DSP/Include\arm_math.h **** #define F64_ABSMAX   ((float64_t)DBL_MAX)
 416:C:/Users/Rui Mendes/Desktop/DAVE/_Naive/_ForTesting/Dave/Generated/CMSIS_DSP/Include\arm_math.h **** #define F32_ABSMAX   ((float32_t)FLT_MAX)
 417:C:/Users/Rui Mendes/Desktop/DAVE/_Naive/_ForTesting/Dave/Generated/CMSIS_DSP/Include\arm_math.h **** 
 418:C:/Users/Rui Mendes/Desktop/DAVE/_Naive/_ForTesting/Dave/Generated/CMSIS_DSP/Include\arm_math.h **** #if defined(ARM_MATH_FLOAT16)
 419:C:/Users/Rui Mendes/Desktop/DAVE/_Naive/_ForTesting/Dave/Generated/CMSIS_DSP/Include\arm_math.h **** #define F16_ABSMAX   ((float16_t)FLT_MAX)
 420:C:/Users/Rui Mendes/Desktop/DAVE/_Naive/_ForTesting/Dave/Generated/CMSIS_DSP/Include\arm_math.h **** #endif
 421:C:/Users/Rui Mendes/Desktop/DAVE/_Naive/_ForTesting/Dave/Generated/CMSIS_DSP/Include\arm_math.h **** 
 422:C:/Users/Rui Mendes/Desktop/DAVE/_Naive/_ForTesting/Dave/Generated/CMSIS_DSP/Include\arm_math.h **** #define F64_ABSMIN   ((float64_t)0.0)
 423:C:/Users/Rui Mendes/Desktop/DAVE/_Naive/_ForTesting/Dave/Generated/CMSIS_DSP/Include\arm_math.h **** #define F32_ABSMIN   ((float32_t)0.0)
 424:C:/Users/Rui Mendes/Desktop/DAVE/_Naive/_ForTesting/Dave/Generated/CMSIS_DSP/Include\arm_math.h **** 
 425:C:/Users/Rui Mendes/Desktop/DAVE/_Naive/_ForTesting/Dave/Generated/CMSIS_DSP/Include\arm_math.h **** #if defined(ARM_MATH_FLOAT16)
 426:C:/Users/Rui Mendes/Desktop/DAVE/_Naive/_ForTesting/Dave/Generated/CMSIS_DSP/Include\arm_math.h **** #define F16_ABSMIN   ((float16_t)0.0)
 427:C:/Users/Rui Mendes/Desktop/DAVE/_Naive/_ForTesting/Dave/Generated/CMSIS_DSP/Include\arm_math.h **** #endif
 428:C:/Users/Rui Mendes/Desktop/DAVE/_Naive/_ForTesting/Dave/Generated/CMSIS_DSP/Include\arm_math.h **** 
 429:C:/Users/Rui Mendes/Desktop/DAVE/_Naive/_ForTesting/Dave/Generated/CMSIS_DSP/Include\arm_math.h **** #define Q31_MAX   ((q31_t)(0x7FFFFFFFL))
 430:C:/Users/Rui Mendes/Desktop/DAVE/_Naive/_ForTesting/Dave/Generated/CMSIS_DSP/Include\arm_math.h **** #define Q15_MAX   ((q15_t)(0x7FFF))
 431:C:/Users/Rui Mendes/Desktop/DAVE/_Naive/_ForTesting/Dave/Generated/CMSIS_DSP/Include\arm_math.h **** #define Q7_MAX    ((q7_t)(0x7F))
 432:C:/Users/Rui Mendes/Desktop/DAVE/_Naive/_ForTesting/Dave/Generated/CMSIS_DSP/Include\arm_math.h **** #define Q31_MIN   ((q31_t)(0x80000000L))
 433:C:/Users/Rui Mendes/Desktop/DAVE/_Naive/_ForTesting/Dave/Generated/CMSIS_DSP/Include\arm_math.h **** #define Q15_MIN   ((q15_t)(0x8000))
 434:C:/Users/Rui Mendes/Desktop/DAVE/_Naive/_ForTesting/Dave/Generated/CMSIS_DSP/Include\arm_math.h **** #define Q7_MIN    ((q7_t)(0x80))
 435:C:/Users/Rui Mendes/Desktop/DAVE/_Naive/_ForTesting/Dave/Generated/CMSIS_DSP/Include\arm_math.h **** 
 436:C:/Users/Rui Mendes/Desktop/DAVE/_Naive/_ForTesting/Dave/Generated/CMSIS_DSP/Include\arm_math.h **** #define Q31_ABSMAX   ((q31_t)(0x7FFFFFFFL))
 437:C:/Users/Rui Mendes/Desktop/DAVE/_Naive/_ForTesting/Dave/Generated/CMSIS_DSP/Include\arm_math.h **** #define Q15_ABSMAX   ((q15_t)(0x7FFF))
 438:C:/Users/Rui Mendes/Desktop/DAVE/_Naive/_ForTesting/Dave/Generated/CMSIS_DSP/Include\arm_math.h **** #define Q7_ABSMAX    ((q7_t)(0x7F))
 439:C:/Users/Rui Mendes/Desktop/DAVE/_Naive/_ForTesting/Dave/Generated/CMSIS_DSP/Include\arm_math.h **** #define Q31_ABSMIN   ((q31_t)0)
 440:C:/Users/Rui Mendes/Desktop/DAVE/_Naive/_ForTesting/Dave/Generated/CMSIS_DSP/Include\arm_math.h **** #define Q15_ABSMIN   ((q15_t)0)
 441:C:/Users/Rui Mendes/Desktop/DAVE/_Naive/_ForTesting/Dave/Generated/CMSIS_DSP/Include\arm_math.h **** #define Q7_ABSMIN    ((q7_t)0)
 442:C:/Users/Rui Mendes/Desktop/DAVE/_Naive/_ForTesting/Dave/Generated/CMSIS_DSP/Include\arm_math.h **** 
 443:C:/Users/Rui Mendes/Desktop/DAVE/_Naive/_ForTesting/Dave/Generated/CMSIS_DSP/Include\arm_math.h **** /* evaluate ARM DSP feature */
 444:C:/Users/Rui Mendes/Desktop/DAVE/_Naive/_ForTesting/Dave/Generated/CMSIS_DSP/Include\arm_math.h **** #if (defined (__ARM_FEATURE_DSP) && (__ARM_FEATURE_DSP == 1))
 445:C:/Users/Rui Mendes/Desktop/DAVE/_Naive/_ForTesting/Dave/Generated/CMSIS_DSP/Include\arm_math.h ****   #define ARM_MATH_DSP                   1
 446:C:/Users/Rui Mendes/Desktop/DAVE/_Naive/_ForTesting/Dave/Generated/CMSIS_DSP/Include\arm_math.h **** #endif
 447:C:/Users/Rui Mendes/Desktop/DAVE/_Naive/_ForTesting/Dave/Generated/CMSIS_DSP/Include\arm_math.h **** 
 448:C:/Users/Rui Mendes/Desktop/DAVE/_Naive/_ForTesting/Dave/Generated/CMSIS_DSP/Include\arm_math.h **** #if defined(ARM_MATH_NEON)
 449:C:/Users/Rui Mendes/Desktop/DAVE/_Naive/_ForTesting/Dave/Generated/CMSIS_DSP/Include\arm_math.h **** #include <arm_neon.h>
 450:C:/Users/Rui Mendes/Desktop/DAVE/_Naive/_ForTesting/Dave/Generated/CMSIS_DSP/Include\arm_math.h **** #endif
 451:C:/Users/Rui Mendes/Desktop/DAVE/_Naive/_ForTesting/Dave/Generated/CMSIS_DSP/Include\arm_math.h **** 
 452:C:/Users/Rui Mendes/Desktop/DAVE/_Naive/_ForTesting/Dave/Generated/CMSIS_DSP/Include\arm_math.h **** #if defined (ARM_MATH_HELIUM)
 453:C:/Users/Rui Mendes/Desktop/DAVE/_Naive/_ForTesting/Dave/Generated/CMSIS_DSP/Include\arm_math.h ****   #define ARM_MATH_MVEF
 454:C:/Users/Rui Mendes/Desktop/DAVE/_Naive/_ForTesting/Dave/Generated/CMSIS_DSP/Include\arm_math.h ****   #define ARM_MATH_FLOAT16
 455:C:/Users/Rui Mendes/Desktop/DAVE/_Naive/_ForTesting/Dave/Generated/CMSIS_DSP/Include\arm_math.h **** #endif
 456:C:/Users/Rui Mendes/Desktop/DAVE/_Naive/_ForTesting/Dave/Generated/CMSIS_DSP/Include\arm_math.h **** 
 457:C:/Users/Rui Mendes/Desktop/DAVE/_Naive/_ForTesting/Dave/Generated/CMSIS_DSP/Include\arm_math.h **** #if defined (ARM_MATH_MVEF)
 458:C:/Users/Rui Mendes/Desktop/DAVE/_Naive/_ForTesting/Dave/Generated/CMSIS_DSP/Include\arm_math.h ****   #define ARM_MATH_MVEI
 459:C:/Users/Rui Mendes/Desktop/DAVE/_Naive/_ForTesting/Dave/Generated/CMSIS_DSP/Include\arm_math.h ****   #define ARM_MATH_FLOAT16
 460:C:/Users/Rui Mendes/Desktop/DAVE/_Naive/_ForTesting/Dave/Generated/CMSIS_DSP/Include\arm_math.h **** #endif
 461:C:/Users/Rui Mendes/Desktop/DAVE/_Naive/_ForTesting/Dave/Generated/CMSIS_DSP/Include\arm_math.h **** 
 462:C:/Users/Rui Mendes/Desktop/DAVE/_Naive/_ForTesting/Dave/Generated/CMSIS_DSP/Include\arm_math.h **** #if defined (ARM_MATH_HELIUM) || defined(ARM_MATH_MVEF) || defined(ARM_MATH_MVEI)
 463:C:/Users/Rui Mendes/Desktop/DAVE/_Naive/_ForTesting/Dave/Generated/CMSIS_DSP/Include\arm_math.h **** #include <arm_mve.h>
 464:C:/Users/Rui Mendes/Desktop/DAVE/_Naive/_ForTesting/Dave/Generated/CMSIS_DSP/Include\arm_math.h **** #endif
 465:C:/Users/Rui Mendes/Desktop/DAVE/_Naive/_ForTesting/Dave/Generated/CMSIS_DSP/Include\arm_math.h **** 
 466:C:/Users/Rui Mendes/Desktop/DAVE/_Naive/_ForTesting/Dave/Generated/CMSIS_DSP/Include\arm_math.h **** 
 467:C:/Users/Rui Mendes/Desktop/DAVE/_Naive/_ForTesting/Dave/Generated/CMSIS_DSP/Include\arm_math.h ****   /**
 468:C:/Users/Rui Mendes/Desktop/DAVE/_Naive/_ForTesting/Dave/Generated/CMSIS_DSP/Include\arm_math.h ****    * @brief Macros required for reciprocal calculation in Normalized LMS
 469:C:/Users/Rui Mendes/Desktop/DAVE/_Naive/_ForTesting/Dave/Generated/CMSIS_DSP/Include\arm_math.h ****    */
 470:C:/Users/Rui Mendes/Desktop/DAVE/_Naive/_ForTesting/Dave/Generated/CMSIS_DSP/Include\arm_math.h **** 
 471:C:/Users/Rui Mendes/Desktop/DAVE/_Naive/_ForTesting/Dave/Generated/CMSIS_DSP/Include\arm_math.h **** #define DELTA_Q31          ((q31_t)(0x100))
 472:C:/Users/Rui Mendes/Desktop/DAVE/_Naive/_ForTesting/Dave/Generated/CMSIS_DSP/Include\arm_math.h **** #define DELTA_Q15          ((q15_t)0x5)
 473:C:/Users/Rui Mendes/Desktop/DAVE/_Naive/_ForTesting/Dave/Generated/CMSIS_DSP/Include\arm_math.h **** #define INDEX_MASK         0x0000003F
 474:C:/Users/Rui Mendes/Desktop/DAVE/_Naive/_ForTesting/Dave/Generated/CMSIS_DSP/Include\arm_math.h **** #ifndef PI
 475:C:/Users/Rui Mendes/Desktop/DAVE/_Naive/_ForTesting/Dave/Generated/CMSIS_DSP/Include\arm_math.h ****   #define PI               3.14159265358979f
 476:C:/Users/Rui Mendes/Desktop/DAVE/_Naive/_ForTesting/Dave/Generated/CMSIS_DSP/Include\arm_math.h **** #endif
 477:C:/Users/Rui Mendes/Desktop/DAVE/_Naive/_ForTesting/Dave/Generated/CMSIS_DSP/Include\arm_math.h **** 
 478:C:/Users/Rui Mendes/Desktop/DAVE/_Naive/_ForTesting/Dave/Generated/CMSIS_DSP/Include\arm_math.h ****   /**
 479:C:/Users/Rui Mendes/Desktop/DAVE/_Naive/_ForTesting/Dave/Generated/CMSIS_DSP/Include\arm_math.h ****    * @brief Macros required for SINE and COSINE Fast math approximations
 480:C:/Users/Rui Mendes/Desktop/DAVE/_Naive/_ForTesting/Dave/Generated/CMSIS_DSP/Include\arm_math.h ****    */
 481:C:/Users/Rui Mendes/Desktop/DAVE/_Naive/_ForTesting/Dave/Generated/CMSIS_DSP/Include\arm_math.h **** 
 482:C:/Users/Rui Mendes/Desktop/DAVE/_Naive/_ForTesting/Dave/Generated/CMSIS_DSP/Include\arm_math.h **** #define FAST_MATH_TABLE_SIZE  512
 483:C:/Users/Rui Mendes/Desktop/DAVE/_Naive/_ForTesting/Dave/Generated/CMSIS_DSP/Include\arm_math.h **** #define FAST_MATH_Q31_SHIFT   (32 - 10)
 484:C:/Users/Rui Mendes/Desktop/DAVE/_Naive/_ForTesting/Dave/Generated/CMSIS_DSP/Include\arm_math.h **** #define FAST_MATH_Q15_SHIFT   (16 - 10)
 485:C:/Users/Rui Mendes/Desktop/DAVE/_Naive/_ForTesting/Dave/Generated/CMSIS_DSP/Include\arm_math.h **** #define CONTROLLER_Q31_SHIFT  (32 - 9)
 486:C:/Users/Rui Mendes/Desktop/DAVE/_Naive/_ForTesting/Dave/Generated/CMSIS_DSP/Include\arm_math.h **** #define TABLE_SPACING_Q31     0x400000
 487:C:/Users/Rui Mendes/Desktop/DAVE/_Naive/_ForTesting/Dave/Generated/CMSIS_DSP/Include\arm_math.h **** #define TABLE_SPACING_Q15     0x80
 488:C:/Users/Rui Mendes/Desktop/DAVE/_Naive/_ForTesting/Dave/Generated/CMSIS_DSP/Include\arm_math.h **** 
 489:C:/Users/Rui Mendes/Desktop/DAVE/_Naive/_ForTesting/Dave/Generated/CMSIS_DSP/Include\arm_math.h ****   /**
 490:C:/Users/Rui Mendes/Desktop/DAVE/_Naive/_ForTesting/Dave/Generated/CMSIS_DSP/Include\arm_math.h ****    * @brief Macros required for SINE and COSINE Controller functions
 491:C:/Users/Rui Mendes/Desktop/DAVE/_Naive/_ForTesting/Dave/Generated/CMSIS_DSP/Include\arm_math.h ****    */
 492:C:/Users/Rui Mendes/Desktop/DAVE/_Naive/_ForTesting/Dave/Generated/CMSIS_DSP/Include\arm_math.h ****   /* 1.31(q31) Fixed value of 2/360 */
 493:C:/Users/Rui Mendes/Desktop/DAVE/_Naive/_ForTesting/Dave/Generated/CMSIS_DSP/Include\arm_math.h ****   /* -1 to +1 is divided into 360 values so total spacing is (2/360) */
 494:C:/Users/Rui Mendes/Desktop/DAVE/_Naive/_ForTesting/Dave/Generated/CMSIS_DSP/Include\arm_math.h **** #define INPUT_SPACING         0xB60B61
 495:C:/Users/Rui Mendes/Desktop/DAVE/_Naive/_ForTesting/Dave/Generated/CMSIS_DSP/Include\arm_math.h **** 
 496:C:/Users/Rui Mendes/Desktop/DAVE/_Naive/_ForTesting/Dave/Generated/CMSIS_DSP/Include\arm_math.h ****   /**
 497:C:/Users/Rui Mendes/Desktop/DAVE/_Naive/_ForTesting/Dave/Generated/CMSIS_DSP/Include\arm_math.h ****    * @brief Macros for complex numbers
 498:C:/Users/Rui Mendes/Desktop/DAVE/_Naive/_ForTesting/Dave/Generated/CMSIS_DSP/Include\arm_math.h ****    */
 499:C:/Users/Rui Mendes/Desktop/DAVE/_Naive/_ForTesting/Dave/Generated/CMSIS_DSP/Include\arm_math.h **** 
 500:C:/Users/Rui Mendes/Desktop/DAVE/_Naive/_ForTesting/Dave/Generated/CMSIS_DSP/Include\arm_math.h ****   /* Dimension C vector space */
 501:C:/Users/Rui Mendes/Desktop/DAVE/_Naive/_ForTesting/Dave/Generated/CMSIS_DSP/Include\arm_math.h ****   #define CMPLX_DIM 2
 502:C:/Users/Rui Mendes/Desktop/DAVE/_Naive/_ForTesting/Dave/Generated/CMSIS_DSP/Include\arm_math.h **** 
 503:C:/Users/Rui Mendes/Desktop/DAVE/_Naive/_ForTesting/Dave/Generated/CMSIS_DSP/Include\arm_math.h ****   /**
 504:C:/Users/Rui Mendes/Desktop/DAVE/_Naive/_ForTesting/Dave/Generated/CMSIS_DSP/Include\arm_math.h ****    * @brief Error status returned by some functions in the library.
 505:C:/Users/Rui Mendes/Desktop/DAVE/_Naive/_ForTesting/Dave/Generated/CMSIS_DSP/Include\arm_math.h ****    */
 506:C:/Users/Rui Mendes/Desktop/DAVE/_Naive/_ForTesting/Dave/Generated/CMSIS_DSP/Include\arm_math.h **** 
 507:C:/Users/Rui Mendes/Desktop/DAVE/_Naive/_ForTesting/Dave/Generated/CMSIS_DSP/Include\arm_math.h ****   typedef enum
 508:C:/Users/Rui Mendes/Desktop/DAVE/_Naive/_ForTesting/Dave/Generated/CMSIS_DSP/Include\arm_math.h ****   {
 509:C:/Users/Rui Mendes/Desktop/DAVE/_Naive/_ForTesting/Dave/Generated/CMSIS_DSP/Include\arm_math.h ****     ARM_MATH_SUCCESS        =  0,        /**< No error */
 510:C:/Users/Rui Mendes/Desktop/DAVE/_Naive/_ForTesting/Dave/Generated/CMSIS_DSP/Include\arm_math.h ****     ARM_MATH_ARGUMENT_ERROR = -1,        /**< One or more arguments are incorrect */
 511:C:/Users/Rui Mendes/Desktop/DAVE/_Naive/_ForTesting/Dave/Generated/CMSIS_DSP/Include\arm_math.h ****     ARM_MATH_LENGTH_ERROR   = -2,        /**< Length of data buffer is incorrect */
 512:C:/Users/Rui Mendes/Desktop/DAVE/_Naive/_ForTesting/Dave/Generated/CMSIS_DSP/Include\arm_math.h ****     ARM_MATH_SIZE_MISMATCH  = -3,        /**< Size of matrices is not compatible with the operation
 513:C:/Users/Rui Mendes/Desktop/DAVE/_Naive/_ForTesting/Dave/Generated/CMSIS_DSP/Include\arm_math.h ****     ARM_MATH_NANINF         = -4,        /**< Not-a-number (NaN) or infinity is generated */
 514:C:/Users/Rui Mendes/Desktop/DAVE/_Naive/_ForTesting/Dave/Generated/CMSIS_DSP/Include\arm_math.h ****     ARM_MATH_SINGULAR       = -5,        /**< Input matrix is singular and cannot be inverted */
 515:C:/Users/Rui Mendes/Desktop/DAVE/_Naive/_ForTesting/Dave/Generated/CMSIS_DSP/Include\arm_math.h ****     ARM_MATH_TEST_FAILURE   = -6         /**< Test Failed */
 516:C:/Users/Rui Mendes/Desktop/DAVE/_Naive/_ForTesting/Dave/Generated/CMSIS_DSP/Include\arm_math.h ****   } arm_status;
 517:C:/Users/Rui Mendes/Desktop/DAVE/_Naive/_ForTesting/Dave/Generated/CMSIS_DSP/Include\arm_math.h **** 
 518:C:/Users/Rui Mendes/Desktop/DAVE/_Naive/_ForTesting/Dave/Generated/CMSIS_DSP/Include\arm_math.h ****   /**
 519:C:/Users/Rui Mendes/Desktop/DAVE/_Naive/_ForTesting/Dave/Generated/CMSIS_DSP/Include\arm_math.h ****    * @brief 8-bit fractional data type in 1.7 format.
 520:C:/Users/Rui Mendes/Desktop/DAVE/_Naive/_ForTesting/Dave/Generated/CMSIS_DSP/Include\arm_math.h ****    */
 521:C:/Users/Rui Mendes/Desktop/DAVE/_Naive/_ForTesting/Dave/Generated/CMSIS_DSP/Include\arm_math.h ****   typedef int8_t q7_t;
 522:C:/Users/Rui Mendes/Desktop/DAVE/_Naive/_ForTesting/Dave/Generated/CMSIS_DSP/Include\arm_math.h **** 
 523:C:/Users/Rui Mendes/Desktop/DAVE/_Naive/_ForTesting/Dave/Generated/CMSIS_DSP/Include\arm_math.h ****   /**
 524:C:/Users/Rui Mendes/Desktop/DAVE/_Naive/_ForTesting/Dave/Generated/CMSIS_DSP/Include\arm_math.h ****    * @brief 16-bit fractional data type in 1.15 format.
 525:C:/Users/Rui Mendes/Desktop/DAVE/_Naive/_ForTesting/Dave/Generated/CMSIS_DSP/Include\arm_math.h ****    */
 526:C:/Users/Rui Mendes/Desktop/DAVE/_Naive/_ForTesting/Dave/Generated/CMSIS_DSP/Include\arm_math.h ****   typedef int16_t q15_t;
 527:C:/Users/Rui Mendes/Desktop/DAVE/_Naive/_ForTesting/Dave/Generated/CMSIS_DSP/Include\arm_math.h **** 
 528:C:/Users/Rui Mendes/Desktop/DAVE/_Naive/_ForTesting/Dave/Generated/CMSIS_DSP/Include\arm_math.h ****   /**
 529:C:/Users/Rui Mendes/Desktop/DAVE/_Naive/_ForTesting/Dave/Generated/CMSIS_DSP/Include\arm_math.h ****    * @brief 32-bit fractional data type in 1.31 format.
 530:C:/Users/Rui Mendes/Desktop/DAVE/_Naive/_ForTesting/Dave/Generated/CMSIS_DSP/Include\arm_math.h ****    */
 531:C:/Users/Rui Mendes/Desktop/DAVE/_Naive/_ForTesting/Dave/Generated/CMSIS_DSP/Include\arm_math.h ****   typedef int32_t q31_t;
 532:C:/Users/Rui Mendes/Desktop/DAVE/_Naive/_ForTesting/Dave/Generated/CMSIS_DSP/Include\arm_math.h **** 
 533:C:/Users/Rui Mendes/Desktop/DAVE/_Naive/_ForTesting/Dave/Generated/CMSIS_DSP/Include\arm_math.h ****   /**
 534:C:/Users/Rui Mendes/Desktop/DAVE/_Naive/_ForTesting/Dave/Generated/CMSIS_DSP/Include\arm_math.h ****    * @brief 64-bit fractional data type in 1.63 format.
 535:C:/Users/Rui Mendes/Desktop/DAVE/_Naive/_ForTesting/Dave/Generated/CMSIS_DSP/Include\arm_math.h ****    */
 536:C:/Users/Rui Mendes/Desktop/DAVE/_Naive/_ForTesting/Dave/Generated/CMSIS_DSP/Include\arm_math.h ****   typedef int64_t q63_t;
 537:C:/Users/Rui Mendes/Desktop/DAVE/_Naive/_ForTesting/Dave/Generated/CMSIS_DSP/Include\arm_math.h **** 
 538:C:/Users/Rui Mendes/Desktop/DAVE/_Naive/_ForTesting/Dave/Generated/CMSIS_DSP/Include\arm_math.h ****   /**
 539:C:/Users/Rui Mendes/Desktop/DAVE/_Naive/_ForTesting/Dave/Generated/CMSIS_DSP/Include\arm_math.h ****    * @brief 32-bit floating-point type definition.
 540:C:/Users/Rui Mendes/Desktop/DAVE/_Naive/_ForTesting/Dave/Generated/CMSIS_DSP/Include\arm_math.h ****    */
 541:C:/Users/Rui Mendes/Desktop/DAVE/_Naive/_ForTesting/Dave/Generated/CMSIS_DSP/Include\arm_math.h ****   typedef float float32_t;
 542:C:/Users/Rui Mendes/Desktop/DAVE/_Naive/_ForTesting/Dave/Generated/CMSIS_DSP/Include\arm_math.h **** 
 543:C:/Users/Rui Mendes/Desktop/DAVE/_Naive/_ForTesting/Dave/Generated/CMSIS_DSP/Include\arm_math.h ****   /**
 544:C:/Users/Rui Mendes/Desktop/DAVE/_Naive/_ForTesting/Dave/Generated/CMSIS_DSP/Include\arm_math.h ****    * @brief 64-bit floating-point type definition.
 545:C:/Users/Rui Mendes/Desktop/DAVE/_Naive/_ForTesting/Dave/Generated/CMSIS_DSP/Include\arm_math.h ****    */
 546:C:/Users/Rui Mendes/Desktop/DAVE/_Naive/_ForTesting/Dave/Generated/CMSIS_DSP/Include\arm_math.h ****   typedef double float64_t;
 547:C:/Users/Rui Mendes/Desktop/DAVE/_Naive/_ForTesting/Dave/Generated/CMSIS_DSP/Include\arm_math.h **** 
 548:C:/Users/Rui Mendes/Desktop/DAVE/_Naive/_ForTesting/Dave/Generated/CMSIS_DSP/Include\arm_math.h ****   /**
 549:C:/Users/Rui Mendes/Desktop/DAVE/_Naive/_ForTesting/Dave/Generated/CMSIS_DSP/Include\arm_math.h ****    * @brief vector types
 550:C:/Users/Rui Mendes/Desktop/DAVE/_Naive/_ForTesting/Dave/Generated/CMSIS_DSP/Include\arm_math.h ****    */
 551:C:/Users/Rui Mendes/Desktop/DAVE/_Naive/_ForTesting/Dave/Generated/CMSIS_DSP/Include\arm_math.h **** #if defined(ARM_MATH_NEON) || defined (ARM_MATH_MVEI)
 552:C:/Users/Rui Mendes/Desktop/DAVE/_Naive/_ForTesting/Dave/Generated/CMSIS_DSP/Include\arm_math.h ****   /**
 553:C:/Users/Rui Mendes/Desktop/DAVE/_Naive/_ForTesting/Dave/Generated/CMSIS_DSP/Include\arm_math.h ****    * @brief 64-bit fractional 128-bit vector data type in 1.63 format
 554:C:/Users/Rui Mendes/Desktop/DAVE/_Naive/_ForTesting/Dave/Generated/CMSIS_DSP/Include\arm_math.h ****    */
 555:C:/Users/Rui Mendes/Desktop/DAVE/_Naive/_ForTesting/Dave/Generated/CMSIS_DSP/Include\arm_math.h ****   typedef int64x2_t q63x2_t;
 556:C:/Users/Rui Mendes/Desktop/DAVE/_Naive/_ForTesting/Dave/Generated/CMSIS_DSP/Include\arm_math.h **** 
 557:C:/Users/Rui Mendes/Desktop/DAVE/_Naive/_ForTesting/Dave/Generated/CMSIS_DSP/Include\arm_math.h ****   /**
 558:C:/Users/Rui Mendes/Desktop/DAVE/_Naive/_ForTesting/Dave/Generated/CMSIS_DSP/Include\arm_math.h ****    * @brief 32-bit fractional 128-bit vector data type in 1.31 format.
 559:C:/Users/Rui Mendes/Desktop/DAVE/_Naive/_ForTesting/Dave/Generated/CMSIS_DSP/Include\arm_math.h ****    */
 560:C:/Users/Rui Mendes/Desktop/DAVE/_Naive/_ForTesting/Dave/Generated/CMSIS_DSP/Include\arm_math.h ****   typedef int32x4_t q31x4_t;
 561:C:/Users/Rui Mendes/Desktop/DAVE/_Naive/_ForTesting/Dave/Generated/CMSIS_DSP/Include\arm_math.h **** 
 562:C:/Users/Rui Mendes/Desktop/DAVE/_Naive/_ForTesting/Dave/Generated/CMSIS_DSP/Include\arm_math.h ****   /**
 563:C:/Users/Rui Mendes/Desktop/DAVE/_Naive/_ForTesting/Dave/Generated/CMSIS_DSP/Include\arm_math.h ****    * @brief 16-bit fractional 128-bit vector data type with 16-bit alignement in 1.15 format.
 564:C:/Users/Rui Mendes/Desktop/DAVE/_Naive/_ForTesting/Dave/Generated/CMSIS_DSP/Include\arm_math.h ****    */
 565:C:/Users/Rui Mendes/Desktop/DAVE/_Naive/_ForTesting/Dave/Generated/CMSIS_DSP/Include\arm_math.h ****   typedef __ALIGNED(2) int16x8_t q15x8_t;
 566:C:/Users/Rui Mendes/Desktop/DAVE/_Naive/_ForTesting/Dave/Generated/CMSIS_DSP/Include\arm_math.h **** 
 567:C:/Users/Rui Mendes/Desktop/DAVE/_Naive/_ForTesting/Dave/Generated/CMSIS_DSP/Include\arm_math.h ****  /**
 568:C:/Users/Rui Mendes/Desktop/DAVE/_Naive/_ForTesting/Dave/Generated/CMSIS_DSP/Include\arm_math.h ****    * @brief 8-bit fractional 128-bit vector data type with 8-bit alignement in 1.7 format.
 569:C:/Users/Rui Mendes/Desktop/DAVE/_Naive/_ForTesting/Dave/Generated/CMSIS_DSP/Include\arm_math.h ****    */
 570:C:/Users/Rui Mendes/Desktop/DAVE/_Naive/_ForTesting/Dave/Generated/CMSIS_DSP/Include\arm_math.h ****   typedef __ALIGNED(1) int8x16_t q7x16_t;
 571:C:/Users/Rui Mendes/Desktop/DAVE/_Naive/_ForTesting/Dave/Generated/CMSIS_DSP/Include\arm_math.h **** 
 572:C:/Users/Rui Mendes/Desktop/DAVE/_Naive/_ForTesting/Dave/Generated/CMSIS_DSP/Include\arm_math.h ****     /**
 573:C:/Users/Rui Mendes/Desktop/DAVE/_Naive/_ForTesting/Dave/Generated/CMSIS_DSP/Include\arm_math.h ****    * @brief 32-bit fractional 128-bit vector pair data type in 1.31 format.
 574:C:/Users/Rui Mendes/Desktop/DAVE/_Naive/_ForTesting/Dave/Generated/CMSIS_DSP/Include\arm_math.h ****    */
 575:C:/Users/Rui Mendes/Desktop/DAVE/_Naive/_ForTesting/Dave/Generated/CMSIS_DSP/Include\arm_math.h ****   typedef int32x4x2_t q31x4x2_t;
 576:C:/Users/Rui Mendes/Desktop/DAVE/_Naive/_ForTesting/Dave/Generated/CMSIS_DSP/Include\arm_math.h **** 
 577:C:/Users/Rui Mendes/Desktop/DAVE/_Naive/_ForTesting/Dave/Generated/CMSIS_DSP/Include\arm_math.h ****   /**
 578:C:/Users/Rui Mendes/Desktop/DAVE/_Naive/_ForTesting/Dave/Generated/CMSIS_DSP/Include\arm_math.h ****    * @brief 32-bit fractional 128-bit vector quadruplet data type in 1.31 format.
 579:C:/Users/Rui Mendes/Desktop/DAVE/_Naive/_ForTesting/Dave/Generated/CMSIS_DSP/Include\arm_math.h ****    */
 580:C:/Users/Rui Mendes/Desktop/DAVE/_Naive/_ForTesting/Dave/Generated/CMSIS_DSP/Include\arm_math.h ****   typedef int32x4x4_t q31x4x4_t;
 581:C:/Users/Rui Mendes/Desktop/DAVE/_Naive/_ForTesting/Dave/Generated/CMSIS_DSP/Include\arm_math.h **** 
 582:C:/Users/Rui Mendes/Desktop/DAVE/_Naive/_ForTesting/Dave/Generated/CMSIS_DSP/Include\arm_math.h ****   /**
 583:C:/Users/Rui Mendes/Desktop/DAVE/_Naive/_ForTesting/Dave/Generated/CMSIS_DSP/Include\arm_math.h ****    * @brief 16-bit fractional 128-bit vector pair data type in 1.15 format.
 584:C:/Users/Rui Mendes/Desktop/DAVE/_Naive/_ForTesting/Dave/Generated/CMSIS_DSP/Include\arm_math.h ****    */
 585:C:/Users/Rui Mendes/Desktop/DAVE/_Naive/_ForTesting/Dave/Generated/CMSIS_DSP/Include\arm_math.h ****   typedef int16x8x2_t q15x8x2_t;
 586:C:/Users/Rui Mendes/Desktop/DAVE/_Naive/_ForTesting/Dave/Generated/CMSIS_DSP/Include\arm_math.h **** 
 587:C:/Users/Rui Mendes/Desktop/DAVE/_Naive/_ForTesting/Dave/Generated/CMSIS_DSP/Include\arm_math.h ****   /**
 588:C:/Users/Rui Mendes/Desktop/DAVE/_Naive/_ForTesting/Dave/Generated/CMSIS_DSP/Include\arm_math.h ****    * @brief 16-bit fractional 128-bit vector quadruplet data type in 1.15 format.
 589:C:/Users/Rui Mendes/Desktop/DAVE/_Naive/_ForTesting/Dave/Generated/CMSIS_DSP/Include\arm_math.h ****    */
 590:C:/Users/Rui Mendes/Desktop/DAVE/_Naive/_ForTesting/Dave/Generated/CMSIS_DSP/Include\arm_math.h ****   typedef int16x8x4_t q15x8x4_t;
 591:C:/Users/Rui Mendes/Desktop/DAVE/_Naive/_ForTesting/Dave/Generated/CMSIS_DSP/Include\arm_math.h **** 
 592:C:/Users/Rui Mendes/Desktop/DAVE/_Naive/_ForTesting/Dave/Generated/CMSIS_DSP/Include\arm_math.h ****   /**
 593:C:/Users/Rui Mendes/Desktop/DAVE/_Naive/_ForTesting/Dave/Generated/CMSIS_DSP/Include\arm_math.h ****    * @brief 8-bit fractional 128-bit vector pair data type in 1.7 format.
 594:C:/Users/Rui Mendes/Desktop/DAVE/_Naive/_ForTesting/Dave/Generated/CMSIS_DSP/Include\arm_math.h ****    */
 595:C:/Users/Rui Mendes/Desktop/DAVE/_Naive/_ForTesting/Dave/Generated/CMSIS_DSP/Include\arm_math.h ****   typedef int8x16x2_t q7x16x2_t;
 596:C:/Users/Rui Mendes/Desktop/DAVE/_Naive/_ForTesting/Dave/Generated/CMSIS_DSP/Include\arm_math.h **** 
 597:C:/Users/Rui Mendes/Desktop/DAVE/_Naive/_ForTesting/Dave/Generated/CMSIS_DSP/Include\arm_math.h ****   /**
 598:C:/Users/Rui Mendes/Desktop/DAVE/_Naive/_ForTesting/Dave/Generated/CMSIS_DSP/Include\arm_math.h ****    * @brief 8-bit fractional 128-bit vector quadruplet data type in 1.7 format.
 599:C:/Users/Rui Mendes/Desktop/DAVE/_Naive/_ForTesting/Dave/Generated/CMSIS_DSP/Include\arm_math.h ****    */
 600:C:/Users/Rui Mendes/Desktop/DAVE/_Naive/_ForTesting/Dave/Generated/CMSIS_DSP/Include\arm_math.h ****    typedef int8x16x4_t q7x16x4_t;
 601:C:/Users/Rui Mendes/Desktop/DAVE/_Naive/_ForTesting/Dave/Generated/CMSIS_DSP/Include\arm_math.h **** 
 602:C:/Users/Rui Mendes/Desktop/DAVE/_Naive/_ForTesting/Dave/Generated/CMSIS_DSP/Include\arm_math.h ****   /**
 603:C:/Users/Rui Mendes/Desktop/DAVE/_Naive/_ForTesting/Dave/Generated/CMSIS_DSP/Include\arm_math.h ****    * @brief 32-bit fractional data type in 9.23 format.
 604:C:/Users/Rui Mendes/Desktop/DAVE/_Naive/_ForTesting/Dave/Generated/CMSIS_DSP/Include\arm_math.h ****    */
 605:C:/Users/Rui Mendes/Desktop/DAVE/_Naive/_ForTesting/Dave/Generated/CMSIS_DSP/Include\arm_math.h ****   typedef int32_t q23_t;
 606:C:/Users/Rui Mendes/Desktop/DAVE/_Naive/_ForTesting/Dave/Generated/CMSIS_DSP/Include\arm_math.h **** 
 607:C:/Users/Rui Mendes/Desktop/DAVE/_Naive/_ForTesting/Dave/Generated/CMSIS_DSP/Include\arm_math.h ****   /**
 608:C:/Users/Rui Mendes/Desktop/DAVE/_Naive/_ForTesting/Dave/Generated/CMSIS_DSP/Include\arm_math.h ****    * @brief 32-bit fractional 128-bit vector data type in 9.23 format.
 609:C:/Users/Rui Mendes/Desktop/DAVE/_Naive/_ForTesting/Dave/Generated/CMSIS_DSP/Include\arm_math.h ****    */
 610:C:/Users/Rui Mendes/Desktop/DAVE/_Naive/_ForTesting/Dave/Generated/CMSIS_DSP/Include\arm_math.h ****   typedef int32x4_t q23x4_t;
 611:C:/Users/Rui Mendes/Desktop/DAVE/_Naive/_ForTesting/Dave/Generated/CMSIS_DSP/Include\arm_math.h **** 
 612:C:/Users/Rui Mendes/Desktop/DAVE/_Naive/_ForTesting/Dave/Generated/CMSIS_DSP/Include\arm_math.h ****   /**
 613:C:/Users/Rui Mendes/Desktop/DAVE/_Naive/_ForTesting/Dave/Generated/CMSIS_DSP/Include\arm_math.h ****    * @brief 64-bit status 128-bit vector data type.
 614:C:/Users/Rui Mendes/Desktop/DAVE/_Naive/_ForTesting/Dave/Generated/CMSIS_DSP/Include\arm_math.h ****    */
 615:C:/Users/Rui Mendes/Desktop/DAVE/_Naive/_ForTesting/Dave/Generated/CMSIS_DSP/Include\arm_math.h ****   typedef int64x2_t status64x2_t;
 616:C:/Users/Rui Mendes/Desktop/DAVE/_Naive/_ForTesting/Dave/Generated/CMSIS_DSP/Include\arm_math.h **** 
 617:C:/Users/Rui Mendes/Desktop/DAVE/_Naive/_ForTesting/Dave/Generated/CMSIS_DSP/Include\arm_math.h ****   /**
 618:C:/Users/Rui Mendes/Desktop/DAVE/_Naive/_ForTesting/Dave/Generated/CMSIS_DSP/Include\arm_math.h ****    * @brief 32-bit status 128-bit vector data type.
 619:C:/Users/Rui Mendes/Desktop/DAVE/_Naive/_ForTesting/Dave/Generated/CMSIS_DSP/Include\arm_math.h ****    */
 620:C:/Users/Rui Mendes/Desktop/DAVE/_Naive/_ForTesting/Dave/Generated/CMSIS_DSP/Include\arm_math.h ****   typedef int32x4_t status32x4_t;
 621:C:/Users/Rui Mendes/Desktop/DAVE/_Naive/_ForTesting/Dave/Generated/CMSIS_DSP/Include\arm_math.h **** 
 622:C:/Users/Rui Mendes/Desktop/DAVE/_Naive/_ForTesting/Dave/Generated/CMSIS_DSP/Include\arm_math.h ****   /**
 623:C:/Users/Rui Mendes/Desktop/DAVE/_Naive/_ForTesting/Dave/Generated/CMSIS_DSP/Include\arm_math.h ****    * @brief 16-bit status 128-bit vector data type.
 624:C:/Users/Rui Mendes/Desktop/DAVE/_Naive/_ForTesting/Dave/Generated/CMSIS_DSP/Include\arm_math.h ****    */
 625:C:/Users/Rui Mendes/Desktop/DAVE/_Naive/_ForTesting/Dave/Generated/CMSIS_DSP/Include\arm_math.h ****   typedef int16x8_t status16x8_t;
 626:C:/Users/Rui Mendes/Desktop/DAVE/_Naive/_ForTesting/Dave/Generated/CMSIS_DSP/Include\arm_math.h **** 
 627:C:/Users/Rui Mendes/Desktop/DAVE/_Naive/_ForTesting/Dave/Generated/CMSIS_DSP/Include\arm_math.h ****   /**
 628:C:/Users/Rui Mendes/Desktop/DAVE/_Naive/_ForTesting/Dave/Generated/CMSIS_DSP/Include\arm_math.h ****    * @brief 8-bit status 128-bit vector data type.
 629:C:/Users/Rui Mendes/Desktop/DAVE/_Naive/_ForTesting/Dave/Generated/CMSIS_DSP/Include\arm_math.h ****    */
 630:C:/Users/Rui Mendes/Desktop/DAVE/_Naive/_ForTesting/Dave/Generated/CMSIS_DSP/Include\arm_math.h ****   typedef int8x16_t status8x16_t;
 631:C:/Users/Rui Mendes/Desktop/DAVE/_Naive/_ForTesting/Dave/Generated/CMSIS_DSP/Include\arm_math.h **** 
 632:C:/Users/Rui Mendes/Desktop/DAVE/_Naive/_ForTesting/Dave/Generated/CMSIS_DSP/Include\arm_math.h **** 
 633:C:/Users/Rui Mendes/Desktop/DAVE/_Naive/_ForTesting/Dave/Generated/CMSIS_DSP/Include\arm_math.h **** #endif
 634:C:/Users/Rui Mendes/Desktop/DAVE/_Naive/_ForTesting/Dave/Generated/CMSIS_DSP/Include\arm_math.h **** 
 635:C:/Users/Rui Mendes/Desktop/DAVE/_Naive/_ForTesting/Dave/Generated/CMSIS_DSP/Include\arm_math.h **** #if defined(ARM_MATH_NEON) || defined(ARM_MATH_MVEF) /* floating point vector*/
 636:C:/Users/Rui Mendes/Desktop/DAVE/_Naive/_ForTesting/Dave/Generated/CMSIS_DSP/Include\arm_math.h ****   /**
 637:C:/Users/Rui Mendes/Desktop/DAVE/_Naive/_ForTesting/Dave/Generated/CMSIS_DSP/Include\arm_math.h ****    * @brief 32-bit floating-point 128-bit vector type
 638:C:/Users/Rui Mendes/Desktop/DAVE/_Naive/_ForTesting/Dave/Generated/CMSIS_DSP/Include\arm_math.h ****    */
 639:C:/Users/Rui Mendes/Desktop/DAVE/_Naive/_ForTesting/Dave/Generated/CMSIS_DSP/Include\arm_math.h ****   typedef float32x4_t f32x4_t;
 640:C:/Users/Rui Mendes/Desktop/DAVE/_Naive/_ForTesting/Dave/Generated/CMSIS_DSP/Include\arm_math.h **** 
 641:C:/Users/Rui Mendes/Desktop/DAVE/_Naive/_ForTesting/Dave/Generated/CMSIS_DSP/Include\arm_math.h **** #if defined(ARM_MATH_FLOAT16)
 642:C:/Users/Rui Mendes/Desktop/DAVE/_Naive/_ForTesting/Dave/Generated/CMSIS_DSP/Include\arm_math.h ****   /**
 643:C:/Users/Rui Mendes/Desktop/DAVE/_Naive/_ForTesting/Dave/Generated/CMSIS_DSP/Include\arm_math.h ****    * @brief 16-bit floating-point 128-bit vector data type
 644:C:/Users/Rui Mendes/Desktop/DAVE/_Naive/_ForTesting/Dave/Generated/CMSIS_DSP/Include\arm_math.h ****    */
 645:C:/Users/Rui Mendes/Desktop/DAVE/_Naive/_ForTesting/Dave/Generated/CMSIS_DSP/Include\arm_math.h ****   typedef __ALIGNED(2) float16x8_t f16x8_t;
 646:C:/Users/Rui Mendes/Desktop/DAVE/_Naive/_ForTesting/Dave/Generated/CMSIS_DSP/Include\arm_math.h **** #endif
 647:C:/Users/Rui Mendes/Desktop/DAVE/_Naive/_ForTesting/Dave/Generated/CMSIS_DSP/Include\arm_math.h **** 
 648:C:/Users/Rui Mendes/Desktop/DAVE/_Naive/_ForTesting/Dave/Generated/CMSIS_DSP/Include\arm_math.h ****   /**
 649:C:/Users/Rui Mendes/Desktop/DAVE/_Naive/_ForTesting/Dave/Generated/CMSIS_DSP/Include\arm_math.h ****    * @brief 32-bit floating-point 128-bit vector pair data type
 650:C:/Users/Rui Mendes/Desktop/DAVE/_Naive/_ForTesting/Dave/Generated/CMSIS_DSP/Include\arm_math.h ****    */
 651:C:/Users/Rui Mendes/Desktop/DAVE/_Naive/_ForTesting/Dave/Generated/CMSIS_DSP/Include\arm_math.h ****   typedef float32x4x2_t f32x4x2_t;
 652:C:/Users/Rui Mendes/Desktop/DAVE/_Naive/_ForTesting/Dave/Generated/CMSIS_DSP/Include\arm_math.h **** 
 653:C:/Users/Rui Mendes/Desktop/DAVE/_Naive/_ForTesting/Dave/Generated/CMSIS_DSP/Include\arm_math.h ****   /**
 654:C:/Users/Rui Mendes/Desktop/DAVE/_Naive/_ForTesting/Dave/Generated/CMSIS_DSP/Include\arm_math.h ****    * @brief 32-bit floating-point 128-bit vector quadruplet data type
 655:C:/Users/Rui Mendes/Desktop/DAVE/_Naive/_ForTesting/Dave/Generated/CMSIS_DSP/Include\arm_math.h ****    */
 656:C:/Users/Rui Mendes/Desktop/DAVE/_Naive/_ForTesting/Dave/Generated/CMSIS_DSP/Include\arm_math.h ****   typedef float32x4x4_t f32x4x4_t;
 657:C:/Users/Rui Mendes/Desktop/DAVE/_Naive/_ForTesting/Dave/Generated/CMSIS_DSP/Include\arm_math.h **** 
 658:C:/Users/Rui Mendes/Desktop/DAVE/_Naive/_ForTesting/Dave/Generated/CMSIS_DSP/Include\arm_math.h **** #if defined(ARM_MATH_FLOAT16)
 659:C:/Users/Rui Mendes/Desktop/DAVE/_Naive/_ForTesting/Dave/Generated/CMSIS_DSP/Include\arm_math.h ****   /**
 660:C:/Users/Rui Mendes/Desktop/DAVE/_Naive/_ForTesting/Dave/Generated/CMSIS_DSP/Include\arm_math.h ****    * @brief 16-bit floating-point 128-bit vector pair data type
 661:C:/Users/Rui Mendes/Desktop/DAVE/_Naive/_ForTesting/Dave/Generated/CMSIS_DSP/Include\arm_math.h ****    */
 662:C:/Users/Rui Mendes/Desktop/DAVE/_Naive/_ForTesting/Dave/Generated/CMSIS_DSP/Include\arm_math.h ****   typedef float16x8x2_t f16x8x2_t;
 663:C:/Users/Rui Mendes/Desktop/DAVE/_Naive/_ForTesting/Dave/Generated/CMSIS_DSP/Include\arm_math.h **** 
 664:C:/Users/Rui Mendes/Desktop/DAVE/_Naive/_ForTesting/Dave/Generated/CMSIS_DSP/Include\arm_math.h ****   /**
 665:C:/Users/Rui Mendes/Desktop/DAVE/_Naive/_ForTesting/Dave/Generated/CMSIS_DSP/Include\arm_math.h ****    * @brief 16-bit floating-point 128-bit vector quadruplet data type
 666:C:/Users/Rui Mendes/Desktop/DAVE/_Naive/_ForTesting/Dave/Generated/CMSIS_DSP/Include\arm_math.h ****    */
 667:C:/Users/Rui Mendes/Desktop/DAVE/_Naive/_ForTesting/Dave/Generated/CMSIS_DSP/Include\arm_math.h ****   typedef float16x8x4_t f16x8x4_t;
 668:C:/Users/Rui Mendes/Desktop/DAVE/_Naive/_ForTesting/Dave/Generated/CMSIS_DSP/Include\arm_math.h **** #endif
 669:C:/Users/Rui Mendes/Desktop/DAVE/_Naive/_ForTesting/Dave/Generated/CMSIS_DSP/Include\arm_math.h **** 
 670:C:/Users/Rui Mendes/Desktop/DAVE/_Naive/_ForTesting/Dave/Generated/CMSIS_DSP/Include\arm_math.h ****   /**
 671:C:/Users/Rui Mendes/Desktop/DAVE/_Naive/_ForTesting/Dave/Generated/CMSIS_DSP/Include\arm_math.h ****    * @brief 32-bit ubiquitous 128-bit vector data type
 672:C:/Users/Rui Mendes/Desktop/DAVE/_Naive/_ForTesting/Dave/Generated/CMSIS_DSP/Include\arm_math.h ****    */
 673:C:/Users/Rui Mendes/Desktop/DAVE/_Naive/_ForTesting/Dave/Generated/CMSIS_DSP/Include\arm_math.h ****   typedef union _any32x4_t
 674:C:/Users/Rui Mendes/Desktop/DAVE/_Naive/_ForTesting/Dave/Generated/CMSIS_DSP/Include\arm_math.h ****   {
 675:C:/Users/Rui Mendes/Desktop/DAVE/_Naive/_ForTesting/Dave/Generated/CMSIS_DSP/Include\arm_math.h ****       float32x4_t     f;
 676:C:/Users/Rui Mendes/Desktop/DAVE/_Naive/_ForTesting/Dave/Generated/CMSIS_DSP/Include\arm_math.h ****       int32x4_t       i;
 677:C:/Users/Rui Mendes/Desktop/DAVE/_Naive/_ForTesting/Dave/Generated/CMSIS_DSP/Include\arm_math.h ****   } any32x4_t;
 678:C:/Users/Rui Mendes/Desktop/DAVE/_Naive/_ForTesting/Dave/Generated/CMSIS_DSP/Include\arm_math.h **** 
 679:C:/Users/Rui Mendes/Desktop/DAVE/_Naive/_ForTesting/Dave/Generated/CMSIS_DSP/Include\arm_math.h **** #if defined(ARM_MATH_FLOAT16)
 680:C:/Users/Rui Mendes/Desktop/DAVE/_Naive/_ForTesting/Dave/Generated/CMSIS_DSP/Include\arm_math.h ****   /**
 681:C:/Users/Rui Mendes/Desktop/DAVE/_Naive/_ForTesting/Dave/Generated/CMSIS_DSP/Include\arm_math.h ****    * @brief 16-bit ubiquitous 128-bit vector data type
 682:C:/Users/Rui Mendes/Desktop/DAVE/_Naive/_ForTesting/Dave/Generated/CMSIS_DSP/Include\arm_math.h ****    */
 683:C:/Users/Rui Mendes/Desktop/DAVE/_Naive/_ForTesting/Dave/Generated/CMSIS_DSP/Include\arm_math.h ****   typedef union _any16x8_t
 684:C:/Users/Rui Mendes/Desktop/DAVE/_Naive/_ForTesting/Dave/Generated/CMSIS_DSP/Include\arm_math.h ****   {
 685:C:/Users/Rui Mendes/Desktop/DAVE/_Naive/_ForTesting/Dave/Generated/CMSIS_DSP/Include\arm_math.h ****       float16x8_t     f;
 686:C:/Users/Rui Mendes/Desktop/DAVE/_Naive/_ForTesting/Dave/Generated/CMSIS_DSP/Include\arm_math.h ****       int16x8_t       i;
 687:C:/Users/Rui Mendes/Desktop/DAVE/_Naive/_ForTesting/Dave/Generated/CMSIS_DSP/Include\arm_math.h ****   } any16x8_t;
 688:C:/Users/Rui Mendes/Desktop/DAVE/_Naive/_ForTesting/Dave/Generated/CMSIS_DSP/Include\arm_math.h **** #endif
 689:C:/Users/Rui Mendes/Desktop/DAVE/_Naive/_ForTesting/Dave/Generated/CMSIS_DSP/Include\arm_math.h **** 
 690:C:/Users/Rui Mendes/Desktop/DAVE/_Naive/_ForTesting/Dave/Generated/CMSIS_DSP/Include\arm_math.h **** #endif
 691:C:/Users/Rui Mendes/Desktop/DAVE/_Naive/_ForTesting/Dave/Generated/CMSIS_DSP/Include\arm_math.h **** 
 692:C:/Users/Rui Mendes/Desktop/DAVE/_Naive/_ForTesting/Dave/Generated/CMSIS_DSP/Include\arm_math.h **** #if defined(ARM_MATH_NEON)
 693:C:/Users/Rui Mendes/Desktop/DAVE/_Naive/_ForTesting/Dave/Generated/CMSIS_DSP/Include\arm_math.h ****   /**
 694:C:/Users/Rui Mendes/Desktop/DAVE/_Naive/_ForTesting/Dave/Generated/CMSIS_DSP/Include\arm_math.h ****    * @brief 32-bit fractional 64-bit vector data type in 1.31 format.
 695:C:/Users/Rui Mendes/Desktop/DAVE/_Naive/_ForTesting/Dave/Generated/CMSIS_DSP/Include\arm_math.h ****    */
 696:C:/Users/Rui Mendes/Desktop/DAVE/_Naive/_ForTesting/Dave/Generated/CMSIS_DSP/Include\arm_math.h ****   typedef int32x2_t  q31x2_t;
 697:C:/Users/Rui Mendes/Desktop/DAVE/_Naive/_ForTesting/Dave/Generated/CMSIS_DSP/Include\arm_math.h **** 
 698:C:/Users/Rui Mendes/Desktop/DAVE/_Naive/_ForTesting/Dave/Generated/CMSIS_DSP/Include\arm_math.h ****   /**
 699:C:/Users/Rui Mendes/Desktop/DAVE/_Naive/_ForTesting/Dave/Generated/CMSIS_DSP/Include\arm_math.h ****    * @brief 16-bit fractional 64-bit vector data type in 1.15 format.
 700:C:/Users/Rui Mendes/Desktop/DAVE/_Naive/_ForTesting/Dave/Generated/CMSIS_DSP/Include\arm_math.h ****    */
 701:C:/Users/Rui Mendes/Desktop/DAVE/_Naive/_ForTesting/Dave/Generated/CMSIS_DSP/Include\arm_math.h ****   typedef  __ALIGNED(2) int16x4_t q15x4_t;
 702:C:/Users/Rui Mendes/Desktop/DAVE/_Naive/_ForTesting/Dave/Generated/CMSIS_DSP/Include\arm_math.h **** 
 703:C:/Users/Rui Mendes/Desktop/DAVE/_Naive/_ForTesting/Dave/Generated/CMSIS_DSP/Include\arm_math.h ****   /**
 704:C:/Users/Rui Mendes/Desktop/DAVE/_Naive/_ForTesting/Dave/Generated/CMSIS_DSP/Include\arm_math.h ****    * @brief 8-bit fractional 64-bit vector data type in 1.7 format.
 705:C:/Users/Rui Mendes/Desktop/DAVE/_Naive/_ForTesting/Dave/Generated/CMSIS_DSP/Include\arm_math.h ****    */
 706:C:/Users/Rui Mendes/Desktop/DAVE/_Naive/_ForTesting/Dave/Generated/CMSIS_DSP/Include\arm_math.h ****   typedef  __ALIGNED(1) int8x8_t q7x8_t;
 707:C:/Users/Rui Mendes/Desktop/DAVE/_Naive/_ForTesting/Dave/Generated/CMSIS_DSP/Include\arm_math.h **** 
 708:C:/Users/Rui Mendes/Desktop/DAVE/_Naive/_ForTesting/Dave/Generated/CMSIS_DSP/Include\arm_math.h ****   /**
 709:C:/Users/Rui Mendes/Desktop/DAVE/_Naive/_ForTesting/Dave/Generated/CMSIS_DSP/Include\arm_math.h ****    * @brief 32-bit float 64-bit vector data type.
 710:C:/Users/Rui Mendes/Desktop/DAVE/_Naive/_ForTesting/Dave/Generated/CMSIS_DSP/Include\arm_math.h ****    */
 711:C:/Users/Rui Mendes/Desktop/DAVE/_Naive/_ForTesting/Dave/Generated/CMSIS_DSP/Include\arm_math.h ****   typedef float32x2_t  f32x2_t;
 712:C:/Users/Rui Mendes/Desktop/DAVE/_Naive/_ForTesting/Dave/Generated/CMSIS_DSP/Include\arm_math.h **** 
 713:C:/Users/Rui Mendes/Desktop/DAVE/_Naive/_ForTesting/Dave/Generated/CMSIS_DSP/Include\arm_math.h **** #if defined(ARM_MATH_FLOAT16)
 714:C:/Users/Rui Mendes/Desktop/DAVE/_Naive/_ForTesting/Dave/Generated/CMSIS_DSP/Include\arm_math.h ****   /**
 715:C:/Users/Rui Mendes/Desktop/DAVE/_Naive/_ForTesting/Dave/Generated/CMSIS_DSP/Include\arm_math.h ****    * @brief 16-bit float 64-bit vector data type.
 716:C:/Users/Rui Mendes/Desktop/DAVE/_Naive/_ForTesting/Dave/Generated/CMSIS_DSP/Include\arm_math.h ****    */
 717:C:/Users/Rui Mendes/Desktop/DAVE/_Naive/_ForTesting/Dave/Generated/CMSIS_DSP/Include\arm_math.h ****   typedef  __ALIGNED(2) float16x4_t f16x4_t;
 718:C:/Users/Rui Mendes/Desktop/DAVE/_Naive/_ForTesting/Dave/Generated/CMSIS_DSP/Include\arm_math.h **** #endif 
 719:C:/Users/Rui Mendes/Desktop/DAVE/_Naive/_ForTesting/Dave/Generated/CMSIS_DSP/Include\arm_math.h **** 
 720:C:/Users/Rui Mendes/Desktop/DAVE/_Naive/_ForTesting/Dave/Generated/CMSIS_DSP/Include\arm_math.h ****   /**
 721:C:/Users/Rui Mendes/Desktop/DAVE/_Naive/_ForTesting/Dave/Generated/CMSIS_DSP/Include\arm_math.h ****    * @brief 32-bit floating-point 128-bit vector triplet data type
 722:C:/Users/Rui Mendes/Desktop/DAVE/_Naive/_ForTesting/Dave/Generated/CMSIS_DSP/Include\arm_math.h ****    */
 723:C:/Users/Rui Mendes/Desktop/DAVE/_Naive/_ForTesting/Dave/Generated/CMSIS_DSP/Include\arm_math.h ****   typedef float32x4x3_t f32x4x3_t;
 724:C:/Users/Rui Mendes/Desktop/DAVE/_Naive/_ForTesting/Dave/Generated/CMSIS_DSP/Include\arm_math.h **** 
 725:C:/Users/Rui Mendes/Desktop/DAVE/_Naive/_ForTesting/Dave/Generated/CMSIS_DSP/Include\arm_math.h **** #if defined(ARM_MATH_FLOAT16)
 726:C:/Users/Rui Mendes/Desktop/DAVE/_Naive/_ForTesting/Dave/Generated/CMSIS_DSP/Include\arm_math.h ****   /**
 727:C:/Users/Rui Mendes/Desktop/DAVE/_Naive/_ForTesting/Dave/Generated/CMSIS_DSP/Include\arm_math.h ****    * @brief 16-bit floating-point 128-bit vector triplet data type
 728:C:/Users/Rui Mendes/Desktop/DAVE/_Naive/_ForTesting/Dave/Generated/CMSIS_DSP/Include\arm_math.h ****    */
 729:C:/Users/Rui Mendes/Desktop/DAVE/_Naive/_ForTesting/Dave/Generated/CMSIS_DSP/Include\arm_math.h ****   typedef float16x8x3_t f16x8x3_t;
 730:C:/Users/Rui Mendes/Desktop/DAVE/_Naive/_ForTesting/Dave/Generated/CMSIS_DSP/Include\arm_math.h **** #endif
 731:C:/Users/Rui Mendes/Desktop/DAVE/_Naive/_ForTesting/Dave/Generated/CMSIS_DSP/Include\arm_math.h **** 
 732:C:/Users/Rui Mendes/Desktop/DAVE/_Naive/_ForTesting/Dave/Generated/CMSIS_DSP/Include\arm_math.h ****   /**
 733:C:/Users/Rui Mendes/Desktop/DAVE/_Naive/_ForTesting/Dave/Generated/CMSIS_DSP/Include\arm_math.h ****    * @brief 32-bit fractional 128-bit vector triplet data type in 1.31 format
 734:C:/Users/Rui Mendes/Desktop/DAVE/_Naive/_ForTesting/Dave/Generated/CMSIS_DSP/Include\arm_math.h ****    */
 735:C:/Users/Rui Mendes/Desktop/DAVE/_Naive/_ForTesting/Dave/Generated/CMSIS_DSP/Include\arm_math.h ****   typedef int32x4x3_t q31x4x3_t;
 736:C:/Users/Rui Mendes/Desktop/DAVE/_Naive/_ForTesting/Dave/Generated/CMSIS_DSP/Include\arm_math.h **** 
 737:C:/Users/Rui Mendes/Desktop/DAVE/_Naive/_ForTesting/Dave/Generated/CMSIS_DSP/Include\arm_math.h ****   /**
 738:C:/Users/Rui Mendes/Desktop/DAVE/_Naive/_ForTesting/Dave/Generated/CMSIS_DSP/Include\arm_math.h ****    * @brief 16-bit fractional 128-bit vector triplet data type in 1.15 format
 739:C:/Users/Rui Mendes/Desktop/DAVE/_Naive/_ForTesting/Dave/Generated/CMSIS_DSP/Include\arm_math.h ****    */
 740:C:/Users/Rui Mendes/Desktop/DAVE/_Naive/_ForTesting/Dave/Generated/CMSIS_DSP/Include\arm_math.h ****   typedef int16x8x3_t q15x8x3_t;
 741:C:/Users/Rui Mendes/Desktop/DAVE/_Naive/_ForTesting/Dave/Generated/CMSIS_DSP/Include\arm_math.h **** 
 742:C:/Users/Rui Mendes/Desktop/DAVE/_Naive/_ForTesting/Dave/Generated/CMSIS_DSP/Include\arm_math.h ****   /**
 743:C:/Users/Rui Mendes/Desktop/DAVE/_Naive/_ForTesting/Dave/Generated/CMSIS_DSP/Include\arm_math.h ****    * @brief 8-bit fractional 128-bit vector triplet data type in 1.7 format
 744:C:/Users/Rui Mendes/Desktop/DAVE/_Naive/_ForTesting/Dave/Generated/CMSIS_DSP/Include\arm_math.h ****    */
 745:C:/Users/Rui Mendes/Desktop/DAVE/_Naive/_ForTesting/Dave/Generated/CMSIS_DSP/Include\arm_math.h ****   typedef int8x16x3_t q7x16x3_t;
 746:C:/Users/Rui Mendes/Desktop/DAVE/_Naive/_ForTesting/Dave/Generated/CMSIS_DSP/Include\arm_math.h **** 
 747:C:/Users/Rui Mendes/Desktop/DAVE/_Naive/_ForTesting/Dave/Generated/CMSIS_DSP/Include\arm_math.h ****   /**
 748:C:/Users/Rui Mendes/Desktop/DAVE/_Naive/_ForTesting/Dave/Generated/CMSIS_DSP/Include\arm_math.h ****    * @brief 32-bit floating-point 64-bit vector pair data type
 749:C:/Users/Rui Mendes/Desktop/DAVE/_Naive/_ForTesting/Dave/Generated/CMSIS_DSP/Include\arm_math.h ****    */
 750:C:/Users/Rui Mendes/Desktop/DAVE/_Naive/_ForTesting/Dave/Generated/CMSIS_DSP/Include\arm_math.h ****   typedef float32x2x2_t f32x2x2_t;
 751:C:/Users/Rui Mendes/Desktop/DAVE/_Naive/_ForTesting/Dave/Generated/CMSIS_DSP/Include\arm_math.h **** 
 752:C:/Users/Rui Mendes/Desktop/DAVE/_Naive/_ForTesting/Dave/Generated/CMSIS_DSP/Include\arm_math.h ****   /**
 753:C:/Users/Rui Mendes/Desktop/DAVE/_Naive/_ForTesting/Dave/Generated/CMSIS_DSP/Include\arm_math.h ****    * @brief 32-bit floating-point 64-bit vector triplet data type
 754:C:/Users/Rui Mendes/Desktop/DAVE/_Naive/_ForTesting/Dave/Generated/CMSIS_DSP/Include\arm_math.h ****    */
 755:C:/Users/Rui Mendes/Desktop/DAVE/_Naive/_ForTesting/Dave/Generated/CMSIS_DSP/Include\arm_math.h ****   typedef float32x2x3_t f32x2x3_t;
 756:C:/Users/Rui Mendes/Desktop/DAVE/_Naive/_ForTesting/Dave/Generated/CMSIS_DSP/Include\arm_math.h **** 
 757:C:/Users/Rui Mendes/Desktop/DAVE/_Naive/_ForTesting/Dave/Generated/CMSIS_DSP/Include\arm_math.h ****   /**
 758:C:/Users/Rui Mendes/Desktop/DAVE/_Naive/_ForTesting/Dave/Generated/CMSIS_DSP/Include\arm_math.h ****    * @brief 32-bit floating-point 64-bit vector quadruplet data type
 759:C:/Users/Rui Mendes/Desktop/DAVE/_Naive/_ForTesting/Dave/Generated/CMSIS_DSP/Include\arm_math.h ****    */
 760:C:/Users/Rui Mendes/Desktop/DAVE/_Naive/_ForTesting/Dave/Generated/CMSIS_DSP/Include\arm_math.h ****   typedef float32x2x4_t f32x2x4_t;
 761:C:/Users/Rui Mendes/Desktop/DAVE/_Naive/_ForTesting/Dave/Generated/CMSIS_DSP/Include\arm_math.h **** 
 762:C:/Users/Rui Mendes/Desktop/DAVE/_Naive/_ForTesting/Dave/Generated/CMSIS_DSP/Include\arm_math.h **** #if defined(ARM_MATH_FLOAT16)
 763:C:/Users/Rui Mendes/Desktop/DAVE/_Naive/_ForTesting/Dave/Generated/CMSIS_DSP/Include\arm_math.h ****   /**
 764:C:/Users/Rui Mendes/Desktop/DAVE/_Naive/_ForTesting/Dave/Generated/CMSIS_DSP/Include\arm_math.h ****    * @brief 16-bit floating-point 64-bit vector pair data type
 765:C:/Users/Rui Mendes/Desktop/DAVE/_Naive/_ForTesting/Dave/Generated/CMSIS_DSP/Include\arm_math.h ****    */
 766:C:/Users/Rui Mendes/Desktop/DAVE/_Naive/_ForTesting/Dave/Generated/CMSIS_DSP/Include\arm_math.h ****   typedef float16x4x2_t f16x4x2_t;
 767:C:/Users/Rui Mendes/Desktop/DAVE/_Naive/_ForTesting/Dave/Generated/CMSIS_DSP/Include\arm_math.h **** 
 768:C:/Users/Rui Mendes/Desktop/DAVE/_Naive/_ForTesting/Dave/Generated/CMSIS_DSP/Include\arm_math.h ****   /**
 769:C:/Users/Rui Mendes/Desktop/DAVE/_Naive/_ForTesting/Dave/Generated/CMSIS_DSP/Include\arm_math.h ****    * @brief 16-bit floating-point 64-bit vector triplet data type
 770:C:/Users/Rui Mendes/Desktop/DAVE/_Naive/_ForTesting/Dave/Generated/CMSIS_DSP/Include\arm_math.h ****    */
 771:C:/Users/Rui Mendes/Desktop/DAVE/_Naive/_ForTesting/Dave/Generated/CMSIS_DSP/Include\arm_math.h ****   typedef float16x4x3_t f16x4x3_t;
 772:C:/Users/Rui Mendes/Desktop/DAVE/_Naive/_ForTesting/Dave/Generated/CMSIS_DSP/Include\arm_math.h **** 
 773:C:/Users/Rui Mendes/Desktop/DAVE/_Naive/_ForTesting/Dave/Generated/CMSIS_DSP/Include\arm_math.h ****   /**
 774:C:/Users/Rui Mendes/Desktop/DAVE/_Naive/_ForTesting/Dave/Generated/CMSIS_DSP/Include\arm_math.h ****    * @brief 16-bit floating-point 64-bit vector quadruplet data type
 775:C:/Users/Rui Mendes/Desktop/DAVE/_Naive/_ForTesting/Dave/Generated/CMSIS_DSP/Include\arm_math.h ****    */
 776:C:/Users/Rui Mendes/Desktop/DAVE/_Naive/_ForTesting/Dave/Generated/CMSIS_DSP/Include\arm_math.h ****   typedef float16x4x4_t f16x4x4_t;
 777:C:/Users/Rui Mendes/Desktop/DAVE/_Naive/_ForTesting/Dave/Generated/CMSIS_DSP/Include\arm_math.h **** #endif 
 778:C:/Users/Rui Mendes/Desktop/DAVE/_Naive/_ForTesting/Dave/Generated/CMSIS_DSP/Include\arm_math.h **** 
 779:C:/Users/Rui Mendes/Desktop/DAVE/_Naive/_ForTesting/Dave/Generated/CMSIS_DSP/Include\arm_math.h ****   /**
 780:C:/Users/Rui Mendes/Desktop/DAVE/_Naive/_ForTesting/Dave/Generated/CMSIS_DSP/Include\arm_math.h ****    * @brief 32-bit fractional 64-bit vector pair data type in 1.31 format
 781:C:/Users/Rui Mendes/Desktop/DAVE/_Naive/_ForTesting/Dave/Generated/CMSIS_DSP/Include\arm_math.h ****    */
 782:C:/Users/Rui Mendes/Desktop/DAVE/_Naive/_ForTesting/Dave/Generated/CMSIS_DSP/Include\arm_math.h ****   typedef int32x2x2_t q31x2x2_t;
 783:C:/Users/Rui Mendes/Desktop/DAVE/_Naive/_ForTesting/Dave/Generated/CMSIS_DSP/Include\arm_math.h **** 
 784:C:/Users/Rui Mendes/Desktop/DAVE/_Naive/_ForTesting/Dave/Generated/CMSIS_DSP/Include\arm_math.h ****   /**
 785:C:/Users/Rui Mendes/Desktop/DAVE/_Naive/_ForTesting/Dave/Generated/CMSIS_DSP/Include\arm_math.h ****    * @brief 32-bit fractional 64-bit vector triplet data type in 1.31 format
 786:C:/Users/Rui Mendes/Desktop/DAVE/_Naive/_ForTesting/Dave/Generated/CMSIS_DSP/Include\arm_math.h ****    */
 787:C:/Users/Rui Mendes/Desktop/DAVE/_Naive/_ForTesting/Dave/Generated/CMSIS_DSP/Include\arm_math.h ****   typedef int32x2x3_t q31x2x3_t;
 788:C:/Users/Rui Mendes/Desktop/DAVE/_Naive/_ForTesting/Dave/Generated/CMSIS_DSP/Include\arm_math.h **** 
 789:C:/Users/Rui Mendes/Desktop/DAVE/_Naive/_ForTesting/Dave/Generated/CMSIS_DSP/Include\arm_math.h ****   /**
 790:C:/Users/Rui Mendes/Desktop/DAVE/_Naive/_ForTesting/Dave/Generated/CMSIS_DSP/Include\arm_math.h ****    * @brief 32-bit fractional 64-bit vector quadruplet data type in 1.31 format
 791:C:/Users/Rui Mendes/Desktop/DAVE/_Naive/_ForTesting/Dave/Generated/CMSIS_DSP/Include\arm_math.h ****    */
 792:C:/Users/Rui Mendes/Desktop/DAVE/_Naive/_ForTesting/Dave/Generated/CMSIS_DSP/Include\arm_math.h ****   typedef int32x4x3_t q31x2x4_t;
 793:C:/Users/Rui Mendes/Desktop/DAVE/_Naive/_ForTesting/Dave/Generated/CMSIS_DSP/Include\arm_math.h **** 
 794:C:/Users/Rui Mendes/Desktop/DAVE/_Naive/_ForTesting/Dave/Generated/CMSIS_DSP/Include\arm_math.h ****   /**
 795:C:/Users/Rui Mendes/Desktop/DAVE/_Naive/_ForTesting/Dave/Generated/CMSIS_DSP/Include\arm_math.h ****    * @brief 16-bit fractional 64-bit vector pair data type in 1.15 format
 796:C:/Users/Rui Mendes/Desktop/DAVE/_Naive/_ForTesting/Dave/Generated/CMSIS_DSP/Include\arm_math.h ****    */
 797:C:/Users/Rui Mendes/Desktop/DAVE/_Naive/_ForTesting/Dave/Generated/CMSIS_DSP/Include\arm_math.h ****   typedef int16x4x2_t q15x4x2_t;
 798:C:/Users/Rui Mendes/Desktop/DAVE/_Naive/_ForTesting/Dave/Generated/CMSIS_DSP/Include\arm_math.h **** 
 799:C:/Users/Rui Mendes/Desktop/DAVE/_Naive/_ForTesting/Dave/Generated/CMSIS_DSP/Include\arm_math.h ****   /**
 800:C:/Users/Rui Mendes/Desktop/DAVE/_Naive/_ForTesting/Dave/Generated/CMSIS_DSP/Include\arm_math.h ****    * @brief 16-bit fractional 64-bit vector triplet data type in 1.15 format
 801:C:/Users/Rui Mendes/Desktop/DAVE/_Naive/_ForTesting/Dave/Generated/CMSIS_DSP/Include\arm_math.h ****    */
 802:C:/Users/Rui Mendes/Desktop/DAVE/_Naive/_ForTesting/Dave/Generated/CMSIS_DSP/Include\arm_math.h ****   typedef int16x4x2_t q15x4x3_t;
 803:C:/Users/Rui Mendes/Desktop/DAVE/_Naive/_ForTesting/Dave/Generated/CMSIS_DSP/Include\arm_math.h **** 
 804:C:/Users/Rui Mendes/Desktop/DAVE/_Naive/_ForTesting/Dave/Generated/CMSIS_DSP/Include\arm_math.h ****   /**
 805:C:/Users/Rui Mendes/Desktop/DAVE/_Naive/_ForTesting/Dave/Generated/CMSIS_DSP/Include\arm_math.h ****    * @brief 16-bit fractional 64-bit vector quadruplet data type in 1.15 format
 806:C:/Users/Rui Mendes/Desktop/DAVE/_Naive/_ForTesting/Dave/Generated/CMSIS_DSP/Include\arm_math.h ****    */
 807:C:/Users/Rui Mendes/Desktop/DAVE/_Naive/_ForTesting/Dave/Generated/CMSIS_DSP/Include\arm_math.h ****   typedef int16x4x3_t q15x4x4_t;
 808:C:/Users/Rui Mendes/Desktop/DAVE/_Naive/_ForTesting/Dave/Generated/CMSIS_DSP/Include\arm_math.h **** 
 809:C:/Users/Rui Mendes/Desktop/DAVE/_Naive/_ForTesting/Dave/Generated/CMSIS_DSP/Include\arm_math.h ****   /**
 810:C:/Users/Rui Mendes/Desktop/DAVE/_Naive/_ForTesting/Dave/Generated/CMSIS_DSP/Include\arm_math.h ****    * @brief 8-bit fractional 64-bit vector pair data type in 1.7 format
 811:C:/Users/Rui Mendes/Desktop/DAVE/_Naive/_ForTesting/Dave/Generated/CMSIS_DSP/Include\arm_math.h ****    */
 812:C:/Users/Rui Mendes/Desktop/DAVE/_Naive/_ForTesting/Dave/Generated/CMSIS_DSP/Include\arm_math.h ****   typedef int8x8x2_t q7x8x2_t;
 813:C:/Users/Rui Mendes/Desktop/DAVE/_Naive/_ForTesting/Dave/Generated/CMSIS_DSP/Include\arm_math.h **** 
 814:C:/Users/Rui Mendes/Desktop/DAVE/_Naive/_ForTesting/Dave/Generated/CMSIS_DSP/Include\arm_math.h ****   /**
 815:C:/Users/Rui Mendes/Desktop/DAVE/_Naive/_ForTesting/Dave/Generated/CMSIS_DSP/Include\arm_math.h ****    * @brief 8-bit fractional 64-bit vector triplet data type in 1.7 format
 816:C:/Users/Rui Mendes/Desktop/DAVE/_Naive/_ForTesting/Dave/Generated/CMSIS_DSP/Include\arm_math.h ****    */
 817:C:/Users/Rui Mendes/Desktop/DAVE/_Naive/_ForTesting/Dave/Generated/CMSIS_DSP/Include\arm_math.h ****   typedef int8x8x3_t q7x8x3_t;
 818:C:/Users/Rui Mendes/Desktop/DAVE/_Naive/_ForTesting/Dave/Generated/CMSIS_DSP/Include\arm_math.h **** 
 819:C:/Users/Rui Mendes/Desktop/DAVE/_Naive/_ForTesting/Dave/Generated/CMSIS_DSP/Include\arm_math.h ****   /**
 820:C:/Users/Rui Mendes/Desktop/DAVE/_Naive/_ForTesting/Dave/Generated/CMSIS_DSP/Include\arm_math.h ****    * @brief 8-bit fractional 64-bit vector quadruplet data type in 1.7 format
 821:C:/Users/Rui Mendes/Desktop/DAVE/_Naive/_ForTesting/Dave/Generated/CMSIS_DSP/Include\arm_math.h ****    */
 822:C:/Users/Rui Mendes/Desktop/DAVE/_Naive/_ForTesting/Dave/Generated/CMSIS_DSP/Include\arm_math.h ****   typedef int8x8x4_t q7x8x4_t;
 823:C:/Users/Rui Mendes/Desktop/DAVE/_Naive/_ForTesting/Dave/Generated/CMSIS_DSP/Include\arm_math.h **** 
 824:C:/Users/Rui Mendes/Desktop/DAVE/_Naive/_ForTesting/Dave/Generated/CMSIS_DSP/Include\arm_math.h ****   /**
 825:C:/Users/Rui Mendes/Desktop/DAVE/_Naive/_ForTesting/Dave/Generated/CMSIS_DSP/Include\arm_math.h ****    * @brief 32-bit ubiquitous 64-bit vector data type
 826:C:/Users/Rui Mendes/Desktop/DAVE/_Naive/_ForTesting/Dave/Generated/CMSIS_DSP/Include\arm_math.h ****    */
 827:C:/Users/Rui Mendes/Desktop/DAVE/_Naive/_ForTesting/Dave/Generated/CMSIS_DSP/Include\arm_math.h ****   typedef union _any32x2_t
 828:C:/Users/Rui Mendes/Desktop/DAVE/_Naive/_ForTesting/Dave/Generated/CMSIS_DSP/Include\arm_math.h ****   {
 829:C:/Users/Rui Mendes/Desktop/DAVE/_Naive/_ForTesting/Dave/Generated/CMSIS_DSP/Include\arm_math.h ****       float32x2_t     f;
 830:C:/Users/Rui Mendes/Desktop/DAVE/_Naive/_ForTesting/Dave/Generated/CMSIS_DSP/Include\arm_math.h ****       int32x2_t       i;
 831:C:/Users/Rui Mendes/Desktop/DAVE/_Naive/_ForTesting/Dave/Generated/CMSIS_DSP/Include\arm_math.h ****   } any32x2_t;
 832:C:/Users/Rui Mendes/Desktop/DAVE/_Naive/_ForTesting/Dave/Generated/CMSIS_DSP/Include\arm_math.h **** 
 833:C:/Users/Rui Mendes/Desktop/DAVE/_Naive/_ForTesting/Dave/Generated/CMSIS_DSP/Include\arm_math.h **** #if defined(ARM_MATH_FLOAT16)
 834:C:/Users/Rui Mendes/Desktop/DAVE/_Naive/_ForTesting/Dave/Generated/CMSIS_DSP/Include\arm_math.h ****   /**
 835:C:/Users/Rui Mendes/Desktop/DAVE/_Naive/_ForTesting/Dave/Generated/CMSIS_DSP/Include\arm_math.h ****    * @brief 16-bit ubiquitous 64-bit vector data type
 836:C:/Users/Rui Mendes/Desktop/DAVE/_Naive/_ForTesting/Dave/Generated/CMSIS_DSP/Include\arm_math.h ****    */
 837:C:/Users/Rui Mendes/Desktop/DAVE/_Naive/_ForTesting/Dave/Generated/CMSIS_DSP/Include\arm_math.h ****   typedef union _any16x4_t
 838:C:/Users/Rui Mendes/Desktop/DAVE/_Naive/_ForTesting/Dave/Generated/CMSIS_DSP/Include\arm_math.h ****   {
 839:C:/Users/Rui Mendes/Desktop/DAVE/_Naive/_ForTesting/Dave/Generated/CMSIS_DSP/Include\arm_math.h ****       float16x4_t     f;
 840:C:/Users/Rui Mendes/Desktop/DAVE/_Naive/_ForTesting/Dave/Generated/CMSIS_DSP/Include\arm_math.h ****       int16x4_t       i;
 841:C:/Users/Rui Mendes/Desktop/DAVE/_Naive/_ForTesting/Dave/Generated/CMSIS_DSP/Include\arm_math.h ****   } any16x4_t;
 842:C:/Users/Rui Mendes/Desktop/DAVE/_Naive/_ForTesting/Dave/Generated/CMSIS_DSP/Include\arm_math.h **** #endif 
 843:C:/Users/Rui Mendes/Desktop/DAVE/_Naive/_ForTesting/Dave/Generated/CMSIS_DSP/Include\arm_math.h **** 
 844:C:/Users/Rui Mendes/Desktop/DAVE/_Naive/_ForTesting/Dave/Generated/CMSIS_DSP/Include\arm_math.h ****   /**
 845:C:/Users/Rui Mendes/Desktop/DAVE/_Naive/_ForTesting/Dave/Generated/CMSIS_DSP/Include\arm_math.h ****    * @brief 32-bit status 64-bit vector data type.
 846:C:/Users/Rui Mendes/Desktop/DAVE/_Naive/_ForTesting/Dave/Generated/CMSIS_DSP/Include\arm_math.h ****    */
 847:C:/Users/Rui Mendes/Desktop/DAVE/_Naive/_ForTesting/Dave/Generated/CMSIS_DSP/Include\arm_math.h ****   typedef int32x4_t status32x2_t;
 848:C:/Users/Rui Mendes/Desktop/DAVE/_Naive/_ForTesting/Dave/Generated/CMSIS_DSP/Include\arm_math.h **** 
 849:C:/Users/Rui Mendes/Desktop/DAVE/_Naive/_ForTesting/Dave/Generated/CMSIS_DSP/Include\arm_math.h ****   /**
 850:C:/Users/Rui Mendes/Desktop/DAVE/_Naive/_ForTesting/Dave/Generated/CMSIS_DSP/Include\arm_math.h ****    * @brief 16-bit status 64-bit vector data type.
 851:C:/Users/Rui Mendes/Desktop/DAVE/_Naive/_ForTesting/Dave/Generated/CMSIS_DSP/Include\arm_math.h ****    */
 852:C:/Users/Rui Mendes/Desktop/DAVE/_Naive/_ForTesting/Dave/Generated/CMSIS_DSP/Include\arm_math.h ****   typedef int16x8_t status16x4_t;
 853:C:/Users/Rui Mendes/Desktop/DAVE/_Naive/_ForTesting/Dave/Generated/CMSIS_DSP/Include\arm_math.h **** 
 854:C:/Users/Rui Mendes/Desktop/DAVE/_Naive/_ForTesting/Dave/Generated/CMSIS_DSP/Include\arm_math.h ****   /**
 855:C:/Users/Rui Mendes/Desktop/DAVE/_Naive/_ForTesting/Dave/Generated/CMSIS_DSP/Include\arm_math.h ****    * @brief 8-bit status 64-bit vector data type.
 856:C:/Users/Rui Mendes/Desktop/DAVE/_Naive/_ForTesting/Dave/Generated/CMSIS_DSP/Include\arm_math.h ****    */
 857:C:/Users/Rui Mendes/Desktop/DAVE/_Naive/_ForTesting/Dave/Generated/CMSIS_DSP/Include\arm_math.h ****   typedef int8x16_t status8x8_t;
 858:C:/Users/Rui Mendes/Desktop/DAVE/_Naive/_ForTesting/Dave/Generated/CMSIS_DSP/Include\arm_math.h **** 
 859:C:/Users/Rui Mendes/Desktop/DAVE/_Naive/_ForTesting/Dave/Generated/CMSIS_DSP/Include\arm_math.h **** #endif
 860:C:/Users/Rui Mendes/Desktop/DAVE/_Naive/_ForTesting/Dave/Generated/CMSIS_DSP/Include\arm_math.h **** 
 861:C:/Users/Rui Mendes/Desktop/DAVE/_Naive/_ForTesting/Dave/Generated/CMSIS_DSP/Include\arm_math.h **** 
 862:C:/Users/Rui Mendes/Desktop/DAVE/_Naive/_ForTesting/Dave/Generated/CMSIS_DSP/Include\arm_math.h **** 
 863:C:/Users/Rui Mendes/Desktop/DAVE/_Naive/_ForTesting/Dave/Generated/CMSIS_DSP/Include\arm_math.h **** /**
 864:C:/Users/Rui Mendes/Desktop/DAVE/_Naive/_ForTesting/Dave/Generated/CMSIS_DSP/Include\arm_math.h ****   @brief definition to read/write two 16 bit values.
 865:C:/Users/Rui Mendes/Desktop/DAVE/_Naive/_ForTesting/Dave/Generated/CMSIS_DSP/Include\arm_math.h ****   @deprecated
 866:C:/Users/Rui Mendes/Desktop/DAVE/_Naive/_ForTesting/Dave/Generated/CMSIS_DSP/Include\arm_math.h ****  */
 867:C:/Users/Rui Mendes/Desktop/DAVE/_Naive/_ForTesting/Dave/Generated/CMSIS_DSP/Include\arm_math.h **** #if   defined ( __CC_ARM )
 868:C:/Users/Rui Mendes/Desktop/DAVE/_Naive/_ForTesting/Dave/Generated/CMSIS_DSP/Include\arm_math.h ****   #define __SIMD32_TYPE int32_t __packed
 869:C:/Users/Rui Mendes/Desktop/DAVE/_Naive/_ForTesting/Dave/Generated/CMSIS_DSP/Include\arm_math.h **** #elif defined ( __ARMCC_VERSION ) && ( __ARMCC_VERSION >= 6010050 )
 870:C:/Users/Rui Mendes/Desktop/DAVE/_Naive/_ForTesting/Dave/Generated/CMSIS_DSP/Include\arm_math.h ****   #define __SIMD32_TYPE int32_t
 871:C:/Users/Rui Mendes/Desktop/DAVE/_Naive/_ForTesting/Dave/Generated/CMSIS_DSP/Include\arm_math.h **** #elif defined ( __GNUC__ )
 872:C:/Users/Rui Mendes/Desktop/DAVE/_Naive/_ForTesting/Dave/Generated/CMSIS_DSP/Include\arm_math.h ****   #define __SIMD32_TYPE int32_t
 873:C:/Users/Rui Mendes/Desktop/DAVE/_Naive/_ForTesting/Dave/Generated/CMSIS_DSP/Include\arm_math.h **** #elif defined ( __ICCARM__ )
 874:C:/Users/Rui Mendes/Desktop/DAVE/_Naive/_ForTesting/Dave/Generated/CMSIS_DSP/Include\arm_math.h ****   #define __SIMD32_TYPE int32_t __packed
 875:C:/Users/Rui Mendes/Desktop/DAVE/_Naive/_ForTesting/Dave/Generated/CMSIS_DSP/Include\arm_math.h **** #elif defined ( __TI_ARM__ )
 876:C:/Users/Rui Mendes/Desktop/DAVE/_Naive/_ForTesting/Dave/Generated/CMSIS_DSP/Include\arm_math.h ****   #define __SIMD32_TYPE int32_t
 877:C:/Users/Rui Mendes/Desktop/DAVE/_Naive/_ForTesting/Dave/Generated/CMSIS_DSP/Include\arm_math.h **** #elif defined ( __CSMC__ )
 878:C:/Users/Rui Mendes/Desktop/DAVE/_Naive/_ForTesting/Dave/Generated/CMSIS_DSP/Include\arm_math.h ****   #define __SIMD32_TYPE int32_t
 879:C:/Users/Rui Mendes/Desktop/DAVE/_Naive/_ForTesting/Dave/Generated/CMSIS_DSP/Include\arm_math.h **** #elif defined ( __TASKING__ )
 880:C:/Users/Rui Mendes/Desktop/DAVE/_Naive/_ForTesting/Dave/Generated/CMSIS_DSP/Include\arm_math.h ****   #define __SIMD32_TYPE __un(aligned) int32_t
 881:C:/Users/Rui Mendes/Desktop/DAVE/_Naive/_ForTesting/Dave/Generated/CMSIS_DSP/Include\arm_math.h **** #elif defined(_MSC_VER )
 882:C:/Users/Rui Mendes/Desktop/DAVE/_Naive/_ForTesting/Dave/Generated/CMSIS_DSP/Include\arm_math.h ****   #define __SIMD32_TYPE int32_t
 883:C:/Users/Rui Mendes/Desktop/DAVE/_Naive/_ForTesting/Dave/Generated/CMSIS_DSP/Include\arm_math.h **** #else
 884:C:/Users/Rui Mendes/Desktop/DAVE/_Naive/_ForTesting/Dave/Generated/CMSIS_DSP/Include\arm_math.h ****   #error Unknown compiler
 885:C:/Users/Rui Mendes/Desktop/DAVE/_Naive/_ForTesting/Dave/Generated/CMSIS_DSP/Include\arm_math.h **** #endif
 886:C:/Users/Rui Mendes/Desktop/DAVE/_Naive/_ForTesting/Dave/Generated/CMSIS_DSP/Include\arm_math.h **** 
 887:C:/Users/Rui Mendes/Desktop/DAVE/_Naive/_ForTesting/Dave/Generated/CMSIS_DSP/Include\arm_math.h **** #define __SIMD32(addr)        (*(__SIMD32_TYPE **) & (addr))
 888:C:/Users/Rui Mendes/Desktop/DAVE/_Naive/_ForTesting/Dave/Generated/CMSIS_DSP/Include\arm_math.h **** #define __SIMD32_CONST(addr)  ( (__SIMD32_TYPE * )   (addr))
 889:C:/Users/Rui Mendes/Desktop/DAVE/_Naive/_ForTesting/Dave/Generated/CMSIS_DSP/Include\arm_math.h **** #define _SIMD32_OFFSET(addr)  (*(__SIMD32_TYPE * )   (addr))
 890:C:/Users/Rui Mendes/Desktop/DAVE/_Naive/_ForTesting/Dave/Generated/CMSIS_DSP/Include\arm_math.h **** #define __SIMD64(addr)        (*(      int64_t **) & (addr))
 891:C:/Users/Rui Mendes/Desktop/DAVE/_Naive/_ForTesting/Dave/Generated/CMSIS_DSP/Include\arm_math.h **** 
 892:C:/Users/Rui Mendes/Desktop/DAVE/_Naive/_ForTesting/Dave/Generated/CMSIS_DSP/Include\arm_math.h **** #define STEP(x) (x) <= 0 ? 0 : 1
 893:C:/Users/Rui Mendes/Desktop/DAVE/_Naive/_ForTesting/Dave/Generated/CMSIS_DSP/Include\arm_math.h **** #define SQ(x) ((x) * (x))
 894:C:/Users/Rui Mendes/Desktop/DAVE/_Naive/_ForTesting/Dave/Generated/CMSIS_DSP/Include\arm_math.h **** 
 895:C:/Users/Rui Mendes/Desktop/DAVE/_Naive/_ForTesting/Dave/Generated/CMSIS_DSP/Include\arm_math.h **** /* SIMD replacement */
 896:C:/Users/Rui Mendes/Desktop/DAVE/_Naive/_ForTesting/Dave/Generated/CMSIS_DSP/Include\arm_math.h **** 
 897:C:/Users/Rui Mendes/Desktop/DAVE/_Naive/_ForTesting/Dave/Generated/CMSIS_DSP/Include\arm_math.h **** 
 898:C:/Users/Rui Mendes/Desktop/DAVE/_Naive/_ForTesting/Dave/Generated/CMSIS_DSP/Include\arm_math.h **** /**
 899:C:/Users/Rui Mendes/Desktop/DAVE/_Naive/_ForTesting/Dave/Generated/CMSIS_DSP/Include\arm_math.h ****   @brief         Read 2 Q15 from Q15 pointer.
 900:C:/Users/Rui Mendes/Desktop/DAVE/_Naive/_ForTesting/Dave/Generated/CMSIS_DSP/Include\arm_math.h ****   @param[in]     pQ15      points to input value
 901:C:/Users/Rui Mendes/Desktop/DAVE/_Naive/_ForTesting/Dave/Generated/CMSIS_DSP/Include\arm_math.h ****   @return        Q31 value
 902:C:/Users/Rui Mendes/Desktop/DAVE/_Naive/_ForTesting/Dave/Generated/CMSIS_DSP/Include\arm_math.h ****  */
 903:C:/Users/Rui Mendes/Desktop/DAVE/_Naive/_ForTesting/Dave/Generated/CMSIS_DSP/Include\arm_math.h **** __STATIC_FORCEINLINE q31_t read_q15x2 (
 904:C:/Users/Rui Mendes/Desktop/DAVE/_Naive/_ForTesting/Dave/Generated/CMSIS_DSP/Include\arm_math.h ****   q15_t * pQ15)
 905:C:/Users/Rui Mendes/Desktop/DAVE/_Naive/_ForTesting/Dave/Generated/CMSIS_DSP/Include\arm_math.h **** {
 906:C:/Users/Rui Mendes/Desktop/DAVE/_Naive/_ForTesting/Dave/Generated/CMSIS_DSP/Include\arm_math.h ****   q31_t val;
 907:C:/Users/Rui Mendes/Desktop/DAVE/_Naive/_ForTesting/Dave/Generated/CMSIS_DSP/Include\arm_math.h **** 
 908:C:/Users/Rui Mendes/Desktop/DAVE/_Naive/_ForTesting/Dave/Generated/CMSIS_DSP/Include\arm_math.h **** #ifdef __ARM_FEATURE_UNALIGNED
 909:C:/Users/Rui Mendes/Desktop/DAVE/_Naive/_ForTesting/Dave/Generated/CMSIS_DSP/Include\arm_math.h ****   memcpy (&val, pQ15, 4);
 187              	 .loc 2 909 0 discriminator 1
 188 0098 07F11003 	 add r3,r7,#16
 189 009c 1846     	 mov r0,r3
 190 009e D7F8B813 	 ldr r1,[r7,#952]
 191 00a2 0422     	 movs r2,#4
 192 00a4 FFF7FEFF 	 bl memcpy
 910:C:/Users/Rui Mendes/Desktop/DAVE/_Naive/_ForTesting/Dave/Generated/CMSIS_DSP/Include\arm_math.h **** #else
 911:C:/Users/Rui Mendes/Desktop/DAVE/_Naive/_ForTesting/Dave/Generated/CMSIS_DSP/Include\arm_math.h ****   val = (pQ15[1] << 16) | (pQ15[0] & 0x0FFFF) ;
 912:C:/Users/Rui Mendes/Desktop/DAVE/_Naive/_ForTesting/Dave/Generated/CMSIS_DSP/Include\arm_math.h **** #endif
 913:C:/Users/Rui Mendes/Desktop/DAVE/_Naive/_ForTesting/Dave/Generated/CMSIS_DSP/Include\arm_math.h **** 
 914:C:/Users/Rui Mendes/Desktop/DAVE/_Naive/_ForTesting/Dave/Generated/CMSIS_DSP/Include\arm_math.h ****   return (val);
 193              	 .loc 2 914 0 discriminator 1
 194 00a8 07F11003 	 add r3,r7,#16
 195 00ac 1B68     	 ldr r3,[r3]
 196              	.LBE339:
 197              	.LBE338:
 198              	 .loc 1 199 0 discriminator 1
 199 00ae C7F8EC33 	 str r3,[r7,#1004]
 200:../Dave/Generated/CMSIS_DSP/Source/TransformFunctions/arm_cfft_radix4_q15.c ****     T = __SHADD16(T, 0); /* this is just a SIMD arithmetic shift right by 1 */
 200              	 .loc 1 200 0 discriminator 1
 201 00b2 D7F8EC33 	 ldr r3,[r7,#1004]
 202 00b6 C7F8B433 	 str r3,[r7,#948]
 203 00ba 0023     	 movs r3,#0
 204 00bc C7F8B033 	 str r3,[r7,#944]
 205              	.LBB340:
 206              	.LBB341:
 207              	 .file 3 "C:/Users/Rui Mendes/Desktop/DAVE/_Naive/_ForTesting/Libraries/CMSIS/Include/cmsis_gcc.h"
   1:C:/Users/Rui Mendes/Desktop/DAVE/_Naive/_ForTesting/Libraries/CMSIS/Include\cmsis_gcc.h **** /**************************************************************************//**
   2:C:/Users/Rui Mendes/Desktop/DAVE/_Naive/_ForTesting/Libraries/CMSIS/Include\cmsis_gcc.h ****  * @file     cmsis_gcc.h
   3:C:/Users/Rui Mendes/Desktop/DAVE/_Naive/_ForTesting/Libraries/CMSIS/Include\cmsis_gcc.h ****  * @brief    CMSIS compiler GCC header file
   4:C:/Users/Rui Mendes/Desktop/DAVE/_Naive/_ForTesting/Libraries/CMSIS/Include\cmsis_gcc.h ****  * @version  V5.3.0
   5:C:/Users/Rui Mendes/Desktop/DAVE/_Naive/_ForTesting/Libraries/CMSIS/Include\cmsis_gcc.h ****  * @date     26. March 2020
   6:C:/Users/Rui Mendes/Desktop/DAVE/_Naive/_ForTesting/Libraries/CMSIS/Include\cmsis_gcc.h ****  ******************************************************************************/
   7:C:/Users/Rui Mendes/Desktop/DAVE/_Naive/_ForTesting/Libraries/CMSIS/Include\cmsis_gcc.h **** /*
   8:C:/Users/Rui Mendes/Desktop/DAVE/_Naive/_ForTesting/Libraries/CMSIS/Include\cmsis_gcc.h ****  * Copyright (c) 2009-2020 Arm Limited. All rights reserved.
   9:C:/Users/Rui Mendes/Desktop/DAVE/_Naive/_ForTesting/Libraries/CMSIS/Include\cmsis_gcc.h ****  *
  10:C:/Users/Rui Mendes/Desktop/DAVE/_Naive/_ForTesting/Libraries/CMSIS/Include\cmsis_gcc.h ****  * SPDX-License-Identifier: Apache-2.0
  11:C:/Users/Rui Mendes/Desktop/DAVE/_Naive/_ForTesting/Libraries/CMSIS/Include\cmsis_gcc.h ****  *
  12:C:/Users/Rui Mendes/Desktop/DAVE/_Naive/_ForTesting/Libraries/CMSIS/Include\cmsis_gcc.h ****  * Licensed under the Apache License, Version 2.0 (the License); you may
  13:C:/Users/Rui Mendes/Desktop/DAVE/_Naive/_ForTesting/Libraries/CMSIS/Include\cmsis_gcc.h ****  * not use this file except in compliance with the License.
  14:C:/Users/Rui Mendes/Desktop/DAVE/_Naive/_ForTesting/Libraries/CMSIS/Include\cmsis_gcc.h ****  * You may obtain a copy of the License at
  15:C:/Users/Rui Mendes/Desktop/DAVE/_Naive/_ForTesting/Libraries/CMSIS/Include\cmsis_gcc.h ****  *
  16:C:/Users/Rui Mendes/Desktop/DAVE/_Naive/_ForTesting/Libraries/CMSIS/Include\cmsis_gcc.h ****  * www.apache.org/licenses/LICENSE-2.0
  17:C:/Users/Rui Mendes/Desktop/DAVE/_Naive/_ForTesting/Libraries/CMSIS/Include\cmsis_gcc.h ****  *
  18:C:/Users/Rui Mendes/Desktop/DAVE/_Naive/_ForTesting/Libraries/CMSIS/Include\cmsis_gcc.h ****  * Unless required by applicable law or agreed to in writing, software
  19:C:/Users/Rui Mendes/Desktop/DAVE/_Naive/_ForTesting/Libraries/CMSIS/Include\cmsis_gcc.h ****  * distributed under the License is distributed on an AS IS BASIS, WITHOUT
  20:C:/Users/Rui Mendes/Desktop/DAVE/_Naive/_ForTesting/Libraries/CMSIS/Include\cmsis_gcc.h ****  * WARRANTIES OR CONDITIONS OF ANY KIND, either express or implied.
  21:C:/Users/Rui Mendes/Desktop/DAVE/_Naive/_ForTesting/Libraries/CMSIS/Include\cmsis_gcc.h ****  * See the License for the specific language governing permissions and
  22:C:/Users/Rui Mendes/Desktop/DAVE/_Naive/_ForTesting/Libraries/CMSIS/Include\cmsis_gcc.h ****  * limitations under the License.
  23:C:/Users/Rui Mendes/Desktop/DAVE/_Naive/_ForTesting/Libraries/CMSIS/Include\cmsis_gcc.h ****  */
  24:C:/Users/Rui Mendes/Desktop/DAVE/_Naive/_ForTesting/Libraries/CMSIS/Include\cmsis_gcc.h **** 
  25:C:/Users/Rui Mendes/Desktop/DAVE/_Naive/_ForTesting/Libraries/CMSIS/Include\cmsis_gcc.h **** #ifndef __CMSIS_GCC_H
  26:C:/Users/Rui Mendes/Desktop/DAVE/_Naive/_ForTesting/Libraries/CMSIS/Include\cmsis_gcc.h **** #define __CMSIS_GCC_H
  27:C:/Users/Rui Mendes/Desktop/DAVE/_Naive/_ForTesting/Libraries/CMSIS/Include\cmsis_gcc.h **** 
  28:C:/Users/Rui Mendes/Desktop/DAVE/_Naive/_ForTesting/Libraries/CMSIS/Include\cmsis_gcc.h **** /* ignore some GCC warnings */
  29:C:/Users/Rui Mendes/Desktop/DAVE/_Naive/_ForTesting/Libraries/CMSIS/Include\cmsis_gcc.h **** #pragma GCC diagnostic push
  30:C:/Users/Rui Mendes/Desktop/DAVE/_Naive/_ForTesting/Libraries/CMSIS/Include\cmsis_gcc.h **** #pragma GCC diagnostic ignored "-Wsign-conversion"
  31:C:/Users/Rui Mendes/Desktop/DAVE/_Naive/_ForTesting/Libraries/CMSIS/Include\cmsis_gcc.h **** #pragma GCC diagnostic ignored "-Wconversion"
  32:C:/Users/Rui Mendes/Desktop/DAVE/_Naive/_ForTesting/Libraries/CMSIS/Include\cmsis_gcc.h **** #pragma GCC diagnostic ignored "-Wunused-parameter"
  33:C:/Users/Rui Mendes/Desktop/DAVE/_Naive/_ForTesting/Libraries/CMSIS/Include\cmsis_gcc.h **** 
  34:C:/Users/Rui Mendes/Desktop/DAVE/_Naive/_ForTesting/Libraries/CMSIS/Include\cmsis_gcc.h **** /* Fallback for __has_builtin */
  35:C:/Users/Rui Mendes/Desktop/DAVE/_Naive/_ForTesting/Libraries/CMSIS/Include\cmsis_gcc.h **** #ifndef __has_builtin
  36:C:/Users/Rui Mendes/Desktop/DAVE/_Naive/_ForTesting/Libraries/CMSIS/Include\cmsis_gcc.h ****   #define __has_builtin(x) (0)
  37:C:/Users/Rui Mendes/Desktop/DAVE/_Naive/_ForTesting/Libraries/CMSIS/Include\cmsis_gcc.h **** #endif
  38:C:/Users/Rui Mendes/Desktop/DAVE/_Naive/_ForTesting/Libraries/CMSIS/Include\cmsis_gcc.h **** 
  39:C:/Users/Rui Mendes/Desktop/DAVE/_Naive/_ForTesting/Libraries/CMSIS/Include\cmsis_gcc.h **** /* CMSIS compiler specific defines */
  40:C:/Users/Rui Mendes/Desktop/DAVE/_Naive/_ForTesting/Libraries/CMSIS/Include\cmsis_gcc.h **** #ifndef   __ASM
  41:C:/Users/Rui Mendes/Desktop/DAVE/_Naive/_ForTesting/Libraries/CMSIS/Include\cmsis_gcc.h ****   #define __ASM                                  __asm
  42:C:/Users/Rui Mendes/Desktop/DAVE/_Naive/_ForTesting/Libraries/CMSIS/Include\cmsis_gcc.h **** #endif
  43:C:/Users/Rui Mendes/Desktop/DAVE/_Naive/_ForTesting/Libraries/CMSIS/Include\cmsis_gcc.h **** #ifndef   __INLINE
  44:C:/Users/Rui Mendes/Desktop/DAVE/_Naive/_ForTesting/Libraries/CMSIS/Include\cmsis_gcc.h ****   #define __INLINE                               inline
  45:C:/Users/Rui Mendes/Desktop/DAVE/_Naive/_ForTesting/Libraries/CMSIS/Include\cmsis_gcc.h **** #endif
  46:C:/Users/Rui Mendes/Desktop/DAVE/_Naive/_ForTesting/Libraries/CMSIS/Include\cmsis_gcc.h **** #ifndef   __STATIC_INLINE
  47:C:/Users/Rui Mendes/Desktop/DAVE/_Naive/_ForTesting/Libraries/CMSIS/Include\cmsis_gcc.h ****   #define __STATIC_INLINE                        static inline
  48:C:/Users/Rui Mendes/Desktop/DAVE/_Naive/_ForTesting/Libraries/CMSIS/Include\cmsis_gcc.h **** #endif
  49:C:/Users/Rui Mendes/Desktop/DAVE/_Naive/_ForTesting/Libraries/CMSIS/Include\cmsis_gcc.h **** #ifndef   __STATIC_FORCEINLINE                 
  50:C:/Users/Rui Mendes/Desktop/DAVE/_Naive/_ForTesting/Libraries/CMSIS/Include\cmsis_gcc.h ****   #define __STATIC_FORCEINLINE                   __attribute__((always_inline)) static inline
  51:C:/Users/Rui Mendes/Desktop/DAVE/_Naive/_ForTesting/Libraries/CMSIS/Include\cmsis_gcc.h **** #endif                                           
  52:C:/Users/Rui Mendes/Desktop/DAVE/_Naive/_ForTesting/Libraries/CMSIS/Include\cmsis_gcc.h **** #ifndef   __NO_RETURN
  53:C:/Users/Rui Mendes/Desktop/DAVE/_Naive/_ForTesting/Libraries/CMSIS/Include\cmsis_gcc.h ****   #define __NO_RETURN                            __attribute__((__noreturn__))
  54:C:/Users/Rui Mendes/Desktop/DAVE/_Naive/_ForTesting/Libraries/CMSIS/Include\cmsis_gcc.h **** #endif
  55:C:/Users/Rui Mendes/Desktop/DAVE/_Naive/_ForTesting/Libraries/CMSIS/Include\cmsis_gcc.h **** #ifndef   __USED
  56:C:/Users/Rui Mendes/Desktop/DAVE/_Naive/_ForTesting/Libraries/CMSIS/Include\cmsis_gcc.h ****   #define __USED                                 __attribute__((used))
  57:C:/Users/Rui Mendes/Desktop/DAVE/_Naive/_ForTesting/Libraries/CMSIS/Include\cmsis_gcc.h **** #endif
  58:C:/Users/Rui Mendes/Desktop/DAVE/_Naive/_ForTesting/Libraries/CMSIS/Include\cmsis_gcc.h **** #ifndef   __WEAK
  59:C:/Users/Rui Mendes/Desktop/DAVE/_Naive/_ForTesting/Libraries/CMSIS/Include\cmsis_gcc.h ****   #define __WEAK                                 __attribute__((weak))
  60:C:/Users/Rui Mendes/Desktop/DAVE/_Naive/_ForTesting/Libraries/CMSIS/Include\cmsis_gcc.h **** #endif
  61:C:/Users/Rui Mendes/Desktop/DAVE/_Naive/_ForTesting/Libraries/CMSIS/Include\cmsis_gcc.h **** #ifndef   __PACKED
  62:C:/Users/Rui Mendes/Desktop/DAVE/_Naive/_ForTesting/Libraries/CMSIS/Include\cmsis_gcc.h ****   #define __PACKED                               __attribute__((packed, aligned(1)))
  63:C:/Users/Rui Mendes/Desktop/DAVE/_Naive/_ForTesting/Libraries/CMSIS/Include\cmsis_gcc.h **** #endif
  64:C:/Users/Rui Mendes/Desktop/DAVE/_Naive/_ForTesting/Libraries/CMSIS/Include\cmsis_gcc.h **** #ifndef   __PACKED_STRUCT
  65:C:/Users/Rui Mendes/Desktop/DAVE/_Naive/_ForTesting/Libraries/CMSIS/Include\cmsis_gcc.h ****   #define __PACKED_STRUCT                        struct __attribute__((packed, aligned(1)))
  66:C:/Users/Rui Mendes/Desktop/DAVE/_Naive/_ForTesting/Libraries/CMSIS/Include\cmsis_gcc.h **** #endif
  67:C:/Users/Rui Mendes/Desktop/DAVE/_Naive/_ForTesting/Libraries/CMSIS/Include\cmsis_gcc.h **** #ifndef   __PACKED_UNION
  68:C:/Users/Rui Mendes/Desktop/DAVE/_Naive/_ForTesting/Libraries/CMSIS/Include\cmsis_gcc.h ****   #define __PACKED_UNION                         union __attribute__((packed, aligned(1)))
  69:C:/Users/Rui Mendes/Desktop/DAVE/_Naive/_ForTesting/Libraries/CMSIS/Include\cmsis_gcc.h **** #endif
  70:C:/Users/Rui Mendes/Desktop/DAVE/_Naive/_ForTesting/Libraries/CMSIS/Include\cmsis_gcc.h **** #ifndef   __UNALIGNED_UINT32        /* deprecated */
  71:C:/Users/Rui Mendes/Desktop/DAVE/_Naive/_ForTesting/Libraries/CMSIS/Include\cmsis_gcc.h ****   #pragma GCC diagnostic push
  72:C:/Users/Rui Mendes/Desktop/DAVE/_Naive/_ForTesting/Libraries/CMSIS/Include\cmsis_gcc.h ****   #pragma GCC diagnostic ignored "-Wpacked"
  73:C:/Users/Rui Mendes/Desktop/DAVE/_Naive/_ForTesting/Libraries/CMSIS/Include\cmsis_gcc.h ****   #pragma GCC diagnostic ignored "-Wattributes"
  74:C:/Users/Rui Mendes/Desktop/DAVE/_Naive/_ForTesting/Libraries/CMSIS/Include\cmsis_gcc.h ****   struct __attribute__((packed)) T_UINT32 { uint32_t v; };
  75:C:/Users/Rui Mendes/Desktop/DAVE/_Naive/_ForTesting/Libraries/CMSIS/Include\cmsis_gcc.h ****   #pragma GCC diagnostic pop
  76:C:/Users/Rui Mendes/Desktop/DAVE/_Naive/_ForTesting/Libraries/CMSIS/Include\cmsis_gcc.h ****   #define __UNALIGNED_UINT32(x)                  (((struct T_UINT32 *)(x))->v)
  77:C:/Users/Rui Mendes/Desktop/DAVE/_Naive/_ForTesting/Libraries/CMSIS/Include\cmsis_gcc.h **** #endif
  78:C:/Users/Rui Mendes/Desktop/DAVE/_Naive/_ForTesting/Libraries/CMSIS/Include\cmsis_gcc.h **** #ifndef   __UNALIGNED_UINT16_WRITE
  79:C:/Users/Rui Mendes/Desktop/DAVE/_Naive/_ForTesting/Libraries/CMSIS/Include\cmsis_gcc.h ****   #pragma GCC diagnostic push
  80:C:/Users/Rui Mendes/Desktop/DAVE/_Naive/_ForTesting/Libraries/CMSIS/Include\cmsis_gcc.h ****   #pragma GCC diagnostic ignored "-Wpacked"
  81:C:/Users/Rui Mendes/Desktop/DAVE/_Naive/_ForTesting/Libraries/CMSIS/Include\cmsis_gcc.h ****   #pragma GCC diagnostic ignored "-Wattributes"
  82:C:/Users/Rui Mendes/Desktop/DAVE/_Naive/_ForTesting/Libraries/CMSIS/Include\cmsis_gcc.h ****   __PACKED_STRUCT T_UINT16_WRITE { uint16_t v; };
  83:C:/Users/Rui Mendes/Desktop/DAVE/_Naive/_ForTesting/Libraries/CMSIS/Include\cmsis_gcc.h ****   #pragma GCC diagnostic pop
  84:C:/Users/Rui Mendes/Desktop/DAVE/_Naive/_ForTesting/Libraries/CMSIS/Include\cmsis_gcc.h ****   #define __UNALIGNED_UINT16_WRITE(addr, val)    (void)((((struct T_UINT16_WRITE *)(void *)(addr))-
  85:C:/Users/Rui Mendes/Desktop/DAVE/_Naive/_ForTesting/Libraries/CMSIS/Include\cmsis_gcc.h **** #endif
  86:C:/Users/Rui Mendes/Desktop/DAVE/_Naive/_ForTesting/Libraries/CMSIS/Include\cmsis_gcc.h **** #ifndef   __UNALIGNED_UINT16_READ
  87:C:/Users/Rui Mendes/Desktop/DAVE/_Naive/_ForTesting/Libraries/CMSIS/Include\cmsis_gcc.h ****   #pragma GCC diagnostic push
  88:C:/Users/Rui Mendes/Desktop/DAVE/_Naive/_ForTesting/Libraries/CMSIS/Include\cmsis_gcc.h ****   #pragma GCC diagnostic ignored "-Wpacked"
  89:C:/Users/Rui Mendes/Desktop/DAVE/_Naive/_ForTesting/Libraries/CMSIS/Include\cmsis_gcc.h ****   #pragma GCC diagnostic ignored "-Wattributes"
  90:C:/Users/Rui Mendes/Desktop/DAVE/_Naive/_ForTesting/Libraries/CMSIS/Include\cmsis_gcc.h ****   __PACKED_STRUCT T_UINT16_READ { uint16_t v; };
  91:C:/Users/Rui Mendes/Desktop/DAVE/_Naive/_ForTesting/Libraries/CMSIS/Include\cmsis_gcc.h ****   #pragma GCC diagnostic pop
  92:C:/Users/Rui Mendes/Desktop/DAVE/_Naive/_ForTesting/Libraries/CMSIS/Include\cmsis_gcc.h ****   #define __UNALIGNED_UINT16_READ(addr)          (((const struct T_UINT16_READ *)(const void *)(add
  93:C:/Users/Rui Mendes/Desktop/DAVE/_Naive/_ForTesting/Libraries/CMSIS/Include\cmsis_gcc.h **** #endif
  94:C:/Users/Rui Mendes/Desktop/DAVE/_Naive/_ForTesting/Libraries/CMSIS/Include\cmsis_gcc.h **** #ifndef   __UNALIGNED_UINT32_WRITE
  95:C:/Users/Rui Mendes/Desktop/DAVE/_Naive/_ForTesting/Libraries/CMSIS/Include\cmsis_gcc.h ****   #pragma GCC diagnostic push
  96:C:/Users/Rui Mendes/Desktop/DAVE/_Naive/_ForTesting/Libraries/CMSIS/Include\cmsis_gcc.h ****   #pragma GCC diagnostic ignored "-Wpacked"
  97:C:/Users/Rui Mendes/Desktop/DAVE/_Naive/_ForTesting/Libraries/CMSIS/Include\cmsis_gcc.h ****   #pragma GCC diagnostic ignored "-Wattributes"
  98:C:/Users/Rui Mendes/Desktop/DAVE/_Naive/_ForTesting/Libraries/CMSIS/Include\cmsis_gcc.h ****   __PACKED_STRUCT T_UINT32_WRITE { uint32_t v; };
  99:C:/Users/Rui Mendes/Desktop/DAVE/_Naive/_ForTesting/Libraries/CMSIS/Include\cmsis_gcc.h ****   #pragma GCC diagnostic pop
 100:C:/Users/Rui Mendes/Desktop/DAVE/_Naive/_ForTesting/Libraries/CMSIS/Include\cmsis_gcc.h ****   #define __UNALIGNED_UINT32_WRITE(addr, val)    (void)((((struct T_UINT32_WRITE *)(void *)(addr))-
 101:C:/Users/Rui Mendes/Desktop/DAVE/_Naive/_ForTesting/Libraries/CMSIS/Include\cmsis_gcc.h **** #endif
 102:C:/Users/Rui Mendes/Desktop/DAVE/_Naive/_ForTesting/Libraries/CMSIS/Include\cmsis_gcc.h **** #ifndef   __UNALIGNED_UINT32_READ
 103:C:/Users/Rui Mendes/Desktop/DAVE/_Naive/_ForTesting/Libraries/CMSIS/Include\cmsis_gcc.h ****   #pragma GCC diagnostic push
 104:C:/Users/Rui Mendes/Desktop/DAVE/_Naive/_ForTesting/Libraries/CMSIS/Include\cmsis_gcc.h ****   #pragma GCC diagnostic ignored "-Wpacked"
 105:C:/Users/Rui Mendes/Desktop/DAVE/_Naive/_ForTesting/Libraries/CMSIS/Include\cmsis_gcc.h ****   #pragma GCC diagnostic ignored "-Wattributes"
 106:C:/Users/Rui Mendes/Desktop/DAVE/_Naive/_ForTesting/Libraries/CMSIS/Include\cmsis_gcc.h ****   __PACKED_STRUCT T_UINT32_READ { uint32_t v; };
 107:C:/Users/Rui Mendes/Desktop/DAVE/_Naive/_ForTesting/Libraries/CMSIS/Include\cmsis_gcc.h ****   #pragma GCC diagnostic pop
 108:C:/Users/Rui Mendes/Desktop/DAVE/_Naive/_ForTesting/Libraries/CMSIS/Include\cmsis_gcc.h ****   #define __UNALIGNED_UINT32_READ(addr)          (((const struct T_UINT32_READ *)(const void *)(add
 109:C:/Users/Rui Mendes/Desktop/DAVE/_Naive/_ForTesting/Libraries/CMSIS/Include\cmsis_gcc.h **** #endif
 110:C:/Users/Rui Mendes/Desktop/DAVE/_Naive/_ForTesting/Libraries/CMSIS/Include\cmsis_gcc.h **** #ifndef   __ALIGNED
 111:C:/Users/Rui Mendes/Desktop/DAVE/_Naive/_ForTesting/Libraries/CMSIS/Include\cmsis_gcc.h ****   #define __ALIGNED(x)                           __attribute__((aligned(x)))
 112:C:/Users/Rui Mendes/Desktop/DAVE/_Naive/_ForTesting/Libraries/CMSIS/Include\cmsis_gcc.h **** #endif
 113:C:/Users/Rui Mendes/Desktop/DAVE/_Naive/_ForTesting/Libraries/CMSIS/Include\cmsis_gcc.h **** #ifndef   __RESTRICT
 114:C:/Users/Rui Mendes/Desktop/DAVE/_Naive/_ForTesting/Libraries/CMSIS/Include\cmsis_gcc.h ****   #define __RESTRICT                             __restrict
 115:C:/Users/Rui Mendes/Desktop/DAVE/_Naive/_ForTesting/Libraries/CMSIS/Include\cmsis_gcc.h **** #endif
 116:C:/Users/Rui Mendes/Desktop/DAVE/_Naive/_ForTesting/Libraries/CMSIS/Include\cmsis_gcc.h **** #ifndef   __COMPILER_BARRIER
 117:C:/Users/Rui Mendes/Desktop/DAVE/_Naive/_ForTesting/Libraries/CMSIS/Include\cmsis_gcc.h ****   #define __COMPILER_BARRIER()                   __ASM volatile("":::"memory")
 118:C:/Users/Rui Mendes/Desktop/DAVE/_Naive/_ForTesting/Libraries/CMSIS/Include\cmsis_gcc.h **** #endif
 119:C:/Users/Rui Mendes/Desktop/DAVE/_Naive/_ForTesting/Libraries/CMSIS/Include\cmsis_gcc.h **** 
 120:C:/Users/Rui Mendes/Desktop/DAVE/_Naive/_ForTesting/Libraries/CMSIS/Include\cmsis_gcc.h **** /* #########################  Startup and Lowlevel Init  ######################## */
 121:C:/Users/Rui Mendes/Desktop/DAVE/_Naive/_ForTesting/Libraries/CMSIS/Include\cmsis_gcc.h **** 
 122:C:/Users/Rui Mendes/Desktop/DAVE/_Naive/_ForTesting/Libraries/CMSIS/Include\cmsis_gcc.h **** #ifndef __PROGRAM_START
 123:C:/Users/Rui Mendes/Desktop/DAVE/_Naive/_ForTesting/Libraries/CMSIS/Include\cmsis_gcc.h **** 
 124:C:/Users/Rui Mendes/Desktop/DAVE/_Naive/_ForTesting/Libraries/CMSIS/Include\cmsis_gcc.h **** /**
 125:C:/Users/Rui Mendes/Desktop/DAVE/_Naive/_ForTesting/Libraries/CMSIS/Include\cmsis_gcc.h ****   \brief   Initializes data and bss sections
 126:C:/Users/Rui Mendes/Desktop/DAVE/_Naive/_ForTesting/Libraries/CMSIS/Include\cmsis_gcc.h ****   \details This default implementations initialized all data and additional bss
 127:C:/Users/Rui Mendes/Desktop/DAVE/_Naive/_ForTesting/Libraries/CMSIS/Include\cmsis_gcc.h ****            sections relying on .copy.table and .zero.table specified properly
 128:C:/Users/Rui Mendes/Desktop/DAVE/_Naive/_ForTesting/Libraries/CMSIS/Include\cmsis_gcc.h ****            in the used linker script.
 129:C:/Users/Rui Mendes/Desktop/DAVE/_Naive/_ForTesting/Libraries/CMSIS/Include\cmsis_gcc.h ****   
 130:C:/Users/Rui Mendes/Desktop/DAVE/_Naive/_ForTesting/Libraries/CMSIS/Include\cmsis_gcc.h ****  */
 131:C:/Users/Rui Mendes/Desktop/DAVE/_Naive/_ForTesting/Libraries/CMSIS/Include\cmsis_gcc.h **** __STATIC_FORCEINLINE __NO_RETURN void __cmsis_start(void)
 132:C:/Users/Rui Mendes/Desktop/DAVE/_Naive/_ForTesting/Libraries/CMSIS/Include\cmsis_gcc.h **** {
 133:C:/Users/Rui Mendes/Desktop/DAVE/_Naive/_ForTesting/Libraries/CMSIS/Include\cmsis_gcc.h ****   extern void _start(void) __NO_RETURN;
 134:C:/Users/Rui Mendes/Desktop/DAVE/_Naive/_ForTesting/Libraries/CMSIS/Include\cmsis_gcc.h ****   
 135:C:/Users/Rui Mendes/Desktop/DAVE/_Naive/_ForTesting/Libraries/CMSIS/Include\cmsis_gcc.h ****   typedef struct {
 136:C:/Users/Rui Mendes/Desktop/DAVE/_Naive/_ForTesting/Libraries/CMSIS/Include\cmsis_gcc.h ****     uint32_t const* src;
 137:C:/Users/Rui Mendes/Desktop/DAVE/_Naive/_ForTesting/Libraries/CMSIS/Include\cmsis_gcc.h ****     uint32_t* dest;
 138:C:/Users/Rui Mendes/Desktop/DAVE/_Naive/_ForTesting/Libraries/CMSIS/Include\cmsis_gcc.h ****     uint32_t  wlen;
 139:C:/Users/Rui Mendes/Desktop/DAVE/_Naive/_ForTesting/Libraries/CMSIS/Include\cmsis_gcc.h ****   } __copy_table_t;
 140:C:/Users/Rui Mendes/Desktop/DAVE/_Naive/_ForTesting/Libraries/CMSIS/Include\cmsis_gcc.h ****   
 141:C:/Users/Rui Mendes/Desktop/DAVE/_Naive/_ForTesting/Libraries/CMSIS/Include\cmsis_gcc.h ****   typedef struct {
 142:C:/Users/Rui Mendes/Desktop/DAVE/_Naive/_ForTesting/Libraries/CMSIS/Include\cmsis_gcc.h ****     uint32_t* dest;
 143:C:/Users/Rui Mendes/Desktop/DAVE/_Naive/_ForTesting/Libraries/CMSIS/Include\cmsis_gcc.h ****     uint32_t  wlen;
 144:C:/Users/Rui Mendes/Desktop/DAVE/_Naive/_ForTesting/Libraries/CMSIS/Include\cmsis_gcc.h ****   } __zero_table_t;
 145:C:/Users/Rui Mendes/Desktop/DAVE/_Naive/_ForTesting/Libraries/CMSIS/Include\cmsis_gcc.h ****   
 146:C:/Users/Rui Mendes/Desktop/DAVE/_Naive/_ForTesting/Libraries/CMSIS/Include\cmsis_gcc.h ****   extern const __copy_table_t __copy_table_start__;
 147:C:/Users/Rui Mendes/Desktop/DAVE/_Naive/_ForTesting/Libraries/CMSIS/Include\cmsis_gcc.h ****   extern const __copy_table_t __copy_table_end__;
 148:C:/Users/Rui Mendes/Desktop/DAVE/_Naive/_ForTesting/Libraries/CMSIS/Include\cmsis_gcc.h ****   extern const __zero_table_t __zero_table_start__;
 149:C:/Users/Rui Mendes/Desktop/DAVE/_Naive/_ForTesting/Libraries/CMSIS/Include\cmsis_gcc.h ****   extern const __zero_table_t __zero_table_end__;
 150:C:/Users/Rui Mendes/Desktop/DAVE/_Naive/_ForTesting/Libraries/CMSIS/Include\cmsis_gcc.h **** 
 151:C:/Users/Rui Mendes/Desktop/DAVE/_Naive/_ForTesting/Libraries/CMSIS/Include\cmsis_gcc.h ****   for (__copy_table_t const* pTable = &__copy_table_start__; pTable < &__copy_table_end__; ++pTable
 152:C:/Users/Rui Mendes/Desktop/DAVE/_Naive/_ForTesting/Libraries/CMSIS/Include\cmsis_gcc.h ****     for(uint32_t i=0u; i<pTable->wlen; ++i) {
 153:C:/Users/Rui Mendes/Desktop/DAVE/_Naive/_ForTesting/Libraries/CMSIS/Include\cmsis_gcc.h ****       pTable->dest[i] = pTable->src[i];
 154:C:/Users/Rui Mendes/Desktop/DAVE/_Naive/_ForTesting/Libraries/CMSIS/Include\cmsis_gcc.h ****     }
 155:C:/Users/Rui Mendes/Desktop/DAVE/_Naive/_ForTesting/Libraries/CMSIS/Include\cmsis_gcc.h ****   }
 156:C:/Users/Rui Mendes/Desktop/DAVE/_Naive/_ForTesting/Libraries/CMSIS/Include\cmsis_gcc.h ****  
 157:C:/Users/Rui Mendes/Desktop/DAVE/_Naive/_ForTesting/Libraries/CMSIS/Include\cmsis_gcc.h ****   for (__zero_table_t const* pTable = &__zero_table_start__; pTable < &__zero_table_end__; ++pTable
 158:C:/Users/Rui Mendes/Desktop/DAVE/_Naive/_ForTesting/Libraries/CMSIS/Include\cmsis_gcc.h ****     for(uint32_t i=0u; i<pTable->wlen; ++i) {
 159:C:/Users/Rui Mendes/Desktop/DAVE/_Naive/_ForTesting/Libraries/CMSIS/Include\cmsis_gcc.h ****       pTable->dest[i] = 0u;
 160:C:/Users/Rui Mendes/Desktop/DAVE/_Naive/_ForTesting/Libraries/CMSIS/Include\cmsis_gcc.h ****     }
 161:C:/Users/Rui Mendes/Desktop/DAVE/_Naive/_ForTesting/Libraries/CMSIS/Include\cmsis_gcc.h ****   }
 162:C:/Users/Rui Mendes/Desktop/DAVE/_Naive/_ForTesting/Libraries/CMSIS/Include\cmsis_gcc.h ****  
 163:C:/Users/Rui Mendes/Desktop/DAVE/_Naive/_ForTesting/Libraries/CMSIS/Include\cmsis_gcc.h ****   _start();
 164:C:/Users/Rui Mendes/Desktop/DAVE/_Naive/_ForTesting/Libraries/CMSIS/Include\cmsis_gcc.h **** }
 165:C:/Users/Rui Mendes/Desktop/DAVE/_Naive/_ForTesting/Libraries/CMSIS/Include\cmsis_gcc.h ****   
 166:C:/Users/Rui Mendes/Desktop/DAVE/_Naive/_ForTesting/Libraries/CMSIS/Include\cmsis_gcc.h **** #define __PROGRAM_START           __cmsis_start
 167:C:/Users/Rui Mendes/Desktop/DAVE/_Naive/_ForTesting/Libraries/CMSIS/Include\cmsis_gcc.h **** #endif
 168:C:/Users/Rui Mendes/Desktop/DAVE/_Naive/_ForTesting/Libraries/CMSIS/Include\cmsis_gcc.h **** 
 169:C:/Users/Rui Mendes/Desktop/DAVE/_Naive/_ForTesting/Libraries/CMSIS/Include\cmsis_gcc.h **** #ifndef __INITIAL_SP
 170:C:/Users/Rui Mendes/Desktop/DAVE/_Naive/_ForTesting/Libraries/CMSIS/Include\cmsis_gcc.h **** #define __INITIAL_SP              __StackTop
 171:C:/Users/Rui Mendes/Desktop/DAVE/_Naive/_ForTesting/Libraries/CMSIS/Include\cmsis_gcc.h **** #endif
 172:C:/Users/Rui Mendes/Desktop/DAVE/_Naive/_ForTesting/Libraries/CMSIS/Include\cmsis_gcc.h **** 
 173:C:/Users/Rui Mendes/Desktop/DAVE/_Naive/_ForTesting/Libraries/CMSIS/Include\cmsis_gcc.h **** #ifndef __STACK_LIMIT
 174:C:/Users/Rui Mendes/Desktop/DAVE/_Naive/_ForTesting/Libraries/CMSIS/Include\cmsis_gcc.h **** #define __STACK_LIMIT             __StackLimit
 175:C:/Users/Rui Mendes/Desktop/DAVE/_Naive/_ForTesting/Libraries/CMSIS/Include\cmsis_gcc.h **** #endif
 176:C:/Users/Rui Mendes/Desktop/DAVE/_Naive/_ForTesting/Libraries/CMSIS/Include\cmsis_gcc.h **** 
 177:C:/Users/Rui Mendes/Desktop/DAVE/_Naive/_ForTesting/Libraries/CMSIS/Include\cmsis_gcc.h **** #ifndef __VECTOR_TABLE
 178:C:/Users/Rui Mendes/Desktop/DAVE/_Naive/_ForTesting/Libraries/CMSIS/Include\cmsis_gcc.h **** #define __VECTOR_TABLE            __Vectors
 179:C:/Users/Rui Mendes/Desktop/DAVE/_Naive/_ForTesting/Libraries/CMSIS/Include\cmsis_gcc.h **** #endif
 180:C:/Users/Rui Mendes/Desktop/DAVE/_Naive/_ForTesting/Libraries/CMSIS/Include\cmsis_gcc.h **** 
 181:C:/Users/Rui Mendes/Desktop/DAVE/_Naive/_ForTesting/Libraries/CMSIS/Include\cmsis_gcc.h **** #ifndef __VECTOR_TABLE_ATTRIBUTE
 182:C:/Users/Rui Mendes/Desktop/DAVE/_Naive/_ForTesting/Libraries/CMSIS/Include\cmsis_gcc.h **** #define __VECTOR_TABLE_ATTRIBUTE  __attribute__((used, section(".vectors")))
 183:C:/Users/Rui Mendes/Desktop/DAVE/_Naive/_ForTesting/Libraries/CMSIS/Include\cmsis_gcc.h **** #endif
 184:C:/Users/Rui Mendes/Desktop/DAVE/_Naive/_ForTesting/Libraries/CMSIS/Include\cmsis_gcc.h **** 
 185:C:/Users/Rui Mendes/Desktop/DAVE/_Naive/_ForTesting/Libraries/CMSIS/Include\cmsis_gcc.h **** /* ###########################  Core Function Access  ########################### */
 186:C:/Users/Rui Mendes/Desktop/DAVE/_Naive/_ForTesting/Libraries/CMSIS/Include\cmsis_gcc.h **** /** \ingroup  CMSIS_Core_FunctionInterface
 187:C:/Users/Rui Mendes/Desktop/DAVE/_Naive/_ForTesting/Libraries/CMSIS/Include\cmsis_gcc.h ****     \defgroup CMSIS_Core_RegAccFunctions CMSIS Core Register Access Functions
 188:C:/Users/Rui Mendes/Desktop/DAVE/_Naive/_ForTesting/Libraries/CMSIS/Include\cmsis_gcc.h ****   @{
 189:C:/Users/Rui Mendes/Desktop/DAVE/_Naive/_ForTesting/Libraries/CMSIS/Include\cmsis_gcc.h ****  */
 190:C:/Users/Rui Mendes/Desktop/DAVE/_Naive/_ForTesting/Libraries/CMSIS/Include\cmsis_gcc.h **** 
 191:C:/Users/Rui Mendes/Desktop/DAVE/_Naive/_ForTesting/Libraries/CMSIS/Include\cmsis_gcc.h **** /**
 192:C:/Users/Rui Mendes/Desktop/DAVE/_Naive/_ForTesting/Libraries/CMSIS/Include\cmsis_gcc.h ****   \brief   Enable IRQ Interrupts
 193:C:/Users/Rui Mendes/Desktop/DAVE/_Naive/_ForTesting/Libraries/CMSIS/Include\cmsis_gcc.h ****   \details Enables IRQ interrupts by clearing the I-bit in the CPSR.
 194:C:/Users/Rui Mendes/Desktop/DAVE/_Naive/_ForTesting/Libraries/CMSIS/Include\cmsis_gcc.h ****            Can only be executed in Privileged modes.
 195:C:/Users/Rui Mendes/Desktop/DAVE/_Naive/_ForTesting/Libraries/CMSIS/Include\cmsis_gcc.h ****  */
 196:C:/Users/Rui Mendes/Desktop/DAVE/_Naive/_ForTesting/Libraries/CMSIS/Include\cmsis_gcc.h **** __STATIC_FORCEINLINE void __enable_irq(void)
 197:C:/Users/Rui Mendes/Desktop/DAVE/_Naive/_ForTesting/Libraries/CMSIS/Include\cmsis_gcc.h **** {
 198:C:/Users/Rui Mendes/Desktop/DAVE/_Naive/_ForTesting/Libraries/CMSIS/Include\cmsis_gcc.h ****   __ASM volatile ("cpsie i" : : : "memory");
 199:C:/Users/Rui Mendes/Desktop/DAVE/_Naive/_ForTesting/Libraries/CMSIS/Include\cmsis_gcc.h **** }
 200:C:/Users/Rui Mendes/Desktop/DAVE/_Naive/_ForTesting/Libraries/CMSIS/Include\cmsis_gcc.h **** 
 201:C:/Users/Rui Mendes/Desktop/DAVE/_Naive/_ForTesting/Libraries/CMSIS/Include\cmsis_gcc.h **** 
 202:C:/Users/Rui Mendes/Desktop/DAVE/_Naive/_ForTesting/Libraries/CMSIS/Include\cmsis_gcc.h **** /**
 203:C:/Users/Rui Mendes/Desktop/DAVE/_Naive/_ForTesting/Libraries/CMSIS/Include\cmsis_gcc.h ****   \brief   Disable IRQ Interrupts
 204:C:/Users/Rui Mendes/Desktop/DAVE/_Naive/_ForTesting/Libraries/CMSIS/Include\cmsis_gcc.h ****   \details Disables IRQ interrupts by setting the I-bit in the CPSR.
 205:C:/Users/Rui Mendes/Desktop/DAVE/_Naive/_ForTesting/Libraries/CMSIS/Include\cmsis_gcc.h ****            Can only be executed in Privileged modes.
 206:C:/Users/Rui Mendes/Desktop/DAVE/_Naive/_ForTesting/Libraries/CMSIS/Include\cmsis_gcc.h ****  */
 207:C:/Users/Rui Mendes/Desktop/DAVE/_Naive/_ForTesting/Libraries/CMSIS/Include\cmsis_gcc.h **** __STATIC_FORCEINLINE void __disable_irq(void)
 208:C:/Users/Rui Mendes/Desktop/DAVE/_Naive/_ForTesting/Libraries/CMSIS/Include\cmsis_gcc.h **** {
 209:C:/Users/Rui Mendes/Desktop/DAVE/_Naive/_ForTesting/Libraries/CMSIS/Include\cmsis_gcc.h ****   __ASM volatile ("cpsid i" : : : "memory");
 210:C:/Users/Rui Mendes/Desktop/DAVE/_Naive/_ForTesting/Libraries/CMSIS/Include\cmsis_gcc.h **** }
 211:C:/Users/Rui Mendes/Desktop/DAVE/_Naive/_ForTesting/Libraries/CMSIS/Include\cmsis_gcc.h **** 
 212:C:/Users/Rui Mendes/Desktop/DAVE/_Naive/_ForTesting/Libraries/CMSIS/Include\cmsis_gcc.h **** 
 213:C:/Users/Rui Mendes/Desktop/DAVE/_Naive/_ForTesting/Libraries/CMSIS/Include\cmsis_gcc.h **** /**
 214:C:/Users/Rui Mendes/Desktop/DAVE/_Naive/_ForTesting/Libraries/CMSIS/Include\cmsis_gcc.h ****   \brief   Get Control Register
 215:C:/Users/Rui Mendes/Desktop/DAVE/_Naive/_ForTesting/Libraries/CMSIS/Include\cmsis_gcc.h ****   \details Returns the content of the Control Register.
 216:C:/Users/Rui Mendes/Desktop/DAVE/_Naive/_ForTesting/Libraries/CMSIS/Include\cmsis_gcc.h ****   \return               Control Register value
 217:C:/Users/Rui Mendes/Desktop/DAVE/_Naive/_ForTesting/Libraries/CMSIS/Include\cmsis_gcc.h ****  */
 218:C:/Users/Rui Mendes/Desktop/DAVE/_Naive/_ForTesting/Libraries/CMSIS/Include\cmsis_gcc.h **** __STATIC_FORCEINLINE uint32_t __get_CONTROL(void)
 219:C:/Users/Rui Mendes/Desktop/DAVE/_Naive/_ForTesting/Libraries/CMSIS/Include\cmsis_gcc.h **** {
 220:C:/Users/Rui Mendes/Desktop/DAVE/_Naive/_ForTesting/Libraries/CMSIS/Include\cmsis_gcc.h ****   uint32_t result;
 221:C:/Users/Rui Mendes/Desktop/DAVE/_Naive/_ForTesting/Libraries/CMSIS/Include\cmsis_gcc.h **** 
 222:C:/Users/Rui Mendes/Desktop/DAVE/_Naive/_ForTesting/Libraries/CMSIS/Include\cmsis_gcc.h ****   __ASM volatile ("MRS %0, control" : "=r" (result) );
 223:C:/Users/Rui Mendes/Desktop/DAVE/_Naive/_ForTesting/Libraries/CMSIS/Include\cmsis_gcc.h ****   return(result);
 224:C:/Users/Rui Mendes/Desktop/DAVE/_Naive/_ForTesting/Libraries/CMSIS/Include\cmsis_gcc.h **** }
 225:C:/Users/Rui Mendes/Desktop/DAVE/_Naive/_ForTesting/Libraries/CMSIS/Include\cmsis_gcc.h **** 
 226:C:/Users/Rui Mendes/Desktop/DAVE/_Naive/_ForTesting/Libraries/CMSIS/Include\cmsis_gcc.h **** 
 227:C:/Users/Rui Mendes/Desktop/DAVE/_Naive/_ForTesting/Libraries/CMSIS/Include\cmsis_gcc.h **** #if (defined (__ARM_FEATURE_CMSE ) && (__ARM_FEATURE_CMSE == 3))
 228:C:/Users/Rui Mendes/Desktop/DAVE/_Naive/_ForTesting/Libraries/CMSIS/Include\cmsis_gcc.h **** /**
 229:C:/Users/Rui Mendes/Desktop/DAVE/_Naive/_ForTesting/Libraries/CMSIS/Include\cmsis_gcc.h ****   \brief   Get Control Register (non-secure)
 230:C:/Users/Rui Mendes/Desktop/DAVE/_Naive/_ForTesting/Libraries/CMSIS/Include\cmsis_gcc.h ****   \details Returns the content of the non-secure Control Register when in secure mode.
 231:C:/Users/Rui Mendes/Desktop/DAVE/_Naive/_ForTesting/Libraries/CMSIS/Include\cmsis_gcc.h ****   \return               non-secure Control Register value
 232:C:/Users/Rui Mendes/Desktop/DAVE/_Naive/_ForTesting/Libraries/CMSIS/Include\cmsis_gcc.h ****  */
 233:C:/Users/Rui Mendes/Desktop/DAVE/_Naive/_ForTesting/Libraries/CMSIS/Include\cmsis_gcc.h **** __STATIC_FORCEINLINE uint32_t __TZ_get_CONTROL_NS(void)
 234:C:/Users/Rui Mendes/Desktop/DAVE/_Naive/_ForTesting/Libraries/CMSIS/Include\cmsis_gcc.h **** {
 235:C:/Users/Rui Mendes/Desktop/DAVE/_Naive/_ForTesting/Libraries/CMSIS/Include\cmsis_gcc.h ****   uint32_t result;
 236:C:/Users/Rui Mendes/Desktop/DAVE/_Naive/_ForTesting/Libraries/CMSIS/Include\cmsis_gcc.h **** 
 237:C:/Users/Rui Mendes/Desktop/DAVE/_Naive/_ForTesting/Libraries/CMSIS/Include\cmsis_gcc.h ****   __ASM volatile ("MRS %0, control_ns" : "=r" (result) );
 238:C:/Users/Rui Mendes/Desktop/DAVE/_Naive/_ForTesting/Libraries/CMSIS/Include\cmsis_gcc.h ****   return(result);
 239:C:/Users/Rui Mendes/Desktop/DAVE/_Naive/_ForTesting/Libraries/CMSIS/Include\cmsis_gcc.h **** }
 240:C:/Users/Rui Mendes/Desktop/DAVE/_Naive/_ForTesting/Libraries/CMSIS/Include\cmsis_gcc.h **** #endif
 241:C:/Users/Rui Mendes/Desktop/DAVE/_Naive/_ForTesting/Libraries/CMSIS/Include\cmsis_gcc.h **** 
 242:C:/Users/Rui Mendes/Desktop/DAVE/_Naive/_ForTesting/Libraries/CMSIS/Include\cmsis_gcc.h **** 
 243:C:/Users/Rui Mendes/Desktop/DAVE/_Naive/_ForTesting/Libraries/CMSIS/Include\cmsis_gcc.h **** /**
 244:C:/Users/Rui Mendes/Desktop/DAVE/_Naive/_ForTesting/Libraries/CMSIS/Include\cmsis_gcc.h ****   \brief   Set Control Register
 245:C:/Users/Rui Mendes/Desktop/DAVE/_Naive/_ForTesting/Libraries/CMSIS/Include\cmsis_gcc.h ****   \details Writes the given value to the Control Register.
 246:C:/Users/Rui Mendes/Desktop/DAVE/_Naive/_ForTesting/Libraries/CMSIS/Include\cmsis_gcc.h ****   \param [in]    control  Control Register value to set
 247:C:/Users/Rui Mendes/Desktop/DAVE/_Naive/_ForTesting/Libraries/CMSIS/Include\cmsis_gcc.h ****  */
 248:C:/Users/Rui Mendes/Desktop/DAVE/_Naive/_ForTesting/Libraries/CMSIS/Include\cmsis_gcc.h **** __STATIC_FORCEINLINE void __set_CONTROL(uint32_t control)
 249:C:/Users/Rui Mendes/Desktop/DAVE/_Naive/_ForTesting/Libraries/CMSIS/Include\cmsis_gcc.h **** {
 250:C:/Users/Rui Mendes/Desktop/DAVE/_Naive/_ForTesting/Libraries/CMSIS/Include\cmsis_gcc.h ****   __ASM volatile ("MSR control, %0" : : "r" (control) : "memory");
 251:C:/Users/Rui Mendes/Desktop/DAVE/_Naive/_ForTesting/Libraries/CMSIS/Include\cmsis_gcc.h **** }
 252:C:/Users/Rui Mendes/Desktop/DAVE/_Naive/_ForTesting/Libraries/CMSIS/Include\cmsis_gcc.h **** 
 253:C:/Users/Rui Mendes/Desktop/DAVE/_Naive/_ForTesting/Libraries/CMSIS/Include\cmsis_gcc.h **** 
 254:C:/Users/Rui Mendes/Desktop/DAVE/_Naive/_ForTesting/Libraries/CMSIS/Include\cmsis_gcc.h **** #if (defined (__ARM_FEATURE_CMSE ) && (__ARM_FEATURE_CMSE == 3))
 255:C:/Users/Rui Mendes/Desktop/DAVE/_Naive/_ForTesting/Libraries/CMSIS/Include\cmsis_gcc.h **** /**
 256:C:/Users/Rui Mendes/Desktop/DAVE/_Naive/_ForTesting/Libraries/CMSIS/Include\cmsis_gcc.h ****   \brief   Set Control Register (non-secure)
 257:C:/Users/Rui Mendes/Desktop/DAVE/_Naive/_ForTesting/Libraries/CMSIS/Include\cmsis_gcc.h ****   \details Writes the given value to the non-secure Control Register when in secure state.
 258:C:/Users/Rui Mendes/Desktop/DAVE/_Naive/_ForTesting/Libraries/CMSIS/Include\cmsis_gcc.h ****   \param [in]    control  Control Register value to set
 259:C:/Users/Rui Mendes/Desktop/DAVE/_Naive/_ForTesting/Libraries/CMSIS/Include\cmsis_gcc.h ****  */
 260:C:/Users/Rui Mendes/Desktop/DAVE/_Naive/_ForTesting/Libraries/CMSIS/Include\cmsis_gcc.h **** __STATIC_FORCEINLINE void __TZ_set_CONTROL_NS(uint32_t control)
 261:C:/Users/Rui Mendes/Desktop/DAVE/_Naive/_ForTesting/Libraries/CMSIS/Include\cmsis_gcc.h **** {
 262:C:/Users/Rui Mendes/Desktop/DAVE/_Naive/_ForTesting/Libraries/CMSIS/Include\cmsis_gcc.h ****   __ASM volatile ("MSR control_ns, %0" : : "r" (control) : "memory");
 263:C:/Users/Rui Mendes/Desktop/DAVE/_Naive/_ForTesting/Libraries/CMSIS/Include\cmsis_gcc.h **** }
 264:C:/Users/Rui Mendes/Desktop/DAVE/_Naive/_ForTesting/Libraries/CMSIS/Include\cmsis_gcc.h **** #endif
 265:C:/Users/Rui Mendes/Desktop/DAVE/_Naive/_ForTesting/Libraries/CMSIS/Include\cmsis_gcc.h **** 
 266:C:/Users/Rui Mendes/Desktop/DAVE/_Naive/_ForTesting/Libraries/CMSIS/Include\cmsis_gcc.h **** 
 267:C:/Users/Rui Mendes/Desktop/DAVE/_Naive/_ForTesting/Libraries/CMSIS/Include\cmsis_gcc.h **** /**
 268:C:/Users/Rui Mendes/Desktop/DAVE/_Naive/_ForTesting/Libraries/CMSIS/Include\cmsis_gcc.h ****   \brief   Get IPSR Register
 269:C:/Users/Rui Mendes/Desktop/DAVE/_Naive/_ForTesting/Libraries/CMSIS/Include\cmsis_gcc.h ****   \details Returns the content of the IPSR Register.
 270:C:/Users/Rui Mendes/Desktop/DAVE/_Naive/_ForTesting/Libraries/CMSIS/Include\cmsis_gcc.h ****   \return               IPSR Register value
 271:C:/Users/Rui Mendes/Desktop/DAVE/_Naive/_ForTesting/Libraries/CMSIS/Include\cmsis_gcc.h ****  */
 272:C:/Users/Rui Mendes/Desktop/DAVE/_Naive/_ForTesting/Libraries/CMSIS/Include\cmsis_gcc.h **** __STATIC_FORCEINLINE uint32_t __get_IPSR(void)
 273:C:/Users/Rui Mendes/Desktop/DAVE/_Naive/_ForTesting/Libraries/CMSIS/Include\cmsis_gcc.h **** {
 274:C:/Users/Rui Mendes/Desktop/DAVE/_Naive/_ForTesting/Libraries/CMSIS/Include\cmsis_gcc.h ****   uint32_t result;
 275:C:/Users/Rui Mendes/Desktop/DAVE/_Naive/_ForTesting/Libraries/CMSIS/Include\cmsis_gcc.h **** 
 276:C:/Users/Rui Mendes/Desktop/DAVE/_Naive/_ForTesting/Libraries/CMSIS/Include\cmsis_gcc.h ****   __ASM volatile ("MRS %0, ipsr" : "=r" (result) );
 277:C:/Users/Rui Mendes/Desktop/DAVE/_Naive/_ForTesting/Libraries/CMSIS/Include\cmsis_gcc.h ****   return(result);
 278:C:/Users/Rui Mendes/Desktop/DAVE/_Naive/_ForTesting/Libraries/CMSIS/Include\cmsis_gcc.h **** }
 279:C:/Users/Rui Mendes/Desktop/DAVE/_Naive/_ForTesting/Libraries/CMSIS/Include\cmsis_gcc.h **** 
 280:C:/Users/Rui Mendes/Desktop/DAVE/_Naive/_ForTesting/Libraries/CMSIS/Include\cmsis_gcc.h **** 
 281:C:/Users/Rui Mendes/Desktop/DAVE/_Naive/_ForTesting/Libraries/CMSIS/Include\cmsis_gcc.h **** /**
 282:C:/Users/Rui Mendes/Desktop/DAVE/_Naive/_ForTesting/Libraries/CMSIS/Include\cmsis_gcc.h ****   \brief   Get APSR Register
 283:C:/Users/Rui Mendes/Desktop/DAVE/_Naive/_ForTesting/Libraries/CMSIS/Include\cmsis_gcc.h ****   \details Returns the content of the APSR Register.
 284:C:/Users/Rui Mendes/Desktop/DAVE/_Naive/_ForTesting/Libraries/CMSIS/Include\cmsis_gcc.h ****   \return               APSR Register value
 285:C:/Users/Rui Mendes/Desktop/DAVE/_Naive/_ForTesting/Libraries/CMSIS/Include\cmsis_gcc.h ****  */
 286:C:/Users/Rui Mendes/Desktop/DAVE/_Naive/_ForTesting/Libraries/CMSIS/Include\cmsis_gcc.h **** __STATIC_FORCEINLINE uint32_t __get_APSR(void)
 287:C:/Users/Rui Mendes/Desktop/DAVE/_Naive/_ForTesting/Libraries/CMSIS/Include\cmsis_gcc.h **** {
 288:C:/Users/Rui Mendes/Desktop/DAVE/_Naive/_ForTesting/Libraries/CMSIS/Include\cmsis_gcc.h ****   uint32_t result;
 289:C:/Users/Rui Mendes/Desktop/DAVE/_Naive/_ForTesting/Libraries/CMSIS/Include\cmsis_gcc.h **** 
 290:C:/Users/Rui Mendes/Desktop/DAVE/_Naive/_ForTesting/Libraries/CMSIS/Include\cmsis_gcc.h ****   __ASM volatile ("MRS %0, apsr" : "=r" (result) );
 291:C:/Users/Rui Mendes/Desktop/DAVE/_Naive/_ForTesting/Libraries/CMSIS/Include\cmsis_gcc.h ****   return(result);
 292:C:/Users/Rui Mendes/Desktop/DAVE/_Naive/_ForTesting/Libraries/CMSIS/Include\cmsis_gcc.h **** }
 293:C:/Users/Rui Mendes/Desktop/DAVE/_Naive/_ForTesting/Libraries/CMSIS/Include\cmsis_gcc.h **** 
 294:C:/Users/Rui Mendes/Desktop/DAVE/_Naive/_ForTesting/Libraries/CMSIS/Include\cmsis_gcc.h **** 
 295:C:/Users/Rui Mendes/Desktop/DAVE/_Naive/_ForTesting/Libraries/CMSIS/Include\cmsis_gcc.h **** /**
 296:C:/Users/Rui Mendes/Desktop/DAVE/_Naive/_ForTesting/Libraries/CMSIS/Include\cmsis_gcc.h ****   \brief   Get xPSR Register
 297:C:/Users/Rui Mendes/Desktop/DAVE/_Naive/_ForTesting/Libraries/CMSIS/Include\cmsis_gcc.h ****   \details Returns the content of the xPSR Register.
 298:C:/Users/Rui Mendes/Desktop/DAVE/_Naive/_ForTesting/Libraries/CMSIS/Include\cmsis_gcc.h ****   \return               xPSR Register value
 299:C:/Users/Rui Mendes/Desktop/DAVE/_Naive/_ForTesting/Libraries/CMSIS/Include\cmsis_gcc.h ****  */
 300:C:/Users/Rui Mendes/Desktop/DAVE/_Naive/_ForTesting/Libraries/CMSIS/Include\cmsis_gcc.h **** __STATIC_FORCEINLINE uint32_t __get_xPSR(void)
 301:C:/Users/Rui Mendes/Desktop/DAVE/_Naive/_ForTesting/Libraries/CMSIS/Include\cmsis_gcc.h **** {
 302:C:/Users/Rui Mendes/Desktop/DAVE/_Naive/_ForTesting/Libraries/CMSIS/Include\cmsis_gcc.h ****   uint32_t result;
 303:C:/Users/Rui Mendes/Desktop/DAVE/_Naive/_ForTesting/Libraries/CMSIS/Include\cmsis_gcc.h **** 
 304:C:/Users/Rui Mendes/Desktop/DAVE/_Naive/_ForTesting/Libraries/CMSIS/Include\cmsis_gcc.h ****   __ASM volatile ("MRS %0, xpsr" : "=r" (result) );
 305:C:/Users/Rui Mendes/Desktop/DAVE/_Naive/_ForTesting/Libraries/CMSIS/Include\cmsis_gcc.h ****   return(result);
 306:C:/Users/Rui Mendes/Desktop/DAVE/_Naive/_ForTesting/Libraries/CMSIS/Include\cmsis_gcc.h **** }
 307:C:/Users/Rui Mendes/Desktop/DAVE/_Naive/_ForTesting/Libraries/CMSIS/Include\cmsis_gcc.h **** 
 308:C:/Users/Rui Mendes/Desktop/DAVE/_Naive/_ForTesting/Libraries/CMSIS/Include\cmsis_gcc.h **** 
 309:C:/Users/Rui Mendes/Desktop/DAVE/_Naive/_ForTesting/Libraries/CMSIS/Include\cmsis_gcc.h **** /**
 310:C:/Users/Rui Mendes/Desktop/DAVE/_Naive/_ForTesting/Libraries/CMSIS/Include\cmsis_gcc.h ****   \brief   Get Process Stack Pointer
 311:C:/Users/Rui Mendes/Desktop/DAVE/_Naive/_ForTesting/Libraries/CMSIS/Include\cmsis_gcc.h ****   \details Returns the current value of the Process Stack Pointer (PSP).
 312:C:/Users/Rui Mendes/Desktop/DAVE/_Naive/_ForTesting/Libraries/CMSIS/Include\cmsis_gcc.h ****   \return               PSP Register value
 313:C:/Users/Rui Mendes/Desktop/DAVE/_Naive/_ForTesting/Libraries/CMSIS/Include\cmsis_gcc.h ****  */
 314:C:/Users/Rui Mendes/Desktop/DAVE/_Naive/_ForTesting/Libraries/CMSIS/Include\cmsis_gcc.h **** __STATIC_FORCEINLINE uint32_t __get_PSP(void)
 315:C:/Users/Rui Mendes/Desktop/DAVE/_Naive/_ForTesting/Libraries/CMSIS/Include\cmsis_gcc.h **** {
 316:C:/Users/Rui Mendes/Desktop/DAVE/_Naive/_ForTesting/Libraries/CMSIS/Include\cmsis_gcc.h ****   uint32_t result;
 317:C:/Users/Rui Mendes/Desktop/DAVE/_Naive/_ForTesting/Libraries/CMSIS/Include\cmsis_gcc.h **** 
 318:C:/Users/Rui Mendes/Desktop/DAVE/_Naive/_ForTesting/Libraries/CMSIS/Include\cmsis_gcc.h ****   __ASM volatile ("MRS %0, psp"  : "=r" (result) );
 319:C:/Users/Rui Mendes/Desktop/DAVE/_Naive/_ForTesting/Libraries/CMSIS/Include\cmsis_gcc.h ****   return(result);
 320:C:/Users/Rui Mendes/Desktop/DAVE/_Naive/_ForTesting/Libraries/CMSIS/Include\cmsis_gcc.h **** }
 321:C:/Users/Rui Mendes/Desktop/DAVE/_Naive/_ForTesting/Libraries/CMSIS/Include\cmsis_gcc.h **** 
 322:C:/Users/Rui Mendes/Desktop/DAVE/_Naive/_ForTesting/Libraries/CMSIS/Include\cmsis_gcc.h **** 
 323:C:/Users/Rui Mendes/Desktop/DAVE/_Naive/_ForTesting/Libraries/CMSIS/Include\cmsis_gcc.h **** #if (defined (__ARM_FEATURE_CMSE ) && (__ARM_FEATURE_CMSE == 3))
 324:C:/Users/Rui Mendes/Desktop/DAVE/_Naive/_ForTesting/Libraries/CMSIS/Include\cmsis_gcc.h **** /**
 325:C:/Users/Rui Mendes/Desktop/DAVE/_Naive/_ForTesting/Libraries/CMSIS/Include\cmsis_gcc.h ****   \brief   Get Process Stack Pointer (non-secure)
 326:C:/Users/Rui Mendes/Desktop/DAVE/_Naive/_ForTesting/Libraries/CMSIS/Include\cmsis_gcc.h ****   \details Returns the current value of the non-secure Process Stack Pointer (PSP) when in secure s
 327:C:/Users/Rui Mendes/Desktop/DAVE/_Naive/_ForTesting/Libraries/CMSIS/Include\cmsis_gcc.h ****   \return               PSP Register value
 328:C:/Users/Rui Mendes/Desktop/DAVE/_Naive/_ForTesting/Libraries/CMSIS/Include\cmsis_gcc.h ****  */
 329:C:/Users/Rui Mendes/Desktop/DAVE/_Naive/_ForTesting/Libraries/CMSIS/Include\cmsis_gcc.h **** __STATIC_FORCEINLINE uint32_t __TZ_get_PSP_NS(void)
 330:C:/Users/Rui Mendes/Desktop/DAVE/_Naive/_ForTesting/Libraries/CMSIS/Include\cmsis_gcc.h **** {
 331:C:/Users/Rui Mendes/Desktop/DAVE/_Naive/_ForTesting/Libraries/CMSIS/Include\cmsis_gcc.h ****   uint32_t result;
 332:C:/Users/Rui Mendes/Desktop/DAVE/_Naive/_ForTesting/Libraries/CMSIS/Include\cmsis_gcc.h **** 
 333:C:/Users/Rui Mendes/Desktop/DAVE/_Naive/_ForTesting/Libraries/CMSIS/Include\cmsis_gcc.h ****   __ASM volatile ("MRS %0, psp_ns"  : "=r" (result) );
 334:C:/Users/Rui Mendes/Desktop/DAVE/_Naive/_ForTesting/Libraries/CMSIS/Include\cmsis_gcc.h ****   return(result);
 335:C:/Users/Rui Mendes/Desktop/DAVE/_Naive/_ForTesting/Libraries/CMSIS/Include\cmsis_gcc.h **** }
 336:C:/Users/Rui Mendes/Desktop/DAVE/_Naive/_ForTesting/Libraries/CMSIS/Include\cmsis_gcc.h **** #endif
 337:C:/Users/Rui Mendes/Desktop/DAVE/_Naive/_ForTesting/Libraries/CMSIS/Include\cmsis_gcc.h **** 
 338:C:/Users/Rui Mendes/Desktop/DAVE/_Naive/_ForTesting/Libraries/CMSIS/Include\cmsis_gcc.h **** 
 339:C:/Users/Rui Mendes/Desktop/DAVE/_Naive/_ForTesting/Libraries/CMSIS/Include\cmsis_gcc.h **** /**
 340:C:/Users/Rui Mendes/Desktop/DAVE/_Naive/_ForTesting/Libraries/CMSIS/Include\cmsis_gcc.h ****   \brief   Set Process Stack Pointer
 341:C:/Users/Rui Mendes/Desktop/DAVE/_Naive/_ForTesting/Libraries/CMSIS/Include\cmsis_gcc.h ****   \details Assigns the given value to the Process Stack Pointer (PSP).
 342:C:/Users/Rui Mendes/Desktop/DAVE/_Naive/_ForTesting/Libraries/CMSIS/Include\cmsis_gcc.h ****   \param [in]    topOfProcStack  Process Stack Pointer value to set
 343:C:/Users/Rui Mendes/Desktop/DAVE/_Naive/_ForTesting/Libraries/CMSIS/Include\cmsis_gcc.h ****  */
 344:C:/Users/Rui Mendes/Desktop/DAVE/_Naive/_ForTesting/Libraries/CMSIS/Include\cmsis_gcc.h **** __STATIC_FORCEINLINE void __set_PSP(uint32_t topOfProcStack)
 345:C:/Users/Rui Mendes/Desktop/DAVE/_Naive/_ForTesting/Libraries/CMSIS/Include\cmsis_gcc.h **** {
 346:C:/Users/Rui Mendes/Desktop/DAVE/_Naive/_ForTesting/Libraries/CMSIS/Include\cmsis_gcc.h ****   __ASM volatile ("MSR psp, %0" : : "r" (topOfProcStack) : );
 347:C:/Users/Rui Mendes/Desktop/DAVE/_Naive/_ForTesting/Libraries/CMSIS/Include\cmsis_gcc.h **** }
 348:C:/Users/Rui Mendes/Desktop/DAVE/_Naive/_ForTesting/Libraries/CMSIS/Include\cmsis_gcc.h **** 
 349:C:/Users/Rui Mendes/Desktop/DAVE/_Naive/_ForTesting/Libraries/CMSIS/Include\cmsis_gcc.h **** 
 350:C:/Users/Rui Mendes/Desktop/DAVE/_Naive/_ForTesting/Libraries/CMSIS/Include\cmsis_gcc.h **** #if (defined (__ARM_FEATURE_CMSE ) && (__ARM_FEATURE_CMSE == 3))
 351:C:/Users/Rui Mendes/Desktop/DAVE/_Naive/_ForTesting/Libraries/CMSIS/Include\cmsis_gcc.h **** /**
 352:C:/Users/Rui Mendes/Desktop/DAVE/_Naive/_ForTesting/Libraries/CMSIS/Include\cmsis_gcc.h ****   \brief   Set Process Stack Pointer (non-secure)
 353:C:/Users/Rui Mendes/Desktop/DAVE/_Naive/_ForTesting/Libraries/CMSIS/Include\cmsis_gcc.h ****   \details Assigns the given value to the non-secure Process Stack Pointer (PSP) when in secure sta
 354:C:/Users/Rui Mendes/Desktop/DAVE/_Naive/_ForTesting/Libraries/CMSIS/Include\cmsis_gcc.h ****   \param [in]    topOfProcStack  Process Stack Pointer value to set
 355:C:/Users/Rui Mendes/Desktop/DAVE/_Naive/_ForTesting/Libraries/CMSIS/Include\cmsis_gcc.h ****  */
 356:C:/Users/Rui Mendes/Desktop/DAVE/_Naive/_ForTesting/Libraries/CMSIS/Include\cmsis_gcc.h **** __STATIC_FORCEINLINE void __TZ_set_PSP_NS(uint32_t topOfProcStack)
 357:C:/Users/Rui Mendes/Desktop/DAVE/_Naive/_ForTesting/Libraries/CMSIS/Include\cmsis_gcc.h **** {
 358:C:/Users/Rui Mendes/Desktop/DAVE/_Naive/_ForTesting/Libraries/CMSIS/Include\cmsis_gcc.h ****   __ASM volatile ("MSR psp_ns, %0" : : "r" (topOfProcStack) : );
 359:C:/Users/Rui Mendes/Desktop/DAVE/_Naive/_ForTesting/Libraries/CMSIS/Include\cmsis_gcc.h **** }
 360:C:/Users/Rui Mendes/Desktop/DAVE/_Naive/_ForTesting/Libraries/CMSIS/Include\cmsis_gcc.h **** #endif
 361:C:/Users/Rui Mendes/Desktop/DAVE/_Naive/_ForTesting/Libraries/CMSIS/Include\cmsis_gcc.h **** 
 362:C:/Users/Rui Mendes/Desktop/DAVE/_Naive/_ForTesting/Libraries/CMSIS/Include\cmsis_gcc.h **** 
 363:C:/Users/Rui Mendes/Desktop/DAVE/_Naive/_ForTesting/Libraries/CMSIS/Include\cmsis_gcc.h **** /**
 364:C:/Users/Rui Mendes/Desktop/DAVE/_Naive/_ForTesting/Libraries/CMSIS/Include\cmsis_gcc.h ****   \brief   Get Main Stack Pointer
 365:C:/Users/Rui Mendes/Desktop/DAVE/_Naive/_ForTesting/Libraries/CMSIS/Include\cmsis_gcc.h ****   \details Returns the current value of the Main Stack Pointer (MSP).
 366:C:/Users/Rui Mendes/Desktop/DAVE/_Naive/_ForTesting/Libraries/CMSIS/Include\cmsis_gcc.h ****   \return               MSP Register value
 367:C:/Users/Rui Mendes/Desktop/DAVE/_Naive/_ForTesting/Libraries/CMSIS/Include\cmsis_gcc.h ****  */
 368:C:/Users/Rui Mendes/Desktop/DAVE/_Naive/_ForTesting/Libraries/CMSIS/Include\cmsis_gcc.h **** __STATIC_FORCEINLINE uint32_t __get_MSP(void)
 369:C:/Users/Rui Mendes/Desktop/DAVE/_Naive/_ForTesting/Libraries/CMSIS/Include\cmsis_gcc.h **** {
 370:C:/Users/Rui Mendes/Desktop/DAVE/_Naive/_ForTesting/Libraries/CMSIS/Include\cmsis_gcc.h ****   uint32_t result;
 371:C:/Users/Rui Mendes/Desktop/DAVE/_Naive/_ForTesting/Libraries/CMSIS/Include\cmsis_gcc.h **** 
 372:C:/Users/Rui Mendes/Desktop/DAVE/_Naive/_ForTesting/Libraries/CMSIS/Include\cmsis_gcc.h ****   __ASM volatile ("MRS %0, msp" : "=r" (result) );
 373:C:/Users/Rui Mendes/Desktop/DAVE/_Naive/_ForTesting/Libraries/CMSIS/Include\cmsis_gcc.h ****   return(result);
 374:C:/Users/Rui Mendes/Desktop/DAVE/_Naive/_ForTesting/Libraries/CMSIS/Include\cmsis_gcc.h **** }
 375:C:/Users/Rui Mendes/Desktop/DAVE/_Naive/_ForTesting/Libraries/CMSIS/Include\cmsis_gcc.h **** 
 376:C:/Users/Rui Mendes/Desktop/DAVE/_Naive/_ForTesting/Libraries/CMSIS/Include\cmsis_gcc.h **** 
 377:C:/Users/Rui Mendes/Desktop/DAVE/_Naive/_ForTesting/Libraries/CMSIS/Include\cmsis_gcc.h **** #if (defined (__ARM_FEATURE_CMSE ) && (__ARM_FEATURE_CMSE == 3))
 378:C:/Users/Rui Mendes/Desktop/DAVE/_Naive/_ForTesting/Libraries/CMSIS/Include\cmsis_gcc.h **** /**
 379:C:/Users/Rui Mendes/Desktop/DAVE/_Naive/_ForTesting/Libraries/CMSIS/Include\cmsis_gcc.h ****   \brief   Get Main Stack Pointer (non-secure)
 380:C:/Users/Rui Mendes/Desktop/DAVE/_Naive/_ForTesting/Libraries/CMSIS/Include\cmsis_gcc.h ****   \details Returns the current value of the non-secure Main Stack Pointer (MSP) when in secure stat
 381:C:/Users/Rui Mendes/Desktop/DAVE/_Naive/_ForTesting/Libraries/CMSIS/Include\cmsis_gcc.h ****   \return               MSP Register value
 382:C:/Users/Rui Mendes/Desktop/DAVE/_Naive/_ForTesting/Libraries/CMSIS/Include\cmsis_gcc.h ****  */
 383:C:/Users/Rui Mendes/Desktop/DAVE/_Naive/_ForTesting/Libraries/CMSIS/Include\cmsis_gcc.h **** __STATIC_FORCEINLINE uint32_t __TZ_get_MSP_NS(void)
 384:C:/Users/Rui Mendes/Desktop/DAVE/_Naive/_ForTesting/Libraries/CMSIS/Include\cmsis_gcc.h **** {
 385:C:/Users/Rui Mendes/Desktop/DAVE/_Naive/_ForTesting/Libraries/CMSIS/Include\cmsis_gcc.h ****   uint32_t result;
 386:C:/Users/Rui Mendes/Desktop/DAVE/_Naive/_ForTesting/Libraries/CMSIS/Include\cmsis_gcc.h **** 
 387:C:/Users/Rui Mendes/Desktop/DAVE/_Naive/_ForTesting/Libraries/CMSIS/Include\cmsis_gcc.h ****   __ASM volatile ("MRS %0, msp_ns" : "=r" (result) );
 388:C:/Users/Rui Mendes/Desktop/DAVE/_Naive/_ForTesting/Libraries/CMSIS/Include\cmsis_gcc.h ****   return(result);
 389:C:/Users/Rui Mendes/Desktop/DAVE/_Naive/_ForTesting/Libraries/CMSIS/Include\cmsis_gcc.h **** }
 390:C:/Users/Rui Mendes/Desktop/DAVE/_Naive/_ForTesting/Libraries/CMSIS/Include\cmsis_gcc.h **** #endif
 391:C:/Users/Rui Mendes/Desktop/DAVE/_Naive/_ForTesting/Libraries/CMSIS/Include\cmsis_gcc.h **** 
 392:C:/Users/Rui Mendes/Desktop/DAVE/_Naive/_ForTesting/Libraries/CMSIS/Include\cmsis_gcc.h **** 
 393:C:/Users/Rui Mendes/Desktop/DAVE/_Naive/_ForTesting/Libraries/CMSIS/Include\cmsis_gcc.h **** /**
 394:C:/Users/Rui Mendes/Desktop/DAVE/_Naive/_ForTesting/Libraries/CMSIS/Include\cmsis_gcc.h ****   \brief   Set Main Stack Pointer
 395:C:/Users/Rui Mendes/Desktop/DAVE/_Naive/_ForTesting/Libraries/CMSIS/Include\cmsis_gcc.h ****   \details Assigns the given value to the Main Stack Pointer (MSP).
 396:C:/Users/Rui Mendes/Desktop/DAVE/_Naive/_ForTesting/Libraries/CMSIS/Include\cmsis_gcc.h ****   \param [in]    topOfMainStack  Main Stack Pointer value to set
 397:C:/Users/Rui Mendes/Desktop/DAVE/_Naive/_ForTesting/Libraries/CMSIS/Include\cmsis_gcc.h ****  */
 398:C:/Users/Rui Mendes/Desktop/DAVE/_Naive/_ForTesting/Libraries/CMSIS/Include\cmsis_gcc.h **** __STATIC_FORCEINLINE void __set_MSP(uint32_t topOfMainStack)
 399:C:/Users/Rui Mendes/Desktop/DAVE/_Naive/_ForTesting/Libraries/CMSIS/Include\cmsis_gcc.h **** {
 400:C:/Users/Rui Mendes/Desktop/DAVE/_Naive/_ForTesting/Libraries/CMSIS/Include\cmsis_gcc.h ****   __ASM volatile ("MSR msp, %0" : : "r" (topOfMainStack) : );
 401:C:/Users/Rui Mendes/Desktop/DAVE/_Naive/_ForTesting/Libraries/CMSIS/Include\cmsis_gcc.h **** }
 402:C:/Users/Rui Mendes/Desktop/DAVE/_Naive/_ForTesting/Libraries/CMSIS/Include\cmsis_gcc.h **** 
 403:C:/Users/Rui Mendes/Desktop/DAVE/_Naive/_ForTesting/Libraries/CMSIS/Include\cmsis_gcc.h **** 
 404:C:/Users/Rui Mendes/Desktop/DAVE/_Naive/_ForTesting/Libraries/CMSIS/Include\cmsis_gcc.h **** #if (defined (__ARM_FEATURE_CMSE ) && (__ARM_FEATURE_CMSE == 3))
 405:C:/Users/Rui Mendes/Desktop/DAVE/_Naive/_ForTesting/Libraries/CMSIS/Include\cmsis_gcc.h **** /**
 406:C:/Users/Rui Mendes/Desktop/DAVE/_Naive/_ForTesting/Libraries/CMSIS/Include\cmsis_gcc.h ****   \brief   Set Main Stack Pointer (non-secure)
 407:C:/Users/Rui Mendes/Desktop/DAVE/_Naive/_ForTesting/Libraries/CMSIS/Include\cmsis_gcc.h ****   \details Assigns the given value to the non-secure Main Stack Pointer (MSP) when in secure state.
 408:C:/Users/Rui Mendes/Desktop/DAVE/_Naive/_ForTesting/Libraries/CMSIS/Include\cmsis_gcc.h ****   \param [in]    topOfMainStack  Main Stack Pointer value to set
 409:C:/Users/Rui Mendes/Desktop/DAVE/_Naive/_ForTesting/Libraries/CMSIS/Include\cmsis_gcc.h ****  */
 410:C:/Users/Rui Mendes/Desktop/DAVE/_Naive/_ForTesting/Libraries/CMSIS/Include\cmsis_gcc.h **** __STATIC_FORCEINLINE void __TZ_set_MSP_NS(uint32_t topOfMainStack)
 411:C:/Users/Rui Mendes/Desktop/DAVE/_Naive/_ForTesting/Libraries/CMSIS/Include\cmsis_gcc.h **** {
 412:C:/Users/Rui Mendes/Desktop/DAVE/_Naive/_ForTesting/Libraries/CMSIS/Include\cmsis_gcc.h ****   __ASM volatile ("MSR msp_ns, %0" : : "r" (topOfMainStack) : );
 413:C:/Users/Rui Mendes/Desktop/DAVE/_Naive/_ForTesting/Libraries/CMSIS/Include\cmsis_gcc.h **** }
 414:C:/Users/Rui Mendes/Desktop/DAVE/_Naive/_ForTesting/Libraries/CMSIS/Include\cmsis_gcc.h **** #endif
 415:C:/Users/Rui Mendes/Desktop/DAVE/_Naive/_ForTesting/Libraries/CMSIS/Include\cmsis_gcc.h **** 
 416:C:/Users/Rui Mendes/Desktop/DAVE/_Naive/_ForTesting/Libraries/CMSIS/Include\cmsis_gcc.h **** 
 417:C:/Users/Rui Mendes/Desktop/DAVE/_Naive/_ForTesting/Libraries/CMSIS/Include\cmsis_gcc.h **** #if (defined (__ARM_FEATURE_CMSE ) && (__ARM_FEATURE_CMSE == 3))
 418:C:/Users/Rui Mendes/Desktop/DAVE/_Naive/_ForTesting/Libraries/CMSIS/Include\cmsis_gcc.h **** /**
 419:C:/Users/Rui Mendes/Desktop/DAVE/_Naive/_ForTesting/Libraries/CMSIS/Include\cmsis_gcc.h ****   \brief   Get Stack Pointer (non-secure)
 420:C:/Users/Rui Mendes/Desktop/DAVE/_Naive/_ForTesting/Libraries/CMSIS/Include\cmsis_gcc.h ****   \details Returns the current value of the non-secure Stack Pointer (SP) when in secure state.
 421:C:/Users/Rui Mendes/Desktop/DAVE/_Naive/_ForTesting/Libraries/CMSIS/Include\cmsis_gcc.h ****   \return               SP Register value
 422:C:/Users/Rui Mendes/Desktop/DAVE/_Naive/_ForTesting/Libraries/CMSIS/Include\cmsis_gcc.h ****  */
 423:C:/Users/Rui Mendes/Desktop/DAVE/_Naive/_ForTesting/Libraries/CMSIS/Include\cmsis_gcc.h **** __STATIC_FORCEINLINE uint32_t __TZ_get_SP_NS(void)
 424:C:/Users/Rui Mendes/Desktop/DAVE/_Naive/_ForTesting/Libraries/CMSIS/Include\cmsis_gcc.h **** {
 425:C:/Users/Rui Mendes/Desktop/DAVE/_Naive/_ForTesting/Libraries/CMSIS/Include\cmsis_gcc.h ****   uint32_t result;
 426:C:/Users/Rui Mendes/Desktop/DAVE/_Naive/_ForTesting/Libraries/CMSIS/Include\cmsis_gcc.h **** 
 427:C:/Users/Rui Mendes/Desktop/DAVE/_Naive/_ForTesting/Libraries/CMSIS/Include\cmsis_gcc.h ****   __ASM volatile ("MRS %0, sp_ns" : "=r" (result) );
 428:C:/Users/Rui Mendes/Desktop/DAVE/_Naive/_ForTesting/Libraries/CMSIS/Include\cmsis_gcc.h ****   return(result);
 429:C:/Users/Rui Mendes/Desktop/DAVE/_Naive/_ForTesting/Libraries/CMSIS/Include\cmsis_gcc.h **** }
 430:C:/Users/Rui Mendes/Desktop/DAVE/_Naive/_ForTesting/Libraries/CMSIS/Include\cmsis_gcc.h **** 
 431:C:/Users/Rui Mendes/Desktop/DAVE/_Naive/_ForTesting/Libraries/CMSIS/Include\cmsis_gcc.h **** 
 432:C:/Users/Rui Mendes/Desktop/DAVE/_Naive/_ForTesting/Libraries/CMSIS/Include\cmsis_gcc.h **** /**
 433:C:/Users/Rui Mendes/Desktop/DAVE/_Naive/_ForTesting/Libraries/CMSIS/Include\cmsis_gcc.h ****   \brief   Set Stack Pointer (non-secure)
 434:C:/Users/Rui Mendes/Desktop/DAVE/_Naive/_ForTesting/Libraries/CMSIS/Include\cmsis_gcc.h ****   \details Assigns the given value to the non-secure Stack Pointer (SP) when in secure state.
 435:C:/Users/Rui Mendes/Desktop/DAVE/_Naive/_ForTesting/Libraries/CMSIS/Include\cmsis_gcc.h ****   \param [in]    topOfStack  Stack Pointer value to set
 436:C:/Users/Rui Mendes/Desktop/DAVE/_Naive/_ForTesting/Libraries/CMSIS/Include\cmsis_gcc.h ****  */
 437:C:/Users/Rui Mendes/Desktop/DAVE/_Naive/_ForTesting/Libraries/CMSIS/Include\cmsis_gcc.h **** __STATIC_FORCEINLINE void __TZ_set_SP_NS(uint32_t topOfStack)
 438:C:/Users/Rui Mendes/Desktop/DAVE/_Naive/_ForTesting/Libraries/CMSIS/Include\cmsis_gcc.h **** {
 439:C:/Users/Rui Mendes/Desktop/DAVE/_Naive/_ForTesting/Libraries/CMSIS/Include\cmsis_gcc.h ****   __ASM volatile ("MSR sp_ns, %0" : : "r" (topOfStack) : );
 440:C:/Users/Rui Mendes/Desktop/DAVE/_Naive/_ForTesting/Libraries/CMSIS/Include\cmsis_gcc.h **** }
 441:C:/Users/Rui Mendes/Desktop/DAVE/_Naive/_ForTesting/Libraries/CMSIS/Include\cmsis_gcc.h **** #endif
 442:C:/Users/Rui Mendes/Desktop/DAVE/_Naive/_ForTesting/Libraries/CMSIS/Include\cmsis_gcc.h **** 
 443:C:/Users/Rui Mendes/Desktop/DAVE/_Naive/_ForTesting/Libraries/CMSIS/Include\cmsis_gcc.h **** 
 444:C:/Users/Rui Mendes/Desktop/DAVE/_Naive/_ForTesting/Libraries/CMSIS/Include\cmsis_gcc.h **** /**
 445:C:/Users/Rui Mendes/Desktop/DAVE/_Naive/_ForTesting/Libraries/CMSIS/Include\cmsis_gcc.h ****   \brief   Get Priority Mask
 446:C:/Users/Rui Mendes/Desktop/DAVE/_Naive/_ForTesting/Libraries/CMSIS/Include\cmsis_gcc.h ****   \details Returns the current state of the priority mask bit from the Priority Mask Register.
 447:C:/Users/Rui Mendes/Desktop/DAVE/_Naive/_ForTesting/Libraries/CMSIS/Include\cmsis_gcc.h ****   \return               Priority Mask value
 448:C:/Users/Rui Mendes/Desktop/DAVE/_Naive/_ForTesting/Libraries/CMSIS/Include\cmsis_gcc.h ****  */
 449:C:/Users/Rui Mendes/Desktop/DAVE/_Naive/_ForTesting/Libraries/CMSIS/Include\cmsis_gcc.h **** __STATIC_FORCEINLINE uint32_t __get_PRIMASK(void)
 450:C:/Users/Rui Mendes/Desktop/DAVE/_Naive/_ForTesting/Libraries/CMSIS/Include\cmsis_gcc.h **** {
 451:C:/Users/Rui Mendes/Desktop/DAVE/_Naive/_ForTesting/Libraries/CMSIS/Include\cmsis_gcc.h ****   uint32_t result;
 452:C:/Users/Rui Mendes/Desktop/DAVE/_Naive/_ForTesting/Libraries/CMSIS/Include\cmsis_gcc.h **** 
 453:C:/Users/Rui Mendes/Desktop/DAVE/_Naive/_ForTesting/Libraries/CMSIS/Include\cmsis_gcc.h ****   __ASM volatile ("MRS %0, primask" : "=r" (result) );
 454:C:/Users/Rui Mendes/Desktop/DAVE/_Naive/_ForTesting/Libraries/CMSIS/Include\cmsis_gcc.h ****   return(result);
 455:C:/Users/Rui Mendes/Desktop/DAVE/_Naive/_ForTesting/Libraries/CMSIS/Include\cmsis_gcc.h **** }
 456:C:/Users/Rui Mendes/Desktop/DAVE/_Naive/_ForTesting/Libraries/CMSIS/Include\cmsis_gcc.h **** 
 457:C:/Users/Rui Mendes/Desktop/DAVE/_Naive/_ForTesting/Libraries/CMSIS/Include\cmsis_gcc.h **** 
 458:C:/Users/Rui Mendes/Desktop/DAVE/_Naive/_ForTesting/Libraries/CMSIS/Include\cmsis_gcc.h **** #if (defined (__ARM_FEATURE_CMSE ) && (__ARM_FEATURE_CMSE == 3))
 459:C:/Users/Rui Mendes/Desktop/DAVE/_Naive/_ForTesting/Libraries/CMSIS/Include\cmsis_gcc.h **** /**
 460:C:/Users/Rui Mendes/Desktop/DAVE/_Naive/_ForTesting/Libraries/CMSIS/Include\cmsis_gcc.h ****   \brief   Get Priority Mask (non-secure)
 461:C:/Users/Rui Mendes/Desktop/DAVE/_Naive/_ForTesting/Libraries/CMSIS/Include\cmsis_gcc.h ****   \details Returns the current state of the non-secure priority mask bit from the Priority Mask Reg
 462:C:/Users/Rui Mendes/Desktop/DAVE/_Naive/_ForTesting/Libraries/CMSIS/Include\cmsis_gcc.h ****   \return               Priority Mask value
 463:C:/Users/Rui Mendes/Desktop/DAVE/_Naive/_ForTesting/Libraries/CMSIS/Include\cmsis_gcc.h ****  */
 464:C:/Users/Rui Mendes/Desktop/DAVE/_Naive/_ForTesting/Libraries/CMSIS/Include\cmsis_gcc.h **** __STATIC_FORCEINLINE uint32_t __TZ_get_PRIMASK_NS(void)
 465:C:/Users/Rui Mendes/Desktop/DAVE/_Naive/_ForTesting/Libraries/CMSIS/Include\cmsis_gcc.h **** {
 466:C:/Users/Rui Mendes/Desktop/DAVE/_Naive/_ForTesting/Libraries/CMSIS/Include\cmsis_gcc.h ****   uint32_t result;
 467:C:/Users/Rui Mendes/Desktop/DAVE/_Naive/_ForTesting/Libraries/CMSIS/Include\cmsis_gcc.h **** 
 468:C:/Users/Rui Mendes/Desktop/DAVE/_Naive/_ForTesting/Libraries/CMSIS/Include\cmsis_gcc.h ****   __ASM volatile ("MRS %0, primask_ns" : "=r" (result) );
 469:C:/Users/Rui Mendes/Desktop/DAVE/_Naive/_ForTesting/Libraries/CMSIS/Include\cmsis_gcc.h ****   return(result);
 470:C:/Users/Rui Mendes/Desktop/DAVE/_Naive/_ForTesting/Libraries/CMSIS/Include\cmsis_gcc.h **** }
 471:C:/Users/Rui Mendes/Desktop/DAVE/_Naive/_ForTesting/Libraries/CMSIS/Include\cmsis_gcc.h **** #endif
 472:C:/Users/Rui Mendes/Desktop/DAVE/_Naive/_ForTesting/Libraries/CMSIS/Include\cmsis_gcc.h **** 
 473:C:/Users/Rui Mendes/Desktop/DAVE/_Naive/_ForTesting/Libraries/CMSIS/Include\cmsis_gcc.h **** 
 474:C:/Users/Rui Mendes/Desktop/DAVE/_Naive/_ForTesting/Libraries/CMSIS/Include\cmsis_gcc.h **** /**
 475:C:/Users/Rui Mendes/Desktop/DAVE/_Naive/_ForTesting/Libraries/CMSIS/Include\cmsis_gcc.h ****   \brief   Set Priority Mask
 476:C:/Users/Rui Mendes/Desktop/DAVE/_Naive/_ForTesting/Libraries/CMSIS/Include\cmsis_gcc.h ****   \details Assigns the given value to the Priority Mask Register.
 477:C:/Users/Rui Mendes/Desktop/DAVE/_Naive/_ForTesting/Libraries/CMSIS/Include\cmsis_gcc.h ****   \param [in]    priMask  Priority Mask
 478:C:/Users/Rui Mendes/Desktop/DAVE/_Naive/_ForTesting/Libraries/CMSIS/Include\cmsis_gcc.h ****  */
 479:C:/Users/Rui Mendes/Desktop/DAVE/_Naive/_ForTesting/Libraries/CMSIS/Include\cmsis_gcc.h **** __STATIC_FORCEINLINE void __set_PRIMASK(uint32_t priMask)
 480:C:/Users/Rui Mendes/Desktop/DAVE/_Naive/_ForTesting/Libraries/CMSIS/Include\cmsis_gcc.h **** {
 481:C:/Users/Rui Mendes/Desktop/DAVE/_Naive/_ForTesting/Libraries/CMSIS/Include\cmsis_gcc.h ****   __ASM volatile ("MSR primask, %0" : : "r" (priMask) : "memory");
 482:C:/Users/Rui Mendes/Desktop/DAVE/_Naive/_ForTesting/Libraries/CMSIS/Include\cmsis_gcc.h **** }
 483:C:/Users/Rui Mendes/Desktop/DAVE/_Naive/_ForTesting/Libraries/CMSIS/Include\cmsis_gcc.h **** 
 484:C:/Users/Rui Mendes/Desktop/DAVE/_Naive/_ForTesting/Libraries/CMSIS/Include\cmsis_gcc.h **** 
 485:C:/Users/Rui Mendes/Desktop/DAVE/_Naive/_ForTesting/Libraries/CMSIS/Include\cmsis_gcc.h **** #if (defined (__ARM_FEATURE_CMSE ) && (__ARM_FEATURE_CMSE == 3))
 486:C:/Users/Rui Mendes/Desktop/DAVE/_Naive/_ForTesting/Libraries/CMSIS/Include\cmsis_gcc.h **** /**
 487:C:/Users/Rui Mendes/Desktop/DAVE/_Naive/_ForTesting/Libraries/CMSIS/Include\cmsis_gcc.h ****   \brief   Set Priority Mask (non-secure)
 488:C:/Users/Rui Mendes/Desktop/DAVE/_Naive/_ForTesting/Libraries/CMSIS/Include\cmsis_gcc.h ****   \details Assigns the given value to the non-secure Priority Mask Register when in secure state.
 489:C:/Users/Rui Mendes/Desktop/DAVE/_Naive/_ForTesting/Libraries/CMSIS/Include\cmsis_gcc.h ****   \param [in]    priMask  Priority Mask
 490:C:/Users/Rui Mendes/Desktop/DAVE/_Naive/_ForTesting/Libraries/CMSIS/Include\cmsis_gcc.h ****  */
 491:C:/Users/Rui Mendes/Desktop/DAVE/_Naive/_ForTesting/Libraries/CMSIS/Include\cmsis_gcc.h **** __STATIC_FORCEINLINE void __TZ_set_PRIMASK_NS(uint32_t priMask)
 492:C:/Users/Rui Mendes/Desktop/DAVE/_Naive/_ForTesting/Libraries/CMSIS/Include\cmsis_gcc.h **** {
 493:C:/Users/Rui Mendes/Desktop/DAVE/_Naive/_ForTesting/Libraries/CMSIS/Include\cmsis_gcc.h ****   __ASM volatile ("MSR primask_ns, %0" : : "r" (priMask) : "memory");
 494:C:/Users/Rui Mendes/Desktop/DAVE/_Naive/_ForTesting/Libraries/CMSIS/Include\cmsis_gcc.h **** }
 495:C:/Users/Rui Mendes/Desktop/DAVE/_Naive/_ForTesting/Libraries/CMSIS/Include\cmsis_gcc.h **** #endif
 496:C:/Users/Rui Mendes/Desktop/DAVE/_Naive/_ForTesting/Libraries/CMSIS/Include\cmsis_gcc.h **** 
 497:C:/Users/Rui Mendes/Desktop/DAVE/_Naive/_ForTesting/Libraries/CMSIS/Include\cmsis_gcc.h **** 
 498:C:/Users/Rui Mendes/Desktop/DAVE/_Naive/_ForTesting/Libraries/CMSIS/Include\cmsis_gcc.h **** #if ((defined (__ARM_ARCH_7M__      ) && (__ARM_ARCH_7M__      == 1)) || \
 499:C:/Users/Rui Mendes/Desktop/DAVE/_Naive/_ForTesting/Libraries/CMSIS/Include\cmsis_gcc.h ****      (defined (__ARM_ARCH_7EM__     ) && (__ARM_ARCH_7EM__     == 1)) || \
 500:C:/Users/Rui Mendes/Desktop/DAVE/_Naive/_ForTesting/Libraries/CMSIS/Include\cmsis_gcc.h ****      (defined (__ARM_ARCH_8M_MAIN__ ) && (__ARM_ARCH_8M_MAIN__ == 1))    )
 501:C:/Users/Rui Mendes/Desktop/DAVE/_Naive/_ForTesting/Libraries/CMSIS/Include\cmsis_gcc.h **** /**
 502:C:/Users/Rui Mendes/Desktop/DAVE/_Naive/_ForTesting/Libraries/CMSIS/Include\cmsis_gcc.h ****   \brief   Enable FIQ
 503:C:/Users/Rui Mendes/Desktop/DAVE/_Naive/_ForTesting/Libraries/CMSIS/Include\cmsis_gcc.h ****   \details Enables FIQ interrupts by clearing the F-bit in the CPSR.
 504:C:/Users/Rui Mendes/Desktop/DAVE/_Naive/_ForTesting/Libraries/CMSIS/Include\cmsis_gcc.h ****            Can only be executed in Privileged modes.
 505:C:/Users/Rui Mendes/Desktop/DAVE/_Naive/_ForTesting/Libraries/CMSIS/Include\cmsis_gcc.h ****  */
 506:C:/Users/Rui Mendes/Desktop/DAVE/_Naive/_ForTesting/Libraries/CMSIS/Include\cmsis_gcc.h **** __STATIC_FORCEINLINE void __enable_fault_irq(void)
 507:C:/Users/Rui Mendes/Desktop/DAVE/_Naive/_ForTesting/Libraries/CMSIS/Include\cmsis_gcc.h **** {
 508:C:/Users/Rui Mendes/Desktop/DAVE/_Naive/_ForTesting/Libraries/CMSIS/Include\cmsis_gcc.h ****   __ASM volatile ("cpsie f" : : : "memory");
 509:C:/Users/Rui Mendes/Desktop/DAVE/_Naive/_ForTesting/Libraries/CMSIS/Include\cmsis_gcc.h **** }
 510:C:/Users/Rui Mendes/Desktop/DAVE/_Naive/_ForTesting/Libraries/CMSIS/Include\cmsis_gcc.h **** 
 511:C:/Users/Rui Mendes/Desktop/DAVE/_Naive/_ForTesting/Libraries/CMSIS/Include\cmsis_gcc.h **** 
 512:C:/Users/Rui Mendes/Desktop/DAVE/_Naive/_ForTesting/Libraries/CMSIS/Include\cmsis_gcc.h **** /**
 513:C:/Users/Rui Mendes/Desktop/DAVE/_Naive/_ForTesting/Libraries/CMSIS/Include\cmsis_gcc.h ****   \brief   Disable FIQ
 514:C:/Users/Rui Mendes/Desktop/DAVE/_Naive/_ForTesting/Libraries/CMSIS/Include\cmsis_gcc.h ****   \details Disables FIQ interrupts by setting the F-bit in the CPSR.
 515:C:/Users/Rui Mendes/Desktop/DAVE/_Naive/_ForTesting/Libraries/CMSIS/Include\cmsis_gcc.h ****            Can only be executed in Privileged modes.
 516:C:/Users/Rui Mendes/Desktop/DAVE/_Naive/_ForTesting/Libraries/CMSIS/Include\cmsis_gcc.h ****  */
 517:C:/Users/Rui Mendes/Desktop/DAVE/_Naive/_ForTesting/Libraries/CMSIS/Include\cmsis_gcc.h **** __STATIC_FORCEINLINE void __disable_fault_irq(void)
 518:C:/Users/Rui Mendes/Desktop/DAVE/_Naive/_ForTesting/Libraries/CMSIS/Include\cmsis_gcc.h **** {
 519:C:/Users/Rui Mendes/Desktop/DAVE/_Naive/_ForTesting/Libraries/CMSIS/Include\cmsis_gcc.h ****   __ASM volatile ("cpsid f" : : : "memory");
 520:C:/Users/Rui Mendes/Desktop/DAVE/_Naive/_ForTesting/Libraries/CMSIS/Include\cmsis_gcc.h **** }
 521:C:/Users/Rui Mendes/Desktop/DAVE/_Naive/_ForTesting/Libraries/CMSIS/Include\cmsis_gcc.h **** 
 522:C:/Users/Rui Mendes/Desktop/DAVE/_Naive/_ForTesting/Libraries/CMSIS/Include\cmsis_gcc.h **** 
 523:C:/Users/Rui Mendes/Desktop/DAVE/_Naive/_ForTesting/Libraries/CMSIS/Include\cmsis_gcc.h **** /**
 524:C:/Users/Rui Mendes/Desktop/DAVE/_Naive/_ForTesting/Libraries/CMSIS/Include\cmsis_gcc.h ****   \brief   Get Base Priority
 525:C:/Users/Rui Mendes/Desktop/DAVE/_Naive/_ForTesting/Libraries/CMSIS/Include\cmsis_gcc.h ****   \details Returns the current value of the Base Priority register.
 526:C:/Users/Rui Mendes/Desktop/DAVE/_Naive/_ForTesting/Libraries/CMSIS/Include\cmsis_gcc.h ****   \return               Base Priority register value
 527:C:/Users/Rui Mendes/Desktop/DAVE/_Naive/_ForTesting/Libraries/CMSIS/Include\cmsis_gcc.h ****  */
 528:C:/Users/Rui Mendes/Desktop/DAVE/_Naive/_ForTesting/Libraries/CMSIS/Include\cmsis_gcc.h **** __STATIC_FORCEINLINE uint32_t __get_BASEPRI(void)
 529:C:/Users/Rui Mendes/Desktop/DAVE/_Naive/_ForTesting/Libraries/CMSIS/Include\cmsis_gcc.h **** {
 530:C:/Users/Rui Mendes/Desktop/DAVE/_Naive/_ForTesting/Libraries/CMSIS/Include\cmsis_gcc.h ****   uint32_t result;
 531:C:/Users/Rui Mendes/Desktop/DAVE/_Naive/_ForTesting/Libraries/CMSIS/Include\cmsis_gcc.h **** 
 532:C:/Users/Rui Mendes/Desktop/DAVE/_Naive/_ForTesting/Libraries/CMSIS/Include\cmsis_gcc.h ****   __ASM volatile ("MRS %0, basepri" : "=r" (result) );
 533:C:/Users/Rui Mendes/Desktop/DAVE/_Naive/_ForTesting/Libraries/CMSIS/Include\cmsis_gcc.h ****   return(result);
 534:C:/Users/Rui Mendes/Desktop/DAVE/_Naive/_ForTesting/Libraries/CMSIS/Include\cmsis_gcc.h **** }
 535:C:/Users/Rui Mendes/Desktop/DAVE/_Naive/_ForTesting/Libraries/CMSIS/Include\cmsis_gcc.h **** 
 536:C:/Users/Rui Mendes/Desktop/DAVE/_Naive/_ForTesting/Libraries/CMSIS/Include\cmsis_gcc.h **** 
 537:C:/Users/Rui Mendes/Desktop/DAVE/_Naive/_ForTesting/Libraries/CMSIS/Include\cmsis_gcc.h **** #if (defined (__ARM_FEATURE_CMSE ) && (__ARM_FEATURE_CMSE == 3))
 538:C:/Users/Rui Mendes/Desktop/DAVE/_Naive/_ForTesting/Libraries/CMSIS/Include\cmsis_gcc.h **** /**
 539:C:/Users/Rui Mendes/Desktop/DAVE/_Naive/_ForTesting/Libraries/CMSIS/Include\cmsis_gcc.h ****   \brief   Get Base Priority (non-secure)
 540:C:/Users/Rui Mendes/Desktop/DAVE/_Naive/_ForTesting/Libraries/CMSIS/Include\cmsis_gcc.h ****   \details Returns the current value of the non-secure Base Priority register when in secure state.
 541:C:/Users/Rui Mendes/Desktop/DAVE/_Naive/_ForTesting/Libraries/CMSIS/Include\cmsis_gcc.h ****   \return               Base Priority register value
 542:C:/Users/Rui Mendes/Desktop/DAVE/_Naive/_ForTesting/Libraries/CMSIS/Include\cmsis_gcc.h ****  */
 543:C:/Users/Rui Mendes/Desktop/DAVE/_Naive/_ForTesting/Libraries/CMSIS/Include\cmsis_gcc.h **** __STATIC_FORCEINLINE uint32_t __TZ_get_BASEPRI_NS(void)
 544:C:/Users/Rui Mendes/Desktop/DAVE/_Naive/_ForTesting/Libraries/CMSIS/Include\cmsis_gcc.h **** {
 545:C:/Users/Rui Mendes/Desktop/DAVE/_Naive/_ForTesting/Libraries/CMSIS/Include\cmsis_gcc.h ****   uint32_t result;
 546:C:/Users/Rui Mendes/Desktop/DAVE/_Naive/_ForTesting/Libraries/CMSIS/Include\cmsis_gcc.h **** 
 547:C:/Users/Rui Mendes/Desktop/DAVE/_Naive/_ForTesting/Libraries/CMSIS/Include\cmsis_gcc.h ****   __ASM volatile ("MRS %0, basepri_ns" : "=r" (result) );
 548:C:/Users/Rui Mendes/Desktop/DAVE/_Naive/_ForTesting/Libraries/CMSIS/Include\cmsis_gcc.h ****   return(result);
 549:C:/Users/Rui Mendes/Desktop/DAVE/_Naive/_ForTesting/Libraries/CMSIS/Include\cmsis_gcc.h **** }
 550:C:/Users/Rui Mendes/Desktop/DAVE/_Naive/_ForTesting/Libraries/CMSIS/Include\cmsis_gcc.h **** #endif
 551:C:/Users/Rui Mendes/Desktop/DAVE/_Naive/_ForTesting/Libraries/CMSIS/Include\cmsis_gcc.h **** 
 552:C:/Users/Rui Mendes/Desktop/DAVE/_Naive/_ForTesting/Libraries/CMSIS/Include\cmsis_gcc.h **** 
 553:C:/Users/Rui Mendes/Desktop/DAVE/_Naive/_ForTesting/Libraries/CMSIS/Include\cmsis_gcc.h **** /**
 554:C:/Users/Rui Mendes/Desktop/DAVE/_Naive/_ForTesting/Libraries/CMSIS/Include\cmsis_gcc.h ****   \brief   Set Base Priority
 555:C:/Users/Rui Mendes/Desktop/DAVE/_Naive/_ForTesting/Libraries/CMSIS/Include\cmsis_gcc.h ****   \details Assigns the given value to the Base Priority register.
 556:C:/Users/Rui Mendes/Desktop/DAVE/_Naive/_ForTesting/Libraries/CMSIS/Include\cmsis_gcc.h ****   \param [in]    basePri  Base Priority value to set
 557:C:/Users/Rui Mendes/Desktop/DAVE/_Naive/_ForTesting/Libraries/CMSIS/Include\cmsis_gcc.h ****  */
 558:C:/Users/Rui Mendes/Desktop/DAVE/_Naive/_ForTesting/Libraries/CMSIS/Include\cmsis_gcc.h **** __STATIC_FORCEINLINE void __set_BASEPRI(uint32_t basePri)
 559:C:/Users/Rui Mendes/Desktop/DAVE/_Naive/_ForTesting/Libraries/CMSIS/Include\cmsis_gcc.h **** {
 560:C:/Users/Rui Mendes/Desktop/DAVE/_Naive/_ForTesting/Libraries/CMSIS/Include\cmsis_gcc.h ****   __ASM volatile ("MSR basepri, %0" : : "r" (basePri) : "memory");
 561:C:/Users/Rui Mendes/Desktop/DAVE/_Naive/_ForTesting/Libraries/CMSIS/Include\cmsis_gcc.h **** }
 562:C:/Users/Rui Mendes/Desktop/DAVE/_Naive/_ForTesting/Libraries/CMSIS/Include\cmsis_gcc.h **** 
 563:C:/Users/Rui Mendes/Desktop/DAVE/_Naive/_ForTesting/Libraries/CMSIS/Include\cmsis_gcc.h **** 
 564:C:/Users/Rui Mendes/Desktop/DAVE/_Naive/_ForTesting/Libraries/CMSIS/Include\cmsis_gcc.h **** #if (defined (__ARM_FEATURE_CMSE ) && (__ARM_FEATURE_CMSE == 3))
 565:C:/Users/Rui Mendes/Desktop/DAVE/_Naive/_ForTesting/Libraries/CMSIS/Include\cmsis_gcc.h **** /**
 566:C:/Users/Rui Mendes/Desktop/DAVE/_Naive/_ForTesting/Libraries/CMSIS/Include\cmsis_gcc.h ****   \brief   Set Base Priority (non-secure)
 567:C:/Users/Rui Mendes/Desktop/DAVE/_Naive/_ForTesting/Libraries/CMSIS/Include\cmsis_gcc.h ****   \details Assigns the given value to the non-secure Base Priority register when in secure state.
 568:C:/Users/Rui Mendes/Desktop/DAVE/_Naive/_ForTesting/Libraries/CMSIS/Include\cmsis_gcc.h ****   \param [in]    basePri  Base Priority value to set
 569:C:/Users/Rui Mendes/Desktop/DAVE/_Naive/_ForTesting/Libraries/CMSIS/Include\cmsis_gcc.h ****  */
 570:C:/Users/Rui Mendes/Desktop/DAVE/_Naive/_ForTesting/Libraries/CMSIS/Include\cmsis_gcc.h **** __STATIC_FORCEINLINE void __TZ_set_BASEPRI_NS(uint32_t basePri)
 571:C:/Users/Rui Mendes/Desktop/DAVE/_Naive/_ForTesting/Libraries/CMSIS/Include\cmsis_gcc.h **** {
 572:C:/Users/Rui Mendes/Desktop/DAVE/_Naive/_ForTesting/Libraries/CMSIS/Include\cmsis_gcc.h ****   __ASM volatile ("MSR basepri_ns, %0" : : "r" (basePri) : "memory");
 573:C:/Users/Rui Mendes/Desktop/DAVE/_Naive/_ForTesting/Libraries/CMSIS/Include\cmsis_gcc.h **** }
 574:C:/Users/Rui Mendes/Desktop/DAVE/_Naive/_ForTesting/Libraries/CMSIS/Include\cmsis_gcc.h **** #endif
 575:C:/Users/Rui Mendes/Desktop/DAVE/_Naive/_ForTesting/Libraries/CMSIS/Include\cmsis_gcc.h **** 
 576:C:/Users/Rui Mendes/Desktop/DAVE/_Naive/_ForTesting/Libraries/CMSIS/Include\cmsis_gcc.h **** 
 577:C:/Users/Rui Mendes/Desktop/DAVE/_Naive/_ForTesting/Libraries/CMSIS/Include\cmsis_gcc.h **** /**
 578:C:/Users/Rui Mendes/Desktop/DAVE/_Naive/_ForTesting/Libraries/CMSIS/Include\cmsis_gcc.h ****   \brief   Set Base Priority with condition
 579:C:/Users/Rui Mendes/Desktop/DAVE/_Naive/_ForTesting/Libraries/CMSIS/Include\cmsis_gcc.h ****   \details Assigns the given value to the Base Priority register only if BASEPRI masking is disable
 580:C:/Users/Rui Mendes/Desktop/DAVE/_Naive/_ForTesting/Libraries/CMSIS/Include\cmsis_gcc.h ****            or the new value increases the BASEPRI priority level.
 581:C:/Users/Rui Mendes/Desktop/DAVE/_Naive/_ForTesting/Libraries/CMSIS/Include\cmsis_gcc.h ****   \param [in]    basePri  Base Priority value to set
 582:C:/Users/Rui Mendes/Desktop/DAVE/_Naive/_ForTesting/Libraries/CMSIS/Include\cmsis_gcc.h ****  */
 583:C:/Users/Rui Mendes/Desktop/DAVE/_Naive/_ForTesting/Libraries/CMSIS/Include\cmsis_gcc.h **** __STATIC_FORCEINLINE void __set_BASEPRI_MAX(uint32_t basePri)
 584:C:/Users/Rui Mendes/Desktop/DAVE/_Naive/_ForTesting/Libraries/CMSIS/Include\cmsis_gcc.h **** {
 585:C:/Users/Rui Mendes/Desktop/DAVE/_Naive/_ForTesting/Libraries/CMSIS/Include\cmsis_gcc.h ****   __ASM volatile ("MSR basepri_max, %0" : : "r" (basePri) : "memory");
 586:C:/Users/Rui Mendes/Desktop/DAVE/_Naive/_ForTesting/Libraries/CMSIS/Include\cmsis_gcc.h **** }
 587:C:/Users/Rui Mendes/Desktop/DAVE/_Naive/_ForTesting/Libraries/CMSIS/Include\cmsis_gcc.h **** 
 588:C:/Users/Rui Mendes/Desktop/DAVE/_Naive/_ForTesting/Libraries/CMSIS/Include\cmsis_gcc.h **** 
 589:C:/Users/Rui Mendes/Desktop/DAVE/_Naive/_ForTesting/Libraries/CMSIS/Include\cmsis_gcc.h **** /**
 590:C:/Users/Rui Mendes/Desktop/DAVE/_Naive/_ForTesting/Libraries/CMSIS/Include\cmsis_gcc.h ****   \brief   Get Fault Mask
 591:C:/Users/Rui Mendes/Desktop/DAVE/_Naive/_ForTesting/Libraries/CMSIS/Include\cmsis_gcc.h ****   \details Returns the current value of the Fault Mask register.
 592:C:/Users/Rui Mendes/Desktop/DAVE/_Naive/_ForTesting/Libraries/CMSIS/Include\cmsis_gcc.h ****   \return               Fault Mask register value
 593:C:/Users/Rui Mendes/Desktop/DAVE/_Naive/_ForTesting/Libraries/CMSIS/Include\cmsis_gcc.h ****  */
 594:C:/Users/Rui Mendes/Desktop/DAVE/_Naive/_ForTesting/Libraries/CMSIS/Include\cmsis_gcc.h **** __STATIC_FORCEINLINE uint32_t __get_FAULTMASK(void)
 595:C:/Users/Rui Mendes/Desktop/DAVE/_Naive/_ForTesting/Libraries/CMSIS/Include\cmsis_gcc.h **** {
 596:C:/Users/Rui Mendes/Desktop/DAVE/_Naive/_ForTesting/Libraries/CMSIS/Include\cmsis_gcc.h ****   uint32_t result;
 597:C:/Users/Rui Mendes/Desktop/DAVE/_Naive/_ForTesting/Libraries/CMSIS/Include\cmsis_gcc.h **** 
 598:C:/Users/Rui Mendes/Desktop/DAVE/_Naive/_ForTesting/Libraries/CMSIS/Include\cmsis_gcc.h ****   __ASM volatile ("MRS %0, faultmask" : "=r" (result) );
 599:C:/Users/Rui Mendes/Desktop/DAVE/_Naive/_ForTesting/Libraries/CMSIS/Include\cmsis_gcc.h ****   return(result);
 600:C:/Users/Rui Mendes/Desktop/DAVE/_Naive/_ForTesting/Libraries/CMSIS/Include\cmsis_gcc.h **** }
 601:C:/Users/Rui Mendes/Desktop/DAVE/_Naive/_ForTesting/Libraries/CMSIS/Include\cmsis_gcc.h **** 
 602:C:/Users/Rui Mendes/Desktop/DAVE/_Naive/_ForTesting/Libraries/CMSIS/Include\cmsis_gcc.h **** 
 603:C:/Users/Rui Mendes/Desktop/DAVE/_Naive/_ForTesting/Libraries/CMSIS/Include\cmsis_gcc.h **** #if (defined (__ARM_FEATURE_CMSE ) && (__ARM_FEATURE_CMSE == 3))
 604:C:/Users/Rui Mendes/Desktop/DAVE/_Naive/_ForTesting/Libraries/CMSIS/Include\cmsis_gcc.h **** /**
 605:C:/Users/Rui Mendes/Desktop/DAVE/_Naive/_ForTesting/Libraries/CMSIS/Include\cmsis_gcc.h ****   \brief   Get Fault Mask (non-secure)
 606:C:/Users/Rui Mendes/Desktop/DAVE/_Naive/_ForTesting/Libraries/CMSIS/Include\cmsis_gcc.h ****   \details Returns the current value of the non-secure Fault Mask register when in secure state.
 607:C:/Users/Rui Mendes/Desktop/DAVE/_Naive/_ForTesting/Libraries/CMSIS/Include\cmsis_gcc.h ****   \return               Fault Mask register value
 608:C:/Users/Rui Mendes/Desktop/DAVE/_Naive/_ForTesting/Libraries/CMSIS/Include\cmsis_gcc.h ****  */
 609:C:/Users/Rui Mendes/Desktop/DAVE/_Naive/_ForTesting/Libraries/CMSIS/Include\cmsis_gcc.h **** __STATIC_FORCEINLINE uint32_t __TZ_get_FAULTMASK_NS(void)
 610:C:/Users/Rui Mendes/Desktop/DAVE/_Naive/_ForTesting/Libraries/CMSIS/Include\cmsis_gcc.h **** {
 611:C:/Users/Rui Mendes/Desktop/DAVE/_Naive/_ForTesting/Libraries/CMSIS/Include\cmsis_gcc.h ****   uint32_t result;
 612:C:/Users/Rui Mendes/Desktop/DAVE/_Naive/_ForTesting/Libraries/CMSIS/Include\cmsis_gcc.h **** 
 613:C:/Users/Rui Mendes/Desktop/DAVE/_Naive/_ForTesting/Libraries/CMSIS/Include\cmsis_gcc.h ****   __ASM volatile ("MRS %0, faultmask_ns" : "=r" (result) );
 614:C:/Users/Rui Mendes/Desktop/DAVE/_Naive/_ForTesting/Libraries/CMSIS/Include\cmsis_gcc.h ****   return(result);
 615:C:/Users/Rui Mendes/Desktop/DAVE/_Naive/_ForTesting/Libraries/CMSIS/Include\cmsis_gcc.h **** }
 616:C:/Users/Rui Mendes/Desktop/DAVE/_Naive/_ForTesting/Libraries/CMSIS/Include\cmsis_gcc.h **** #endif
 617:C:/Users/Rui Mendes/Desktop/DAVE/_Naive/_ForTesting/Libraries/CMSIS/Include\cmsis_gcc.h **** 
 618:C:/Users/Rui Mendes/Desktop/DAVE/_Naive/_ForTesting/Libraries/CMSIS/Include\cmsis_gcc.h **** 
 619:C:/Users/Rui Mendes/Desktop/DAVE/_Naive/_ForTesting/Libraries/CMSIS/Include\cmsis_gcc.h **** /**
 620:C:/Users/Rui Mendes/Desktop/DAVE/_Naive/_ForTesting/Libraries/CMSIS/Include\cmsis_gcc.h ****   \brief   Set Fault Mask
 621:C:/Users/Rui Mendes/Desktop/DAVE/_Naive/_ForTesting/Libraries/CMSIS/Include\cmsis_gcc.h ****   \details Assigns the given value to the Fault Mask register.
 622:C:/Users/Rui Mendes/Desktop/DAVE/_Naive/_ForTesting/Libraries/CMSIS/Include\cmsis_gcc.h ****   \param [in]    faultMask  Fault Mask value to set
 623:C:/Users/Rui Mendes/Desktop/DAVE/_Naive/_ForTesting/Libraries/CMSIS/Include\cmsis_gcc.h ****  */
 624:C:/Users/Rui Mendes/Desktop/DAVE/_Naive/_ForTesting/Libraries/CMSIS/Include\cmsis_gcc.h **** __STATIC_FORCEINLINE void __set_FAULTMASK(uint32_t faultMask)
 625:C:/Users/Rui Mendes/Desktop/DAVE/_Naive/_ForTesting/Libraries/CMSIS/Include\cmsis_gcc.h **** {
 626:C:/Users/Rui Mendes/Desktop/DAVE/_Naive/_ForTesting/Libraries/CMSIS/Include\cmsis_gcc.h ****   __ASM volatile ("MSR faultmask, %0" : : "r" (faultMask) : "memory");
 627:C:/Users/Rui Mendes/Desktop/DAVE/_Naive/_ForTesting/Libraries/CMSIS/Include\cmsis_gcc.h **** }
 628:C:/Users/Rui Mendes/Desktop/DAVE/_Naive/_ForTesting/Libraries/CMSIS/Include\cmsis_gcc.h **** 
 629:C:/Users/Rui Mendes/Desktop/DAVE/_Naive/_ForTesting/Libraries/CMSIS/Include\cmsis_gcc.h **** 
 630:C:/Users/Rui Mendes/Desktop/DAVE/_Naive/_ForTesting/Libraries/CMSIS/Include\cmsis_gcc.h **** #if (defined (__ARM_FEATURE_CMSE ) && (__ARM_FEATURE_CMSE == 3))
 631:C:/Users/Rui Mendes/Desktop/DAVE/_Naive/_ForTesting/Libraries/CMSIS/Include\cmsis_gcc.h **** /**
 632:C:/Users/Rui Mendes/Desktop/DAVE/_Naive/_ForTesting/Libraries/CMSIS/Include\cmsis_gcc.h ****   \brief   Set Fault Mask (non-secure)
 633:C:/Users/Rui Mendes/Desktop/DAVE/_Naive/_ForTesting/Libraries/CMSIS/Include\cmsis_gcc.h ****   \details Assigns the given value to the non-secure Fault Mask register when in secure state.
 634:C:/Users/Rui Mendes/Desktop/DAVE/_Naive/_ForTesting/Libraries/CMSIS/Include\cmsis_gcc.h ****   \param [in]    faultMask  Fault Mask value to set
 635:C:/Users/Rui Mendes/Desktop/DAVE/_Naive/_ForTesting/Libraries/CMSIS/Include\cmsis_gcc.h ****  */
 636:C:/Users/Rui Mendes/Desktop/DAVE/_Naive/_ForTesting/Libraries/CMSIS/Include\cmsis_gcc.h **** __STATIC_FORCEINLINE void __TZ_set_FAULTMASK_NS(uint32_t faultMask)
 637:C:/Users/Rui Mendes/Desktop/DAVE/_Naive/_ForTesting/Libraries/CMSIS/Include\cmsis_gcc.h **** {
 638:C:/Users/Rui Mendes/Desktop/DAVE/_Naive/_ForTesting/Libraries/CMSIS/Include\cmsis_gcc.h ****   __ASM volatile ("MSR faultmask_ns, %0" : : "r" (faultMask) : "memory");
 639:C:/Users/Rui Mendes/Desktop/DAVE/_Naive/_ForTesting/Libraries/CMSIS/Include\cmsis_gcc.h **** }
 640:C:/Users/Rui Mendes/Desktop/DAVE/_Naive/_ForTesting/Libraries/CMSIS/Include\cmsis_gcc.h **** #endif
 641:C:/Users/Rui Mendes/Desktop/DAVE/_Naive/_ForTesting/Libraries/CMSIS/Include\cmsis_gcc.h **** 
 642:C:/Users/Rui Mendes/Desktop/DAVE/_Naive/_ForTesting/Libraries/CMSIS/Include\cmsis_gcc.h **** #endif /* ((defined (__ARM_ARCH_7M__      ) && (__ARM_ARCH_7M__      == 1)) || \
 643:C:/Users/Rui Mendes/Desktop/DAVE/_Naive/_ForTesting/Libraries/CMSIS/Include\cmsis_gcc.h ****            (defined (__ARM_ARCH_7EM__     ) && (__ARM_ARCH_7EM__     == 1)) || \
 644:C:/Users/Rui Mendes/Desktop/DAVE/_Naive/_ForTesting/Libraries/CMSIS/Include\cmsis_gcc.h ****            (defined (__ARM_ARCH_8M_MAIN__ ) && (__ARM_ARCH_8M_MAIN__ == 1))    ) */
 645:C:/Users/Rui Mendes/Desktop/DAVE/_Naive/_ForTesting/Libraries/CMSIS/Include\cmsis_gcc.h **** 
 646:C:/Users/Rui Mendes/Desktop/DAVE/_Naive/_ForTesting/Libraries/CMSIS/Include\cmsis_gcc.h **** 
 647:C:/Users/Rui Mendes/Desktop/DAVE/_Naive/_ForTesting/Libraries/CMSIS/Include\cmsis_gcc.h **** #if ((defined (__ARM_ARCH_8M_MAIN__ ) && (__ARM_ARCH_8M_MAIN__ == 1)) || \
 648:C:/Users/Rui Mendes/Desktop/DAVE/_Naive/_ForTesting/Libraries/CMSIS/Include\cmsis_gcc.h ****      (defined (__ARM_ARCH_8M_BASE__ ) && (__ARM_ARCH_8M_BASE__ == 1))    )
 649:C:/Users/Rui Mendes/Desktop/DAVE/_Naive/_ForTesting/Libraries/CMSIS/Include\cmsis_gcc.h **** 
 650:C:/Users/Rui Mendes/Desktop/DAVE/_Naive/_ForTesting/Libraries/CMSIS/Include\cmsis_gcc.h **** /**
 651:C:/Users/Rui Mendes/Desktop/DAVE/_Naive/_ForTesting/Libraries/CMSIS/Include\cmsis_gcc.h ****   \brief   Get Process Stack Pointer Limit
 652:C:/Users/Rui Mendes/Desktop/DAVE/_Naive/_ForTesting/Libraries/CMSIS/Include\cmsis_gcc.h ****   Devices without ARMv8-M Main Extensions (i.e. Cortex-M23) lack the non-secure
 653:C:/Users/Rui Mendes/Desktop/DAVE/_Naive/_ForTesting/Libraries/CMSIS/Include\cmsis_gcc.h ****   Stack Pointer Limit register hence zero is returned always in non-secure
 654:C:/Users/Rui Mendes/Desktop/DAVE/_Naive/_ForTesting/Libraries/CMSIS/Include\cmsis_gcc.h ****   mode.
 655:C:/Users/Rui Mendes/Desktop/DAVE/_Naive/_ForTesting/Libraries/CMSIS/Include\cmsis_gcc.h ****   
 656:C:/Users/Rui Mendes/Desktop/DAVE/_Naive/_ForTesting/Libraries/CMSIS/Include\cmsis_gcc.h ****   \details Returns the current value of the Process Stack Pointer Limit (PSPLIM).
 657:C:/Users/Rui Mendes/Desktop/DAVE/_Naive/_ForTesting/Libraries/CMSIS/Include\cmsis_gcc.h ****   \return               PSPLIM Register value
 658:C:/Users/Rui Mendes/Desktop/DAVE/_Naive/_ForTesting/Libraries/CMSIS/Include\cmsis_gcc.h ****  */
 659:C:/Users/Rui Mendes/Desktop/DAVE/_Naive/_ForTesting/Libraries/CMSIS/Include\cmsis_gcc.h **** __STATIC_FORCEINLINE uint32_t __get_PSPLIM(void)
 660:C:/Users/Rui Mendes/Desktop/DAVE/_Naive/_ForTesting/Libraries/CMSIS/Include\cmsis_gcc.h **** {
 661:C:/Users/Rui Mendes/Desktop/DAVE/_Naive/_ForTesting/Libraries/CMSIS/Include\cmsis_gcc.h **** #if (!(defined (__ARM_ARCH_8M_MAIN__ ) && (__ARM_ARCH_8M_MAIN__ == 1)) && \
 662:C:/Users/Rui Mendes/Desktop/DAVE/_Naive/_ForTesting/Libraries/CMSIS/Include\cmsis_gcc.h ****     (!defined (__ARM_FEATURE_CMSE) || (__ARM_FEATURE_CMSE < 3)))
 663:C:/Users/Rui Mendes/Desktop/DAVE/_Naive/_ForTesting/Libraries/CMSIS/Include\cmsis_gcc.h ****     // without main extensions, the non-secure PSPLIM is RAZ/WI
 664:C:/Users/Rui Mendes/Desktop/DAVE/_Naive/_ForTesting/Libraries/CMSIS/Include\cmsis_gcc.h ****   return 0U;
 665:C:/Users/Rui Mendes/Desktop/DAVE/_Naive/_ForTesting/Libraries/CMSIS/Include\cmsis_gcc.h **** #else
 666:C:/Users/Rui Mendes/Desktop/DAVE/_Naive/_ForTesting/Libraries/CMSIS/Include\cmsis_gcc.h ****   uint32_t result;
 667:C:/Users/Rui Mendes/Desktop/DAVE/_Naive/_ForTesting/Libraries/CMSIS/Include\cmsis_gcc.h ****   __ASM volatile ("MRS %0, psplim"  : "=r" (result) );
 668:C:/Users/Rui Mendes/Desktop/DAVE/_Naive/_ForTesting/Libraries/CMSIS/Include\cmsis_gcc.h ****   return result;
 669:C:/Users/Rui Mendes/Desktop/DAVE/_Naive/_ForTesting/Libraries/CMSIS/Include\cmsis_gcc.h **** #endif
 670:C:/Users/Rui Mendes/Desktop/DAVE/_Naive/_ForTesting/Libraries/CMSIS/Include\cmsis_gcc.h **** }
 671:C:/Users/Rui Mendes/Desktop/DAVE/_Naive/_ForTesting/Libraries/CMSIS/Include\cmsis_gcc.h **** 
 672:C:/Users/Rui Mendes/Desktop/DAVE/_Naive/_ForTesting/Libraries/CMSIS/Include\cmsis_gcc.h **** #if (defined (__ARM_FEATURE_CMSE) && (__ARM_FEATURE_CMSE == 3))
 673:C:/Users/Rui Mendes/Desktop/DAVE/_Naive/_ForTesting/Libraries/CMSIS/Include\cmsis_gcc.h **** /**
 674:C:/Users/Rui Mendes/Desktop/DAVE/_Naive/_ForTesting/Libraries/CMSIS/Include\cmsis_gcc.h ****   \brief   Get Process Stack Pointer Limit (non-secure)
 675:C:/Users/Rui Mendes/Desktop/DAVE/_Naive/_ForTesting/Libraries/CMSIS/Include\cmsis_gcc.h ****   Devices without ARMv8-M Main Extensions (i.e. Cortex-M23) lack the non-secure
 676:C:/Users/Rui Mendes/Desktop/DAVE/_Naive/_ForTesting/Libraries/CMSIS/Include\cmsis_gcc.h ****   Stack Pointer Limit register hence zero is returned always.
 677:C:/Users/Rui Mendes/Desktop/DAVE/_Naive/_ForTesting/Libraries/CMSIS/Include\cmsis_gcc.h **** 
 678:C:/Users/Rui Mendes/Desktop/DAVE/_Naive/_ForTesting/Libraries/CMSIS/Include\cmsis_gcc.h ****   \details Returns the current value of the non-secure Process Stack Pointer Limit (PSPLIM) when in
 679:C:/Users/Rui Mendes/Desktop/DAVE/_Naive/_ForTesting/Libraries/CMSIS/Include\cmsis_gcc.h ****   \return               PSPLIM Register value
 680:C:/Users/Rui Mendes/Desktop/DAVE/_Naive/_ForTesting/Libraries/CMSIS/Include\cmsis_gcc.h ****  */
 681:C:/Users/Rui Mendes/Desktop/DAVE/_Naive/_ForTesting/Libraries/CMSIS/Include\cmsis_gcc.h **** __STATIC_FORCEINLINE uint32_t __TZ_get_PSPLIM_NS(void)
 682:C:/Users/Rui Mendes/Desktop/DAVE/_Naive/_ForTesting/Libraries/CMSIS/Include\cmsis_gcc.h **** {
 683:C:/Users/Rui Mendes/Desktop/DAVE/_Naive/_ForTesting/Libraries/CMSIS/Include\cmsis_gcc.h **** #if (!(defined (__ARM_ARCH_8M_MAIN__ ) && (__ARM_ARCH_8M_MAIN__ == 1)))
 684:C:/Users/Rui Mendes/Desktop/DAVE/_Naive/_ForTesting/Libraries/CMSIS/Include\cmsis_gcc.h ****   // without main extensions, the non-secure PSPLIM is RAZ/WI
 685:C:/Users/Rui Mendes/Desktop/DAVE/_Naive/_ForTesting/Libraries/CMSIS/Include\cmsis_gcc.h ****   return 0U;
 686:C:/Users/Rui Mendes/Desktop/DAVE/_Naive/_ForTesting/Libraries/CMSIS/Include\cmsis_gcc.h **** #else
 687:C:/Users/Rui Mendes/Desktop/DAVE/_Naive/_ForTesting/Libraries/CMSIS/Include\cmsis_gcc.h ****   uint32_t result;
 688:C:/Users/Rui Mendes/Desktop/DAVE/_Naive/_ForTesting/Libraries/CMSIS/Include\cmsis_gcc.h ****   __ASM volatile ("MRS %0, psplim_ns"  : "=r" (result) );
 689:C:/Users/Rui Mendes/Desktop/DAVE/_Naive/_ForTesting/Libraries/CMSIS/Include\cmsis_gcc.h ****   return result;
 690:C:/Users/Rui Mendes/Desktop/DAVE/_Naive/_ForTesting/Libraries/CMSIS/Include\cmsis_gcc.h **** #endif
 691:C:/Users/Rui Mendes/Desktop/DAVE/_Naive/_ForTesting/Libraries/CMSIS/Include\cmsis_gcc.h **** }
 692:C:/Users/Rui Mendes/Desktop/DAVE/_Naive/_ForTesting/Libraries/CMSIS/Include\cmsis_gcc.h **** #endif
 693:C:/Users/Rui Mendes/Desktop/DAVE/_Naive/_ForTesting/Libraries/CMSIS/Include\cmsis_gcc.h **** 
 694:C:/Users/Rui Mendes/Desktop/DAVE/_Naive/_ForTesting/Libraries/CMSIS/Include\cmsis_gcc.h **** 
 695:C:/Users/Rui Mendes/Desktop/DAVE/_Naive/_ForTesting/Libraries/CMSIS/Include\cmsis_gcc.h **** /**
 696:C:/Users/Rui Mendes/Desktop/DAVE/_Naive/_ForTesting/Libraries/CMSIS/Include\cmsis_gcc.h ****   \brief   Set Process Stack Pointer Limit
 697:C:/Users/Rui Mendes/Desktop/DAVE/_Naive/_ForTesting/Libraries/CMSIS/Include\cmsis_gcc.h ****   Devices without ARMv8-M Main Extensions (i.e. Cortex-M23) lack the non-secure
 698:C:/Users/Rui Mendes/Desktop/DAVE/_Naive/_ForTesting/Libraries/CMSIS/Include\cmsis_gcc.h ****   Stack Pointer Limit register hence the write is silently ignored in non-secure
 699:C:/Users/Rui Mendes/Desktop/DAVE/_Naive/_ForTesting/Libraries/CMSIS/Include\cmsis_gcc.h ****   mode.
 700:C:/Users/Rui Mendes/Desktop/DAVE/_Naive/_ForTesting/Libraries/CMSIS/Include\cmsis_gcc.h ****   
 701:C:/Users/Rui Mendes/Desktop/DAVE/_Naive/_ForTesting/Libraries/CMSIS/Include\cmsis_gcc.h ****   \details Assigns the given value to the Process Stack Pointer Limit (PSPLIM).
 702:C:/Users/Rui Mendes/Desktop/DAVE/_Naive/_ForTesting/Libraries/CMSIS/Include\cmsis_gcc.h ****   \param [in]    ProcStackPtrLimit  Process Stack Pointer Limit value to set
 703:C:/Users/Rui Mendes/Desktop/DAVE/_Naive/_ForTesting/Libraries/CMSIS/Include\cmsis_gcc.h ****  */
 704:C:/Users/Rui Mendes/Desktop/DAVE/_Naive/_ForTesting/Libraries/CMSIS/Include\cmsis_gcc.h **** __STATIC_FORCEINLINE void __set_PSPLIM(uint32_t ProcStackPtrLimit)
 705:C:/Users/Rui Mendes/Desktop/DAVE/_Naive/_ForTesting/Libraries/CMSIS/Include\cmsis_gcc.h **** {
 706:C:/Users/Rui Mendes/Desktop/DAVE/_Naive/_ForTesting/Libraries/CMSIS/Include\cmsis_gcc.h **** #if (!(defined (__ARM_ARCH_8M_MAIN__ ) && (__ARM_ARCH_8M_MAIN__ == 1)) && \
 707:C:/Users/Rui Mendes/Desktop/DAVE/_Naive/_ForTesting/Libraries/CMSIS/Include\cmsis_gcc.h ****     (!defined (__ARM_FEATURE_CMSE) || (__ARM_FEATURE_CMSE < 3)))
 708:C:/Users/Rui Mendes/Desktop/DAVE/_Naive/_ForTesting/Libraries/CMSIS/Include\cmsis_gcc.h ****   // without main extensions, the non-secure PSPLIM is RAZ/WI
 709:C:/Users/Rui Mendes/Desktop/DAVE/_Naive/_ForTesting/Libraries/CMSIS/Include\cmsis_gcc.h ****   (void)ProcStackPtrLimit;
 710:C:/Users/Rui Mendes/Desktop/DAVE/_Naive/_ForTesting/Libraries/CMSIS/Include\cmsis_gcc.h **** #else
 711:C:/Users/Rui Mendes/Desktop/DAVE/_Naive/_ForTesting/Libraries/CMSIS/Include\cmsis_gcc.h ****   __ASM volatile ("MSR psplim, %0" : : "r" (ProcStackPtrLimit));
 712:C:/Users/Rui Mendes/Desktop/DAVE/_Naive/_ForTesting/Libraries/CMSIS/Include\cmsis_gcc.h **** #endif
 713:C:/Users/Rui Mendes/Desktop/DAVE/_Naive/_ForTesting/Libraries/CMSIS/Include\cmsis_gcc.h **** }
 714:C:/Users/Rui Mendes/Desktop/DAVE/_Naive/_ForTesting/Libraries/CMSIS/Include\cmsis_gcc.h **** 
 715:C:/Users/Rui Mendes/Desktop/DAVE/_Naive/_ForTesting/Libraries/CMSIS/Include\cmsis_gcc.h **** 
 716:C:/Users/Rui Mendes/Desktop/DAVE/_Naive/_ForTesting/Libraries/CMSIS/Include\cmsis_gcc.h **** #if (defined (__ARM_FEATURE_CMSE  ) && (__ARM_FEATURE_CMSE   == 3))
 717:C:/Users/Rui Mendes/Desktop/DAVE/_Naive/_ForTesting/Libraries/CMSIS/Include\cmsis_gcc.h **** /**
 718:C:/Users/Rui Mendes/Desktop/DAVE/_Naive/_ForTesting/Libraries/CMSIS/Include\cmsis_gcc.h ****   \brief   Set Process Stack Pointer (non-secure)
 719:C:/Users/Rui Mendes/Desktop/DAVE/_Naive/_ForTesting/Libraries/CMSIS/Include\cmsis_gcc.h ****   Devices without ARMv8-M Main Extensions (i.e. Cortex-M23) lack the non-secure
 720:C:/Users/Rui Mendes/Desktop/DAVE/_Naive/_ForTesting/Libraries/CMSIS/Include\cmsis_gcc.h ****   Stack Pointer Limit register hence the write is silently ignored.
 721:C:/Users/Rui Mendes/Desktop/DAVE/_Naive/_ForTesting/Libraries/CMSIS/Include\cmsis_gcc.h **** 
 722:C:/Users/Rui Mendes/Desktop/DAVE/_Naive/_ForTesting/Libraries/CMSIS/Include\cmsis_gcc.h ****   \details Assigns the given value to the non-secure Process Stack Pointer Limit (PSPLIM) when in s
 723:C:/Users/Rui Mendes/Desktop/DAVE/_Naive/_ForTesting/Libraries/CMSIS/Include\cmsis_gcc.h ****   \param [in]    ProcStackPtrLimit  Process Stack Pointer Limit value to set
 724:C:/Users/Rui Mendes/Desktop/DAVE/_Naive/_ForTesting/Libraries/CMSIS/Include\cmsis_gcc.h ****  */
 725:C:/Users/Rui Mendes/Desktop/DAVE/_Naive/_ForTesting/Libraries/CMSIS/Include\cmsis_gcc.h **** __STATIC_FORCEINLINE void __TZ_set_PSPLIM_NS(uint32_t ProcStackPtrLimit)
 726:C:/Users/Rui Mendes/Desktop/DAVE/_Naive/_ForTesting/Libraries/CMSIS/Include\cmsis_gcc.h **** {
 727:C:/Users/Rui Mendes/Desktop/DAVE/_Naive/_ForTesting/Libraries/CMSIS/Include\cmsis_gcc.h **** #if (!(defined (__ARM_ARCH_8M_MAIN__ ) && (__ARM_ARCH_8M_MAIN__ == 1)))
 728:C:/Users/Rui Mendes/Desktop/DAVE/_Naive/_ForTesting/Libraries/CMSIS/Include\cmsis_gcc.h ****   // without main extensions, the non-secure PSPLIM is RAZ/WI
 729:C:/Users/Rui Mendes/Desktop/DAVE/_Naive/_ForTesting/Libraries/CMSIS/Include\cmsis_gcc.h ****   (void)ProcStackPtrLimit;
 730:C:/Users/Rui Mendes/Desktop/DAVE/_Naive/_ForTesting/Libraries/CMSIS/Include\cmsis_gcc.h **** #else
 731:C:/Users/Rui Mendes/Desktop/DAVE/_Naive/_ForTesting/Libraries/CMSIS/Include\cmsis_gcc.h ****   __ASM volatile ("MSR psplim_ns, %0\n" : : "r" (ProcStackPtrLimit));
 732:C:/Users/Rui Mendes/Desktop/DAVE/_Naive/_ForTesting/Libraries/CMSIS/Include\cmsis_gcc.h **** #endif
 733:C:/Users/Rui Mendes/Desktop/DAVE/_Naive/_ForTesting/Libraries/CMSIS/Include\cmsis_gcc.h **** }
 734:C:/Users/Rui Mendes/Desktop/DAVE/_Naive/_ForTesting/Libraries/CMSIS/Include\cmsis_gcc.h **** #endif
 735:C:/Users/Rui Mendes/Desktop/DAVE/_Naive/_ForTesting/Libraries/CMSIS/Include\cmsis_gcc.h **** 
 736:C:/Users/Rui Mendes/Desktop/DAVE/_Naive/_ForTesting/Libraries/CMSIS/Include\cmsis_gcc.h **** 
 737:C:/Users/Rui Mendes/Desktop/DAVE/_Naive/_ForTesting/Libraries/CMSIS/Include\cmsis_gcc.h **** /**
 738:C:/Users/Rui Mendes/Desktop/DAVE/_Naive/_ForTesting/Libraries/CMSIS/Include\cmsis_gcc.h ****   \brief   Get Main Stack Pointer Limit
 739:C:/Users/Rui Mendes/Desktop/DAVE/_Naive/_ForTesting/Libraries/CMSIS/Include\cmsis_gcc.h ****   Devices without ARMv8-M Main Extensions (i.e. Cortex-M23) lack the non-secure
 740:C:/Users/Rui Mendes/Desktop/DAVE/_Naive/_ForTesting/Libraries/CMSIS/Include\cmsis_gcc.h ****   Stack Pointer Limit register hence zero is returned always in non-secure
 741:C:/Users/Rui Mendes/Desktop/DAVE/_Naive/_ForTesting/Libraries/CMSIS/Include\cmsis_gcc.h ****   mode.
 742:C:/Users/Rui Mendes/Desktop/DAVE/_Naive/_ForTesting/Libraries/CMSIS/Include\cmsis_gcc.h **** 
 743:C:/Users/Rui Mendes/Desktop/DAVE/_Naive/_ForTesting/Libraries/CMSIS/Include\cmsis_gcc.h ****   \details Returns the current value of the Main Stack Pointer Limit (MSPLIM).
 744:C:/Users/Rui Mendes/Desktop/DAVE/_Naive/_ForTesting/Libraries/CMSIS/Include\cmsis_gcc.h ****   \return               MSPLIM Register value
 745:C:/Users/Rui Mendes/Desktop/DAVE/_Naive/_ForTesting/Libraries/CMSIS/Include\cmsis_gcc.h ****  */
 746:C:/Users/Rui Mendes/Desktop/DAVE/_Naive/_ForTesting/Libraries/CMSIS/Include\cmsis_gcc.h **** __STATIC_FORCEINLINE uint32_t __get_MSPLIM(void)
 747:C:/Users/Rui Mendes/Desktop/DAVE/_Naive/_ForTesting/Libraries/CMSIS/Include\cmsis_gcc.h **** {
 748:C:/Users/Rui Mendes/Desktop/DAVE/_Naive/_ForTesting/Libraries/CMSIS/Include\cmsis_gcc.h **** #if (!(defined (__ARM_ARCH_8M_MAIN__ ) && (__ARM_ARCH_8M_MAIN__ == 1)) && \
 749:C:/Users/Rui Mendes/Desktop/DAVE/_Naive/_ForTesting/Libraries/CMSIS/Include\cmsis_gcc.h ****     (!defined (__ARM_FEATURE_CMSE) || (__ARM_FEATURE_CMSE < 3)))
 750:C:/Users/Rui Mendes/Desktop/DAVE/_Naive/_ForTesting/Libraries/CMSIS/Include\cmsis_gcc.h ****   // without main extensions, the non-secure MSPLIM is RAZ/WI
 751:C:/Users/Rui Mendes/Desktop/DAVE/_Naive/_ForTesting/Libraries/CMSIS/Include\cmsis_gcc.h ****   return 0U;
 752:C:/Users/Rui Mendes/Desktop/DAVE/_Naive/_ForTesting/Libraries/CMSIS/Include\cmsis_gcc.h **** #else
 753:C:/Users/Rui Mendes/Desktop/DAVE/_Naive/_ForTesting/Libraries/CMSIS/Include\cmsis_gcc.h ****   uint32_t result;
 754:C:/Users/Rui Mendes/Desktop/DAVE/_Naive/_ForTesting/Libraries/CMSIS/Include\cmsis_gcc.h ****   __ASM volatile ("MRS %0, msplim" : "=r" (result) );
 755:C:/Users/Rui Mendes/Desktop/DAVE/_Naive/_ForTesting/Libraries/CMSIS/Include\cmsis_gcc.h ****   return result;
 756:C:/Users/Rui Mendes/Desktop/DAVE/_Naive/_ForTesting/Libraries/CMSIS/Include\cmsis_gcc.h **** #endif
 757:C:/Users/Rui Mendes/Desktop/DAVE/_Naive/_ForTesting/Libraries/CMSIS/Include\cmsis_gcc.h **** }
 758:C:/Users/Rui Mendes/Desktop/DAVE/_Naive/_ForTesting/Libraries/CMSIS/Include\cmsis_gcc.h **** 
 759:C:/Users/Rui Mendes/Desktop/DAVE/_Naive/_ForTesting/Libraries/CMSIS/Include\cmsis_gcc.h **** 
 760:C:/Users/Rui Mendes/Desktop/DAVE/_Naive/_ForTesting/Libraries/CMSIS/Include\cmsis_gcc.h **** #if (defined (__ARM_FEATURE_CMSE  ) && (__ARM_FEATURE_CMSE   == 3))
 761:C:/Users/Rui Mendes/Desktop/DAVE/_Naive/_ForTesting/Libraries/CMSIS/Include\cmsis_gcc.h **** /**
 762:C:/Users/Rui Mendes/Desktop/DAVE/_Naive/_ForTesting/Libraries/CMSIS/Include\cmsis_gcc.h ****   \brief   Get Main Stack Pointer Limit (non-secure)
