   1              	 .syntax unified
   2              	 .cpu cortex-m4
   3              	 .eabi_attribute 27,3
   4              	 .fpu fpv4-sp-d16
   5              	 .eabi_attribute 20,1
   6              	 .eabi_attribute 21,1
   7              	 .eabi_attribute 23,3
   8              	 .eabi_attribute 24,1
   9              	 .eabi_attribute 25,1
  10              	 .eabi_attribute 26,1
  11              	 .eabi_attribute 30,6
  12              	 .eabi_attribute 34,1
  13              	 .eabi_attribute 18,4
  14              	 .thumb
  15              	 .file "arm_cfft_q31.c"
  16              	 .text
  17              	.Ltext0:
  18              	 .cfi_sections .debug_frame
  19              	 .section .text.arm_cfft_q31,"ax",%progbits
  20              	 .align 2
  21              	 .global arm_cfft_q31
  22              	 .thumb
  23              	 .thumb_func
  25              	arm_cfft_q31:
  26              	.LFB149:
  27              	 .file 1 "../Dave/Generated/CMSIS_DSP/Source/TransformFunctions/arm_cfft_q31.c"
   1:../Dave/Generated/CMSIS_DSP/Source/TransformFunctions/arm_cfft_q31.c **** /* ----------------------------------------------------------------------
   2:../Dave/Generated/CMSIS_DSP/Source/TransformFunctions/arm_cfft_q31.c ****  * Project:      CMSIS DSP Library
   3:../Dave/Generated/CMSIS_DSP/Source/TransformFunctions/arm_cfft_q31.c ****  * Title:        arm_cfft_q31.c
   4:../Dave/Generated/CMSIS_DSP/Source/TransformFunctions/arm_cfft_q31.c ****  * Description:  Combined Radix Decimation in Frequency CFFT fixed point processing function
   5:../Dave/Generated/CMSIS_DSP/Source/TransformFunctions/arm_cfft_q31.c ****  *
   6:../Dave/Generated/CMSIS_DSP/Source/TransformFunctions/arm_cfft_q31.c ****  * $Date:        18. March 2019
   7:../Dave/Generated/CMSIS_DSP/Source/TransformFunctions/arm_cfft_q31.c ****  * $Revision:    V1.6.0
   8:../Dave/Generated/CMSIS_DSP/Source/TransformFunctions/arm_cfft_q31.c ****  *
   9:../Dave/Generated/CMSIS_DSP/Source/TransformFunctions/arm_cfft_q31.c ****  * Target Processor: Cortex-M cores
  10:../Dave/Generated/CMSIS_DSP/Source/TransformFunctions/arm_cfft_q31.c ****  * -------------------------------------------------------------------- */
  11:../Dave/Generated/CMSIS_DSP/Source/TransformFunctions/arm_cfft_q31.c **** /*
  12:../Dave/Generated/CMSIS_DSP/Source/TransformFunctions/arm_cfft_q31.c ****  * Copyright (C) 2010-2019 ARM Limited or its affiliates. All rights reserved.
  13:../Dave/Generated/CMSIS_DSP/Source/TransformFunctions/arm_cfft_q31.c ****  *
  14:../Dave/Generated/CMSIS_DSP/Source/TransformFunctions/arm_cfft_q31.c ****  * SPDX-License-Identifier: Apache-2.0
  15:../Dave/Generated/CMSIS_DSP/Source/TransformFunctions/arm_cfft_q31.c ****  *
  16:../Dave/Generated/CMSIS_DSP/Source/TransformFunctions/arm_cfft_q31.c ****  * Licensed under the Apache License, Version 2.0 (the License); you may
  17:../Dave/Generated/CMSIS_DSP/Source/TransformFunctions/arm_cfft_q31.c ****  * not use this file except in compliance with the License.
  18:../Dave/Generated/CMSIS_DSP/Source/TransformFunctions/arm_cfft_q31.c ****  * You may obtain a copy of the License at
  19:../Dave/Generated/CMSIS_DSP/Source/TransformFunctions/arm_cfft_q31.c ****  *
  20:../Dave/Generated/CMSIS_DSP/Source/TransformFunctions/arm_cfft_q31.c ****  * www.apache.org/licenses/LICENSE-2.0
  21:../Dave/Generated/CMSIS_DSP/Source/TransformFunctions/arm_cfft_q31.c ****  *
  22:../Dave/Generated/CMSIS_DSP/Source/TransformFunctions/arm_cfft_q31.c ****  * Unless required by applicable law or agreed to in writing, software
  23:../Dave/Generated/CMSIS_DSP/Source/TransformFunctions/arm_cfft_q31.c ****  * distributed under the License is distributed on an AS IS BASIS, WITHOUT
  24:../Dave/Generated/CMSIS_DSP/Source/TransformFunctions/arm_cfft_q31.c ****  * WARRANTIES OR CONDITIONS OF ANY KIND, either express or implied.
  25:../Dave/Generated/CMSIS_DSP/Source/TransformFunctions/arm_cfft_q31.c ****  * See the License for the specific language governing permissions and
  26:../Dave/Generated/CMSIS_DSP/Source/TransformFunctions/arm_cfft_q31.c ****  * limitations under the License.
  27:../Dave/Generated/CMSIS_DSP/Source/TransformFunctions/arm_cfft_q31.c ****  */
  28:../Dave/Generated/CMSIS_DSP/Source/TransformFunctions/arm_cfft_q31.c **** 
  29:../Dave/Generated/CMSIS_DSP/Source/TransformFunctions/arm_cfft_q31.c **** #include "CMSIS_DSP/cmsis_dsp.h"
  30:../Dave/Generated/CMSIS_DSP/Source/TransformFunctions/arm_cfft_q31.c **** 
  31:../Dave/Generated/CMSIS_DSP/Source/TransformFunctions/arm_cfft_q31.c **** 
  32:../Dave/Generated/CMSIS_DSP/Source/TransformFunctions/arm_cfft_q31.c **** 
  33:../Dave/Generated/CMSIS_DSP/Source/TransformFunctions/arm_cfft_q31.c **** #if defined(ARM_MATH_MVEI)
  34:../Dave/Generated/CMSIS_DSP/Source/TransformFunctions/arm_cfft_q31.c **** 
  35:../Dave/Generated/CMSIS_DSP/Source/TransformFunctions/arm_cfft_q31.c **** #include "CMSIS_DSP/PrivateInclude/arm_vec_fft.h"
  36:../Dave/Generated/CMSIS_DSP/Source/TransformFunctions/arm_cfft_q31.c **** 
  37:../Dave/Generated/CMSIS_DSP/Source/TransformFunctions/arm_cfft_q31.c **** static void arm_bitreversal_32_inpl_mve(
  38:../Dave/Generated/CMSIS_DSP/Source/TransformFunctions/arm_cfft_q31.c ****         uint32_t *pSrc,
  39:../Dave/Generated/CMSIS_DSP/Source/TransformFunctions/arm_cfft_q31.c ****   const uint16_t  bitRevLen,
  40:../Dave/Generated/CMSIS_DSP/Source/TransformFunctions/arm_cfft_q31.c ****   const uint16_t *pBitRevTab)
  41:../Dave/Generated/CMSIS_DSP/Source/TransformFunctions/arm_cfft_q31.c **** 
  42:../Dave/Generated/CMSIS_DSP/Source/TransformFunctions/arm_cfft_q31.c **** {
  43:../Dave/Generated/CMSIS_DSP/Source/TransformFunctions/arm_cfft_q31.c ****     uint64_t       *src = (uint64_t *) pSrc;
  44:../Dave/Generated/CMSIS_DSP/Source/TransformFunctions/arm_cfft_q31.c ****     uint32_t        blkCnt;     /* loop counters */
  45:../Dave/Generated/CMSIS_DSP/Source/TransformFunctions/arm_cfft_q31.c ****     uint32x4_t      bitRevTabOff;
  46:../Dave/Generated/CMSIS_DSP/Source/TransformFunctions/arm_cfft_q31.c ****     uint32x4_t      one = vdupq_n_u32(1);
  47:../Dave/Generated/CMSIS_DSP/Source/TransformFunctions/arm_cfft_q31.c **** 
  48:../Dave/Generated/CMSIS_DSP/Source/TransformFunctions/arm_cfft_q31.c ****     blkCnt = (bitRevLen / 2) / 2;
  49:../Dave/Generated/CMSIS_DSP/Source/TransformFunctions/arm_cfft_q31.c ****     while (blkCnt > 0U) {
  50:../Dave/Generated/CMSIS_DSP/Source/TransformFunctions/arm_cfft_q31.c ****         bitRevTabOff = vldrhq_u32(pBitRevTab);
  51:../Dave/Generated/CMSIS_DSP/Source/TransformFunctions/arm_cfft_q31.c ****         pBitRevTab += 4;
  52:../Dave/Generated/CMSIS_DSP/Source/TransformFunctions/arm_cfft_q31.c **** 
  53:../Dave/Generated/CMSIS_DSP/Source/TransformFunctions/arm_cfft_q31.c ****         uint64x2_t      bitRevOff1 = vmullbq_int_u32(bitRevTabOff, one);
  54:../Dave/Generated/CMSIS_DSP/Source/TransformFunctions/arm_cfft_q31.c ****         uint64x2_t      bitRevOff2 = vmulltq_int_u32(bitRevTabOff, one);
  55:../Dave/Generated/CMSIS_DSP/Source/TransformFunctions/arm_cfft_q31.c **** 
  56:../Dave/Generated/CMSIS_DSP/Source/TransformFunctions/arm_cfft_q31.c ****         uint64x2_t      in1 = vldrdq_gather_offset_u64(src, bitRevOff1);
  57:../Dave/Generated/CMSIS_DSP/Source/TransformFunctions/arm_cfft_q31.c ****         uint64x2_t      in2 = vldrdq_gather_offset_u64(src, bitRevOff2);
  58:../Dave/Generated/CMSIS_DSP/Source/TransformFunctions/arm_cfft_q31.c **** 
  59:../Dave/Generated/CMSIS_DSP/Source/TransformFunctions/arm_cfft_q31.c ****         vstrdq_scatter_offset_u64(src, bitRevOff1, in2);
  60:../Dave/Generated/CMSIS_DSP/Source/TransformFunctions/arm_cfft_q31.c ****         vstrdq_scatter_offset_u64(src, bitRevOff2, in1);
  61:../Dave/Generated/CMSIS_DSP/Source/TransformFunctions/arm_cfft_q31.c **** 
  62:../Dave/Generated/CMSIS_DSP/Source/TransformFunctions/arm_cfft_q31.c ****         /*
  63:../Dave/Generated/CMSIS_DSP/Source/TransformFunctions/arm_cfft_q31.c ****          * Decrement the blockSize loop counter
  64:../Dave/Generated/CMSIS_DSP/Source/TransformFunctions/arm_cfft_q31.c ****          */
  65:../Dave/Generated/CMSIS_DSP/Source/TransformFunctions/arm_cfft_q31.c ****         blkCnt--;
  66:../Dave/Generated/CMSIS_DSP/Source/TransformFunctions/arm_cfft_q31.c ****     }
  67:../Dave/Generated/CMSIS_DSP/Source/TransformFunctions/arm_cfft_q31.c **** }
  68:../Dave/Generated/CMSIS_DSP/Source/TransformFunctions/arm_cfft_q31.c **** 
  69:../Dave/Generated/CMSIS_DSP/Source/TransformFunctions/arm_cfft_q31.c **** static void _arm_radix4_butterfly_q31_mve(
  70:../Dave/Generated/CMSIS_DSP/Source/TransformFunctions/arm_cfft_q31.c ****     const arm_cfft_instance_q31 * S,
  71:../Dave/Generated/CMSIS_DSP/Source/TransformFunctions/arm_cfft_q31.c ****     q31_t   *pSrc,
  72:../Dave/Generated/CMSIS_DSP/Source/TransformFunctions/arm_cfft_q31.c ****     uint32_t fftLen)
  73:../Dave/Generated/CMSIS_DSP/Source/TransformFunctions/arm_cfft_q31.c **** {
  74:../Dave/Generated/CMSIS_DSP/Source/TransformFunctions/arm_cfft_q31.c ****     q31x4_t vecTmp0, vecTmp1;
  75:../Dave/Generated/CMSIS_DSP/Source/TransformFunctions/arm_cfft_q31.c ****     q31x4_t vecSum0, vecDiff0, vecSum1, vecDiff1;
  76:../Dave/Generated/CMSIS_DSP/Source/TransformFunctions/arm_cfft_q31.c ****     q31x4_t vecA, vecB, vecC, vecD;
  77:../Dave/Generated/CMSIS_DSP/Source/TransformFunctions/arm_cfft_q31.c ****     q31x4_t vecW;
  78:../Dave/Generated/CMSIS_DSP/Source/TransformFunctions/arm_cfft_q31.c ****     uint32_t  blkCnt;
  79:../Dave/Generated/CMSIS_DSP/Source/TransformFunctions/arm_cfft_q31.c ****     uint32_t  n1, n2;
  80:../Dave/Generated/CMSIS_DSP/Source/TransformFunctions/arm_cfft_q31.c ****     uint32_t  stage = 0;
  81:../Dave/Generated/CMSIS_DSP/Source/TransformFunctions/arm_cfft_q31.c ****     int32_t  iter = 1;
  82:../Dave/Generated/CMSIS_DSP/Source/TransformFunctions/arm_cfft_q31.c ****     static const uint32_t strides[4] = {
  83:../Dave/Generated/CMSIS_DSP/Source/TransformFunctions/arm_cfft_q31.c ****         (0 - 16) * sizeof(q31_t *), (1 - 16) * sizeof(q31_t *),
  84:../Dave/Generated/CMSIS_DSP/Source/TransformFunctions/arm_cfft_q31.c ****         (8 - 16) * sizeof(q31_t *), (9 - 16) * sizeof(q31_t *)
  85:../Dave/Generated/CMSIS_DSP/Source/TransformFunctions/arm_cfft_q31.c ****     };
  86:../Dave/Generated/CMSIS_DSP/Source/TransformFunctions/arm_cfft_q31.c **** 
  87:../Dave/Generated/CMSIS_DSP/Source/TransformFunctions/arm_cfft_q31.c **** 
  88:../Dave/Generated/CMSIS_DSP/Source/TransformFunctions/arm_cfft_q31.c ****     /*
  89:../Dave/Generated/CMSIS_DSP/Source/TransformFunctions/arm_cfft_q31.c ****      * Process first stages
  90:../Dave/Generated/CMSIS_DSP/Source/TransformFunctions/arm_cfft_q31.c ****      * Each stage in middle stages provides two down scaling of the input
  91:../Dave/Generated/CMSIS_DSP/Source/TransformFunctions/arm_cfft_q31.c ****      */
  92:../Dave/Generated/CMSIS_DSP/Source/TransformFunctions/arm_cfft_q31.c ****     n2 = fftLen;
  93:../Dave/Generated/CMSIS_DSP/Source/TransformFunctions/arm_cfft_q31.c ****     n1 = n2;
  94:../Dave/Generated/CMSIS_DSP/Source/TransformFunctions/arm_cfft_q31.c ****     n2 >>= 2u;
  95:../Dave/Generated/CMSIS_DSP/Source/TransformFunctions/arm_cfft_q31.c **** 
  96:../Dave/Generated/CMSIS_DSP/Source/TransformFunctions/arm_cfft_q31.c ****     for (int k = fftLen / 4u; k > 1; k >>= 2u)
  97:../Dave/Generated/CMSIS_DSP/Source/TransformFunctions/arm_cfft_q31.c ****     {
  98:../Dave/Generated/CMSIS_DSP/Source/TransformFunctions/arm_cfft_q31.c ****         for (int i = 0; i < iter; i++)
  99:../Dave/Generated/CMSIS_DSP/Source/TransformFunctions/arm_cfft_q31.c ****         {
 100:../Dave/Generated/CMSIS_DSP/Source/TransformFunctions/arm_cfft_q31.c ****             q31_t const *p_rearranged_twiddle_tab_stride2 =
 101:../Dave/Generated/CMSIS_DSP/Source/TransformFunctions/arm_cfft_q31.c ****                 &S->rearranged_twiddle_stride2[
 102:../Dave/Generated/CMSIS_DSP/Source/TransformFunctions/arm_cfft_q31.c ****                 S->rearranged_twiddle_tab_stride2_arr[stage]];
 103:../Dave/Generated/CMSIS_DSP/Source/TransformFunctions/arm_cfft_q31.c ****             q31_t const *p_rearranged_twiddle_tab_stride3 = &S->rearranged_twiddle_stride3[
 104:../Dave/Generated/CMSIS_DSP/Source/TransformFunctions/arm_cfft_q31.c ****                 S->rearranged_twiddle_tab_stride3_arr[stage]];
 105:../Dave/Generated/CMSIS_DSP/Source/TransformFunctions/arm_cfft_q31.c ****             q31_t const *p_rearranged_twiddle_tab_stride1 =
 106:../Dave/Generated/CMSIS_DSP/Source/TransformFunctions/arm_cfft_q31.c ****                 &S->rearranged_twiddle_stride1[
 107:../Dave/Generated/CMSIS_DSP/Source/TransformFunctions/arm_cfft_q31.c ****                 S->rearranged_twiddle_tab_stride1_arr[stage]];
 108:../Dave/Generated/CMSIS_DSP/Source/TransformFunctions/arm_cfft_q31.c ****             q31_t const *pW1, *pW2, *pW3;
 109:../Dave/Generated/CMSIS_DSP/Source/TransformFunctions/arm_cfft_q31.c ****             q31_t    *inA = pSrc + CMPLX_DIM * i * n1;
 110:../Dave/Generated/CMSIS_DSP/Source/TransformFunctions/arm_cfft_q31.c ****             q31_t    *inB = inA + n2 * CMPLX_DIM;
 111:../Dave/Generated/CMSIS_DSP/Source/TransformFunctions/arm_cfft_q31.c ****             q31_t    *inC = inB + n2 * CMPLX_DIM;
 112:../Dave/Generated/CMSIS_DSP/Source/TransformFunctions/arm_cfft_q31.c ****             q31_t    *inD = inC + n2 * CMPLX_DIM;
 113:../Dave/Generated/CMSIS_DSP/Source/TransformFunctions/arm_cfft_q31.c **** 
 114:../Dave/Generated/CMSIS_DSP/Source/TransformFunctions/arm_cfft_q31.c ****             pW1 = p_rearranged_twiddle_tab_stride1;
 115:../Dave/Generated/CMSIS_DSP/Source/TransformFunctions/arm_cfft_q31.c ****             pW2 = p_rearranged_twiddle_tab_stride2;
 116:../Dave/Generated/CMSIS_DSP/Source/TransformFunctions/arm_cfft_q31.c ****             pW3 = p_rearranged_twiddle_tab_stride3;
 117:../Dave/Generated/CMSIS_DSP/Source/TransformFunctions/arm_cfft_q31.c **** 
 118:../Dave/Generated/CMSIS_DSP/Source/TransformFunctions/arm_cfft_q31.c ****             blkCnt = n2 / 2;
 119:../Dave/Generated/CMSIS_DSP/Source/TransformFunctions/arm_cfft_q31.c ****             /*
 120:../Dave/Generated/CMSIS_DSP/Source/TransformFunctions/arm_cfft_q31.c ****              * load 2 x q31 complex pair
 121:../Dave/Generated/CMSIS_DSP/Source/TransformFunctions/arm_cfft_q31.c ****              */
 122:../Dave/Generated/CMSIS_DSP/Source/TransformFunctions/arm_cfft_q31.c ****             vecA = vldrwq_s32(inA);
 123:../Dave/Generated/CMSIS_DSP/Source/TransformFunctions/arm_cfft_q31.c ****             vecC = vldrwq_s32(inC);
 124:../Dave/Generated/CMSIS_DSP/Source/TransformFunctions/arm_cfft_q31.c ****             while (blkCnt > 0U)
 125:../Dave/Generated/CMSIS_DSP/Source/TransformFunctions/arm_cfft_q31.c ****             {
 126:../Dave/Generated/CMSIS_DSP/Source/TransformFunctions/arm_cfft_q31.c ****                 vecB = vldrwq_s32(inB);
 127:../Dave/Generated/CMSIS_DSP/Source/TransformFunctions/arm_cfft_q31.c ****                 vecD = vldrwq_s32(inD);
 128:../Dave/Generated/CMSIS_DSP/Source/TransformFunctions/arm_cfft_q31.c **** 
 129:../Dave/Generated/CMSIS_DSP/Source/TransformFunctions/arm_cfft_q31.c ****                 vecSum0 = vhaddq(vecA, vecC);
 130:../Dave/Generated/CMSIS_DSP/Source/TransformFunctions/arm_cfft_q31.c ****                 vecDiff0 = vhsubq(vecA, vecC);
 131:../Dave/Generated/CMSIS_DSP/Source/TransformFunctions/arm_cfft_q31.c **** 
 132:../Dave/Generated/CMSIS_DSP/Source/TransformFunctions/arm_cfft_q31.c ****                 vecSum1 = vhaddq(vecB, vecD);
 133:../Dave/Generated/CMSIS_DSP/Source/TransformFunctions/arm_cfft_q31.c ****                 vecDiff1 = vhsubq(vecB, vecD);
 134:../Dave/Generated/CMSIS_DSP/Source/TransformFunctions/arm_cfft_q31.c ****                 /*
 135:../Dave/Generated/CMSIS_DSP/Source/TransformFunctions/arm_cfft_q31.c ****                  * [ 1 1 1 1 ] * [ A B C D ]' .* 1
 136:../Dave/Generated/CMSIS_DSP/Source/TransformFunctions/arm_cfft_q31.c ****                  */
 137:../Dave/Generated/CMSIS_DSP/Source/TransformFunctions/arm_cfft_q31.c ****                 vecTmp0 = vhaddq(vecSum0, vecSum1);
 138:../Dave/Generated/CMSIS_DSP/Source/TransformFunctions/arm_cfft_q31.c ****                 vst1q(inA, vecTmp0);
 139:../Dave/Generated/CMSIS_DSP/Source/TransformFunctions/arm_cfft_q31.c ****                 inA += 4;
 140:../Dave/Generated/CMSIS_DSP/Source/TransformFunctions/arm_cfft_q31.c ****                 /*
 141:../Dave/Generated/CMSIS_DSP/Source/TransformFunctions/arm_cfft_q31.c ****                  * [ 1 -1 1 -1 ] * [ A B C D ]'
 142:../Dave/Generated/CMSIS_DSP/Source/TransformFunctions/arm_cfft_q31.c ****                  */
 143:../Dave/Generated/CMSIS_DSP/Source/TransformFunctions/arm_cfft_q31.c ****                 vecTmp0 = vhsubq(vecSum0, vecSum1);
 144:../Dave/Generated/CMSIS_DSP/Source/TransformFunctions/arm_cfft_q31.c ****                 /*
 145:../Dave/Generated/CMSIS_DSP/Source/TransformFunctions/arm_cfft_q31.c ****                  * [ 1 -1 1 -1 ] * [ A B C D ]'.* W2
 146:../Dave/Generated/CMSIS_DSP/Source/TransformFunctions/arm_cfft_q31.c ****                  */
 147:../Dave/Generated/CMSIS_DSP/Source/TransformFunctions/arm_cfft_q31.c ****                 vecW = vld1q(pW2);
 148:../Dave/Generated/CMSIS_DSP/Source/TransformFunctions/arm_cfft_q31.c ****                 pW2 += 4;
 149:../Dave/Generated/CMSIS_DSP/Source/TransformFunctions/arm_cfft_q31.c ****                 vecTmp1 = MVE_CMPLX_MULT_FX_AxB(vecW, vecTmp0);
 150:../Dave/Generated/CMSIS_DSP/Source/TransformFunctions/arm_cfft_q31.c **** 
 151:../Dave/Generated/CMSIS_DSP/Source/TransformFunctions/arm_cfft_q31.c ****                 vst1q(inB, vecTmp1);
 152:../Dave/Generated/CMSIS_DSP/Source/TransformFunctions/arm_cfft_q31.c ****                 inB += 4;
 153:../Dave/Generated/CMSIS_DSP/Source/TransformFunctions/arm_cfft_q31.c ****                 /*
 154:../Dave/Generated/CMSIS_DSP/Source/TransformFunctions/arm_cfft_q31.c ****                  * [ 1 -i -1 +i ] * [ A B C D ]'
 155:../Dave/Generated/CMSIS_DSP/Source/TransformFunctions/arm_cfft_q31.c ****                  */
 156:../Dave/Generated/CMSIS_DSP/Source/TransformFunctions/arm_cfft_q31.c ****                 vecTmp0 = MVE_CMPLX_SUB_FX_A_ixB(vecDiff0, vecDiff1);
 157:../Dave/Generated/CMSIS_DSP/Source/TransformFunctions/arm_cfft_q31.c ****                 /*
 158:../Dave/Generated/CMSIS_DSP/Source/TransformFunctions/arm_cfft_q31.c ****                  * [ 1 -i -1 +i ] * [ A B C D ]'.* W1
 159:../Dave/Generated/CMSIS_DSP/Source/TransformFunctions/arm_cfft_q31.c ****                  */
 160:../Dave/Generated/CMSIS_DSP/Source/TransformFunctions/arm_cfft_q31.c ****                 vecW = vld1q(pW1);
 161:../Dave/Generated/CMSIS_DSP/Source/TransformFunctions/arm_cfft_q31.c ****                 pW1 += 4;
 162:../Dave/Generated/CMSIS_DSP/Source/TransformFunctions/arm_cfft_q31.c ****                 vecTmp1 = MVE_CMPLX_MULT_FX_AxB(vecW, vecTmp0);
 163:../Dave/Generated/CMSIS_DSP/Source/TransformFunctions/arm_cfft_q31.c ****                 vst1q(inC, vecTmp1);
 164:../Dave/Generated/CMSIS_DSP/Source/TransformFunctions/arm_cfft_q31.c ****                 inC += 4;
 165:../Dave/Generated/CMSIS_DSP/Source/TransformFunctions/arm_cfft_q31.c ****                 /*
 166:../Dave/Generated/CMSIS_DSP/Source/TransformFunctions/arm_cfft_q31.c ****                  * [ 1 +i -1 -i ] * [ A B C D ]'
 167:../Dave/Generated/CMSIS_DSP/Source/TransformFunctions/arm_cfft_q31.c ****                  */
 168:../Dave/Generated/CMSIS_DSP/Source/TransformFunctions/arm_cfft_q31.c ****                 vecTmp0 = MVE_CMPLX_ADD_FX_A_ixB(vecDiff0, vecDiff1);
 169:../Dave/Generated/CMSIS_DSP/Source/TransformFunctions/arm_cfft_q31.c ****                 /*
 170:../Dave/Generated/CMSIS_DSP/Source/TransformFunctions/arm_cfft_q31.c ****                  * [ 1 +i -1 -i ] * [ A B C D ]'.* W3
 171:../Dave/Generated/CMSIS_DSP/Source/TransformFunctions/arm_cfft_q31.c ****                  */
 172:../Dave/Generated/CMSIS_DSP/Source/TransformFunctions/arm_cfft_q31.c ****                 vecW = vld1q(pW3);
 173:../Dave/Generated/CMSIS_DSP/Source/TransformFunctions/arm_cfft_q31.c ****                 pW3 += 4;
 174:../Dave/Generated/CMSIS_DSP/Source/TransformFunctions/arm_cfft_q31.c ****                 vecTmp1 = MVE_CMPLX_MULT_FX_AxB(vecW, vecTmp0);
 175:../Dave/Generated/CMSIS_DSP/Source/TransformFunctions/arm_cfft_q31.c ****                 vst1q(inD, vecTmp1);
 176:../Dave/Generated/CMSIS_DSP/Source/TransformFunctions/arm_cfft_q31.c ****                 inD += 4;
 177:../Dave/Generated/CMSIS_DSP/Source/TransformFunctions/arm_cfft_q31.c **** 
 178:../Dave/Generated/CMSIS_DSP/Source/TransformFunctions/arm_cfft_q31.c ****                 vecA = vldrwq_s32(inA);
 179:../Dave/Generated/CMSIS_DSP/Source/TransformFunctions/arm_cfft_q31.c ****                 vecC = vldrwq_s32(inC);
 180:../Dave/Generated/CMSIS_DSP/Source/TransformFunctions/arm_cfft_q31.c **** 
 181:../Dave/Generated/CMSIS_DSP/Source/TransformFunctions/arm_cfft_q31.c ****                 blkCnt--;
 182:../Dave/Generated/CMSIS_DSP/Source/TransformFunctions/arm_cfft_q31.c ****             }
 183:../Dave/Generated/CMSIS_DSP/Source/TransformFunctions/arm_cfft_q31.c ****         }
 184:../Dave/Generated/CMSIS_DSP/Source/TransformFunctions/arm_cfft_q31.c ****         n1 = n2;
 185:../Dave/Generated/CMSIS_DSP/Source/TransformFunctions/arm_cfft_q31.c ****         n2 >>= 2u;
 186:../Dave/Generated/CMSIS_DSP/Source/TransformFunctions/arm_cfft_q31.c ****         iter = iter << 2;
 187:../Dave/Generated/CMSIS_DSP/Source/TransformFunctions/arm_cfft_q31.c ****         stage++;
 188:../Dave/Generated/CMSIS_DSP/Source/TransformFunctions/arm_cfft_q31.c ****     }
 189:../Dave/Generated/CMSIS_DSP/Source/TransformFunctions/arm_cfft_q31.c **** 
 190:../Dave/Generated/CMSIS_DSP/Source/TransformFunctions/arm_cfft_q31.c ****     /*
 191:../Dave/Generated/CMSIS_DSP/Source/TransformFunctions/arm_cfft_q31.c ****      * End of 1st stages process
 192:../Dave/Generated/CMSIS_DSP/Source/TransformFunctions/arm_cfft_q31.c ****      * data is in 11.21(q21) format for the 1024 point as there are 3 middle stages
 193:../Dave/Generated/CMSIS_DSP/Source/TransformFunctions/arm_cfft_q31.c ****      * data is in 9.23(q23) format for the 256 point as there are 2 middle stages
 194:../Dave/Generated/CMSIS_DSP/Source/TransformFunctions/arm_cfft_q31.c ****      * data is in 7.25(q25) format for the 64 point as there are 1 middle stage
 195:../Dave/Generated/CMSIS_DSP/Source/TransformFunctions/arm_cfft_q31.c ****      * data is in 5.27(q27) format for the 16 point as there are no middle stages
 196:../Dave/Generated/CMSIS_DSP/Source/TransformFunctions/arm_cfft_q31.c ****      */
 197:../Dave/Generated/CMSIS_DSP/Source/TransformFunctions/arm_cfft_q31.c **** 
 198:../Dave/Generated/CMSIS_DSP/Source/TransformFunctions/arm_cfft_q31.c ****     /*
 199:../Dave/Generated/CMSIS_DSP/Source/TransformFunctions/arm_cfft_q31.c ****      * start of Last stage process
 200:../Dave/Generated/CMSIS_DSP/Source/TransformFunctions/arm_cfft_q31.c ****      */
 201:../Dave/Generated/CMSIS_DSP/Source/TransformFunctions/arm_cfft_q31.c ****     uint32x4_t vecScGathAddr = *(uint32x4_t *) strides;
 202:../Dave/Generated/CMSIS_DSP/Source/TransformFunctions/arm_cfft_q31.c ****     vecScGathAddr = vecScGathAddr + (uint32_t) pSrc;
 203:../Dave/Generated/CMSIS_DSP/Source/TransformFunctions/arm_cfft_q31.c **** 
 204:../Dave/Generated/CMSIS_DSP/Source/TransformFunctions/arm_cfft_q31.c ****     /*
 205:../Dave/Generated/CMSIS_DSP/Source/TransformFunctions/arm_cfft_q31.c ****      * load scheduling
 206:../Dave/Generated/CMSIS_DSP/Source/TransformFunctions/arm_cfft_q31.c ****      */
 207:../Dave/Generated/CMSIS_DSP/Source/TransformFunctions/arm_cfft_q31.c ****     vecA = vldrwq_gather_base_wb_s32(&vecScGathAddr, 64);
 208:../Dave/Generated/CMSIS_DSP/Source/TransformFunctions/arm_cfft_q31.c ****     vecC = vldrwq_gather_base_s32(vecScGathAddr, 16);
 209:../Dave/Generated/CMSIS_DSP/Source/TransformFunctions/arm_cfft_q31.c **** 
 210:../Dave/Generated/CMSIS_DSP/Source/TransformFunctions/arm_cfft_q31.c ****     blkCnt = (fftLen >> 3);
 211:../Dave/Generated/CMSIS_DSP/Source/TransformFunctions/arm_cfft_q31.c ****     while (blkCnt > 0U)
 212:../Dave/Generated/CMSIS_DSP/Source/TransformFunctions/arm_cfft_q31.c ****     {
 213:../Dave/Generated/CMSIS_DSP/Source/TransformFunctions/arm_cfft_q31.c ****         vecSum0 = vhaddq(vecA, vecC);
 214:../Dave/Generated/CMSIS_DSP/Source/TransformFunctions/arm_cfft_q31.c ****         vecDiff0 = vhsubq(vecA, vecC);
 215:../Dave/Generated/CMSIS_DSP/Source/TransformFunctions/arm_cfft_q31.c **** 
 216:../Dave/Generated/CMSIS_DSP/Source/TransformFunctions/arm_cfft_q31.c ****         vecB = vldrwq_gather_base_s32(vecScGathAddr, 8);
 217:../Dave/Generated/CMSIS_DSP/Source/TransformFunctions/arm_cfft_q31.c ****         vecD = vldrwq_gather_base_s32(vecScGathAddr, 24);
 218:../Dave/Generated/CMSIS_DSP/Source/TransformFunctions/arm_cfft_q31.c **** 
 219:../Dave/Generated/CMSIS_DSP/Source/TransformFunctions/arm_cfft_q31.c ****         vecSum1 = vhaddq(vecB, vecD);
 220:../Dave/Generated/CMSIS_DSP/Source/TransformFunctions/arm_cfft_q31.c ****         vecDiff1 = vhsubq(vecB, vecD);
 221:../Dave/Generated/CMSIS_DSP/Source/TransformFunctions/arm_cfft_q31.c ****         /*
 222:../Dave/Generated/CMSIS_DSP/Source/TransformFunctions/arm_cfft_q31.c ****          * pre-load for next iteration
 223:../Dave/Generated/CMSIS_DSP/Source/TransformFunctions/arm_cfft_q31.c ****          */
 224:../Dave/Generated/CMSIS_DSP/Source/TransformFunctions/arm_cfft_q31.c ****         vecA = vldrwq_gather_base_wb_s32(&vecScGathAddr, 64);
 225:../Dave/Generated/CMSIS_DSP/Source/TransformFunctions/arm_cfft_q31.c ****         vecC = vldrwq_gather_base_s32(vecScGathAddr, 16);
 226:../Dave/Generated/CMSIS_DSP/Source/TransformFunctions/arm_cfft_q31.c **** 
 227:../Dave/Generated/CMSIS_DSP/Source/TransformFunctions/arm_cfft_q31.c ****         vecTmp0 = vhaddq(vecSum0, vecSum1);
 228:../Dave/Generated/CMSIS_DSP/Source/TransformFunctions/arm_cfft_q31.c ****         vstrwq_scatter_base_s32(vecScGathAddr, -64, vecTmp0);
 229:../Dave/Generated/CMSIS_DSP/Source/TransformFunctions/arm_cfft_q31.c **** 
 230:../Dave/Generated/CMSIS_DSP/Source/TransformFunctions/arm_cfft_q31.c ****         vecTmp0 = vhsubq(vecSum0, vecSum1);
 231:../Dave/Generated/CMSIS_DSP/Source/TransformFunctions/arm_cfft_q31.c ****         vstrwq_scatter_base_s32(vecScGathAddr, -64 + 8, vecTmp0);
 232:../Dave/Generated/CMSIS_DSP/Source/TransformFunctions/arm_cfft_q31.c **** 
 233:../Dave/Generated/CMSIS_DSP/Source/TransformFunctions/arm_cfft_q31.c ****         vecTmp0 = MVE_CMPLX_SUB_FX_A_ixB(vecDiff0, vecDiff1);
 234:../Dave/Generated/CMSIS_DSP/Source/TransformFunctions/arm_cfft_q31.c ****         vstrwq_scatter_base_s32(vecScGathAddr, -64 + 16, vecTmp0);
 235:../Dave/Generated/CMSIS_DSP/Source/TransformFunctions/arm_cfft_q31.c **** 
 236:../Dave/Generated/CMSIS_DSP/Source/TransformFunctions/arm_cfft_q31.c ****         vecTmp0 = MVE_CMPLX_ADD_FX_A_ixB(vecDiff0, vecDiff1);
 237:../Dave/Generated/CMSIS_DSP/Source/TransformFunctions/arm_cfft_q31.c ****         vstrwq_scatter_base_s32(vecScGathAddr, -64 + 24, vecTmp0);
 238:../Dave/Generated/CMSIS_DSP/Source/TransformFunctions/arm_cfft_q31.c **** 
 239:../Dave/Generated/CMSIS_DSP/Source/TransformFunctions/arm_cfft_q31.c ****         blkCnt--;
 240:../Dave/Generated/CMSIS_DSP/Source/TransformFunctions/arm_cfft_q31.c ****     }
 241:../Dave/Generated/CMSIS_DSP/Source/TransformFunctions/arm_cfft_q31.c **** 
 242:../Dave/Generated/CMSIS_DSP/Source/TransformFunctions/arm_cfft_q31.c ****     /*
 243:../Dave/Generated/CMSIS_DSP/Source/TransformFunctions/arm_cfft_q31.c ****      * output is in 11.21(q21) format for the 1024 point
 244:../Dave/Generated/CMSIS_DSP/Source/TransformFunctions/arm_cfft_q31.c ****      * output is in 9.23(q23) format for the 256 point
 245:../Dave/Generated/CMSIS_DSP/Source/TransformFunctions/arm_cfft_q31.c ****      * output is in 7.25(q25) format for the 64 point
 246:../Dave/Generated/CMSIS_DSP/Source/TransformFunctions/arm_cfft_q31.c ****      * output is in 5.27(q27) format for the 16 point
 247:../Dave/Generated/CMSIS_DSP/Source/TransformFunctions/arm_cfft_q31.c ****      */
 248:../Dave/Generated/CMSIS_DSP/Source/TransformFunctions/arm_cfft_q31.c **** }
 249:../Dave/Generated/CMSIS_DSP/Source/TransformFunctions/arm_cfft_q31.c **** 
 250:../Dave/Generated/CMSIS_DSP/Source/TransformFunctions/arm_cfft_q31.c **** 
 251:../Dave/Generated/CMSIS_DSP/Source/TransformFunctions/arm_cfft_q31.c **** static void arm_cfft_radix4by2_q31_mve(const arm_cfft_instance_q31 *S, q31_t *pSrc, uint32_t fftLen
 252:../Dave/Generated/CMSIS_DSP/Source/TransformFunctions/arm_cfft_q31.c **** {
 253:../Dave/Generated/CMSIS_DSP/Source/TransformFunctions/arm_cfft_q31.c ****     uint32_t     n2;
 254:../Dave/Generated/CMSIS_DSP/Source/TransformFunctions/arm_cfft_q31.c ****     q31_t       *pIn0;
 255:../Dave/Generated/CMSIS_DSP/Source/TransformFunctions/arm_cfft_q31.c ****     q31_t       *pIn1;
 256:../Dave/Generated/CMSIS_DSP/Source/TransformFunctions/arm_cfft_q31.c ****     const q31_t *pCoef = S->pTwiddle;
 257:../Dave/Generated/CMSIS_DSP/Source/TransformFunctions/arm_cfft_q31.c ****     uint32_t     blkCnt;
 258:../Dave/Generated/CMSIS_DSP/Source/TransformFunctions/arm_cfft_q31.c ****     q31x4_t    vecIn0, vecIn1, vecSum, vecDiff;
 259:../Dave/Generated/CMSIS_DSP/Source/TransformFunctions/arm_cfft_q31.c ****     q31x4_t    vecCmplxTmp, vecTw;
 260:../Dave/Generated/CMSIS_DSP/Source/TransformFunctions/arm_cfft_q31.c **** 
 261:../Dave/Generated/CMSIS_DSP/Source/TransformFunctions/arm_cfft_q31.c ****     n2 = fftLen >> 1;
 262:../Dave/Generated/CMSIS_DSP/Source/TransformFunctions/arm_cfft_q31.c ****     pIn0 = pSrc;
 263:../Dave/Generated/CMSIS_DSP/Source/TransformFunctions/arm_cfft_q31.c ****     pIn1 = pSrc + fftLen;
 264:../Dave/Generated/CMSIS_DSP/Source/TransformFunctions/arm_cfft_q31.c **** 
 265:../Dave/Generated/CMSIS_DSP/Source/TransformFunctions/arm_cfft_q31.c ****     blkCnt = n2 / 2;
 266:../Dave/Generated/CMSIS_DSP/Source/TransformFunctions/arm_cfft_q31.c **** 
 267:../Dave/Generated/CMSIS_DSP/Source/TransformFunctions/arm_cfft_q31.c ****     while (blkCnt > 0U)
 268:../Dave/Generated/CMSIS_DSP/Source/TransformFunctions/arm_cfft_q31.c ****     {
 269:../Dave/Generated/CMSIS_DSP/Source/TransformFunctions/arm_cfft_q31.c ****         vecIn0 = vld1q_s32(pIn0);
 270:../Dave/Generated/CMSIS_DSP/Source/TransformFunctions/arm_cfft_q31.c ****         vecIn1 = vld1q_s32(pIn1);
 271:../Dave/Generated/CMSIS_DSP/Source/TransformFunctions/arm_cfft_q31.c **** 
 272:../Dave/Generated/CMSIS_DSP/Source/TransformFunctions/arm_cfft_q31.c ****         vecIn0 = vecIn0 >> 1;
 273:../Dave/Generated/CMSIS_DSP/Source/TransformFunctions/arm_cfft_q31.c ****         vecIn1 = vecIn1 >> 1;
 274:../Dave/Generated/CMSIS_DSP/Source/TransformFunctions/arm_cfft_q31.c ****         vecSum = vhaddq(vecIn0, vecIn1);
 275:../Dave/Generated/CMSIS_DSP/Source/TransformFunctions/arm_cfft_q31.c ****         vst1q(pIn0, vecSum);
 276:../Dave/Generated/CMSIS_DSP/Source/TransformFunctions/arm_cfft_q31.c ****         pIn0 += 4;
 277:../Dave/Generated/CMSIS_DSP/Source/TransformFunctions/arm_cfft_q31.c **** 
 278:../Dave/Generated/CMSIS_DSP/Source/TransformFunctions/arm_cfft_q31.c ****         vecTw = vld1q_s32(pCoef);
 279:../Dave/Generated/CMSIS_DSP/Source/TransformFunctions/arm_cfft_q31.c ****         pCoef += 4;
 280:../Dave/Generated/CMSIS_DSP/Source/TransformFunctions/arm_cfft_q31.c ****         vecDiff = vhsubq(vecIn0, vecIn1);
 281:../Dave/Generated/CMSIS_DSP/Source/TransformFunctions/arm_cfft_q31.c **** 
 282:../Dave/Generated/CMSIS_DSP/Source/TransformFunctions/arm_cfft_q31.c ****         vecCmplxTmp = MVE_CMPLX_MULT_FX_AxConjB(vecDiff, vecTw);
 283:../Dave/Generated/CMSIS_DSP/Source/TransformFunctions/arm_cfft_q31.c ****         vst1q(pIn1, vecCmplxTmp);
 284:../Dave/Generated/CMSIS_DSP/Source/TransformFunctions/arm_cfft_q31.c ****         pIn1 += 4;
 285:../Dave/Generated/CMSIS_DSP/Source/TransformFunctions/arm_cfft_q31.c **** 
 286:../Dave/Generated/CMSIS_DSP/Source/TransformFunctions/arm_cfft_q31.c ****         blkCnt--;
 287:../Dave/Generated/CMSIS_DSP/Source/TransformFunctions/arm_cfft_q31.c ****     }
 288:../Dave/Generated/CMSIS_DSP/Source/TransformFunctions/arm_cfft_q31.c **** 
 289:../Dave/Generated/CMSIS_DSP/Source/TransformFunctions/arm_cfft_q31.c ****    _arm_radix4_butterfly_q31_mve(S, pSrc, n2);
 290:../Dave/Generated/CMSIS_DSP/Source/TransformFunctions/arm_cfft_q31.c **** 
 291:../Dave/Generated/CMSIS_DSP/Source/TransformFunctions/arm_cfft_q31.c ****    _arm_radix4_butterfly_q31_mve(S, pSrc + fftLen, n2);
 292:../Dave/Generated/CMSIS_DSP/Source/TransformFunctions/arm_cfft_q31.c **** 
 293:../Dave/Generated/CMSIS_DSP/Source/TransformFunctions/arm_cfft_q31.c ****     pIn0 = pSrc;
 294:../Dave/Generated/CMSIS_DSP/Source/TransformFunctions/arm_cfft_q31.c ****     blkCnt = (fftLen << 1) >> 2;
 295:../Dave/Generated/CMSIS_DSP/Source/TransformFunctions/arm_cfft_q31.c ****     while (blkCnt > 0U)
 296:../Dave/Generated/CMSIS_DSP/Source/TransformFunctions/arm_cfft_q31.c ****     {
 297:../Dave/Generated/CMSIS_DSP/Source/TransformFunctions/arm_cfft_q31.c ****         vecIn0 = vld1q_s32(pIn0);
 298:../Dave/Generated/CMSIS_DSP/Source/TransformFunctions/arm_cfft_q31.c ****         vecIn0 = vecIn0 << 1;
 299:../Dave/Generated/CMSIS_DSP/Source/TransformFunctions/arm_cfft_q31.c ****         vst1q(pIn0, vecIn0);
 300:../Dave/Generated/CMSIS_DSP/Source/TransformFunctions/arm_cfft_q31.c ****         pIn0 += 4;
 301:../Dave/Generated/CMSIS_DSP/Source/TransformFunctions/arm_cfft_q31.c ****         blkCnt--;
 302:../Dave/Generated/CMSIS_DSP/Source/TransformFunctions/arm_cfft_q31.c ****     }
 303:../Dave/Generated/CMSIS_DSP/Source/TransformFunctions/arm_cfft_q31.c ****     /*
 304:../Dave/Generated/CMSIS_DSP/Source/TransformFunctions/arm_cfft_q31.c ****      * tail
 305:../Dave/Generated/CMSIS_DSP/Source/TransformFunctions/arm_cfft_q31.c ****      * (will be merged thru tail predication)
 306:../Dave/Generated/CMSIS_DSP/Source/TransformFunctions/arm_cfft_q31.c ****      */
 307:../Dave/Generated/CMSIS_DSP/Source/TransformFunctions/arm_cfft_q31.c ****     blkCnt = (fftLen << 1) & 3;
 308:../Dave/Generated/CMSIS_DSP/Source/TransformFunctions/arm_cfft_q31.c ****     if (blkCnt > 0U)
 309:../Dave/Generated/CMSIS_DSP/Source/TransformFunctions/arm_cfft_q31.c ****     {
 310:../Dave/Generated/CMSIS_DSP/Source/TransformFunctions/arm_cfft_q31.c ****         mve_pred16_t p0 = vctp32q(blkCnt);
 311:../Dave/Generated/CMSIS_DSP/Source/TransformFunctions/arm_cfft_q31.c **** 
 312:../Dave/Generated/CMSIS_DSP/Source/TransformFunctions/arm_cfft_q31.c ****         vecIn0 = vld1q_s32(pIn0);
 313:../Dave/Generated/CMSIS_DSP/Source/TransformFunctions/arm_cfft_q31.c ****         vecIn0 = vecIn0 << 1;
 314:../Dave/Generated/CMSIS_DSP/Source/TransformFunctions/arm_cfft_q31.c ****         vstrwq_p(pIn0, vecIn0, p0);
 315:../Dave/Generated/CMSIS_DSP/Source/TransformFunctions/arm_cfft_q31.c ****     }
 316:../Dave/Generated/CMSIS_DSP/Source/TransformFunctions/arm_cfft_q31.c **** 
 317:../Dave/Generated/CMSIS_DSP/Source/TransformFunctions/arm_cfft_q31.c **** }
 318:../Dave/Generated/CMSIS_DSP/Source/TransformFunctions/arm_cfft_q31.c **** 
 319:../Dave/Generated/CMSIS_DSP/Source/TransformFunctions/arm_cfft_q31.c **** static void _arm_radix4_butterfly_inverse_q31_mve(
 320:../Dave/Generated/CMSIS_DSP/Source/TransformFunctions/arm_cfft_q31.c ****     const arm_cfft_instance_q31 *S,
 321:../Dave/Generated/CMSIS_DSP/Source/TransformFunctions/arm_cfft_q31.c ****     q31_t   *pSrc,
 322:../Dave/Generated/CMSIS_DSP/Source/TransformFunctions/arm_cfft_q31.c ****     uint32_t fftLen)
 323:../Dave/Generated/CMSIS_DSP/Source/TransformFunctions/arm_cfft_q31.c **** {
 324:../Dave/Generated/CMSIS_DSP/Source/TransformFunctions/arm_cfft_q31.c ****     q31x4_t vecTmp0, vecTmp1;
 325:../Dave/Generated/CMSIS_DSP/Source/TransformFunctions/arm_cfft_q31.c ****     q31x4_t vecSum0, vecDiff0, vecSum1, vecDiff1;
 326:../Dave/Generated/CMSIS_DSP/Source/TransformFunctions/arm_cfft_q31.c ****     q31x4_t vecA, vecB, vecC, vecD;
 327:../Dave/Generated/CMSIS_DSP/Source/TransformFunctions/arm_cfft_q31.c ****     q31x4_t vecW;
 328:../Dave/Generated/CMSIS_DSP/Source/TransformFunctions/arm_cfft_q31.c ****     uint32_t  blkCnt;
 329:../Dave/Generated/CMSIS_DSP/Source/TransformFunctions/arm_cfft_q31.c ****     uint32_t  n1, n2;
 330:../Dave/Generated/CMSIS_DSP/Source/TransformFunctions/arm_cfft_q31.c ****     uint32_t  stage = 0;
 331:../Dave/Generated/CMSIS_DSP/Source/TransformFunctions/arm_cfft_q31.c ****     int32_t  iter = 1;
 332:../Dave/Generated/CMSIS_DSP/Source/TransformFunctions/arm_cfft_q31.c ****     static const uint32_t strides[4] = {
 333:../Dave/Generated/CMSIS_DSP/Source/TransformFunctions/arm_cfft_q31.c ****         (0 - 16) * sizeof(q31_t *), (1 - 16) * sizeof(q31_t *),
 334:../Dave/Generated/CMSIS_DSP/Source/TransformFunctions/arm_cfft_q31.c ****         (8 - 16) * sizeof(q31_t *), (9 - 16) * sizeof(q31_t *)
 335:../Dave/Generated/CMSIS_DSP/Source/TransformFunctions/arm_cfft_q31.c ****     };
 336:../Dave/Generated/CMSIS_DSP/Source/TransformFunctions/arm_cfft_q31.c **** 
 337:../Dave/Generated/CMSIS_DSP/Source/TransformFunctions/arm_cfft_q31.c ****     /*
 338:../Dave/Generated/CMSIS_DSP/Source/TransformFunctions/arm_cfft_q31.c ****      * Process first stages
 339:../Dave/Generated/CMSIS_DSP/Source/TransformFunctions/arm_cfft_q31.c ****      * Each stage in middle stages provides two down scaling of the input
 340:../Dave/Generated/CMSIS_DSP/Source/TransformFunctions/arm_cfft_q31.c ****      */
 341:../Dave/Generated/CMSIS_DSP/Source/TransformFunctions/arm_cfft_q31.c ****     n2 = fftLen;
 342:../Dave/Generated/CMSIS_DSP/Source/TransformFunctions/arm_cfft_q31.c ****     n1 = n2;
 343:../Dave/Generated/CMSIS_DSP/Source/TransformFunctions/arm_cfft_q31.c ****     n2 >>= 2u;
 344:../Dave/Generated/CMSIS_DSP/Source/TransformFunctions/arm_cfft_q31.c **** 
 345:../Dave/Generated/CMSIS_DSP/Source/TransformFunctions/arm_cfft_q31.c ****     for (int k = fftLen / 4u; k > 1; k >>= 2u)
 346:../Dave/Generated/CMSIS_DSP/Source/TransformFunctions/arm_cfft_q31.c ****     {
 347:../Dave/Generated/CMSIS_DSP/Source/TransformFunctions/arm_cfft_q31.c ****         for (int i = 0; i < iter; i++)
 348:../Dave/Generated/CMSIS_DSP/Source/TransformFunctions/arm_cfft_q31.c ****         {
 349:../Dave/Generated/CMSIS_DSP/Source/TransformFunctions/arm_cfft_q31.c ****             q31_t const *p_rearranged_twiddle_tab_stride2 =
 350:../Dave/Generated/CMSIS_DSP/Source/TransformFunctions/arm_cfft_q31.c ****                 &S->rearranged_twiddle_stride2[
 351:../Dave/Generated/CMSIS_DSP/Source/TransformFunctions/arm_cfft_q31.c ****                 S->rearranged_twiddle_tab_stride2_arr[stage]];
 352:../Dave/Generated/CMSIS_DSP/Source/TransformFunctions/arm_cfft_q31.c ****             q31_t const *p_rearranged_twiddle_tab_stride3 = &S->rearranged_twiddle_stride3[
 353:../Dave/Generated/CMSIS_DSP/Source/TransformFunctions/arm_cfft_q31.c ****                 S->rearranged_twiddle_tab_stride3_arr[stage]];
 354:../Dave/Generated/CMSIS_DSP/Source/TransformFunctions/arm_cfft_q31.c ****             q31_t const *p_rearranged_twiddle_tab_stride1 =
 355:../Dave/Generated/CMSIS_DSP/Source/TransformFunctions/arm_cfft_q31.c ****                 &S->rearranged_twiddle_stride1[
 356:../Dave/Generated/CMSIS_DSP/Source/TransformFunctions/arm_cfft_q31.c ****                 S->rearranged_twiddle_tab_stride1_arr[stage]];
 357:../Dave/Generated/CMSIS_DSP/Source/TransformFunctions/arm_cfft_q31.c **** 
 358:../Dave/Generated/CMSIS_DSP/Source/TransformFunctions/arm_cfft_q31.c ****             q31_t const *pW1, *pW2, *pW3;
 359:../Dave/Generated/CMSIS_DSP/Source/TransformFunctions/arm_cfft_q31.c ****             q31_t    *inA = pSrc + CMPLX_DIM * i * n1;
 360:../Dave/Generated/CMSIS_DSP/Source/TransformFunctions/arm_cfft_q31.c ****             q31_t    *inB = inA + n2 * CMPLX_DIM;
 361:../Dave/Generated/CMSIS_DSP/Source/TransformFunctions/arm_cfft_q31.c ****             q31_t    *inC = inB + n2 * CMPLX_DIM;
 362:../Dave/Generated/CMSIS_DSP/Source/TransformFunctions/arm_cfft_q31.c ****             q31_t    *inD = inC + n2 * CMPLX_DIM;
 363:../Dave/Generated/CMSIS_DSP/Source/TransformFunctions/arm_cfft_q31.c **** 
 364:../Dave/Generated/CMSIS_DSP/Source/TransformFunctions/arm_cfft_q31.c ****             pW1 = p_rearranged_twiddle_tab_stride1;
 365:../Dave/Generated/CMSIS_DSP/Source/TransformFunctions/arm_cfft_q31.c ****             pW2 = p_rearranged_twiddle_tab_stride2;
 366:../Dave/Generated/CMSIS_DSP/Source/TransformFunctions/arm_cfft_q31.c ****             pW3 = p_rearranged_twiddle_tab_stride3;
 367:../Dave/Generated/CMSIS_DSP/Source/TransformFunctions/arm_cfft_q31.c **** 
 368:../Dave/Generated/CMSIS_DSP/Source/TransformFunctions/arm_cfft_q31.c ****             blkCnt = n2 / 2;
 369:../Dave/Generated/CMSIS_DSP/Source/TransformFunctions/arm_cfft_q31.c ****             /*
 370:../Dave/Generated/CMSIS_DSP/Source/TransformFunctions/arm_cfft_q31.c ****              * load 2 x q31 complex pair
 371:../Dave/Generated/CMSIS_DSP/Source/TransformFunctions/arm_cfft_q31.c ****              */
 372:../Dave/Generated/CMSIS_DSP/Source/TransformFunctions/arm_cfft_q31.c ****             vecA = vldrwq_s32(inA);
 373:../Dave/Generated/CMSIS_DSP/Source/TransformFunctions/arm_cfft_q31.c ****             vecC = vldrwq_s32(inC);
 374:../Dave/Generated/CMSIS_DSP/Source/TransformFunctions/arm_cfft_q31.c ****             while (blkCnt > 0U)
 375:../Dave/Generated/CMSIS_DSP/Source/TransformFunctions/arm_cfft_q31.c ****             {
 376:../Dave/Generated/CMSIS_DSP/Source/TransformFunctions/arm_cfft_q31.c ****                 vecB = vldrwq_s32(inB);
 377:../Dave/Generated/CMSIS_DSP/Source/TransformFunctions/arm_cfft_q31.c ****                 vecD = vldrwq_s32(inD);
 378:../Dave/Generated/CMSIS_DSP/Source/TransformFunctions/arm_cfft_q31.c **** 
 379:../Dave/Generated/CMSIS_DSP/Source/TransformFunctions/arm_cfft_q31.c ****                 vecSum0 = vhaddq(vecA, vecC);
 380:../Dave/Generated/CMSIS_DSP/Source/TransformFunctions/arm_cfft_q31.c ****                 vecDiff0 = vhsubq(vecA, vecC);
 381:../Dave/Generated/CMSIS_DSP/Source/TransformFunctions/arm_cfft_q31.c **** 
 382:../Dave/Generated/CMSIS_DSP/Source/TransformFunctions/arm_cfft_q31.c ****                 vecSum1 = vhaddq(vecB, vecD);
 383:../Dave/Generated/CMSIS_DSP/Source/TransformFunctions/arm_cfft_q31.c ****                 vecDiff1 = vhsubq(vecB, vecD);
 384:../Dave/Generated/CMSIS_DSP/Source/TransformFunctions/arm_cfft_q31.c ****                 /*
 385:../Dave/Generated/CMSIS_DSP/Source/TransformFunctions/arm_cfft_q31.c ****                  * [ 1 1 1 1 ] * [ A B C D ]' .* 1
 386:../Dave/Generated/CMSIS_DSP/Source/TransformFunctions/arm_cfft_q31.c ****                  */
 387:../Dave/Generated/CMSIS_DSP/Source/TransformFunctions/arm_cfft_q31.c ****                 vecTmp0 = vhaddq(vecSum0, vecSum1);
 388:../Dave/Generated/CMSIS_DSP/Source/TransformFunctions/arm_cfft_q31.c ****                 vst1q(inA, vecTmp0);
 389:../Dave/Generated/CMSIS_DSP/Source/TransformFunctions/arm_cfft_q31.c ****                 inA += 4;
 390:../Dave/Generated/CMSIS_DSP/Source/TransformFunctions/arm_cfft_q31.c ****                 /*
 391:../Dave/Generated/CMSIS_DSP/Source/TransformFunctions/arm_cfft_q31.c ****                  * [ 1 -1 1 -1 ] * [ A B C D ]'
 392:../Dave/Generated/CMSIS_DSP/Source/TransformFunctions/arm_cfft_q31.c ****                  */
 393:../Dave/Generated/CMSIS_DSP/Source/TransformFunctions/arm_cfft_q31.c ****                 vecTmp0 = vhsubq(vecSum0, vecSum1);
 394:../Dave/Generated/CMSIS_DSP/Source/TransformFunctions/arm_cfft_q31.c ****                 /*
 395:../Dave/Generated/CMSIS_DSP/Source/TransformFunctions/arm_cfft_q31.c ****                  * [ 1 -1 1 -1 ] * [ A B C D ]'.* W2
 396:../Dave/Generated/CMSIS_DSP/Source/TransformFunctions/arm_cfft_q31.c ****                  */
 397:../Dave/Generated/CMSIS_DSP/Source/TransformFunctions/arm_cfft_q31.c ****                 vecW = vld1q(pW2);
 398:../Dave/Generated/CMSIS_DSP/Source/TransformFunctions/arm_cfft_q31.c ****                 pW2 += 4;
 399:../Dave/Generated/CMSIS_DSP/Source/TransformFunctions/arm_cfft_q31.c ****                 vecTmp1 = MVE_CMPLX_MULT_FX_AxConjB(vecTmp0, vecW);
 400:../Dave/Generated/CMSIS_DSP/Source/TransformFunctions/arm_cfft_q31.c **** 
 401:../Dave/Generated/CMSIS_DSP/Source/TransformFunctions/arm_cfft_q31.c ****                 vst1q(inB, vecTmp1);
 402:../Dave/Generated/CMSIS_DSP/Source/TransformFunctions/arm_cfft_q31.c ****                 inB += 4;
 403:../Dave/Generated/CMSIS_DSP/Source/TransformFunctions/arm_cfft_q31.c ****                 /*
 404:../Dave/Generated/CMSIS_DSP/Source/TransformFunctions/arm_cfft_q31.c ****                  * [ 1 -i -1 +i ] * [ A B C D ]'
 405:../Dave/Generated/CMSIS_DSP/Source/TransformFunctions/arm_cfft_q31.c ****                  */
 406:../Dave/Generated/CMSIS_DSP/Source/TransformFunctions/arm_cfft_q31.c ****                 vecTmp0 = MVE_CMPLX_ADD_FX_A_ixB(vecDiff0, vecDiff1);
 407:../Dave/Generated/CMSIS_DSP/Source/TransformFunctions/arm_cfft_q31.c ****                 /*
 408:../Dave/Generated/CMSIS_DSP/Source/TransformFunctions/arm_cfft_q31.c ****                  * [ 1 -i -1 +i ] * [ A B C D ]'.* W1
 409:../Dave/Generated/CMSIS_DSP/Source/TransformFunctions/arm_cfft_q31.c ****                  */
 410:../Dave/Generated/CMSIS_DSP/Source/TransformFunctions/arm_cfft_q31.c ****                 vecW = vld1q(pW1);
 411:../Dave/Generated/CMSIS_DSP/Source/TransformFunctions/arm_cfft_q31.c ****                 pW1 += 4;
 412:../Dave/Generated/CMSIS_DSP/Source/TransformFunctions/arm_cfft_q31.c ****                 vecTmp1 = MVE_CMPLX_MULT_FX_AxConjB(vecTmp0, vecW);
 413:../Dave/Generated/CMSIS_DSP/Source/TransformFunctions/arm_cfft_q31.c ****                 vst1q(inC, vecTmp1);
 414:../Dave/Generated/CMSIS_DSP/Source/TransformFunctions/arm_cfft_q31.c ****                 inC += 4;
 415:../Dave/Generated/CMSIS_DSP/Source/TransformFunctions/arm_cfft_q31.c ****                 /*
 416:../Dave/Generated/CMSIS_DSP/Source/TransformFunctions/arm_cfft_q31.c ****                  * [ 1 +i -1 -i ] * [ A B C D ]'
 417:../Dave/Generated/CMSIS_DSP/Source/TransformFunctions/arm_cfft_q31.c ****                  */
 418:../Dave/Generated/CMSIS_DSP/Source/TransformFunctions/arm_cfft_q31.c ****                 vecTmp0 = MVE_CMPLX_SUB_FX_A_ixB(vecDiff0, vecDiff1);
 419:../Dave/Generated/CMSIS_DSP/Source/TransformFunctions/arm_cfft_q31.c ****                 /*
 420:../Dave/Generated/CMSIS_DSP/Source/TransformFunctions/arm_cfft_q31.c ****                  * [ 1 +i -1 -i ] * [ A B C D ]'.* W3
 421:../Dave/Generated/CMSIS_DSP/Source/TransformFunctions/arm_cfft_q31.c ****                  */
 422:../Dave/Generated/CMSIS_DSP/Source/TransformFunctions/arm_cfft_q31.c ****                 vecW = vld1q(pW3);
 423:../Dave/Generated/CMSIS_DSP/Source/TransformFunctions/arm_cfft_q31.c ****                 pW3 += 4;
 424:../Dave/Generated/CMSIS_DSP/Source/TransformFunctions/arm_cfft_q31.c ****                 vecTmp1 = MVE_CMPLX_MULT_FX_AxConjB(vecTmp0, vecW);
 425:../Dave/Generated/CMSIS_DSP/Source/TransformFunctions/arm_cfft_q31.c ****                 vst1q(inD, vecTmp1);
 426:../Dave/Generated/CMSIS_DSP/Source/TransformFunctions/arm_cfft_q31.c ****                 inD += 4;
 427:../Dave/Generated/CMSIS_DSP/Source/TransformFunctions/arm_cfft_q31.c **** 
 428:../Dave/Generated/CMSIS_DSP/Source/TransformFunctions/arm_cfft_q31.c ****                 vecA = vldrwq_s32(inA);
 429:../Dave/Generated/CMSIS_DSP/Source/TransformFunctions/arm_cfft_q31.c ****                 vecC = vldrwq_s32(inC);
 430:../Dave/Generated/CMSIS_DSP/Source/TransformFunctions/arm_cfft_q31.c **** 
 431:../Dave/Generated/CMSIS_DSP/Source/TransformFunctions/arm_cfft_q31.c ****                 blkCnt--;
 432:../Dave/Generated/CMSIS_DSP/Source/TransformFunctions/arm_cfft_q31.c ****             }
 433:../Dave/Generated/CMSIS_DSP/Source/TransformFunctions/arm_cfft_q31.c ****         }
 434:../Dave/Generated/CMSIS_DSP/Source/TransformFunctions/arm_cfft_q31.c ****         n1 = n2;
 435:../Dave/Generated/CMSIS_DSP/Source/TransformFunctions/arm_cfft_q31.c ****         n2 >>= 2u;
 436:../Dave/Generated/CMSIS_DSP/Source/TransformFunctions/arm_cfft_q31.c ****         iter = iter << 2;
 437:../Dave/Generated/CMSIS_DSP/Source/TransformFunctions/arm_cfft_q31.c ****         stage++;
 438:../Dave/Generated/CMSIS_DSP/Source/TransformFunctions/arm_cfft_q31.c ****     }
 439:../Dave/Generated/CMSIS_DSP/Source/TransformFunctions/arm_cfft_q31.c **** 
 440:../Dave/Generated/CMSIS_DSP/Source/TransformFunctions/arm_cfft_q31.c ****     /*
 441:../Dave/Generated/CMSIS_DSP/Source/TransformFunctions/arm_cfft_q31.c ****      * End of 1st stages process
 442:../Dave/Generated/CMSIS_DSP/Source/TransformFunctions/arm_cfft_q31.c ****      * data is in 11.21(q21) format for the 1024 point as there are 3 middle stages
 443:../Dave/Generated/CMSIS_DSP/Source/TransformFunctions/arm_cfft_q31.c ****      * data is in 9.23(q23) format for the 256 point as there are 2 middle stages
 444:../Dave/Generated/CMSIS_DSP/Source/TransformFunctions/arm_cfft_q31.c ****      * data is in 7.25(q25) format for the 64 point as there are 1 middle stage
 445:../Dave/Generated/CMSIS_DSP/Source/TransformFunctions/arm_cfft_q31.c ****      * data is in 5.27(q27) format for the 16 point as there are no middle stages
 446:../Dave/Generated/CMSIS_DSP/Source/TransformFunctions/arm_cfft_q31.c ****      */
 447:../Dave/Generated/CMSIS_DSP/Source/TransformFunctions/arm_cfft_q31.c **** 
 448:../Dave/Generated/CMSIS_DSP/Source/TransformFunctions/arm_cfft_q31.c ****     /*
 449:../Dave/Generated/CMSIS_DSP/Source/TransformFunctions/arm_cfft_q31.c ****      * start of Last stage process
 450:../Dave/Generated/CMSIS_DSP/Source/TransformFunctions/arm_cfft_q31.c ****      */
 451:../Dave/Generated/CMSIS_DSP/Source/TransformFunctions/arm_cfft_q31.c ****     uint32x4_t vecScGathAddr = *(uint32x4_t *) strides;
 452:../Dave/Generated/CMSIS_DSP/Source/TransformFunctions/arm_cfft_q31.c ****     vecScGathAddr = vecScGathAddr + (uint32_t) pSrc;
 453:../Dave/Generated/CMSIS_DSP/Source/TransformFunctions/arm_cfft_q31.c **** 
 454:../Dave/Generated/CMSIS_DSP/Source/TransformFunctions/arm_cfft_q31.c ****     /*
 455:../Dave/Generated/CMSIS_DSP/Source/TransformFunctions/arm_cfft_q31.c ****      * load scheduling
 456:../Dave/Generated/CMSIS_DSP/Source/TransformFunctions/arm_cfft_q31.c ****      */
 457:../Dave/Generated/CMSIS_DSP/Source/TransformFunctions/arm_cfft_q31.c ****     vecA = vldrwq_gather_base_wb_s32(&vecScGathAddr, 64);
 458:../Dave/Generated/CMSIS_DSP/Source/TransformFunctions/arm_cfft_q31.c ****     vecC = vldrwq_gather_base_s32(vecScGathAddr, 16);
 459:../Dave/Generated/CMSIS_DSP/Source/TransformFunctions/arm_cfft_q31.c **** 
 460:../Dave/Generated/CMSIS_DSP/Source/TransformFunctions/arm_cfft_q31.c ****     blkCnt = (fftLen >> 3);
 461:../Dave/Generated/CMSIS_DSP/Source/TransformFunctions/arm_cfft_q31.c ****     while (blkCnt > 0U)
 462:../Dave/Generated/CMSIS_DSP/Source/TransformFunctions/arm_cfft_q31.c ****     {
 463:../Dave/Generated/CMSIS_DSP/Source/TransformFunctions/arm_cfft_q31.c ****         vecSum0 = vhaddq(vecA, vecC);
 464:../Dave/Generated/CMSIS_DSP/Source/TransformFunctions/arm_cfft_q31.c ****         vecDiff0 = vhsubq(vecA, vecC);
 465:../Dave/Generated/CMSIS_DSP/Source/TransformFunctions/arm_cfft_q31.c **** 
 466:../Dave/Generated/CMSIS_DSP/Source/TransformFunctions/arm_cfft_q31.c ****         vecB = vldrwq_gather_base_s32(vecScGathAddr, 8);
 467:../Dave/Generated/CMSIS_DSP/Source/TransformFunctions/arm_cfft_q31.c ****         vecD = vldrwq_gather_base_s32(vecScGathAddr, 24);
 468:../Dave/Generated/CMSIS_DSP/Source/TransformFunctions/arm_cfft_q31.c **** 
 469:../Dave/Generated/CMSIS_DSP/Source/TransformFunctions/arm_cfft_q31.c ****         vecSum1 = vhaddq(vecB, vecD);
 470:../Dave/Generated/CMSIS_DSP/Source/TransformFunctions/arm_cfft_q31.c ****         vecDiff1 = vhsubq(vecB, vecD);
 471:../Dave/Generated/CMSIS_DSP/Source/TransformFunctions/arm_cfft_q31.c ****         /*
 472:../Dave/Generated/CMSIS_DSP/Source/TransformFunctions/arm_cfft_q31.c ****          * pre-load for next iteration
 473:../Dave/Generated/CMSIS_DSP/Source/TransformFunctions/arm_cfft_q31.c ****          */
 474:../Dave/Generated/CMSIS_DSP/Source/TransformFunctions/arm_cfft_q31.c ****         vecA = vldrwq_gather_base_wb_s32(&vecScGathAddr, 64);
 475:../Dave/Generated/CMSIS_DSP/Source/TransformFunctions/arm_cfft_q31.c ****         vecC = vldrwq_gather_base_s32(vecScGathAddr, 16);
 476:../Dave/Generated/CMSIS_DSP/Source/TransformFunctions/arm_cfft_q31.c **** 
 477:../Dave/Generated/CMSIS_DSP/Source/TransformFunctions/arm_cfft_q31.c ****         vecTmp0 = vhaddq(vecSum0, vecSum1);
 478:../Dave/Generated/CMSIS_DSP/Source/TransformFunctions/arm_cfft_q31.c ****         vstrwq_scatter_base_s32(vecScGathAddr, -64, vecTmp0);
 479:../Dave/Generated/CMSIS_DSP/Source/TransformFunctions/arm_cfft_q31.c **** 
 480:../Dave/Generated/CMSIS_DSP/Source/TransformFunctions/arm_cfft_q31.c ****         vecTmp0 = vhsubq(vecSum0, vecSum1);
 481:../Dave/Generated/CMSIS_DSP/Source/TransformFunctions/arm_cfft_q31.c ****         vstrwq_scatter_base_s32(vecScGathAddr, -64 + 8, vecTmp0);
 482:../Dave/Generated/CMSIS_DSP/Source/TransformFunctions/arm_cfft_q31.c **** 
 483:../Dave/Generated/CMSIS_DSP/Source/TransformFunctions/arm_cfft_q31.c ****         vecTmp0 = MVE_CMPLX_ADD_FX_A_ixB(vecDiff0, vecDiff1);
 484:../Dave/Generated/CMSIS_DSP/Source/TransformFunctions/arm_cfft_q31.c ****         vstrwq_scatter_base_s32(vecScGathAddr, -64 + 16, vecTmp0);
 485:../Dave/Generated/CMSIS_DSP/Source/TransformFunctions/arm_cfft_q31.c **** 
 486:../Dave/Generated/CMSIS_DSP/Source/TransformFunctions/arm_cfft_q31.c ****         vecTmp0 = MVE_CMPLX_SUB_FX_A_ixB(vecDiff0, vecDiff1);
 487:../Dave/Generated/CMSIS_DSP/Source/TransformFunctions/arm_cfft_q31.c ****         vstrwq_scatter_base_s32(vecScGathAddr, -64 + 24, vecTmp0);
 488:../Dave/Generated/CMSIS_DSP/Source/TransformFunctions/arm_cfft_q31.c **** 
 489:../Dave/Generated/CMSIS_DSP/Source/TransformFunctions/arm_cfft_q31.c ****         blkCnt--;
 490:../Dave/Generated/CMSIS_DSP/Source/TransformFunctions/arm_cfft_q31.c ****     }
 491:../Dave/Generated/CMSIS_DSP/Source/TransformFunctions/arm_cfft_q31.c ****     /*
 492:../Dave/Generated/CMSIS_DSP/Source/TransformFunctions/arm_cfft_q31.c ****      * output is in 11.21(q21) format for the 1024 point
 493:../Dave/Generated/CMSIS_DSP/Source/TransformFunctions/arm_cfft_q31.c ****      * output is in 9.23(q23) format for the 256 point
 494:../Dave/Generated/CMSIS_DSP/Source/TransformFunctions/arm_cfft_q31.c ****      * output is in 7.25(q25) format for the 64 point
 495:../Dave/Generated/CMSIS_DSP/Source/TransformFunctions/arm_cfft_q31.c ****      * output is in 5.27(q27) format for the 16 point
 496:../Dave/Generated/CMSIS_DSP/Source/TransformFunctions/arm_cfft_q31.c ****      */
 497:../Dave/Generated/CMSIS_DSP/Source/TransformFunctions/arm_cfft_q31.c **** }
 498:../Dave/Generated/CMSIS_DSP/Source/TransformFunctions/arm_cfft_q31.c **** 
 499:../Dave/Generated/CMSIS_DSP/Source/TransformFunctions/arm_cfft_q31.c **** static void arm_cfft_radix4by2_inverse_q31_mve(const arm_cfft_instance_q31 *S, q31_t *pSrc, uint32_
 500:../Dave/Generated/CMSIS_DSP/Source/TransformFunctions/arm_cfft_q31.c **** {
 501:../Dave/Generated/CMSIS_DSP/Source/TransformFunctions/arm_cfft_q31.c ****     uint32_t     n2;
 502:../Dave/Generated/CMSIS_DSP/Source/TransformFunctions/arm_cfft_q31.c ****     q31_t       *pIn0;
 503:../Dave/Generated/CMSIS_DSP/Source/TransformFunctions/arm_cfft_q31.c ****     q31_t       *pIn1;
 504:../Dave/Generated/CMSIS_DSP/Source/TransformFunctions/arm_cfft_q31.c ****     const q31_t *pCoef = S->pTwiddle;
 505:../Dave/Generated/CMSIS_DSP/Source/TransformFunctions/arm_cfft_q31.c **** 
 506:../Dave/Generated/CMSIS_DSP/Source/TransformFunctions/arm_cfft_q31.c ****     //uint16_t     twidCoefModifier = arm_cfft_radix2_twiddle_factor(S->fftLen);
 507:../Dave/Generated/CMSIS_DSP/Source/TransformFunctions/arm_cfft_q31.c ****     //q31_t        twidIncr = (2 * twidCoefModifier * sizeof(q31_t));
 508:../Dave/Generated/CMSIS_DSP/Source/TransformFunctions/arm_cfft_q31.c ****     uint32_t     blkCnt;
 509:../Dave/Generated/CMSIS_DSP/Source/TransformFunctions/arm_cfft_q31.c ****     //uint64x2_t   vecOffs;
 510:../Dave/Generated/CMSIS_DSP/Source/TransformFunctions/arm_cfft_q31.c ****     q31x4_t    vecIn0, vecIn1, vecSum, vecDiff;
 511:../Dave/Generated/CMSIS_DSP/Source/TransformFunctions/arm_cfft_q31.c ****     q31x4_t    vecCmplxTmp, vecTw;
 512:../Dave/Generated/CMSIS_DSP/Source/TransformFunctions/arm_cfft_q31.c **** 
 513:../Dave/Generated/CMSIS_DSP/Source/TransformFunctions/arm_cfft_q31.c ****     n2 = fftLen >> 1;
 514:../Dave/Generated/CMSIS_DSP/Source/TransformFunctions/arm_cfft_q31.c **** 
 515:../Dave/Generated/CMSIS_DSP/Source/TransformFunctions/arm_cfft_q31.c ****     pIn0 = pSrc;
 516:../Dave/Generated/CMSIS_DSP/Source/TransformFunctions/arm_cfft_q31.c ****     pIn1 = pSrc + fftLen;
 517:../Dave/Generated/CMSIS_DSP/Source/TransformFunctions/arm_cfft_q31.c ****     //vecOffs[0] = 0;
 518:../Dave/Generated/CMSIS_DSP/Source/TransformFunctions/arm_cfft_q31.c ****     //vecOffs[1] = (uint64_t) twidIncr;
 519:../Dave/Generated/CMSIS_DSP/Source/TransformFunctions/arm_cfft_q31.c ****     blkCnt = n2 / 2;
 520:../Dave/Generated/CMSIS_DSP/Source/TransformFunctions/arm_cfft_q31.c **** 
 521:../Dave/Generated/CMSIS_DSP/Source/TransformFunctions/arm_cfft_q31.c ****     while (blkCnt > 0U)
 522:../Dave/Generated/CMSIS_DSP/Source/TransformFunctions/arm_cfft_q31.c ****     {
 523:../Dave/Generated/CMSIS_DSP/Source/TransformFunctions/arm_cfft_q31.c ****         vecIn0 = vld1q_s32(pIn0);
 524:../Dave/Generated/CMSIS_DSP/Source/TransformFunctions/arm_cfft_q31.c ****         vecIn1 = vld1q_s32(pIn1);
 525:../Dave/Generated/CMSIS_DSP/Source/TransformFunctions/arm_cfft_q31.c **** 
 526:../Dave/Generated/CMSIS_DSP/Source/TransformFunctions/arm_cfft_q31.c ****         vecIn0 = vecIn0 >> 1;
 527:../Dave/Generated/CMSIS_DSP/Source/TransformFunctions/arm_cfft_q31.c ****         vecIn1 = vecIn1 >> 1;
 528:../Dave/Generated/CMSIS_DSP/Source/TransformFunctions/arm_cfft_q31.c ****         vecSum = vhaddq(vecIn0, vecIn1);
 529:../Dave/Generated/CMSIS_DSP/Source/TransformFunctions/arm_cfft_q31.c ****         vst1q(pIn0, vecSum);
 530:../Dave/Generated/CMSIS_DSP/Source/TransformFunctions/arm_cfft_q31.c ****         pIn0 += 4;
 531:../Dave/Generated/CMSIS_DSP/Source/TransformFunctions/arm_cfft_q31.c **** 
 532:../Dave/Generated/CMSIS_DSP/Source/TransformFunctions/arm_cfft_q31.c ****         //vecTw = (q31x4_t) vldrdq_gather_offset_s64(pCoef, vecOffs);
 533:../Dave/Generated/CMSIS_DSP/Source/TransformFunctions/arm_cfft_q31.c ****         vecTw = vld1q_s32(pCoef);
 534:../Dave/Generated/CMSIS_DSP/Source/TransformFunctions/arm_cfft_q31.c ****         pCoef += 4;
 535:../Dave/Generated/CMSIS_DSP/Source/TransformFunctions/arm_cfft_q31.c ****         vecDiff = vhsubq(vecIn0, vecIn1);
 536:../Dave/Generated/CMSIS_DSP/Source/TransformFunctions/arm_cfft_q31.c **** 
 537:../Dave/Generated/CMSIS_DSP/Source/TransformFunctions/arm_cfft_q31.c ****         vecCmplxTmp = MVE_CMPLX_MULT_FX_AxB(vecDiff, vecTw);
 538:../Dave/Generated/CMSIS_DSP/Source/TransformFunctions/arm_cfft_q31.c ****         vst1q(pIn1, vecCmplxTmp);
 539:../Dave/Generated/CMSIS_DSP/Source/TransformFunctions/arm_cfft_q31.c ****         pIn1 += 4;
 540:../Dave/Generated/CMSIS_DSP/Source/TransformFunctions/arm_cfft_q31.c **** 
 541:../Dave/Generated/CMSIS_DSP/Source/TransformFunctions/arm_cfft_q31.c ****         //vecOffs = vaddq((q31x4_t) vecOffs, 2 * twidIncr);
 542:../Dave/Generated/CMSIS_DSP/Source/TransformFunctions/arm_cfft_q31.c ****         blkCnt--;
 543:../Dave/Generated/CMSIS_DSP/Source/TransformFunctions/arm_cfft_q31.c ****     }
 544:../Dave/Generated/CMSIS_DSP/Source/TransformFunctions/arm_cfft_q31.c **** 
 545:../Dave/Generated/CMSIS_DSP/Source/TransformFunctions/arm_cfft_q31.c ****     _arm_radix4_butterfly_inverse_q31_mve(S, pSrc, n2);
 546:../Dave/Generated/CMSIS_DSP/Source/TransformFunctions/arm_cfft_q31.c **** 
 547:../Dave/Generated/CMSIS_DSP/Source/TransformFunctions/arm_cfft_q31.c ****     _arm_radix4_butterfly_inverse_q31_mve(S, pSrc + fftLen, n2);
 548:../Dave/Generated/CMSIS_DSP/Source/TransformFunctions/arm_cfft_q31.c **** 
 549:../Dave/Generated/CMSIS_DSP/Source/TransformFunctions/arm_cfft_q31.c ****     pIn0 = pSrc;
 550:../Dave/Generated/CMSIS_DSP/Source/TransformFunctions/arm_cfft_q31.c ****     blkCnt = (fftLen << 1) >> 2;
 551:../Dave/Generated/CMSIS_DSP/Source/TransformFunctions/arm_cfft_q31.c ****     while (blkCnt > 0U)
 552:../Dave/Generated/CMSIS_DSP/Source/TransformFunctions/arm_cfft_q31.c ****     {
 553:../Dave/Generated/CMSIS_DSP/Source/TransformFunctions/arm_cfft_q31.c ****         vecIn0 = vld1q_s32(pIn0);
 554:../Dave/Generated/CMSIS_DSP/Source/TransformFunctions/arm_cfft_q31.c ****         vecIn0 = vecIn0 << 1;
 555:../Dave/Generated/CMSIS_DSP/Source/TransformFunctions/arm_cfft_q31.c ****         vst1q(pIn0, vecIn0);
 556:../Dave/Generated/CMSIS_DSP/Source/TransformFunctions/arm_cfft_q31.c ****         pIn0 += 4;
 557:../Dave/Generated/CMSIS_DSP/Source/TransformFunctions/arm_cfft_q31.c ****         blkCnt--;
 558:../Dave/Generated/CMSIS_DSP/Source/TransformFunctions/arm_cfft_q31.c ****     }
 559:../Dave/Generated/CMSIS_DSP/Source/TransformFunctions/arm_cfft_q31.c ****     /*
 560:../Dave/Generated/CMSIS_DSP/Source/TransformFunctions/arm_cfft_q31.c ****      * tail
 561:../Dave/Generated/CMSIS_DSP/Source/TransformFunctions/arm_cfft_q31.c ****      * (will be merged thru tail predication)
 562:../Dave/Generated/CMSIS_DSP/Source/TransformFunctions/arm_cfft_q31.c ****      */
 563:../Dave/Generated/CMSIS_DSP/Source/TransformFunctions/arm_cfft_q31.c ****     blkCnt = (fftLen << 1) & 3;
 564:../Dave/Generated/CMSIS_DSP/Source/TransformFunctions/arm_cfft_q31.c ****     if (blkCnt > 0U)
 565:../Dave/Generated/CMSIS_DSP/Source/TransformFunctions/arm_cfft_q31.c ****     {
 566:../Dave/Generated/CMSIS_DSP/Source/TransformFunctions/arm_cfft_q31.c ****         mve_pred16_t p0 = vctp32q(blkCnt);
 567:../Dave/Generated/CMSIS_DSP/Source/TransformFunctions/arm_cfft_q31.c **** 
 568:../Dave/Generated/CMSIS_DSP/Source/TransformFunctions/arm_cfft_q31.c ****         vecIn0 = vld1q_s32(pIn0);
 569:../Dave/Generated/CMSIS_DSP/Source/TransformFunctions/arm_cfft_q31.c ****         vecIn0 = vecIn0 << 1;
 570:../Dave/Generated/CMSIS_DSP/Source/TransformFunctions/arm_cfft_q31.c ****         vstrwq_p(pIn0, vecIn0, p0);
 571:../Dave/Generated/CMSIS_DSP/Source/TransformFunctions/arm_cfft_q31.c ****     }
 572:../Dave/Generated/CMSIS_DSP/Source/TransformFunctions/arm_cfft_q31.c **** 
 573:../Dave/Generated/CMSIS_DSP/Source/TransformFunctions/arm_cfft_q31.c **** }
 574:../Dave/Generated/CMSIS_DSP/Source/TransformFunctions/arm_cfft_q31.c **** 
 575:../Dave/Generated/CMSIS_DSP/Source/TransformFunctions/arm_cfft_q31.c **** /**
 576:../Dave/Generated/CMSIS_DSP/Source/TransformFunctions/arm_cfft_q31.c ****   @ingroup groupTransforms
 577:../Dave/Generated/CMSIS_DSP/Source/TransformFunctions/arm_cfft_q31.c ****  */
 578:../Dave/Generated/CMSIS_DSP/Source/TransformFunctions/arm_cfft_q31.c **** 
 579:../Dave/Generated/CMSIS_DSP/Source/TransformFunctions/arm_cfft_q31.c **** /**
 580:../Dave/Generated/CMSIS_DSP/Source/TransformFunctions/arm_cfft_q31.c ****   @addtogroup ComplexFFT
 581:../Dave/Generated/CMSIS_DSP/Source/TransformFunctions/arm_cfft_q31.c ****   @{
 582:../Dave/Generated/CMSIS_DSP/Source/TransformFunctions/arm_cfft_q31.c ****  */
 583:../Dave/Generated/CMSIS_DSP/Source/TransformFunctions/arm_cfft_q31.c **** 
 584:../Dave/Generated/CMSIS_DSP/Source/TransformFunctions/arm_cfft_q31.c **** /**
 585:../Dave/Generated/CMSIS_DSP/Source/TransformFunctions/arm_cfft_q31.c ****   @brief         Processing function for the Q31 complex FFT.
 586:../Dave/Generated/CMSIS_DSP/Source/TransformFunctions/arm_cfft_q31.c ****   @param[in]     S               points to an instance of the fixed-point CFFT structure
 587:../Dave/Generated/CMSIS_DSP/Source/TransformFunctions/arm_cfft_q31.c ****   @param[in,out] p1              points to the complex data buffer of size <code>2*fftLen</code>. P
 588:../Dave/Generated/CMSIS_DSP/Source/TransformFunctions/arm_cfft_q31.c ****   @param[in]     ifftFlag       flag that selects transform direction
 589:../Dave/Generated/CMSIS_DSP/Source/TransformFunctions/arm_cfft_q31.c ****                    - value = 0: forward transform
 590:../Dave/Generated/CMSIS_DSP/Source/TransformFunctions/arm_cfft_q31.c ****                    - value = 1: inverse transform
 591:../Dave/Generated/CMSIS_DSP/Source/TransformFunctions/arm_cfft_q31.c ****   @param[in]     bitReverseFlag flag that enables / disables bit reversal of output
 592:../Dave/Generated/CMSIS_DSP/Source/TransformFunctions/arm_cfft_q31.c ****                    - value = 0: disables bit reversal of output
 593:../Dave/Generated/CMSIS_DSP/Source/TransformFunctions/arm_cfft_q31.c ****                    - value = 1: enables bit reversal of output
 594:../Dave/Generated/CMSIS_DSP/Source/TransformFunctions/arm_cfft_q31.c ****   @return        none
 595:../Dave/Generated/CMSIS_DSP/Source/TransformFunctions/arm_cfft_q31.c ****  */
 596:../Dave/Generated/CMSIS_DSP/Source/TransformFunctions/arm_cfft_q31.c **** void arm_cfft_q31(
 597:../Dave/Generated/CMSIS_DSP/Source/TransformFunctions/arm_cfft_q31.c ****   const arm_cfft_instance_q31 * S,
 598:../Dave/Generated/CMSIS_DSP/Source/TransformFunctions/arm_cfft_q31.c ****         q31_t * pSrc,
 599:../Dave/Generated/CMSIS_DSP/Source/TransformFunctions/arm_cfft_q31.c ****         uint8_t ifftFlag,
 600:../Dave/Generated/CMSIS_DSP/Source/TransformFunctions/arm_cfft_q31.c ****         uint8_t bitReverseFlag)
 601:../Dave/Generated/CMSIS_DSP/Source/TransformFunctions/arm_cfft_q31.c **** {                                                                             
 602:../Dave/Generated/CMSIS_DSP/Source/TransformFunctions/arm_cfft_q31.c ****         uint32_t fftLen = S->fftLen;     
 603:../Dave/Generated/CMSIS_DSP/Source/TransformFunctions/arm_cfft_q31.c **** 
 604:../Dave/Generated/CMSIS_DSP/Source/TransformFunctions/arm_cfft_q31.c ****         if (ifftFlag == 1U) {                                                            
 605:../Dave/Generated/CMSIS_DSP/Source/TransformFunctions/arm_cfft_q31.c ****                                                                                          
 606:../Dave/Generated/CMSIS_DSP/Source/TransformFunctions/arm_cfft_q31.c ****             switch (fftLen) {                                                            
 607:../Dave/Generated/CMSIS_DSP/Source/TransformFunctions/arm_cfft_q31.c ****             case 16:                                                                     
 608:../Dave/Generated/CMSIS_DSP/Source/TransformFunctions/arm_cfft_q31.c ****             case 64:                                                                     
 609:../Dave/Generated/CMSIS_DSP/Source/TransformFunctions/arm_cfft_q31.c ****             case 256:                                                                    
 610:../Dave/Generated/CMSIS_DSP/Source/TransformFunctions/arm_cfft_q31.c ****             case 1024:                                                                   
 611:../Dave/Generated/CMSIS_DSP/Source/TransformFunctions/arm_cfft_q31.c ****             case 4096:                                                                   
 612:../Dave/Generated/CMSIS_DSP/Source/TransformFunctions/arm_cfft_q31.c ****                 _arm_radix4_butterfly_inverse_q31_mve(S, pSrc, fftLen); 
 613:../Dave/Generated/CMSIS_DSP/Source/TransformFunctions/arm_cfft_q31.c ****                 break;                                                                   
 614:../Dave/Generated/CMSIS_DSP/Source/TransformFunctions/arm_cfft_q31.c ****                                                                                          
 615:../Dave/Generated/CMSIS_DSP/Source/TransformFunctions/arm_cfft_q31.c ****             case 32:                                                                     
 616:../Dave/Generated/CMSIS_DSP/Source/TransformFunctions/arm_cfft_q31.c ****             case 128:                                                                    
 617:../Dave/Generated/CMSIS_DSP/Source/TransformFunctions/arm_cfft_q31.c ****             case 512:                                                                    
 618:../Dave/Generated/CMSIS_DSP/Source/TransformFunctions/arm_cfft_q31.c ****             case 2048:                                                                   
 619:../Dave/Generated/CMSIS_DSP/Source/TransformFunctions/arm_cfft_q31.c ****                 arm_cfft_radix4by2_inverse_q31_mve(S, pSrc, fftLen);              
 620:../Dave/Generated/CMSIS_DSP/Source/TransformFunctions/arm_cfft_q31.c ****                 break;                                                                   
 621:../Dave/Generated/CMSIS_DSP/Source/TransformFunctions/arm_cfft_q31.c ****             }  
 622:../Dave/Generated/CMSIS_DSP/Source/TransformFunctions/arm_cfft_q31.c ****         } else {                                                                         
 623:../Dave/Generated/CMSIS_DSP/Source/TransformFunctions/arm_cfft_q31.c ****             switch (fftLen) {                                                            
 624:../Dave/Generated/CMSIS_DSP/Source/TransformFunctions/arm_cfft_q31.c ****             case 16:                                                                     
 625:../Dave/Generated/CMSIS_DSP/Source/TransformFunctions/arm_cfft_q31.c ****             case 64:                                                                     
 626:../Dave/Generated/CMSIS_DSP/Source/TransformFunctions/arm_cfft_q31.c ****             case 256:                                                                    
 627:../Dave/Generated/CMSIS_DSP/Source/TransformFunctions/arm_cfft_q31.c ****             case 1024:                                                                   
 628:../Dave/Generated/CMSIS_DSP/Source/TransformFunctions/arm_cfft_q31.c ****             case 4096:    
 629:../Dave/Generated/CMSIS_DSP/Source/TransformFunctions/arm_cfft_q31.c ****                 _arm_radix4_butterfly_q31_mve(S, pSrc, fftLen);         
 630:../Dave/Generated/CMSIS_DSP/Source/TransformFunctions/arm_cfft_q31.c ****                 break;                                                                   
 631:../Dave/Generated/CMSIS_DSP/Source/TransformFunctions/arm_cfft_q31.c ****                                                                                          
 632:../Dave/Generated/CMSIS_DSP/Source/TransformFunctions/arm_cfft_q31.c ****             case 32:                                                                     
 633:../Dave/Generated/CMSIS_DSP/Source/TransformFunctions/arm_cfft_q31.c ****             case 128:                                                                    
 634:../Dave/Generated/CMSIS_DSP/Source/TransformFunctions/arm_cfft_q31.c ****             case 512:                                                                    
 635:../Dave/Generated/CMSIS_DSP/Source/TransformFunctions/arm_cfft_q31.c ****             case 2048:                                                                   
 636:../Dave/Generated/CMSIS_DSP/Source/TransformFunctions/arm_cfft_q31.c ****                 arm_cfft_radix4by2_q31_mve(S, pSrc, fftLen);                      
 637:../Dave/Generated/CMSIS_DSP/Source/TransformFunctions/arm_cfft_q31.c ****                 break;                                                                   
 638:../Dave/Generated/CMSIS_DSP/Source/TransformFunctions/arm_cfft_q31.c ****             }                                                                            
 639:../Dave/Generated/CMSIS_DSP/Source/TransformFunctions/arm_cfft_q31.c ****         }                                                                                
 640:../Dave/Generated/CMSIS_DSP/Source/TransformFunctions/arm_cfft_q31.c ****                                                                                          
 641:../Dave/Generated/CMSIS_DSP/Source/TransformFunctions/arm_cfft_q31.c ****                                                                                          
 642:../Dave/Generated/CMSIS_DSP/Source/TransformFunctions/arm_cfft_q31.c ****         if (bitReverseFlag) 
 643:../Dave/Generated/CMSIS_DSP/Source/TransformFunctions/arm_cfft_q31.c ****         {                                                            
 644:../Dave/Generated/CMSIS_DSP/Source/TransformFunctions/arm_cfft_q31.c ****             
 645:../Dave/Generated/CMSIS_DSP/Source/TransformFunctions/arm_cfft_q31.c ****             arm_bitreversal_32_inpl_mve((uint32_t*)pSrc, S->bitRevLength, S->pBitRevTable);
 646:../Dave/Generated/CMSIS_DSP/Source/TransformFunctions/arm_cfft_q31.c ****        
 647:../Dave/Generated/CMSIS_DSP/Source/TransformFunctions/arm_cfft_q31.c ****         } 
 648:../Dave/Generated/CMSIS_DSP/Source/TransformFunctions/arm_cfft_q31.c **** }
 649:../Dave/Generated/CMSIS_DSP/Source/TransformFunctions/arm_cfft_q31.c **** #else 
 650:../Dave/Generated/CMSIS_DSP/Source/TransformFunctions/arm_cfft_q31.c **** 
 651:../Dave/Generated/CMSIS_DSP/Source/TransformFunctions/arm_cfft_q31.c **** extern void arm_radix4_butterfly_q31(
 652:../Dave/Generated/CMSIS_DSP/Source/TransformFunctions/arm_cfft_q31.c ****         q31_t * pSrc,
 653:../Dave/Generated/CMSIS_DSP/Source/TransformFunctions/arm_cfft_q31.c ****         uint32_t fftLen,
 654:../Dave/Generated/CMSIS_DSP/Source/TransformFunctions/arm_cfft_q31.c ****   const q31_t * pCoef,
 655:../Dave/Generated/CMSIS_DSP/Source/TransformFunctions/arm_cfft_q31.c ****         uint32_t twidCoefModifier);
 656:../Dave/Generated/CMSIS_DSP/Source/TransformFunctions/arm_cfft_q31.c **** 
 657:../Dave/Generated/CMSIS_DSP/Source/TransformFunctions/arm_cfft_q31.c **** extern void arm_radix4_butterfly_inverse_q31(
 658:../Dave/Generated/CMSIS_DSP/Source/TransformFunctions/arm_cfft_q31.c ****         q31_t * pSrc,
 659:../Dave/Generated/CMSIS_DSP/Source/TransformFunctions/arm_cfft_q31.c ****         uint32_t fftLen,
 660:../Dave/Generated/CMSIS_DSP/Source/TransformFunctions/arm_cfft_q31.c ****   const q31_t * pCoef,
 661:../Dave/Generated/CMSIS_DSP/Source/TransformFunctions/arm_cfft_q31.c ****         uint32_t twidCoefModifier);
 662:../Dave/Generated/CMSIS_DSP/Source/TransformFunctions/arm_cfft_q31.c **** 
 663:../Dave/Generated/CMSIS_DSP/Source/TransformFunctions/arm_cfft_q31.c **** extern void arm_bitreversal_32(
 664:../Dave/Generated/CMSIS_DSP/Source/TransformFunctions/arm_cfft_q31.c ****         uint32_t * pSrc,
 665:../Dave/Generated/CMSIS_DSP/Source/TransformFunctions/arm_cfft_q31.c ****   const uint16_t bitRevLen,
 666:../Dave/Generated/CMSIS_DSP/Source/TransformFunctions/arm_cfft_q31.c ****   const uint16_t * pBitRevTable);
 667:../Dave/Generated/CMSIS_DSP/Source/TransformFunctions/arm_cfft_q31.c **** 
 668:../Dave/Generated/CMSIS_DSP/Source/TransformFunctions/arm_cfft_q31.c **** void arm_cfft_radix4by2_q31(
 669:../Dave/Generated/CMSIS_DSP/Source/TransformFunctions/arm_cfft_q31.c ****         q31_t * pSrc,
 670:../Dave/Generated/CMSIS_DSP/Source/TransformFunctions/arm_cfft_q31.c ****         uint32_t fftLen,
 671:../Dave/Generated/CMSIS_DSP/Source/TransformFunctions/arm_cfft_q31.c ****   const q31_t * pCoef);
 672:../Dave/Generated/CMSIS_DSP/Source/TransformFunctions/arm_cfft_q31.c **** 
 673:../Dave/Generated/CMSIS_DSP/Source/TransformFunctions/arm_cfft_q31.c **** void arm_cfft_radix4by2_inverse_q31(
 674:../Dave/Generated/CMSIS_DSP/Source/TransformFunctions/arm_cfft_q31.c ****         q31_t * pSrc,
 675:../Dave/Generated/CMSIS_DSP/Source/TransformFunctions/arm_cfft_q31.c ****         uint32_t fftLen,
 676:../Dave/Generated/CMSIS_DSP/Source/TransformFunctions/arm_cfft_q31.c ****   const q31_t * pCoef);
 677:../Dave/Generated/CMSIS_DSP/Source/TransformFunctions/arm_cfft_q31.c **** 
 678:../Dave/Generated/CMSIS_DSP/Source/TransformFunctions/arm_cfft_q31.c **** 
 679:../Dave/Generated/CMSIS_DSP/Source/TransformFunctions/arm_cfft_q31.c **** /**
 680:../Dave/Generated/CMSIS_DSP/Source/TransformFunctions/arm_cfft_q31.c ****   @ingroup groupTransforms
 681:../Dave/Generated/CMSIS_DSP/Source/TransformFunctions/arm_cfft_q31.c ****  */
 682:../Dave/Generated/CMSIS_DSP/Source/TransformFunctions/arm_cfft_q31.c **** 
 683:../Dave/Generated/CMSIS_DSP/Source/TransformFunctions/arm_cfft_q31.c **** /**
 684:../Dave/Generated/CMSIS_DSP/Source/TransformFunctions/arm_cfft_q31.c ****   @addtogroup ComplexFFT
 685:../Dave/Generated/CMSIS_DSP/Source/TransformFunctions/arm_cfft_q31.c ****   @{
 686:../Dave/Generated/CMSIS_DSP/Source/TransformFunctions/arm_cfft_q31.c ****  */
 687:../Dave/Generated/CMSIS_DSP/Source/TransformFunctions/arm_cfft_q31.c **** 
 688:../Dave/Generated/CMSIS_DSP/Source/TransformFunctions/arm_cfft_q31.c **** /**
 689:../Dave/Generated/CMSIS_DSP/Source/TransformFunctions/arm_cfft_q31.c ****   @brief         Processing function for the Q31 complex FFT.
 690:../Dave/Generated/CMSIS_DSP/Source/TransformFunctions/arm_cfft_q31.c ****   @param[in]     S               points to an instance of the fixed-point CFFT structure
 691:../Dave/Generated/CMSIS_DSP/Source/TransformFunctions/arm_cfft_q31.c ****   @param[in,out] p1              points to the complex data buffer of size <code>2*fftLen</code>. P
 692:../Dave/Generated/CMSIS_DSP/Source/TransformFunctions/arm_cfft_q31.c ****   @param[in]     ifftFlag       flag that selects transform direction
 693:../Dave/Generated/CMSIS_DSP/Source/TransformFunctions/arm_cfft_q31.c ****                    - value = 0: forward transform
 694:../Dave/Generated/CMSIS_DSP/Source/TransformFunctions/arm_cfft_q31.c ****                    - value = 1: inverse transform
 695:../Dave/Generated/CMSIS_DSP/Source/TransformFunctions/arm_cfft_q31.c ****   @param[in]     bitReverseFlag flag that enables / disables bit reversal of output
 696:../Dave/Generated/CMSIS_DSP/Source/TransformFunctions/arm_cfft_q31.c ****                    - value = 0: disables bit reversal of output
 697:../Dave/Generated/CMSIS_DSP/Source/TransformFunctions/arm_cfft_q31.c ****                    - value = 1: enables bit reversal of output
 698:../Dave/Generated/CMSIS_DSP/Source/TransformFunctions/arm_cfft_q31.c ****   @return        none
 699:../Dave/Generated/CMSIS_DSP/Source/TransformFunctions/arm_cfft_q31.c ****  */
 700:../Dave/Generated/CMSIS_DSP/Source/TransformFunctions/arm_cfft_q31.c **** void arm_cfft_q31(
 701:../Dave/Generated/CMSIS_DSP/Source/TransformFunctions/arm_cfft_q31.c ****   const arm_cfft_instance_q31 * S,
 702:../Dave/Generated/CMSIS_DSP/Source/TransformFunctions/arm_cfft_q31.c ****         q31_t * p1,
 703:../Dave/Generated/CMSIS_DSP/Source/TransformFunctions/arm_cfft_q31.c ****         uint8_t ifftFlag,
 704:../Dave/Generated/CMSIS_DSP/Source/TransformFunctions/arm_cfft_q31.c ****         uint8_t bitReverseFlag)
 705:../Dave/Generated/CMSIS_DSP/Source/TransformFunctions/arm_cfft_q31.c **** {
  28              	 .loc 1 705 0
  29              	 .cfi_startproc
  30              	 
  31              	 
  32 0000 80B5     	 push {r7,lr}
  33              	.LCFI0:
  34              	 .cfi_def_cfa_offset 8
  35              	 .cfi_offset 7,-8
  36              	 .cfi_offset 14,-4
  37 0002 86B0     	 sub sp,sp,#24
  38              	.LCFI1:
  39              	 .cfi_def_cfa_offset 32
  40 0004 00AF     	 add r7,sp,#0
  41              	.LCFI2:
  42              	 .cfi_def_cfa_register 7
  43 0006 F860     	 str r0,[r7,#12]
  44 0008 B960     	 str r1,[r7,#8]
  45 000a 1146     	 mov r1,r2
  46 000c 1A46     	 mov r2,r3
  47 000e 0B46     	 mov r3,r1
  48 0010 FB71     	 strb r3,[r7,#7]
  49 0012 1346     	 mov r3,r2
  50 0014 BB71     	 strb r3,[r7,#6]
 706:../Dave/Generated/CMSIS_DSP/Source/TransformFunctions/arm_cfft_q31.c ****   uint32_t L = S->fftLen;
  51              	 .loc 1 706 0
  52 0016 FB68     	 ldr r3,[r7,#12]
  53 0018 1B88     	 ldrh r3,[r3]
  54 001a 7B61     	 str r3,[r7,#20]
 707:../Dave/Generated/CMSIS_DSP/Source/TransformFunctions/arm_cfft_q31.c **** 
 708:../Dave/Generated/CMSIS_DSP/Source/TransformFunctions/arm_cfft_q31.c ****   if (ifftFlag == 1U)
  55              	 .loc 1 708 0
  56 001c FB79     	 ldrb r3,[r7,#7]
  57 001e 012B     	 cmp r3,#1
  58 0020 35D1     	 bne .L2
 709:../Dave/Generated/CMSIS_DSP/Source/TransformFunctions/arm_cfft_q31.c ****   {
 710:../Dave/Generated/CMSIS_DSP/Source/TransformFunctions/arm_cfft_q31.c ****      switch (L)
  59              	 .loc 1 710 0
  60 0022 7B69     	 ldr r3,[r7,#20]
  61 0024 B3F5807F 	 cmp r3,#256
  62 0028 1FD0     	 beq .L4
  63 002a B3F5807F 	 cmp r3,#256
  64 002e 0BD8     	 bhi .L5
  65 0030 202B     	 cmp r3,#32
  66 0032 23D0     	 beq .L6
  67 0034 202B     	 cmp r3,#32
  68 0036 02D8     	 bhi .L7
  69 0038 102B     	 cmp r3,#16
  70 003a 16D0     	 beq .L4
  71 003c 5BE0     	 b .L9
  72              	.L7:
  73 003e 402B     	 cmp r3,#64
  74 0040 13D0     	 beq .L4
  75 0042 802B     	 cmp r3,#128
  76 0044 1AD0     	 beq .L6
  77 0046 56E0     	 b .L9
  78              	.L5:
  79 0048 B3F5806F 	 cmp r3,#1024
  80 004c 0DD0     	 beq .L4
  81 004e B3F5806F 	 cmp r3,#1024
  82 0052 03D8     	 bhi .L8
  83 0054 B3F5007F 	 cmp r3,#512
  84 0058 10D0     	 beq .L6
  85 005a 4CE0     	 b .L9
  86              	.L8:
  87 005c B3F5006F 	 cmp r3,#2048
  88 0060 0CD0     	 beq .L6
  89 0062 B3F5805F 	 cmp r3,#4096
  90 0066 00D0     	 beq .L4
  91 0068 45E0     	 b .L9
  92              	.L4:
 711:../Dave/Generated/CMSIS_DSP/Source/TransformFunctions/arm_cfft_q31.c ****      {
 712:../Dave/Generated/CMSIS_DSP/Source/TransformFunctions/arm_cfft_q31.c ****      case 16:
 713:../Dave/Generated/CMSIS_DSP/Source/TransformFunctions/arm_cfft_q31.c ****      case 64:
 714:../Dave/Generated/CMSIS_DSP/Source/TransformFunctions/arm_cfft_q31.c ****      case 256:
 715:../Dave/Generated/CMSIS_DSP/Source/TransformFunctions/arm_cfft_q31.c ****      case 1024:
 716:../Dave/Generated/CMSIS_DSP/Source/TransformFunctions/arm_cfft_q31.c ****      case 4096:
 717:../Dave/Generated/CMSIS_DSP/Source/TransformFunctions/arm_cfft_q31.c ****        arm_radix4_butterfly_inverse_q31 ( p1, L, (q31_t*)S->pTwiddle, 1 );
  93              	 .loc 1 717 0
  94 006a FB68     	 ldr r3,[r7,#12]
  95 006c 5B68     	 ldr r3,[r3,#4]
  96 006e B868     	 ldr r0,[r7,#8]
  97 0070 7969     	 ldr r1,[r7,#20]
  98 0072 1A46     	 mov r2,r3
  99 0074 0123     	 movs r3,#1
 100 0076 FFF7FEFF 	 bl arm_radix4_butterfly_inverse_q31
 718:../Dave/Generated/CMSIS_DSP/Source/TransformFunctions/arm_cfft_q31.c ****        break;
 101              	 .loc 1 718 0
 102 007a 07E0     	 b .L3
 103              	.L6:
 719:../Dave/Generated/CMSIS_DSP/Source/TransformFunctions/arm_cfft_q31.c **** 
 720:../Dave/Generated/CMSIS_DSP/Source/TransformFunctions/arm_cfft_q31.c ****      case 32:
 721:../Dave/Generated/CMSIS_DSP/Source/TransformFunctions/arm_cfft_q31.c ****      case 128:
 722:../Dave/Generated/CMSIS_DSP/Source/TransformFunctions/arm_cfft_q31.c ****      case 512:
 723:../Dave/Generated/CMSIS_DSP/Source/TransformFunctions/arm_cfft_q31.c ****      case 2048:
 724:../Dave/Generated/CMSIS_DSP/Source/TransformFunctions/arm_cfft_q31.c ****        arm_cfft_radix4by2_inverse_q31 ( p1, L, S->pTwiddle );
 104              	 .loc 1 724 0
 105 007c FB68     	 ldr r3,[r7,#12]
 106 007e 5B68     	 ldr r3,[r3,#4]
 107 0080 B868     	 ldr r0,[r7,#8]
 108 0082 7969     	 ldr r1,[r7,#20]
 109 0084 1A46     	 mov r2,r3
 110 0086 FFF7FEFF 	 bl arm_cfft_radix4by2_inverse_q31
 725:../Dave/Generated/CMSIS_DSP/Source/TransformFunctions/arm_cfft_q31.c ****        break;
 111              	 .loc 1 725 0
 112 008a 00BF     	 nop
 113              	.L3:
 114 008c 33E0     	 b .L9
 115              	.L2:
 726:../Dave/Generated/CMSIS_DSP/Source/TransformFunctions/arm_cfft_q31.c ****      }
 727:../Dave/Generated/CMSIS_DSP/Source/TransformFunctions/arm_cfft_q31.c ****   }
 728:../Dave/Generated/CMSIS_DSP/Source/TransformFunctions/arm_cfft_q31.c ****   else
 729:../Dave/Generated/CMSIS_DSP/Source/TransformFunctions/arm_cfft_q31.c ****   {
 730:../Dave/Generated/CMSIS_DSP/Source/TransformFunctions/arm_cfft_q31.c ****      switch (L)
 116              	 .loc 1 730 0
 117 008e 7B69     	 ldr r3,[r7,#20]
 118 0090 B3F5807F 	 cmp r3,#256
 119 0094 1ED0     	 beq .L10
 120 0096 B3F5807F 	 cmp r3,#256
 121 009a 0BD8     	 bhi .L11
 122 009c 202B     	 cmp r3,#32
 123 009e 22D0     	 beq .L12
 124 00a0 202B     	 cmp r3,#32
 125 00a2 02D8     	 bhi .L13
 126 00a4 102B     	 cmp r3,#16
 127 00a6 15D0     	 beq .L10
 128 00a8 25E0     	 b .L9
 129              	.L13:
 130 00aa 402B     	 cmp r3,#64
 131 00ac 12D0     	 beq .L10
 132 00ae 802B     	 cmp r3,#128
 133 00b0 19D0     	 beq .L12
 134 00b2 20E0     	 b .L9
 135              	.L11:
 136 00b4 B3F5806F 	 cmp r3,#1024
 137 00b8 0CD0     	 beq .L10
 138 00ba B3F5806F 	 cmp r3,#1024
 139 00be 03D8     	 bhi .L14
 140 00c0 B3F5007F 	 cmp r3,#512
 141 00c4 0FD0     	 beq .L12
 142 00c6 16E0     	 b .L9
 143              	.L14:
 144 00c8 B3F5006F 	 cmp r3,#2048
 145 00cc 0BD0     	 beq .L12
 146 00ce B3F5805F 	 cmp r3,#4096
 147 00d2 10D1     	 bne .L9
 148              	.L10:
 731:../Dave/Generated/CMSIS_DSP/Source/TransformFunctions/arm_cfft_q31.c ****      {
 732:../Dave/Generated/CMSIS_DSP/Source/TransformFunctions/arm_cfft_q31.c ****      case 16:
 733:../Dave/Generated/CMSIS_DSP/Source/TransformFunctions/arm_cfft_q31.c ****      case 64:
 734:../Dave/Generated/CMSIS_DSP/Source/TransformFunctions/arm_cfft_q31.c ****      case 256:
 735:../Dave/Generated/CMSIS_DSP/Source/TransformFunctions/arm_cfft_q31.c ****      case 1024:
 736:../Dave/Generated/CMSIS_DSP/Source/TransformFunctions/arm_cfft_q31.c ****      case 4096:
 737:../Dave/Generated/CMSIS_DSP/Source/TransformFunctions/arm_cfft_q31.c ****        arm_radix4_butterfly_q31 ( p1, L, (q31_t*)S->pTwiddle, 1 );
 149              	 .loc 1 737 0
 150 00d4 FB68     	 ldr r3,[r7,#12]
 151 00d6 5B68     	 ldr r3,[r3,#4]
 152 00d8 B868     	 ldr r0,[r7,#8]
 153 00da 7969     	 ldr r1,[r7,#20]
 154 00dc 1A46     	 mov r2,r3
 155 00de 0123     	 movs r3,#1
 156 00e0 FFF7FEFF 	 bl arm_radix4_butterfly_q31
 738:../Dave/Generated/CMSIS_DSP/Source/TransformFunctions/arm_cfft_q31.c ****        break;
 157              	 .loc 1 738 0
 158 00e4 07E0     	 b .L9
 159              	.L12:
 739:../Dave/Generated/CMSIS_DSP/Source/TransformFunctions/arm_cfft_q31.c **** 
 740:../Dave/Generated/CMSIS_DSP/Source/TransformFunctions/arm_cfft_q31.c ****      case 32:
 741:../Dave/Generated/CMSIS_DSP/Source/TransformFunctions/arm_cfft_q31.c ****      case 128:
 742:../Dave/Generated/CMSIS_DSP/Source/TransformFunctions/arm_cfft_q31.c ****      case 512:
 743:../Dave/Generated/CMSIS_DSP/Source/TransformFunctions/arm_cfft_q31.c ****      case 2048:
 744:../Dave/Generated/CMSIS_DSP/Source/TransformFunctions/arm_cfft_q31.c ****        arm_cfft_radix4by2_q31 ( p1, L, S->pTwiddle );
 160              	 .loc 1 744 0
 161 00e6 FB68     	 ldr r3,[r7,#12]
 162 00e8 5B68     	 ldr r3,[r3,#4]
 163 00ea B868     	 ldr r0,[r7,#8]
 164 00ec 7969     	 ldr r1,[r7,#20]
 165 00ee 1A46     	 mov r2,r3
 166 00f0 FFF7FEFF 	 bl arm_cfft_radix4by2_q31
 745:../Dave/Generated/CMSIS_DSP/Source/TransformFunctions/arm_cfft_q31.c ****        break;
 167              	 .loc 1 745 0
 168 00f4 00BF     	 nop
 169              	.L9:
 746:../Dave/Generated/CMSIS_DSP/Source/TransformFunctions/arm_cfft_q31.c ****      }
 747:../Dave/Generated/CMSIS_DSP/Source/TransformFunctions/arm_cfft_q31.c ****   }
 748:../Dave/Generated/CMSIS_DSP/Source/TransformFunctions/arm_cfft_q31.c **** 
 749:../Dave/Generated/CMSIS_DSP/Source/TransformFunctions/arm_cfft_q31.c ****   if ( bitReverseFlag )
 170              	 .loc 1 749 0
 171 00f6 BB79     	 ldrb r3,[r7,#6]
 172 00f8 002B     	 cmp r3,#0
 173 00fa 08D0     	 beq .L1
 750:../Dave/Generated/CMSIS_DSP/Source/TransformFunctions/arm_cfft_q31.c ****     arm_bitreversal_32 ((uint32_t*) p1, S->bitRevLength, S->pBitRevTable);
 174              	 .loc 1 750 0
 175 00fc FB68     	 ldr r3,[r7,#12]
 176 00fe 9A89     	 ldrh r2,[r3,#12]
 177 0100 FB68     	 ldr r3,[r7,#12]
 178 0102 9B68     	 ldr r3,[r3,#8]
 179 0104 B868     	 ldr r0,[r7,#8]
 180 0106 1146     	 mov r1,r2
 181 0108 1A46     	 mov r2,r3
 182 010a FFF7FEFF 	 bl arm_bitreversal_32
 183              	.L1:
 751:../Dave/Generated/CMSIS_DSP/Source/TransformFunctions/arm_cfft_q31.c **** }
 184              	 .loc 1 751 0
 185 010e 1837     	 adds r7,r7,#24
 186              	.LCFI3:
 187              	 .cfi_def_cfa_offset 8
 188 0110 BD46     	 mov sp,r7
 189              	.LCFI4:
 190              	 .cfi_def_cfa_register 13
 191              	 
 192 0112 80BD     	 pop {r7,pc}
 193              	 .cfi_endproc
 194              	.LFE149:
 196              	 .section .text.arm_cfft_radix4by2_q31,"ax",%progbits
 197              	 .align 2
 198              	 .global arm_cfft_radix4by2_q31
 199              	 .thumb
 200              	 .thumb_func
 202              	arm_cfft_radix4by2_q31:
 203              	.LFB150:
 752:../Dave/Generated/CMSIS_DSP/Source/TransformFunctions/arm_cfft_q31.c **** 
 753:../Dave/Generated/CMSIS_DSP/Source/TransformFunctions/arm_cfft_q31.c **** /**
 754:../Dave/Generated/CMSIS_DSP/Source/TransformFunctions/arm_cfft_q31.c ****   @} end of ComplexFFT group
 755:../Dave/Generated/CMSIS_DSP/Source/TransformFunctions/arm_cfft_q31.c ****  */
 756:../Dave/Generated/CMSIS_DSP/Source/TransformFunctions/arm_cfft_q31.c **** 
 757:../Dave/Generated/CMSIS_DSP/Source/TransformFunctions/arm_cfft_q31.c **** void arm_cfft_radix4by2_q31(
 758:../Dave/Generated/CMSIS_DSP/Source/TransformFunctions/arm_cfft_q31.c ****         q31_t * pSrc,
 759:../Dave/Generated/CMSIS_DSP/Source/TransformFunctions/arm_cfft_q31.c ****         uint32_t fftLen,
 760:../Dave/Generated/CMSIS_DSP/Source/TransformFunctions/arm_cfft_q31.c ****   const q31_t * pCoef)
 761:../Dave/Generated/CMSIS_DSP/Source/TransformFunctions/arm_cfft_q31.c **** {
 204              	 .loc 1 761 0
 205              	 .cfi_startproc
 206              	 
 207              	 
 208 0000 2DE9B04F 	 push {r4,r5,r7,r8,r9,r10,fp,lr}
 209              	.LCFI5:
 210              	 .cfi_def_cfa_offset 32
 211              	 .cfi_offset 4,-32
 212              	 .cfi_offset 5,-28
 213              	 .cfi_offset 7,-24
 214              	 .cfi_offset 8,-20
 215              	 .cfi_offset 9,-16
 216              	 .cfi_offset 10,-12
 217              	 .cfi_offset 11,-8
 218              	 .cfi_offset 14,-4
 219 0004 96B0     	 sub sp,sp,#88
 220              	.LCFI6:
 221              	 .cfi_def_cfa_offset 120
 222 0006 00AF     	 add r7,sp,#0
 223              	.LCFI7:
 224              	 .cfi_def_cfa_register 7
 225 0008 F862     	 str r0,[r7,#44]
 226 000a B962     	 str r1,[r7,#40]
 227 000c 7A62     	 str r2,[r7,#36]
 762:../Dave/Generated/CMSIS_DSP/Source/TransformFunctions/arm_cfft_q31.c ****         uint32_t i, l;
 763:../Dave/Generated/CMSIS_DSP/Source/TransformFunctions/arm_cfft_q31.c ****         uint32_t n2;
 764:../Dave/Generated/CMSIS_DSP/Source/TransformFunctions/arm_cfft_q31.c ****         q31_t xt, yt, cosVal, sinVal;
 765:../Dave/Generated/CMSIS_DSP/Source/TransformFunctions/arm_cfft_q31.c ****         q31_t p0, p1;
 766:../Dave/Generated/CMSIS_DSP/Source/TransformFunctions/arm_cfft_q31.c **** 
 767:../Dave/Generated/CMSIS_DSP/Source/TransformFunctions/arm_cfft_q31.c ****   n2 = fftLen >> 1U;
 228              	 .loc 1 767 0
 229 000e BB6A     	 ldr r3,[r7,#40]
 230 0010 5B08     	 lsrs r3,r3,#1
 231 0012 3B65     	 str r3,[r7,#80]
 768:../Dave/Generated/CMSIS_DSP/Source/TransformFunctions/arm_cfft_q31.c ****   for (i = 0; i < n2; i++)
 232              	 .loc 1 768 0
 233 0014 0023     	 movs r3,#0
 234 0016 7B65     	 str r3,[r7,#84]
 235 0018 E9E0     	 b .L17
 236              	.L18:
 769:../Dave/Generated/CMSIS_DSP/Source/TransformFunctions/arm_cfft_q31.c ****   {
 770:../Dave/Generated/CMSIS_DSP/Source/TransformFunctions/arm_cfft_q31.c ****      cosVal = pCoef[2 * i];
 237              	 .loc 1 770 0 discriminator 3
 238 001a 7B6D     	 ldr r3,[r7,#84]
 239 001c DB00     	 lsls r3,r3,#3
 240 001e 7A6A     	 ldr r2,[r7,#36]
 241 0020 1344     	 add r3,r3,r2
 242 0022 1B68     	 ldr r3,[r3]
 243 0024 FB64     	 str r3,[r7,#76]
 771:../Dave/Generated/CMSIS_DSP/Source/TransformFunctions/arm_cfft_q31.c ****      sinVal = pCoef[2 * i + 1];
 244              	 .loc 1 771 0 discriminator 3
 245 0026 7B6D     	 ldr r3,[r7,#84]
 246 0028 DB00     	 lsls r3,r3,#3
 247 002a 0433     	 adds r3,r3,#4
 248 002c 7A6A     	 ldr r2,[r7,#36]
 249 002e 1344     	 add r3,r3,r2
 250 0030 1B68     	 ldr r3,[r3]
 251 0032 BB64     	 str r3,[r7,#72]
 772:../Dave/Generated/CMSIS_DSP/Source/TransformFunctions/arm_cfft_q31.c **** 
 773:../Dave/Generated/CMSIS_DSP/Source/TransformFunctions/arm_cfft_q31.c ****      l = i + n2;
 252              	 .loc 1 773 0 discriminator 3
 253 0034 7A6D     	 ldr r2,[r7,#84]
 254 0036 3B6D     	 ldr r3,[r7,#80]
 255 0038 1344     	 add r3,r3,r2
 256 003a 7B64     	 str r3,[r7,#68]
 774:../Dave/Generated/CMSIS_DSP/Source/TransformFunctions/arm_cfft_q31.c **** 
 775:../Dave/Generated/CMSIS_DSP/Source/TransformFunctions/arm_cfft_q31.c ****      xt =          (pSrc[2 * i] >> 2U) - (pSrc[2 * l] >> 2U);
 257              	 .loc 1 775 0 discriminator 3
 258 003c 7B6D     	 ldr r3,[r7,#84]
 259 003e DB00     	 lsls r3,r3,#3
 260 0040 FA6A     	 ldr r2,[r7,#44]
 261 0042 1344     	 add r3,r3,r2
 262 0044 1B68     	 ldr r3,[r3]
 263 0046 9910     	 asrs r1,r3,#2
 264 0048 7B6C     	 ldr r3,[r7,#68]
 265 004a DA00     	 lsls r2,r3,#3
 266 004c FB6A     	 ldr r3,[r7,#44]
 267 004e 1344     	 add r3,r3,r2
 268 0050 1B68     	 ldr r3,[r3]
 269 0052 9B10     	 asrs r3,r3,#2
 270 0054 CB1A     	 subs r3,r1,r3
 271 0056 3B64     	 str r3,[r7,#64]
 776:../Dave/Generated/CMSIS_DSP/Source/TransformFunctions/arm_cfft_q31.c ****      pSrc[2 * i] = (pSrc[2 * i] >> 2U) + (pSrc[2 * l] >> 2U);
 272              	 .loc 1 776 0 discriminator 3
 273 0058 7B6D     	 ldr r3,[r7,#84]
 274 005a DB00     	 lsls r3,r3,#3
 275 005c FA6A     	 ldr r2,[r7,#44]
 276 005e D018     	 adds r0,r2,r3
 277 0060 7B6D     	 ldr r3,[r7,#84]
 278 0062 DA00     	 lsls r2,r3,#3
 279 0064 FB6A     	 ldr r3,[r7,#44]
 280 0066 1344     	 add r3,r3,r2
 281 0068 1B68     	 ldr r3,[r3]
 282 006a 9910     	 asrs r1,r3,#2
 283 006c 7B6C     	 ldr r3,[r7,#68]
 284 006e DA00     	 lsls r2,r3,#3
 285 0070 FB6A     	 ldr r3,[r7,#44]
 286 0072 1344     	 add r3,r3,r2
 287 0074 1B68     	 ldr r3,[r3]
 288 0076 9B10     	 asrs r3,r3,#2
 289 0078 0B44     	 add r3,r3,r1
 290 007a 0360     	 str r3,[r0]
 777:../Dave/Generated/CMSIS_DSP/Source/TransformFunctions/arm_cfft_q31.c **** 
 778:../Dave/Generated/CMSIS_DSP/Source/TransformFunctions/arm_cfft_q31.c ****      yt =              (pSrc[2 * i + 1] >> 2U) - (pSrc[2 * l + 1] >> 2U);
 291              	 .loc 1 778 0 discriminator 3
 292 007c 7B6D     	 ldr r3,[r7,#84]
 293 007e DB00     	 lsls r3,r3,#3
 294 0080 0433     	 adds r3,r3,#4
 295 0082 FA6A     	 ldr r2,[r7,#44]
 296 0084 1344     	 add r3,r3,r2
 297 0086 1B68     	 ldr r3,[r3]
 298 0088 9910     	 asrs r1,r3,#2
 299 008a 7B6C     	 ldr r3,[r7,#68]
 300 008c DB00     	 lsls r3,r3,#3
 301 008e 1A1D     	 adds r2,r3,#4
 302 0090 FB6A     	 ldr r3,[r7,#44]
 303 0092 1344     	 add r3,r3,r2
 304 0094 1B68     	 ldr r3,[r3]
 305 0096 9B10     	 asrs r3,r3,#2
 306 0098 CB1A     	 subs r3,r1,r3
 307 009a FB63     	 str r3,[r7,#60]
 779:../Dave/Generated/CMSIS_DSP/Source/TransformFunctions/arm_cfft_q31.c ****      pSrc[2 * i + 1] = (pSrc[2 * l + 1] >> 2U) + (pSrc[2 * i + 1] >> 2U);
 308              	 .loc 1 779 0 discriminator 3
 309 009c 7B6D     	 ldr r3,[r7,#84]
 310 009e DB00     	 lsls r3,r3,#3
 311 00a0 0433     	 adds r3,r3,#4
 312 00a2 FA6A     	 ldr r2,[r7,#44]
 313 00a4 D018     	 adds r0,r2,r3
 314 00a6 7B6C     	 ldr r3,[r7,#68]
 315 00a8 DB00     	 lsls r3,r3,#3
 316 00aa 1A1D     	 adds r2,r3,#4
 317 00ac FB6A     	 ldr r3,[r7,#44]
 318 00ae 1344     	 add r3,r3,r2
 319 00b0 1B68     	 ldr r3,[r3]
 320 00b2 9910     	 asrs r1,r3,#2
 321 00b4 7B6D     	 ldr r3,[r7,#84]
 322 00b6 DB00     	 lsls r3,r3,#3
 323 00b8 1A1D     	 adds r2,r3,#4
 324 00ba FB6A     	 ldr r3,[r7,#44]
 325 00bc 1344     	 add r3,r3,r2
 326 00be 1B68     	 ldr r3,[r3]
 327 00c0 9B10     	 asrs r3,r3,#2
 328 00c2 0B44     	 add r3,r3,r1
 329 00c4 0360     	 str r3,[r0]
 780:../Dave/Generated/CMSIS_DSP/Source/TransformFunctions/arm_cfft_q31.c **** 
 781:../Dave/Generated/CMSIS_DSP/Source/TransformFunctions/arm_cfft_q31.c ****      mult_32x32_keep32_R(p0, xt, cosVal);
 330              	 .loc 1 781 0 discriminator 3
 331 00c6 3B6C     	 ldr r3,[r7,#64]
 332 00c8 1846     	 mov r0,r3
 333 00ca 4FEAE071 	 asr r1,r0,#31
 334 00ce FB6C     	 ldr r3,[r7,#76]
 335 00d0 1A46     	 mov r2,r3
 336 00d2 4FEAE273 	 asr r3,r2,#31
 337 00d6 02FB01F5 	 mul r5,r2,r1
 338 00da 00FB03F4 	 mul r4,r0,r3
 339 00de 2C44     	 add r4,r4,r5
 340 00e0 A0FB0223 	 umull r2,r3,r0,r2
 341 00e4 E118     	 adds r1,r4,r3
 342 00e6 0B46     	 mov r3,r1
 343 00e8 12F10042 	 adds r2,r2,#-2147483648
 344 00ec 43F10003 	 adc r3,r3,#0
 345 00f0 1900     	 movs r1,r3
 346 00f2 B961     	 str r1,[r7,#24]
 347 00f4 DB17     	 asrs r3,r3,#31
 348 00f6 FB61     	 str r3,[r7,#28]
 349 00f8 BB69     	 ldr r3,[r7,#24]
 350 00fa BB63     	 str r3,[r7,#56]
 782:../Dave/Generated/CMSIS_DSP/Source/TransformFunctions/arm_cfft_q31.c ****      mult_32x32_keep32_R(p1, yt, cosVal);
 351              	 .loc 1 782 0 discriminator 3
 352 00fc FB6B     	 ldr r3,[r7,#60]
 353 00fe 1846     	 mov r0,r3
 354 0100 4FEAE071 	 asr r1,r0,#31
 355 0104 FB6C     	 ldr r3,[r7,#76]
 356 0106 1A46     	 mov r2,r3
 357 0108 4FEAE273 	 asr r3,r2,#31
 358 010c 02FB01F5 	 mul r5,r2,r1
 359 0110 00FB03F4 	 mul r4,r0,r3
 360 0114 2C44     	 add r4,r4,r5
 361 0116 A0FB0223 	 umull r2,r3,r0,r2
 362 011a E118     	 adds r1,r4,r3
 363 011c 0B46     	 mov r3,r1
 364 011e 12F10042 	 adds r2,r2,#-2147483648
 365 0122 43F10003 	 adc r3,r3,#0
 366 0126 1900     	 movs r1,r3
 367 0128 3961     	 str r1,[r7,#16]
 368 012a DB17     	 asrs r3,r3,#31
 369 012c 7B61     	 str r3,[r7,#20]
 370 012e 3B69     	 ldr r3,[r7,#16]
 371 0130 7B63     	 str r3,[r7,#52]
 783:../Dave/Generated/CMSIS_DSP/Source/TransformFunctions/arm_cfft_q31.c ****      multAcc_32x32_keep32_R(p0, yt, sinVal);
 372              	 .loc 1 783 0 discriminator 3
 373 0132 BB6B     	 ldr r3,[r7,#56]
 374 0134 1A46     	 mov r2,r3
 375 0136 4FEAE273 	 asr r3,r2,#31
 376 013a 9146     	 mov r9,r2
 377 013c 4FF00008 	 mov r8,#0
 378 0140 FB6B     	 ldr r3,[r7,#60]
 379 0142 1846     	 mov r0,r3
 380 0144 4FEAE071 	 asr r1,r0,#31
 381 0148 BB6C     	 ldr r3,[r7,#72]
 382 014a 1A46     	 mov r2,r3
 383 014c 4FEAE273 	 asr r3,r2,#31
 384 0150 02FB01F5 	 mul r5,r2,r1
 385 0154 00FB03F4 	 mul r4,r0,r3
 386 0158 2C44     	 add r4,r4,r5
 387 015a A0FB0223 	 umull r2,r3,r0,r2
 388 015e E118     	 adds r1,r4,r3
 389 0160 0B46     	 mov r3,r1
 390 0162 12EB0802 	 adds r2,r2,r8
 391 0166 43EB0903 	 adc r3,r3,r9
 392 016a 12F10042 	 adds r2,r2,#-2147483648
 393 016e 43F10003 	 adc r3,r3,#0
 394 0172 1900     	 movs r1,r3
 395 0174 B960     	 str r1,[r7,#8]
 396 0176 DB17     	 asrs r3,r3,#31
 397 0178 FB60     	 str r3,[r7,#12]
 398 017a BB68     	 ldr r3,[r7,#8]
 399 017c BB63     	 str r3,[r7,#56]
 784:../Dave/Generated/CMSIS_DSP/Source/TransformFunctions/arm_cfft_q31.c ****      multSub_32x32_keep32_R(p1, xt, sinVal);
 400              	 .loc 1 784 0 discriminator 3
 401 017e 7B6B     	 ldr r3,[r7,#52]
 402 0180 1A46     	 mov r2,r3
 403 0182 4FEAE273 	 asr r3,r2,#31
 404 0186 9346     	 mov fp,r2
 405 0188 4FF0000A 	 mov r10,#0
 406 018c 3B6C     	 ldr r3,[r7,#64]
 407 018e 1846     	 mov r0,r3
 408 0190 4FEAE071 	 asr r1,r0,#31
 409 0194 BB6C     	 ldr r3,[r7,#72]
 410 0196 1A46     	 mov r2,r3
 411 0198 4FEAE273 	 asr r3,r2,#31
 412 019c 02FB01F5 	 mul r5,r2,r1
 413 01a0 00FB03F4 	 mul r4,r0,r3
 414 01a4 2C44     	 add r4,r4,r5
 415 01a6 A0FB0223 	 umull r2,r3,r0,r2
 416 01aa E118     	 adds r1,r4,r3
 417 01ac 0B46     	 mov r3,r1
 418 01ae BAEB0202 	 subs r2,r10,r2
 419 01b2 6BEB0303 	 sbc r3,fp,r3
 420 01b6 12F10042 	 adds r2,r2,#-2147483648
 421 01ba 43F10003 	 adc r3,r3,#0
 422 01be 1900     	 movs r1,r3
 423 01c0 3960     	 str r1,[r7]
 424 01c2 DB17     	 asrs r3,r3,#31
 425 01c4 7B60     	 str r3,[r7,#4]
 426 01c6 3B68     	 ldr r3,[r7]
 427 01c8 7B63     	 str r3,[r7,#52]
 785:../Dave/Generated/CMSIS_DSP/Source/TransformFunctions/arm_cfft_q31.c **** 
 786:../Dave/Generated/CMSIS_DSP/Source/TransformFunctions/arm_cfft_q31.c ****      pSrc[2 * l]     = p0 << 1;
 428              	 .loc 1 786 0 discriminator 3
 429 01ca 7B6C     	 ldr r3,[r7,#68]
 430 01cc DB00     	 lsls r3,r3,#3
 431 01ce FA6A     	 ldr r2,[r7,#44]
 432 01d0 1A44     	 add r2,r2,r3
 433 01d2 BB6B     	 ldr r3,[r7,#56]
 434 01d4 5B00     	 lsls r3,r3,#1
 435 01d6 1360     	 str r3,[r2]
 787:../Dave/Generated/CMSIS_DSP/Source/TransformFunctions/arm_cfft_q31.c ****      pSrc[2 * l + 1] = p1 << 1;
 436              	 .loc 1 787 0 discriminator 3
 437 01d8 7B6C     	 ldr r3,[r7,#68]
 438 01da DB00     	 lsls r3,r3,#3
 439 01dc 0433     	 adds r3,r3,#4
 440 01de FA6A     	 ldr r2,[r7,#44]
 441 01e0 1A44     	 add r2,r2,r3
 442 01e2 7B6B     	 ldr r3,[r7,#52]
 443 01e4 5B00     	 lsls r3,r3,#1
 444 01e6 1360     	 str r3,[r2]
 768:../Dave/Generated/CMSIS_DSP/Source/TransformFunctions/arm_cfft_q31.c ****   {
 445              	 .loc 1 768 0 discriminator 3
 446 01e8 7B6D     	 ldr r3,[r7,#84]
 447 01ea 0133     	 adds r3,r3,#1
 448 01ec 7B65     	 str r3,[r7,#84]
 449              	.L17:
 768:../Dave/Generated/CMSIS_DSP/Source/TransformFunctions/arm_cfft_q31.c ****   {
 450              	 .loc 1 768 0 is_stmt 0 discriminator 1
 451 01ee 7A6D     	 ldr r2,[r7,#84]
 452 01f0 3B6D     	 ldr r3,[r7,#80]
 453 01f2 9A42     	 cmp r2,r3
 454 01f4 FFF411AF 	 bcc .L18
 788:../Dave/Generated/CMSIS_DSP/Source/TransformFunctions/arm_cfft_q31.c ****   }
 789:../Dave/Generated/CMSIS_DSP/Source/TransformFunctions/arm_cfft_q31.c **** 
 790:../Dave/Generated/CMSIS_DSP/Source/TransformFunctions/arm_cfft_q31.c **** 
 791:../Dave/Generated/CMSIS_DSP/Source/TransformFunctions/arm_cfft_q31.c ****   /* first col */
 792:../Dave/Generated/CMSIS_DSP/Source/TransformFunctions/arm_cfft_q31.c ****   arm_radix4_butterfly_q31 (pSrc,          n2, (q31_t*)pCoef, 2U);
 455              	 .loc 1 792 0 is_stmt 1
 456 01f8 F86A     	 ldr r0,[r7,#44]
 457 01fa 396D     	 ldr r1,[r7,#80]
 458 01fc 7A6A     	 ldr r2,[r7,#36]
 459 01fe 0223     	 movs r3,#2
 460 0200 FFF7FEFF 	 bl arm_radix4_butterfly_q31
 793:../Dave/Generated/CMSIS_DSP/Source/TransformFunctions/arm_cfft_q31.c **** 
 794:../Dave/Generated/CMSIS_DSP/Source/TransformFunctions/arm_cfft_q31.c ****   /* second col */
 795:../Dave/Generated/CMSIS_DSP/Source/TransformFunctions/arm_cfft_q31.c ****   arm_radix4_butterfly_q31 (pSrc + fftLen, n2, (q31_t*)pCoef, 2U);
 461              	 .loc 1 795 0
 462 0204 BB6A     	 ldr r3,[r7,#40]
 463 0206 9B00     	 lsls r3,r3,#2
 464 0208 FA6A     	 ldr r2,[r7,#44]
 465 020a 1344     	 add r3,r3,r2
 466 020c 1846     	 mov r0,r3
 467 020e 396D     	 ldr r1,[r7,#80]
 468 0210 7A6A     	 ldr r2,[r7,#36]
 469 0212 0223     	 movs r3,#2
 470 0214 FFF7FEFF 	 bl arm_radix4_butterfly_q31
 796:../Dave/Generated/CMSIS_DSP/Source/TransformFunctions/arm_cfft_q31.c **** 
 797:../Dave/Generated/CMSIS_DSP/Source/TransformFunctions/arm_cfft_q31.c ****   n2 = fftLen >> 1U;
 471              	 .loc 1 797 0
 472 0218 BB6A     	 ldr r3,[r7,#40]
 473 021a 5B08     	 lsrs r3,r3,#1
 474 021c 3B65     	 str r3,[r7,#80]
 798:../Dave/Generated/CMSIS_DSP/Source/TransformFunctions/arm_cfft_q31.c ****   for (i = 0; i < n2; i++)
 475              	 .loc 1 798 0
 476 021e 0023     	 movs r3,#0
 477 0220 7B65     	 str r3,[r7,#84]
 478 0222 44E0     	 b .L19
 479              	.L20:
 799:../Dave/Generated/CMSIS_DSP/Source/TransformFunctions/arm_cfft_q31.c ****   {
 800:../Dave/Generated/CMSIS_DSP/Source/TransformFunctions/arm_cfft_q31.c ****      p0 = pSrc[4 * i + 0];
 480              	 .loc 1 800 0 discriminator 3
 481 0224 7B6D     	 ldr r3,[r7,#84]
 482 0226 1B01     	 lsls r3,r3,#4
 483 0228 FA6A     	 ldr r2,[r7,#44]
 484 022a 1344     	 add r3,r3,r2
 485 022c 1B68     	 ldr r3,[r3]
 486 022e BB63     	 str r3,[r7,#56]
 801:../Dave/Generated/CMSIS_DSP/Source/TransformFunctions/arm_cfft_q31.c ****      p1 = pSrc[4 * i + 1];
 487              	 .loc 1 801 0 discriminator 3
 488 0230 7B6D     	 ldr r3,[r7,#84]
 489 0232 1B01     	 lsls r3,r3,#4
 490 0234 0433     	 adds r3,r3,#4
 491 0236 FA6A     	 ldr r2,[r7,#44]
 492 0238 1344     	 add r3,r3,r2
 493 023a 1B68     	 ldr r3,[r3]
 494 023c 7B63     	 str r3,[r7,#52]
 802:../Dave/Generated/CMSIS_DSP/Source/TransformFunctions/arm_cfft_q31.c ****      xt = pSrc[4 * i + 2];
 495              	 .loc 1 802 0 discriminator 3
 496 023e 7B6D     	 ldr r3,[r7,#84]
 497 0240 1B01     	 lsls r3,r3,#4
 498 0242 0833     	 adds r3,r3,#8
 499 0244 FA6A     	 ldr r2,[r7,#44]
 500 0246 1344     	 add r3,r3,r2
 501 0248 1B68     	 ldr r3,[r3]
 502 024a 3B64     	 str r3,[r7,#64]
 803:../Dave/Generated/CMSIS_DSP/Source/TransformFunctions/arm_cfft_q31.c ****      yt = pSrc[4 * i + 3];
 503              	 .loc 1 803 0 discriminator 3
 504 024c 7B6D     	 ldr r3,[r7,#84]
 505 024e 1B01     	 lsls r3,r3,#4
 506 0250 0C33     	 adds r3,r3,#12
 507 0252 FA6A     	 ldr r2,[r7,#44]
 508 0254 1344     	 add r3,r3,r2
 509 0256 1B68     	 ldr r3,[r3]
 510 0258 FB63     	 str r3,[r7,#60]
 804:../Dave/Generated/CMSIS_DSP/Source/TransformFunctions/arm_cfft_q31.c **** 
 805:../Dave/Generated/CMSIS_DSP/Source/TransformFunctions/arm_cfft_q31.c ****      p0 <<= 1U;
 511              	 .loc 1 805 0 discriminator 3
 512 025a BB6B     	 ldr r3,[r7,#56]
 513 025c 5B00     	 lsls r3,r3,#1
 514 025e BB63     	 str r3,[r7,#56]
 806:../Dave/Generated/CMSIS_DSP/Source/TransformFunctions/arm_cfft_q31.c ****      p1 <<= 1U;
 515              	 .loc 1 806 0 discriminator 3
 516 0260 7B6B     	 ldr r3,[r7,#52]
 517 0262 5B00     	 lsls r3,r3,#1
 518 0264 7B63     	 str r3,[r7,#52]
 807:../Dave/Generated/CMSIS_DSP/Source/TransformFunctions/arm_cfft_q31.c ****      xt <<= 1U;
 519              	 .loc 1 807 0 discriminator 3
 520 0266 3B6C     	 ldr r3,[r7,#64]
 521 0268 5B00     	 lsls r3,r3,#1
 522 026a 3B64     	 str r3,[r7,#64]
 808:../Dave/Generated/CMSIS_DSP/Source/TransformFunctions/arm_cfft_q31.c ****      yt <<= 1U;
 523              	 .loc 1 808 0 discriminator 3
 524 026c FB6B     	 ldr r3,[r7,#60]
 525 026e 5B00     	 lsls r3,r3,#1
 526 0270 FB63     	 str r3,[r7,#60]
 809:../Dave/Generated/CMSIS_DSP/Source/TransformFunctions/arm_cfft_q31.c **** 
 810:../Dave/Generated/CMSIS_DSP/Source/TransformFunctions/arm_cfft_q31.c ****      pSrc[4 * i + 0] = p0;
 527              	 .loc 1 810 0 discriminator 3
 528 0272 7B6D     	 ldr r3,[r7,#84]
 529 0274 1B01     	 lsls r3,r3,#4
 530 0276 FA6A     	 ldr r2,[r7,#44]
 531 0278 1344     	 add r3,r3,r2
 532 027a BA6B     	 ldr r2,[r7,#56]
 533 027c 1A60     	 str r2,[r3]
 811:../Dave/Generated/CMSIS_DSP/Source/TransformFunctions/arm_cfft_q31.c ****      pSrc[4 * i + 1] = p1;
 534              	 .loc 1 811 0 discriminator 3
 535 027e 7B6D     	 ldr r3,[r7,#84]
 536 0280 1B01     	 lsls r3,r3,#4
 537 0282 0433     	 adds r3,r3,#4
 538 0284 FA6A     	 ldr r2,[r7,#44]
 539 0286 1344     	 add r3,r3,r2
 540 0288 7A6B     	 ldr r2,[r7,#52]
 541 028a 1A60     	 str r2,[r3]
 812:../Dave/Generated/CMSIS_DSP/Source/TransformFunctions/arm_cfft_q31.c ****      pSrc[4 * i + 2] = xt;
 542              	 .loc 1 812 0 discriminator 3
 543 028c 7B6D     	 ldr r3,[r7,#84]
 544 028e 1B01     	 lsls r3,r3,#4
 545 0290 0833     	 adds r3,r3,#8
 546 0292 FA6A     	 ldr r2,[r7,#44]
 547 0294 1344     	 add r3,r3,r2
 548 0296 3A6C     	 ldr r2,[r7,#64]
 549 0298 1A60     	 str r2,[r3]
 813:../Dave/Generated/CMSIS_DSP/Source/TransformFunctions/arm_cfft_q31.c ****      pSrc[4 * i + 3] = yt;
 550              	 .loc 1 813 0 discriminator 3
 551 029a 7B6D     	 ldr r3,[r7,#84]
 552 029c 1B01     	 lsls r3,r3,#4
 553 029e 0C33     	 adds r3,r3,#12
 554 02a0 FA6A     	 ldr r2,[r7,#44]
 555 02a2 1344     	 add r3,r3,r2
 556 02a4 FA6B     	 ldr r2,[r7,#60]
 557 02a6 1A60     	 str r2,[r3]
 798:../Dave/Generated/CMSIS_DSP/Source/TransformFunctions/arm_cfft_q31.c ****   {
 558              	 .loc 1 798 0 discriminator 3
 559 02a8 7B6D     	 ldr r3,[r7,#84]
 560 02aa 0133     	 adds r3,r3,#1
 561 02ac 7B65     	 str r3,[r7,#84]
 562              	.L19:
 798:../Dave/Generated/CMSIS_DSP/Source/TransformFunctions/arm_cfft_q31.c ****   {
 563              	 .loc 1 798 0 is_stmt 0 discriminator 1
 564 02ae 7A6D     	 ldr r2,[r7,#84]
 565 02b0 3B6D     	 ldr r3,[r7,#80]
 566 02b2 9A42     	 cmp r2,r3
 567 02b4 B6D3     	 bcc .L20
 814:../Dave/Generated/CMSIS_DSP/Source/TransformFunctions/arm_cfft_q31.c ****   }
 815:../Dave/Generated/CMSIS_DSP/Source/TransformFunctions/arm_cfft_q31.c **** 
 816:../Dave/Generated/CMSIS_DSP/Source/TransformFunctions/arm_cfft_q31.c **** }
 568              	 .loc 1 816 0 is_stmt 1
 569 02b6 5837     	 adds r7,r7,#88
 570              	.LCFI8:
 571              	 .cfi_def_cfa_offset 32
 572 02b8 BD46     	 mov sp,r7
 573              	.LCFI9:
 574              	 .cfi_def_cfa_register 13
 575              	 
 576 02ba BDE8B08F 	 pop {r4,r5,r7,r8,r9,r10,fp,pc}
 577              	 .cfi_endproc
 578              	.LFE150:
 580 02be 00BF     	 .section .text.arm_cfft_radix4by2_inverse_q31,"ax",%progbits
 581              	 .align 2
 582              	 .global arm_cfft_radix4by2_inverse_q31
 583              	 .thumb
 584              	 .thumb_func
 586              	arm_cfft_radix4by2_inverse_q31:
 587              	.LFB151:
 817:../Dave/Generated/CMSIS_DSP/Source/TransformFunctions/arm_cfft_q31.c **** 
 818:../Dave/Generated/CMSIS_DSP/Source/TransformFunctions/arm_cfft_q31.c **** void arm_cfft_radix4by2_inverse_q31(
 819:../Dave/Generated/CMSIS_DSP/Source/TransformFunctions/arm_cfft_q31.c ****         q31_t * pSrc,
 820:../Dave/Generated/CMSIS_DSP/Source/TransformFunctions/arm_cfft_q31.c ****         uint32_t fftLen,
 821:../Dave/Generated/CMSIS_DSP/Source/TransformFunctions/arm_cfft_q31.c ****   const q31_t * pCoef)
 822:../Dave/Generated/CMSIS_DSP/Source/TransformFunctions/arm_cfft_q31.c **** {
 588              	 .loc 1 822 0
 589              	 .cfi_startproc
 590              	 
 591              	 
 592 0000 2DE9B04F 	 push {r4,r5,r7,r8,r9,r10,fp,lr}
 593              	.LCFI10:
 594              	 .cfi_def_cfa_offset 32
 595              	 .cfi_offset 4,-32
 596              	 .cfi_offset 5,-28
 597              	 .cfi_offset 7,-24
 598              	 .cfi_offset 8,-20
 599              	 .cfi_offset 9,-16
 600              	 .cfi_offset 10,-12
 601              	 .cfi_offset 11,-8
 602              	 .cfi_offset 14,-4
 603 0004 96B0     	 sub sp,sp,#88
 604              	.LCFI11:
 605              	 .cfi_def_cfa_offset 120
 606 0006 00AF     	 add r7,sp,#0
 607              	.LCFI12:
 608              	 .cfi_def_cfa_register 7
 609 0008 F862     	 str r0,[r7,#44]
 610 000a B962     	 str r1,[r7,#40]
 611 000c 7A62     	 str r2,[r7,#36]
 823:../Dave/Generated/CMSIS_DSP/Source/TransformFunctions/arm_cfft_q31.c ****   uint32_t i, l;
 824:../Dave/Generated/CMSIS_DSP/Source/TransformFunctions/arm_cfft_q31.c ****   uint32_t n2;
 825:../Dave/Generated/CMSIS_DSP/Source/TransformFunctions/arm_cfft_q31.c ****   q31_t xt, yt, cosVal, sinVal;
 826:../Dave/Generated/CMSIS_DSP/Source/TransformFunctions/arm_cfft_q31.c ****   q31_t p0, p1;
 827:../Dave/Generated/CMSIS_DSP/Source/TransformFunctions/arm_cfft_q31.c **** 
 828:../Dave/Generated/CMSIS_DSP/Source/TransformFunctions/arm_cfft_q31.c ****   n2 = fftLen >> 1U;
 612              	 .loc 1 828 0
 613 000e BB6A     	 ldr r3,[r7,#40]
 614 0010 5B08     	 lsrs r3,r3,#1
 615 0012 3B65     	 str r3,[r7,#80]
 829:../Dave/Generated/CMSIS_DSP/Source/TransformFunctions/arm_cfft_q31.c ****   for (i = 0; i < n2; i++)
 616              	 .loc 1 829 0
 617 0014 0023     	 movs r3,#0
 618 0016 7B65     	 str r3,[r7,#84]
 619 0018 E9E0     	 b .L22
 620              	.L23:
 830:../Dave/Generated/CMSIS_DSP/Source/TransformFunctions/arm_cfft_q31.c ****   {
 831:../Dave/Generated/CMSIS_DSP/Source/TransformFunctions/arm_cfft_q31.c ****      cosVal = pCoef[2 * i];
 621              	 .loc 1 831 0 discriminator 3
 622 001a 7B6D     	 ldr r3,[r7,#84]
 623 001c DB00     	 lsls r3,r3,#3
 624 001e 7A6A     	 ldr r2,[r7,#36]
 625 0020 1344     	 add r3,r3,r2
 626 0022 1B68     	 ldr r3,[r3]
 627 0024 FB64     	 str r3,[r7,#76]
 832:../Dave/Generated/CMSIS_DSP/Source/TransformFunctions/arm_cfft_q31.c ****      sinVal = pCoef[2 * i + 1];
 628              	 .loc 1 832 0 discriminator 3
 629 0026 7B6D     	 ldr r3,[r7,#84]
 630 0028 DB00     	 lsls r3,r3,#3
 631 002a 0433     	 adds r3,r3,#4
 632 002c 7A6A     	 ldr r2,[r7,#36]
 633 002e 1344     	 add r3,r3,r2
 634 0030 1B68     	 ldr r3,[r3]
 635 0032 BB64     	 str r3,[r7,#72]
 833:../Dave/Generated/CMSIS_DSP/Source/TransformFunctions/arm_cfft_q31.c **** 
 834:../Dave/Generated/CMSIS_DSP/Source/TransformFunctions/arm_cfft_q31.c ****      l = i + n2;
 636              	 .loc 1 834 0 discriminator 3
 637 0034 7A6D     	 ldr r2,[r7,#84]
 638 0036 3B6D     	 ldr r3,[r7,#80]
 639 0038 1344     	 add r3,r3,r2
 640 003a 7B64     	 str r3,[r7,#68]
 835:../Dave/Generated/CMSIS_DSP/Source/TransformFunctions/arm_cfft_q31.c **** 
 836:../Dave/Generated/CMSIS_DSP/Source/TransformFunctions/arm_cfft_q31.c ****      xt =          (pSrc[2 * i] >> 2U) - (pSrc[2 * l] >> 2U);
 641              	 .loc 1 836 0 discriminator 3
 642 003c 7B6D     	 ldr r3,[r7,#84]
 643 003e DB00     	 lsls r3,r3,#3
 644 0040 FA6A     	 ldr r2,[r7,#44]
 645 0042 1344     	 add r3,r3,r2
 646 0044 1B68     	 ldr r3,[r3]
 647 0046 9910     	 asrs r1,r3,#2
 648 0048 7B6C     	 ldr r3,[r7,#68]
 649 004a DA00     	 lsls r2,r3,#3
 650 004c FB6A     	 ldr r3,[r7,#44]
 651 004e 1344     	 add r3,r3,r2
 652 0050 1B68     	 ldr r3,[r3]
 653 0052 9B10     	 asrs r3,r3,#2
 654 0054 CB1A     	 subs r3,r1,r3
 655 0056 3B64     	 str r3,[r7,#64]
 837:../Dave/Generated/CMSIS_DSP/Source/TransformFunctions/arm_cfft_q31.c ****      pSrc[2 * i] = (pSrc[2 * i] >> 2U) + (pSrc[2 * l] >> 2U);
 656              	 .loc 1 837 0 discriminator 3
 657 0058 7B6D     	 ldr r3,[r7,#84]
 658 005a DB00     	 lsls r3,r3,#3
 659 005c FA6A     	 ldr r2,[r7,#44]
 660 005e D018     	 adds r0,r2,r3
 661 0060 7B6D     	 ldr r3,[r7,#84]
 662 0062 DA00     	 lsls r2,r3,#3
 663 0064 FB6A     	 ldr r3,[r7,#44]
 664 0066 1344     	 add r3,r3,r2
 665 0068 1B68     	 ldr r3,[r3]
 666 006a 9910     	 asrs r1,r3,#2
 667 006c 7B6C     	 ldr r3,[r7,#68]
 668 006e DA00     	 lsls r2,r3,#3
 669 0070 FB6A     	 ldr r3,[r7,#44]
 670 0072 1344     	 add r3,r3,r2
 671 0074 1B68     	 ldr r3,[r3]
 672 0076 9B10     	 asrs r3,r3,#2
 673 0078 0B44     	 add r3,r3,r1
 674 007a 0360     	 str r3,[r0]
 838:../Dave/Generated/CMSIS_DSP/Source/TransformFunctions/arm_cfft_q31.c **** 
 839:../Dave/Generated/CMSIS_DSP/Source/TransformFunctions/arm_cfft_q31.c ****      yt =              (pSrc[2 * i + 1] >> 2U) - (pSrc[2 * l + 1] >> 2U);
 675              	 .loc 1 839 0 discriminator 3
 676 007c 7B6D     	 ldr r3,[r7,#84]
 677 007e DB00     	 lsls r3,r3,#3
 678 0080 0433     	 adds r3,r3,#4
 679 0082 FA6A     	 ldr r2,[r7,#44]
 680 0084 1344     	 add r3,r3,r2
 681 0086 1B68     	 ldr r3,[r3]
 682 0088 9910     	 asrs r1,r3,#2
 683 008a 7B6C     	 ldr r3,[r7,#68]
 684 008c DB00     	 lsls r3,r3,#3
 685 008e 1A1D     	 adds r2,r3,#4
 686 0090 FB6A     	 ldr r3,[r7,#44]
 687 0092 1344     	 add r3,r3,r2
 688 0094 1B68     	 ldr r3,[r3]
 689 0096 9B10     	 asrs r3,r3,#2
 690 0098 CB1A     	 subs r3,r1,r3
 691 009a FB63     	 str r3,[r7,#60]
 840:../Dave/Generated/CMSIS_DSP/Source/TransformFunctions/arm_cfft_q31.c ****      pSrc[2 * i + 1] = (pSrc[2 * l + 1] >> 2U) + (pSrc[2 * i + 1] >> 2U);
 692              	 .loc 1 840 0 discriminator 3
 693 009c 7B6D     	 ldr r3,[r7,#84]
 694 009e DB00     	 lsls r3,r3,#3
 695 00a0 0433     	 adds r3,r3,#4
 696 00a2 FA6A     	 ldr r2,[r7,#44]
 697 00a4 D018     	 adds r0,r2,r3
 698 00a6 7B6C     	 ldr r3,[r7,#68]
 699 00a8 DB00     	 lsls r3,r3,#3
 700 00aa 1A1D     	 adds r2,r3,#4
 701 00ac FB6A     	 ldr r3,[r7,#44]
 702 00ae 1344     	 add r3,r3,r2
 703 00b0 1B68     	 ldr r3,[r3]
 704 00b2 9910     	 asrs r1,r3,#2
 705 00b4 7B6D     	 ldr r3,[r7,#84]
 706 00b6 DB00     	 lsls r3,r3,#3
 707 00b8 1A1D     	 adds r2,r3,#4
 708 00ba FB6A     	 ldr r3,[r7,#44]
 709 00bc 1344     	 add r3,r3,r2
 710 00be 1B68     	 ldr r3,[r3]
 711 00c0 9B10     	 asrs r3,r3,#2
 712 00c2 0B44     	 add r3,r3,r1
 713 00c4 0360     	 str r3,[r0]
 841:../Dave/Generated/CMSIS_DSP/Source/TransformFunctions/arm_cfft_q31.c **** 
 842:../Dave/Generated/CMSIS_DSP/Source/TransformFunctions/arm_cfft_q31.c ****      mult_32x32_keep32_R(p0, xt, cosVal);
 714              	 .loc 1 842 0 discriminator 3
 715 00c6 3B6C     	 ldr r3,[r7,#64]
 716 00c8 1846     	 mov r0,r3
 717 00ca 4FEAE071 	 asr r1,r0,#31
 718 00ce FB6C     	 ldr r3,[r7,#76]
 719 00d0 1A46     	 mov r2,r3
 720 00d2 4FEAE273 	 asr r3,r2,#31
 721 00d6 02FB01F5 	 mul r5,r2,r1
 722 00da 00FB03F4 	 mul r4,r0,r3
 723 00de 2C44     	 add r4,r4,r5
 724 00e0 A0FB0223 	 umull r2,r3,r0,r2
 725 00e4 E118     	 adds r1,r4,r3
 726 00e6 0B46     	 mov r3,r1
 727 00e8 12F10042 	 adds r2,r2,#-2147483648
 728 00ec 43F10003 	 adc r3,r3,#0
 729 00f0 1900     	 movs r1,r3
 730 00f2 B961     	 str r1,[r7,#24]
 731 00f4 DB17     	 asrs r3,r3,#31
 732 00f6 FB61     	 str r3,[r7,#28]
 733 00f8 BB69     	 ldr r3,[r7,#24]
 734 00fa BB63     	 str r3,[r7,#56]
 843:../Dave/Generated/CMSIS_DSP/Source/TransformFunctions/arm_cfft_q31.c ****      mult_32x32_keep32_R(p1, yt, cosVal);
 735              	 .loc 1 843 0 discriminator 3
 736 00fc FB6B     	 ldr r3,[r7,#60]
 737 00fe 1846     	 mov r0,r3
 738 0100 4FEAE071 	 asr r1,r0,#31
 739 0104 FB6C     	 ldr r3,[r7,#76]
 740 0106 1A46     	 mov r2,r3
 741 0108 4FEAE273 	 asr r3,r2,#31
 742 010c 02FB01F5 	 mul r5,r2,r1
 743 0110 00FB03F4 	 mul r4,r0,r3
 744 0114 2C44     	 add r4,r4,r5
 745 0116 A0FB0223 	 umull r2,r3,r0,r2
 746 011a E118     	 adds r1,r4,r3
 747 011c 0B46     	 mov r3,r1
 748 011e 12F10042 	 adds r2,r2,#-2147483648
 749 0122 43F10003 	 adc r3,r3,#0
 750 0126 1900     	 movs r1,r3
 751 0128 3961     	 str r1,[r7,#16]
 752 012a DB17     	 asrs r3,r3,#31
 753 012c 7B61     	 str r3,[r7,#20]
 754 012e 3B69     	 ldr r3,[r7,#16]
 755 0130 7B63     	 str r3,[r7,#52]
 844:../Dave/Generated/CMSIS_DSP/Source/TransformFunctions/arm_cfft_q31.c ****      multSub_32x32_keep32_R(p0, yt, sinVal);
 756              	 .loc 1 844 0 discriminator 3
 757 0132 BB6B     	 ldr r3,[r7,#56]
 758 0134 1A46     	 mov r2,r3
 759 0136 4FEAE273 	 asr r3,r2,#31
 760 013a 9146     	 mov r9,r2
 761 013c 4FF00008 	 mov r8,#0
 762 0140 FB6B     	 ldr r3,[r7,#60]
 763 0142 1846     	 mov r0,r3
 764 0144 4FEAE071 	 asr r1,r0,#31
 765 0148 BB6C     	 ldr r3,[r7,#72]
 766 014a 1A46     	 mov r2,r3
 767 014c 4FEAE273 	 asr r3,r2,#31
 768 0150 02FB01F5 	 mul r5,r2,r1
 769 0154 00FB03F4 	 mul r4,r0,r3
 770 0158 2C44     	 add r4,r4,r5
 771 015a A0FB0223 	 umull r2,r3,r0,r2
 772 015e E118     	 adds r1,r4,r3
 773 0160 0B46     	 mov r3,r1
 774 0162 B8EB0202 	 subs r2,r8,r2
 775 0166 69EB0303 	 sbc r3,r9,r3
 776 016a 12F10042 	 adds r2,r2,#-2147483648
 777 016e 43F10003 	 adc r3,r3,#0
 778 0172 1900     	 movs r1,r3
 779 0174 B960     	 str r1,[r7,#8]
 780 0176 DB17     	 asrs r3,r3,#31
 781 0178 FB60     	 str r3,[r7,#12]
 782 017a BB68     	 ldr r3,[r7,#8]
 783 017c BB63     	 str r3,[r7,#56]
 845:../Dave/Generated/CMSIS_DSP/Source/TransformFunctions/arm_cfft_q31.c ****      multAcc_32x32_keep32_R(p1, xt, sinVal);
 784              	 .loc 1 845 0 discriminator 3
 785 017e 7B6B     	 ldr r3,[r7,#52]
 786 0180 1A46     	 mov r2,r3
 787 0182 4FEAE273 	 asr r3,r2,#31
 788 0186 9346     	 mov fp,r2
 789 0188 4FF0000A 	 mov r10,#0
 790 018c 3B6C     	 ldr r3,[r7,#64]
 791 018e 1846     	 mov r0,r3
 792 0190 4FEAE071 	 asr r1,r0,#31
 793 0194 BB6C     	 ldr r3,[r7,#72]
 794 0196 1A46     	 mov r2,r3
 795 0198 4FEAE273 	 asr r3,r2,#31
 796 019c 02FB01F5 	 mul r5,r2,r1
 797 01a0 00FB03F4 	 mul r4,r0,r3
 798 01a4 2C44     	 add r4,r4,r5
 799 01a6 A0FB0223 	 umull r2,r3,r0,r2
 800 01aa E118     	 adds r1,r4,r3
 801 01ac 0B46     	 mov r3,r1
 802 01ae 12EB0A02 	 adds r2,r2,r10
 803 01b2 43EB0B03 	 adc r3,r3,fp
 804 01b6 12F10042 	 adds r2,r2,#-2147483648
 805 01ba 43F10003 	 adc r3,r3,#0
 806 01be 1900     	 movs r1,r3
 807 01c0 3960     	 str r1,[r7]
 808 01c2 DB17     	 asrs r3,r3,#31
 809 01c4 7B60     	 str r3,[r7,#4]
 810 01c6 3B68     	 ldr r3,[r7]
 811 01c8 7B63     	 str r3,[r7,#52]
 846:../Dave/Generated/CMSIS_DSP/Source/TransformFunctions/arm_cfft_q31.c **** 
 847:../Dave/Generated/CMSIS_DSP/Source/TransformFunctions/arm_cfft_q31.c ****      pSrc[2 * l]     = p0 << 1U;
 812              	 .loc 1 847 0 discriminator 3
 813 01ca 7B6C     	 ldr r3,[r7,#68]
 814 01cc DB00     	 lsls r3,r3,#3
 815 01ce FA6A     	 ldr r2,[r7,#44]
 816 01d0 1A44     	 add r2,r2,r3
 817 01d2 BB6B     	 ldr r3,[r7,#56]
 818 01d4 5B00     	 lsls r3,r3,#1
 819 01d6 1360     	 str r3,[r2]
 848:../Dave/Generated/CMSIS_DSP/Source/TransformFunctions/arm_cfft_q31.c ****      pSrc[2 * l + 1] = p1 << 1U;
 820              	 .loc 1 848 0 discriminator 3
 821 01d8 7B6C     	 ldr r3,[r7,#68]
 822 01da DB00     	 lsls r3,r3,#3
 823 01dc 0433     	 adds r3,r3,#4
 824 01de FA6A     	 ldr r2,[r7,#44]
 825 01e0 1A44     	 add r2,r2,r3
 826 01e2 7B6B     	 ldr r3,[r7,#52]
 827 01e4 5B00     	 lsls r3,r3,#1
 828 01e6 1360     	 str r3,[r2]
 829:../Dave/Generated/CMSIS_DSP/Source/TransformFunctions/arm_cfft_q31.c ****   {
 829              	 .loc 1 829 0 discriminator 3
 830 01e8 7B6D     	 ldr r3,[r7,#84]
 831 01ea 0133     	 adds r3,r3,#1
 832 01ec 7B65     	 str r3,[r7,#84]
 833              	.L22:
 829:../Dave/Generated/CMSIS_DSP/Source/TransformFunctions/arm_cfft_q31.c ****   {
 834              	 .loc 1 829 0 is_stmt 0 discriminator 1
 835 01ee 7A6D     	 ldr r2,[r7,#84]
 836 01f0 3B6D     	 ldr r3,[r7,#80]
 837 01f2 9A42     	 cmp r2,r3
 838 01f4 FFF411AF 	 bcc .L23
 849:../Dave/Generated/CMSIS_DSP/Source/TransformFunctions/arm_cfft_q31.c ****   }
 850:../Dave/Generated/CMSIS_DSP/Source/TransformFunctions/arm_cfft_q31.c **** 
 851:../Dave/Generated/CMSIS_DSP/Source/TransformFunctions/arm_cfft_q31.c ****   /* first col */
 852:../Dave/Generated/CMSIS_DSP/Source/TransformFunctions/arm_cfft_q31.c ****   arm_radix4_butterfly_inverse_q31( pSrc,          n2, (q31_t*)pCoef, 2U);
 839              	 .loc 1 852 0 is_stmt 1
 840 01f8 F86A     	 ldr r0,[r7,#44]
 841 01fa 396D     	 ldr r1,[r7,#80]
 842 01fc 7A6A     	 ldr r2,[r7,#36]
 843 01fe 0223     	 movs r3,#2
 844 0200 FFF7FEFF 	 bl arm_radix4_butterfly_inverse_q31
 853:../Dave/Generated/CMSIS_DSP/Source/TransformFunctions/arm_cfft_q31.c **** 
 854:../Dave/Generated/CMSIS_DSP/Source/TransformFunctions/arm_cfft_q31.c ****   /* second col */
 855:../Dave/Generated/CMSIS_DSP/Source/TransformFunctions/arm_cfft_q31.c ****   arm_radix4_butterfly_inverse_q31( pSrc + fftLen, n2, (q31_t*)pCoef, 2U);
 845              	 .loc 1 855 0
 846 0204 BB6A     	 ldr r3,[r7,#40]
 847 0206 9B00     	 lsls r3,r3,#2
 848 0208 FA6A     	 ldr r2,[r7,#44]
 849 020a 1344     	 add r3,r3,r2
 850 020c 1846     	 mov r0,r3
 851 020e 396D     	 ldr r1,[r7,#80]
 852 0210 7A6A     	 ldr r2,[r7,#36]
 853 0212 0223     	 movs r3,#2
 854 0214 FFF7FEFF 	 bl arm_radix4_butterfly_inverse_q31
 856:../Dave/Generated/CMSIS_DSP/Source/TransformFunctions/arm_cfft_q31.c **** 
 857:../Dave/Generated/CMSIS_DSP/Source/TransformFunctions/arm_cfft_q31.c ****   n2 = fftLen >> 1U;
 855              	 .loc 1 857 0
 856 0218 BB6A     	 ldr r3,[r7,#40]
 857 021a 5B08     	 lsrs r3,r3,#1
 858 021c 3B65     	 str r3,[r7,#80]
 858:../Dave/Generated/CMSIS_DSP/Source/TransformFunctions/arm_cfft_q31.c ****   for (i = 0; i < n2; i++)
 859              	 .loc 1 858 0
 860 021e 0023     	 movs r3,#0
 861 0220 7B65     	 str r3,[r7,#84]
 862 0222 44E0     	 b .L24
 863              	.L25:
 859:../Dave/Generated/CMSIS_DSP/Source/TransformFunctions/arm_cfft_q31.c ****   {
 860:../Dave/Generated/CMSIS_DSP/Source/TransformFunctions/arm_cfft_q31.c ****      p0 = pSrc[4 * i + 0];
 864              	 .loc 1 860 0 discriminator 3
 865 0224 7B6D     	 ldr r3,[r7,#84]
 866 0226 1B01     	 lsls r3,r3,#4
 867 0228 FA6A     	 ldr r2,[r7,#44]
 868 022a 1344     	 add r3,r3,r2
 869 022c 1B68     	 ldr r3,[r3]
 870 022e BB63     	 str r3,[r7,#56]
 861:../Dave/Generated/CMSIS_DSP/Source/TransformFunctions/arm_cfft_q31.c ****      p1 = pSrc[4 * i + 1];
 871              	 .loc 1 861 0 discriminator 3
 872 0230 7B6D     	 ldr r3,[r7,#84]
 873 0232 1B01     	 lsls r3,r3,#4
 874 0234 0433     	 adds r3,r3,#4
 875 0236 FA6A     	 ldr r2,[r7,#44]
 876 0238 1344     	 add r3,r3,r2
 877 023a 1B68     	 ldr r3,[r3]
 878 023c 7B63     	 str r3,[r7,#52]
 862:../Dave/Generated/CMSIS_DSP/Source/TransformFunctions/arm_cfft_q31.c ****      xt = pSrc[4 * i + 2];
 879              	 .loc 1 862 0 discriminator 3
 880 023e 7B6D     	 ldr r3,[r7,#84]
 881 0240 1B01     	 lsls r3,r3,#4
 882 0242 0833     	 adds r3,r3,#8
 883 0244 FA6A     	 ldr r2,[r7,#44]
 884 0246 1344     	 add r3,r3,r2
 885 0248 1B68     	 ldr r3,[r3]
 886 024a 3B64     	 str r3,[r7,#64]
 863:../Dave/Generated/CMSIS_DSP/Source/TransformFunctions/arm_cfft_q31.c ****      yt = pSrc[4 * i + 3];
 887              	 .loc 1 863 0 discriminator 3
 888 024c 7B6D     	 ldr r3,[r7,#84]
 889 024e 1B01     	 lsls r3,r3,#4
 890 0250 0C33     	 adds r3,r3,#12
 891 0252 FA6A     	 ldr r2,[r7,#44]
 892 0254 1344     	 add r3,r3,r2
 893 0256 1B68     	 ldr r3,[r3]
 894 0258 FB63     	 str r3,[r7,#60]
 864:../Dave/Generated/CMSIS_DSP/Source/TransformFunctions/arm_cfft_q31.c **** 
 865:../Dave/Generated/CMSIS_DSP/Source/TransformFunctions/arm_cfft_q31.c ****      p0 <<= 1U;
 895              	 .loc 1 865 0 discriminator 3
 896 025a BB6B     	 ldr r3,[r7,#56]
 897 025c 5B00     	 lsls r3,r3,#1
 898 025e BB63     	 str r3,[r7,#56]
 866:../Dave/Generated/CMSIS_DSP/Source/TransformFunctions/arm_cfft_q31.c ****      p1 <<= 1U;
 899              	 .loc 1 866 0 discriminator 3
 900 0260 7B6B     	 ldr r3,[r7,#52]
 901 0262 5B00     	 lsls r3,r3,#1
 902 0264 7B63     	 str r3,[r7,#52]
 867:../Dave/Generated/CMSIS_DSP/Source/TransformFunctions/arm_cfft_q31.c ****      xt <<= 1U;
 903              	 .loc 1 867 0 discriminator 3
 904 0266 3B6C     	 ldr r3,[r7,#64]
 905 0268 5B00     	 lsls r3,r3,#1
 906 026a 3B64     	 str r3,[r7,#64]
 868:../Dave/Generated/CMSIS_DSP/Source/TransformFunctions/arm_cfft_q31.c ****      yt <<= 1U;
 907              	 .loc 1 868 0 discriminator 3
 908 026c FB6B     	 ldr r3,[r7,#60]
 909 026e 5B00     	 lsls r3,r3,#1
 910 0270 FB63     	 str r3,[r7,#60]
 869:../Dave/Generated/CMSIS_DSP/Source/TransformFunctions/arm_cfft_q31.c **** 
 870:../Dave/Generated/CMSIS_DSP/Source/TransformFunctions/arm_cfft_q31.c ****      pSrc[4 * i + 0] = p0;
 911              	 .loc 1 870 0 discriminator 3
 912 0272 7B6D     	 ldr r3,[r7,#84]
 913 0274 1B01     	 lsls r3,r3,#4
 914 0276 FA6A     	 ldr r2,[r7,#44]
 915 0278 1344     	 add r3,r3,r2
 916 027a BA6B     	 ldr r2,[r7,#56]
 917 027c 1A60     	 str r2,[r3]
 871:../Dave/Generated/CMSIS_DSP/Source/TransformFunctions/arm_cfft_q31.c ****      pSrc[4 * i + 1] = p1;
 918              	 .loc 1 871 0 discriminator 3
 919 027e 7B6D     	 ldr r3,[r7,#84]
 920 0280 1B01     	 lsls r3,r3,#4
 921 0282 0433     	 adds r3,r3,#4
 922 0284 FA6A     	 ldr r2,[r7,#44]
 923 0286 1344     	 add r3,r3,r2
 924 0288 7A6B     	 ldr r2,[r7,#52]
 925 028a 1A60     	 str r2,[r3]
 872:../Dave/Generated/CMSIS_DSP/Source/TransformFunctions/arm_cfft_q31.c ****      pSrc[4 * i + 2] = xt;
 926              	 .loc 1 872 0 discriminator 3
 927 028c 7B6D     	 ldr r3,[r7,#84]
 928 028e 1B01     	 lsls r3,r3,#4
 929 0290 0833     	 adds r3,r3,#8
 930 0292 FA6A     	 ldr r2,[r7,#44]
 931 0294 1344     	 add r3,r3,r2
 932 0296 3A6C     	 ldr r2,[r7,#64]
 933 0298 1A60     	 str r2,[r3]
 873:../Dave/Generated/CMSIS_DSP/Source/TransformFunctions/arm_cfft_q31.c ****      pSrc[4 * i + 3] = yt;
 934              	 .loc 1 873 0 discriminator 3
 935 029a 7B6D     	 ldr r3,[r7,#84]
 936 029c 1B01     	 lsls r3,r3,#4
 937 029e 0C33     	 adds r3,r3,#12
 938 02a0 FA6A     	 ldr r2,[r7,#44]
 939 02a2 1344     	 add r3,r3,r2
 940 02a4 FA6B     	 ldr r2,[r7,#60]
 941 02a6 1A60     	 str r2,[r3]
 858:../Dave/Generated/CMSIS_DSP/Source/TransformFunctions/arm_cfft_q31.c ****   {
 942              	 .loc 1 858 0 discriminator 3
 943 02a8 7B6D     	 ldr r3,[r7,#84]
 944 02aa 0133     	 adds r3,r3,#1
 945 02ac 7B65     	 str r3,[r7,#84]
 946              	.L24:
 858:../Dave/Generated/CMSIS_DSP/Source/TransformFunctions/arm_cfft_q31.c ****   {
 947              	 .loc 1 858 0 is_stmt 0 discriminator 1
 948 02ae 7A6D     	 ldr r2,[r7,#84]
 949 02b0 3B6D     	 ldr r3,[r7,#80]
 950 02b2 9A42     	 cmp r2,r3
 951 02b4 B6D3     	 bcc .L25
 874:../Dave/Generated/CMSIS_DSP/Source/TransformFunctions/arm_cfft_q31.c ****   }
 875:../Dave/Generated/CMSIS_DSP/Source/TransformFunctions/arm_cfft_q31.c **** }
 952              	 .loc 1 875 0 is_stmt 1
 953 02b6 5837     	 adds r7,r7,#88
 954              	.LCFI13:
 955              	 .cfi_def_cfa_offset 32
 956 02b8 BD46     	 mov sp,r7
 957              	.LCFI14:
 958              	 .cfi_def_cfa_register 13
 959              	 
 960 02ba BDE8B08F 	 pop {r4,r5,r7,r8,r9,r10,fp,pc}
 961              	 .cfi_endproc
 962              	.LFE151:
 964 02be 00BF     	 .text
 965              	.Letext0:
 966              	 .file 2 "c:\\infineon\\tools\\dave ide\\4.5.0.202105191637\\eclipse\\arm-gcc-49\\arm-none-eabi\\include\\machine\\_default_types.h"
 967              	 .file 3 "c:\\infineon\\tools\\dave ide\\4.5.0.202105191637\\eclipse\\arm-gcc-49\\arm-none-eabi\\include\\stdint.h"
 968              	 .file 4 "C:/Users/Rui Mendes/Desktop/DAVE/_Naive/_ForTesting/Dave/Generated/CMSIS_DSP/Include/arm_math.h"
 969              	 .file 5 "C:/Users/Rui Mendes/Desktop/DAVE/_Naive/_ForTesting/Libraries/CMSIS/Include/cmsis_gcc.h"