   1              	 .syntax unified
   2              	 .cpu cortex-m4
   3              	 .eabi_attribute 27,3
   4              	 .fpu fpv4-sp-d16
   5              	 .eabi_attribute 20,1
   6              	 .eabi_attribute 21,1
   7              	 .eabi_attribute 23,3
   8              	 .eabi_attribute 24,1
   9              	 .eabi_attribute 25,1
  10              	 .eabi_attribute 26,1
  11              	 .eabi_attribute 30,6
  12              	 .eabi_attribute 34,1
  13              	 .eabi_attribute 18,4
  14              	 .thumb
  15              	 .file "arm_cfft_radix4_q31.c"
  16              	 .text
  17              	.Ltext0:
  18              	 .cfi_sections .debug_frame
  19              	 .section .text.arm_cfft_radix4_q31,"ax",%progbits
  20              	 .align 2
  21              	 .global arm_cfft_radix4_q31
  22              	 .thumb
  23              	 .thumb_func
  25              	arm_cfft_radix4_q31:
  26              	.LFB149:
  27              	 .file 1 "../Dave/Generated/CMSIS_DSP/Source/TransformFunctions/arm_cfft_radix4_q31.c"
   1:../Dave/Generated/CMSIS_DSP/Source/TransformFunctions/arm_cfft_radix4_q31.c **** /* ----------------------------------------------------------------------
   2:../Dave/Generated/CMSIS_DSP/Source/TransformFunctions/arm_cfft_radix4_q31.c ****  * Project:      CMSIS DSP Library
   3:../Dave/Generated/CMSIS_DSP/Source/TransformFunctions/arm_cfft_radix4_q31.c ****  * Title:        arm_cfft_radix4_q31.c
   4:../Dave/Generated/CMSIS_DSP/Source/TransformFunctions/arm_cfft_radix4_q31.c ****  * Description:  This file has function definition of Radix-4 FFT & IFFT function and
   5:../Dave/Generated/CMSIS_DSP/Source/TransformFunctions/arm_cfft_radix4_q31.c ****  *               In-place bit reversal using bit reversal table
   6:../Dave/Generated/CMSIS_DSP/Source/TransformFunctions/arm_cfft_radix4_q31.c ****  *
   7:../Dave/Generated/CMSIS_DSP/Source/TransformFunctions/arm_cfft_radix4_q31.c ****  * $Date:        18. March 2019
   8:../Dave/Generated/CMSIS_DSP/Source/TransformFunctions/arm_cfft_radix4_q31.c ****  * $Revision:    V1.6.0
   9:../Dave/Generated/CMSIS_DSP/Source/TransformFunctions/arm_cfft_radix4_q31.c ****  *
  10:../Dave/Generated/CMSIS_DSP/Source/TransformFunctions/arm_cfft_radix4_q31.c ****  * Target Processor: Cortex-M cores
  11:../Dave/Generated/CMSIS_DSP/Source/TransformFunctions/arm_cfft_radix4_q31.c ****  * -------------------------------------------------------------------- */
  12:../Dave/Generated/CMSIS_DSP/Source/TransformFunctions/arm_cfft_radix4_q31.c **** /*
  13:../Dave/Generated/CMSIS_DSP/Source/TransformFunctions/arm_cfft_radix4_q31.c ****  * Copyright (C) 2010-2019 ARM Limited or its affiliates. All rights reserved.
  14:../Dave/Generated/CMSIS_DSP/Source/TransformFunctions/arm_cfft_radix4_q31.c ****  *
  15:../Dave/Generated/CMSIS_DSP/Source/TransformFunctions/arm_cfft_radix4_q31.c ****  * SPDX-License-Identifier: Apache-2.0
  16:../Dave/Generated/CMSIS_DSP/Source/TransformFunctions/arm_cfft_radix4_q31.c ****  *
  17:../Dave/Generated/CMSIS_DSP/Source/TransformFunctions/arm_cfft_radix4_q31.c ****  * Licensed under the Apache License, Version 2.0 (the License); you may
  18:../Dave/Generated/CMSIS_DSP/Source/TransformFunctions/arm_cfft_radix4_q31.c ****  * not use this file except in compliance with the License.
  19:../Dave/Generated/CMSIS_DSP/Source/TransformFunctions/arm_cfft_radix4_q31.c ****  * You may obtain a copy of the License at
  20:../Dave/Generated/CMSIS_DSP/Source/TransformFunctions/arm_cfft_radix4_q31.c ****  *
  21:../Dave/Generated/CMSIS_DSP/Source/TransformFunctions/arm_cfft_radix4_q31.c ****  * www.apache.org/licenses/LICENSE-2.0
  22:../Dave/Generated/CMSIS_DSP/Source/TransformFunctions/arm_cfft_radix4_q31.c ****  *
  23:../Dave/Generated/CMSIS_DSP/Source/TransformFunctions/arm_cfft_radix4_q31.c ****  * Unless required by applicable law or agreed to in writing, software
  24:../Dave/Generated/CMSIS_DSP/Source/TransformFunctions/arm_cfft_radix4_q31.c ****  * distributed under the License is distributed on an AS IS BASIS, WITHOUT
  25:../Dave/Generated/CMSIS_DSP/Source/TransformFunctions/arm_cfft_radix4_q31.c ****  * WARRANTIES OR CONDITIONS OF ANY KIND, either express or implied.
  26:../Dave/Generated/CMSIS_DSP/Source/TransformFunctions/arm_cfft_radix4_q31.c ****  * See the License for the specific language governing permissions and
  27:../Dave/Generated/CMSIS_DSP/Source/TransformFunctions/arm_cfft_radix4_q31.c ****  * limitations under the License.
  28:../Dave/Generated/CMSIS_DSP/Source/TransformFunctions/arm_cfft_radix4_q31.c ****  */
  29:../Dave/Generated/CMSIS_DSP/Source/TransformFunctions/arm_cfft_radix4_q31.c **** 
  30:../Dave/Generated/CMSIS_DSP/Source/TransformFunctions/arm_cfft_radix4_q31.c **** #include "CMSIS_DSP/cmsis_dsp.h"
  31:../Dave/Generated/CMSIS_DSP/Source/TransformFunctions/arm_cfft_radix4_q31.c **** 
  32:../Dave/Generated/CMSIS_DSP/Source/TransformFunctions/arm_cfft_radix4_q31.c **** void arm_radix4_butterfly_inverse_q31(
  33:../Dave/Generated/CMSIS_DSP/Source/TransformFunctions/arm_cfft_radix4_q31.c ****         q31_t * pSrc,
  34:../Dave/Generated/CMSIS_DSP/Source/TransformFunctions/arm_cfft_radix4_q31.c ****         uint32_t fftLen,
  35:../Dave/Generated/CMSIS_DSP/Source/TransformFunctions/arm_cfft_radix4_q31.c ****   const q31_t * pCoef,
  36:../Dave/Generated/CMSIS_DSP/Source/TransformFunctions/arm_cfft_radix4_q31.c ****         uint32_t twidCoefModifier);
  37:../Dave/Generated/CMSIS_DSP/Source/TransformFunctions/arm_cfft_radix4_q31.c **** 
  38:../Dave/Generated/CMSIS_DSP/Source/TransformFunctions/arm_cfft_radix4_q31.c **** void arm_radix4_butterfly_q31(
  39:../Dave/Generated/CMSIS_DSP/Source/TransformFunctions/arm_cfft_radix4_q31.c ****         q31_t * pSrc,
  40:../Dave/Generated/CMSIS_DSP/Source/TransformFunctions/arm_cfft_radix4_q31.c ****         uint32_t fftLen,
  41:../Dave/Generated/CMSIS_DSP/Source/TransformFunctions/arm_cfft_radix4_q31.c ****   const q31_t * pCoef,
  42:../Dave/Generated/CMSIS_DSP/Source/TransformFunctions/arm_cfft_radix4_q31.c ****         uint32_t twidCoefModifier);
  43:../Dave/Generated/CMSIS_DSP/Source/TransformFunctions/arm_cfft_radix4_q31.c **** 
  44:../Dave/Generated/CMSIS_DSP/Source/TransformFunctions/arm_cfft_radix4_q31.c **** void arm_bitreversal_q31(
  45:../Dave/Generated/CMSIS_DSP/Source/TransformFunctions/arm_cfft_radix4_q31.c ****         q31_t * pSrc,
  46:../Dave/Generated/CMSIS_DSP/Source/TransformFunctions/arm_cfft_radix4_q31.c ****         uint32_t fftLen,
  47:../Dave/Generated/CMSIS_DSP/Source/TransformFunctions/arm_cfft_radix4_q31.c ****         uint16_t bitRevFactor,
  48:../Dave/Generated/CMSIS_DSP/Source/TransformFunctions/arm_cfft_radix4_q31.c ****   const uint16_t * pBitRevTab);
  49:../Dave/Generated/CMSIS_DSP/Source/TransformFunctions/arm_cfft_radix4_q31.c **** 
  50:../Dave/Generated/CMSIS_DSP/Source/TransformFunctions/arm_cfft_radix4_q31.c **** /**
  51:../Dave/Generated/CMSIS_DSP/Source/TransformFunctions/arm_cfft_radix4_q31.c ****   @ingroup groupTransforms
  52:../Dave/Generated/CMSIS_DSP/Source/TransformFunctions/arm_cfft_radix4_q31.c ****  */
  53:../Dave/Generated/CMSIS_DSP/Source/TransformFunctions/arm_cfft_radix4_q31.c **** 
  54:../Dave/Generated/CMSIS_DSP/Source/TransformFunctions/arm_cfft_radix4_q31.c **** /**
  55:../Dave/Generated/CMSIS_DSP/Source/TransformFunctions/arm_cfft_radix4_q31.c ****   @addtogroup ComplexFFT
  56:../Dave/Generated/CMSIS_DSP/Source/TransformFunctions/arm_cfft_radix4_q31.c ****   @{
  57:../Dave/Generated/CMSIS_DSP/Source/TransformFunctions/arm_cfft_radix4_q31.c ****  */
  58:../Dave/Generated/CMSIS_DSP/Source/TransformFunctions/arm_cfft_radix4_q31.c **** 
  59:../Dave/Generated/CMSIS_DSP/Source/TransformFunctions/arm_cfft_radix4_q31.c **** /**
  60:../Dave/Generated/CMSIS_DSP/Source/TransformFunctions/arm_cfft_radix4_q31.c ****   @brief         Processing function for the Q31 CFFT/CIFFT.
  61:../Dave/Generated/CMSIS_DSP/Source/TransformFunctions/arm_cfft_radix4_q31.c ****   @deprecated    Do not use this function.  It has been superseded by \ref arm_cfft_q31 and will be
  62:../Dave/Generated/CMSIS_DSP/Source/TransformFunctions/arm_cfft_radix4_q31.c ****   @param[in]     S    points to an instance of the Q31 CFFT/CIFFT structure
  63:../Dave/Generated/CMSIS_DSP/Source/TransformFunctions/arm_cfft_radix4_q31.c ****   @param[in,out] pSrc points to the complex data buffer of size <code>2*fftLen</code>. Processing o
  64:../Dave/Generated/CMSIS_DSP/Source/TransformFunctions/arm_cfft_radix4_q31.c ****   @return        none
  65:../Dave/Generated/CMSIS_DSP/Source/TransformFunctions/arm_cfft_radix4_q31.c ****  
  66:../Dave/Generated/CMSIS_DSP/Source/TransformFunctions/arm_cfft_radix4_q31.c ****   @par Input and output formats:
  67:../Dave/Generated/CMSIS_DSP/Source/TransformFunctions/arm_cfft_radix4_q31.c ****                  Internally input is downscaled by 2 for every stage to avoid saturations inside CF
  68:../Dave/Generated/CMSIS_DSP/Source/TransformFunctions/arm_cfft_radix4_q31.c ****                  Hence the output format is different for different FFT sizes.
  69:../Dave/Generated/CMSIS_DSP/Source/TransformFunctions/arm_cfft_radix4_q31.c ****                  The input and output formats for different FFT sizes and number of bits to upscale
  70:../Dave/Generated/CMSIS_DSP/Source/TransformFunctions/arm_cfft_radix4_q31.c ****   @par
  71:../Dave/Generated/CMSIS_DSP/Source/TransformFunctions/arm_cfft_radix4_q31.c ****                  \image html CFFTQ31.gif "Input and Output Formats for Q31 CFFT"
  72:../Dave/Generated/CMSIS_DSP/Source/TransformFunctions/arm_cfft_radix4_q31.c ****                  \image html CIFFTQ31.gif "Input and Output Formats for Q31 CIFFT"
  73:../Dave/Generated/CMSIS_DSP/Source/TransformFunctions/arm_cfft_radix4_q31.c ****  */
  74:../Dave/Generated/CMSIS_DSP/Source/TransformFunctions/arm_cfft_radix4_q31.c **** 
  75:../Dave/Generated/CMSIS_DSP/Source/TransformFunctions/arm_cfft_radix4_q31.c **** void arm_cfft_radix4_q31(
  76:../Dave/Generated/CMSIS_DSP/Source/TransformFunctions/arm_cfft_radix4_q31.c ****   const arm_cfft_radix4_instance_q31 * S,
  77:../Dave/Generated/CMSIS_DSP/Source/TransformFunctions/arm_cfft_radix4_q31.c ****         q31_t * pSrc)
  78:../Dave/Generated/CMSIS_DSP/Source/TransformFunctions/arm_cfft_radix4_q31.c **** {
  28              	 .loc 1 78 0
  29              	 .cfi_startproc
  30              	 
  31              	 
  32 0000 80B5     	 push {r7,lr}
  33              	.LCFI0:
  34              	 .cfi_def_cfa_offset 8
  35              	 .cfi_offset 7,-8
  36              	 .cfi_offset 14,-4
  37 0002 82B0     	 sub sp,sp,#8
  38              	.LCFI1:
  39              	 .cfi_def_cfa_offset 16
  40 0004 00AF     	 add r7,sp,#0
  41              	.LCFI2:
  42              	 .cfi_def_cfa_register 7
  43 0006 7860     	 str r0,[r7,#4]
  44 0008 3960     	 str r1,[r7]
  79:../Dave/Generated/CMSIS_DSP/Source/TransformFunctions/arm_cfft_radix4_q31.c ****   if (S->ifftFlag == 1U)
  45              	 .loc 1 79 0
  46 000a 7B68     	 ldr r3,[r7,#4]
  47 000c 9B78     	 ldrb r3,[r3,#2]
  48 000e 012B     	 cmp r3,#1
  49 0010 0AD1     	 bne .L2
  80:../Dave/Generated/CMSIS_DSP/Source/TransformFunctions/arm_cfft_radix4_q31.c ****   {
  81:../Dave/Generated/CMSIS_DSP/Source/TransformFunctions/arm_cfft_radix4_q31.c ****     /* Complex IFFT radix-4 */
  82:../Dave/Generated/CMSIS_DSP/Source/TransformFunctions/arm_cfft_radix4_q31.c ****     arm_radix4_butterfly_inverse_q31(pSrc, S->fftLen, S->pTwiddle, S->twidCoefModifier);
  50              	 .loc 1 82 0
  51 0012 7B68     	 ldr r3,[r7,#4]
  52 0014 1B88     	 ldrh r3,[r3]
  53 0016 1946     	 mov r1,r3
  54 0018 7B68     	 ldr r3,[r7,#4]
  55 001a 5A68     	 ldr r2,[r3,#4]
  56 001c 7B68     	 ldr r3,[r7,#4]
  57 001e 9B89     	 ldrh r3,[r3,#12]
  58 0020 3868     	 ldr r0,[r7]
  59 0022 FFF7FEFF 	 bl arm_radix4_butterfly_inverse_q31
  60 0026 09E0     	 b .L3
  61              	.L2:
  83:../Dave/Generated/CMSIS_DSP/Source/TransformFunctions/arm_cfft_radix4_q31.c ****   }
  84:../Dave/Generated/CMSIS_DSP/Source/TransformFunctions/arm_cfft_radix4_q31.c ****   else
  85:../Dave/Generated/CMSIS_DSP/Source/TransformFunctions/arm_cfft_radix4_q31.c ****   {
  86:../Dave/Generated/CMSIS_DSP/Source/TransformFunctions/arm_cfft_radix4_q31.c ****     /* Complex FFT radix-4 */
  87:../Dave/Generated/CMSIS_DSP/Source/TransformFunctions/arm_cfft_radix4_q31.c ****     arm_radix4_butterfly_q31(pSrc, S->fftLen, S->pTwiddle, S->twidCoefModifier);
  62              	 .loc 1 87 0
  63 0028 7B68     	 ldr r3,[r7,#4]
  64 002a 1B88     	 ldrh r3,[r3]
  65 002c 1946     	 mov r1,r3
  66 002e 7B68     	 ldr r3,[r7,#4]
  67 0030 5A68     	 ldr r2,[r3,#4]
  68 0032 7B68     	 ldr r3,[r7,#4]
  69 0034 9B89     	 ldrh r3,[r3,#12]
  70 0036 3868     	 ldr r0,[r7]
  71 0038 FFF7FEFF 	 bl arm_radix4_butterfly_q31
  72              	.L3:
  88:../Dave/Generated/CMSIS_DSP/Source/TransformFunctions/arm_cfft_radix4_q31.c ****   }
  89:../Dave/Generated/CMSIS_DSP/Source/TransformFunctions/arm_cfft_radix4_q31.c **** 
  90:../Dave/Generated/CMSIS_DSP/Source/TransformFunctions/arm_cfft_radix4_q31.c ****   if (S->bitReverseFlag == 1U)
  73              	 .loc 1 90 0
  74 003c 7B68     	 ldr r3,[r7,#4]
  75 003e DB78     	 ldrb r3,[r3,#3]
  76 0040 012B     	 cmp r3,#1
  77 0042 09D1     	 bne .L1
  91:../Dave/Generated/CMSIS_DSP/Source/TransformFunctions/arm_cfft_radix4_q31.c ****   {
  92:../Dave/Generated/CMSIS_DSP/Source/TransformFunctions/arm_cfft_radix4_q31.c ****     /*  Bit Reversal */
  93:../Dave/Generated/CMSIS_DSP/Source/TransformFunctions/arm_cfft_radix4_q31.c ****     arm_bitreversal_q31(pSrc, S->fftLen, S->bitRevFactor, S->pBitRevTable);
  78              	 .loc 1 93 0
  79 0044 7B68     	 ldr r3,[r7,#4]
  80 0046 1B88     	 ldrh r3,[r3]
  81 0048 1946     	 mov r1,r3
  82 004a 7B68     	 ldr r3,[r7,#4]
  83 004c DA89     	 ldrh r2,[r3,#14]
  84 004e 7B68     	 ldr r3,[r7,#4]
  85 0050 9B68     	 ldr r3,[r3,#8]
  86 0052 3868     	 ldr r0,[r7]
  87 0054 FFF7FEFF 	 bl arm_bitreversal_q31
  88              	.L1:
  94:../Dave/Generated/CMSIS_DSP/Source/TransformFunctions/arm_cfft_radix4_q31.c ****   }
  95:../Dave/Generated/CMSIS_DSP/Source/TransformFunctions/arm_cfft_radix4_q31.c **** 
  96:../Dave/Generated/CMSIS_DSP/Source/TransformFunctions/arm_cfft_radix4_q31.c **** }
  89              	 .loc 1 96 0
  90 0058 0837     	 adds r7,r7,#8
  91              	.LCFI3:
  92              	 .cfi_def_cfa_offset 8
  93 005a BD46     	 mov sp,r7
  94              	.LCFI4:
  95              	 .cfi_def_cfa_register 13
  96              	 
  97 005c 80BD     	 pop {r7,pc}
  98              	 .cfi_endproc
  99              	.LFE149:
 101 005e 00BF     	 .section .text.arm_radix4_butterfly_q31,"ax",%progbits
 102              	 .align 2
 103              	 .global arm_radix4_butterfly_q31
 104              	 .thumb
 105              	 .thumb_func
 107              	arm_radix4_butterfly_q31:
 108              	.LFB150:
  97:../Dave/Generated/CMSIS_DSP/Source/TransformFunctions/arm_cfft_radix4_q31.c **** 
  98:../Dave/Generated/CMSIS_DSP/Source/TransformFunctions/arm_cfft_radix4_q31.c **** /**
  99:../Dave/Generated/CMSIS_DSP/Source/TransformFunctions/arm_cfft_radix4_q31.c ****   @} end of ComplexFFT group
 100:../Dave/Generated/CMSIS_DSP/Source/TransformFunctions/arm_cfft_radix4_q31.c ****  */
 101:../Dave/Generated/CMSIS_DSP/Source/TransformFunctions/arm_cfft_radix4_q31.c **** 
 102:../Dave/Generated/CMSIS_DSP/Source/TransformFunctions/arm_cfft_radix4_q31.c **** /*
 103:../Dave/Generated/CMSIS_DSP/Source/TransformFunctions/arm_cfft_radix4_q31.c ****  * Radix-4 FFT algorithm used is :
 104:../Dave/Generated/CMSIS_DSP/Source/TransformFunctions/arm_cfft_radix4_q31.c ****  *
 105:../Dave/Generated/CMSIS_DSP/Source/TransformFunctions/arm_cfft_radix4_q31.c ****  * Input real and imaginary data:
 106:../Dave/Generated/CMSIS_DSP/Source/TransformFunctions/arm_cfft_radix4_q31.c ****  * x(n) = xa + j * ya
 107:../Dave/Generated/CMSIS_DSP/Source/TransformFunctions/arm_cfft_radix4_q31.c ****  * x(n+N/4 ) = xb + j * yb
 108:../Dave/Generated/CMSIS_DSP/Source/TransformFunctions/arm_cfft_radix4_q31.c ****  * x(n+N/2 ) = xc + j * yc
 109:../Dave/Generated/CMSIS_DSP/Source/TransformFunctions/arm_cfft_radix4_q31.c ****  * x(n+3N 4) = xd + j * yd
 110:../Dave/Generated/CMSIS_DSP/Source/TransformFunctions/arm_cfft_radix4_q31.c ****  *
 111:../Dave/Generated/CMSIS_DSP/Source/TransformFunctions/arm_cfft_radix4_q31.c ****  *
 112:../Dave/Generated/CMSIS_DSP/Source/TransformFunctions/arm_cfft_radix4_q31.c ****  * Output real and imaginary data:
 113:../Dave/Generated/CMSIS_DSP/Source/TransformFunctions/arm_cfft_radix4_q31.c ****  * x(4r) = xa'+ j * ya'
 114:../Dave/Generated/CMSIS_DSP/Source/TransformFunctions/arm_cfft_radix4_q31.c ****  * x(4r+1) = xb'+ j * yb'
 115:../Dave/Generated/CMSIS_DSP/Source/TransformFunctions/arm_cfft_radix4_q31.c ****  * x(4r+2) = xc'+ j * yc'
 116:../Dave/Generated/CMSIS_DSP/Source/TransformFunctions/arm_cfft_radix4_q31.c ****  * x(4r+3) = xd'+ j * yd'
 117:../Dave/Generated/CMSIS_DSP/Source/TransformFunctions/arm_cfft_radix4_q31.c ****  *
 118:../Dave/Generated/CMSIS_DSP/Source/TransformFunctions/arm_cfft_radix4_q31.c ****  *
 119:../Dave/Generated/CMSIS_DSP/Source/TransformFunctions/arm_cfft_radix4_q31.c ****  * Twiddle factors for radix-4 FFT:
 120:../Dave/Generated/CMSIS_DSP/Source/TransformFunctions/arm_cfft_radix4_q31.c ****  * Wn = co1 + j * (- si1)
 121:../Dave/Generated/CMSIS_DSP/Source/TransformFunctions/arm_cfft_radix4_q31.c ****  * W2n = co2 + j * (- si2)
 122:../Dave/Generated/CMSIS_DSP/Source/TransformFunctions/arm_cfft_radix4_q31.c ****  * W3n = co3 + j * (- si3)
 123:../Dave/Generated/CMSIS_DSP/Source/TransformFunctions/arm_cfft_radix4_q31.c ****  *
 124:../Dave/Generated/CMSIS_DSP/Source/TransformFunctions/arm_cfft_radix4_q31.c ****  *  Butterfly implementation:
 125:../Dave/Generated/CMSIS_DSP/Source/TransformFunctions/arm_cfft_radix4_q31.c ****  * xa' = xa + xb + xc + xd
 126:../Dave/Generated/CMSIS_DSP/Source/TransformFunctions/arm_cfft_radix4_q31.c ****  * ya' = ya + yb + yc + yd
 127:../Dave/Generated/CMSIS_DSP/Source/TransformFunctions/arm_cfft_radix4_q31.c ****  * xb' = (xa+yb-xc-yd)* co1 + (ya-xb-yc+xd)* (si1)
 128:../Dave/Generated/CMSIS_DSP/Source/TransformFunctions/arm_cfft_radix4_q31.c ****  * yb' = (ya-xb-yc+xd)* co1 - (xa+yb-xc-yd)* (si1)
 129:../Dave/Generated/CMSIS_DSP/Source/TransformFunctions/arm_cfft_radix4_q31.c ****  * xc' = (xa-xb+xc-xd)* co2 + (ya-yb+yc-yd)* (si2)
 130:../Dave/Generated/CMSIS_DSP/Source/TransformFunctions/arm_cfft_radix4_q31.c ****  * yc' = (ya-yb+yc-yd)* co2 - (xa-xb+xc-xd)* (si2)
 131:../Dave/Generated/CMSIS_DSP/Source/TransformFunctions/arm_cfft_radix4_q31.c ****  * xd' = (xa-yb-xc+yd)* co3 + (ya+xb-yc-xd)* (si3)
 132:../Dave/Generated/CMSIS_DSP/Source/TransformFunctions/arm_cfft_radix4_q31.c ****  * yd' = (ya+xb-yc-xd)* co3 - (xa-yb-xc+yd)* (si3)
 133:../Dave/Generated/CMSIS_DSP/Source/TransformFunctions/arm_cfft_radix4_q31.c ****  *
 134:../Dave/Generated/CMSIS_DSP/Source/TransformFunctions/arm_cfft_radix4_q31.c ****  */
 135:../Dave/Generated/CMSIS_DSP/Source/TransformFunctions/arm_cfft_radix4_q31.c **** 
 136:../Dave/Generated/CMSIS_DSP/Source/TransformFunctions/arm_cfft_radix4_q31.c **** /**
 137:../Dave/Generated/CMSIS_DSP/Source/TransformFunctions/arm_cfft_radix4_q31.c ****   @brief         Core function for the Q31 CFFT butterfly process.
 138:../Dave/Generated/CMSIS_DSP/Source/TransformFunctions/arm_cfft_radix4_q31.c ****   @param[in,out] pSrc             points to the in-place buffer of Q31 data type.
 139:../Dave/Generated/CMSIS_DSP/Source/TransformFunctions/arm_cfft_radix4_q31.c ****   @param[in]     fftLen           length of the FFT.
 140:../Dave/Generated/CMSIS_DSP/Source/TransformFunctions/arm_cfft_radix4_q31.c ****   @param[in]     pCoef            points to twiddle coefficient buffer.
 141:../Dave/Generated/CMSIS_DSP/Source/TransformFunctions/arm_cfft_radix4_q31.c ****   @param[in]     twidCoefModifier twiddle coefficient modifier that supports different size FFTs wi
 142:../Dave/Generated/CMSIS_DSP/Source/TransformFunctions/arm_cfft_radix4_q31.c ****   @return        none
 143:../Dave/Generated/CMSIS_DSP/Source/TransformFunctions/arm_cfft_radix4_q31.c ****  */
 144:../Dave/Generated/CMSIS_DSP/Source/TransformFunctions/arm_cfft_radix4_q31.c **** 
 145:../Dave/Generated/CMSIS_DSP/Source/TransformFunctions/arm_cfft_radix4_q31.c **** void arm_radix4_butterfly_q31(
 146:../Dave/Generated/CMSIS_DSP/Source/TransformFunctions/arm_cfft_radix4_q31.c ****         q31_t * pSrc,
 147:../Dave/Generated/CMSIS_DSP/Source/TransformFunctions/arm_cfft_radix4_q31.c ****         uint32_t fftLen,
 148:../Dave/Generated/CMSIS_DSP/Source/TransformFunctions/arm_cfft_radix4_q31.c ****   const q31_t * pCoef,
 149:../Dave/Generated/CMSIS_DSP/Source/TransformFunctions/arm_cfft_radix4_q31.c ****         uint32_t twidCoefModifier)
 150:../Dave/Generated/CMSIS_DSP/Source/TransformFunctions/arm_cfft_radix4_q31.c **** {
 109              	 .loc 1 150 0
 110              	 .cfi_startproc
 111              	 
 112              	 
 113 0000 2DE9F04F 	 push {r4,r5,r6,r7,r8,r9,r10,fp,lr}
 114              	.LCFI5:
 115              	 .cfi_def_cfa_offset 36
 116              	 .cfi_offset 4,-36
 117              	 .cfi_offset 5,-32
 118              	 .cfi_offset 6,-28
 119              	 .cfi_offset 7,-24
 120              	 .cfi_offset 8,-20
 121              	 .cfi_offset 9,-16
 122              	 .cfi_offset 10,-12
 123              	 .cfi_offset 11,-8
 124              	 .cfi_offset 14,-4
 125 0004 D9B0     	 sub sp,sp,#356
 126              	.LCFI6:
 127              	 .cfi_def_cfa_offset 392
 128 0006 00AF     	 add r7,sp,#0
 129              	.LCFI7:
 130              	 .cfi_def_cfa_register 7
 131 0008 C7F8BC00 	 str r0,[r7,#188]
 132 000c C7F8B810 	 str r1,[r7,#184]
 133 0010 C7F8B420 	 str r2,[r7,#180]
 134 0014 C7F8B030 	 str r3,[r7,#176]
 151:../Dave/Generated/CMSIS_DSP/Source/TransformFunctions/arm_cfft_radix4_q31.c ****         uint32_t n1, n2, ia1, ia2, ia3, i0, i1, i2, i3, j, k;
 152:../Dave/Generated/CMSIS_DSP/Source/TransformFunctions/arm_cfft_radix4_q31.c ****         q31_t t1, t2, r1, r2, s1, s2, co1, co2, co3, si1, si2, si3;
 153:../Dave/Generated/CMSIS_DSP/Source/TransformFunctions/arm_cfft_radix4_q31.c ****         
 154:../Dave/Generated/CMSIS_DSP/Source/TransformFunctions/arm_cfft_radix4_q31.c ****         q31_t xa, xb, xc, xd;
 155:../Dave/Generated/CMSIS_DSP/Source/TransformFunctions/arm_cfft_radix4_q31.c ****         q31_t ya, yb, yc, yd;
 156:../Dave/Generated/CMSIS_DSP/Source/TransformFunctions/arm_cfft_radix4_q31.c ****         q31_t xa_out, xb_out, xc_out, xd_out;
 157:../Dave/Generated/CMSIS_DSP/Source/TransformFunctions/arm_cfft_radix4_q31.c ****         q31_t ya_out, yb_out, yc_out, yd_out;
 158:../Dave/Generated/CMSIS_DSP/Source/TransformFunctions/arm_cfft_radix4_q31.c ****         
 159:../Dave/Generated/CMSIS_DSP/Source/TransformFunctions/arm_cfft_radix4_q31.c ****         q31_t *ptr1;
 160:../Dave/Generated/CMSIS_DSP/Source/TransformFunctions/arm_cfft_radix4_q31.c **** 
 161:../Dave/Generated/CMSIS_DSP/Source/TransformFunctions/arm_cfft_radix4_q31.c ****   /* Total process is divided into three stages */
 162:../Dave/Generated/CMSIS_DSP/Source/TransformFunctions/arm_cfft_radix4_q31.c **** 
 163:../Dave/Generated/CMSIS_DSP/Source/TransformFunctions/arm_cfft_radix4_q31.c ****   /* process first stage, middle stages, & last stage */
 164:../Dave/Generated/CMSIS_DSP/Source/TransformFunctions/arm_cfft_radix4_q31.c **** 
 165:../Dave/Generated/CMSIS_DSP/Source/TransformFunctions/arm_cfft_radix4_q31.c **** 
 166:../Dave/Generated/CMSIS_DSP/Source/TransformFunctions/arm_cfft_radix4_q31.c ****   /* start of first stage process */
 167:../Dave/Generated/CMSIS_DSP/Source/TransformFunctions/arm_cfft_radix4_q31.c **** 
 168:../Dave/Generated/CMSIS_DSP/Source/TransformFunctions/arm_cfft_radix4_q31.c ****   /*  Initializations for the first stage */
 169:../Dave/Generated/CMSIS_DSP/Source/TransformFunctions/arm_cfft_radix4_q31.c ****   n2 = fftLen;
 135              	 .loc 1 169 0
 136 0018 D7F8B830 	 ldr r3,[r7,#184]
 137 001c C7F85C31 	 str r3,[r7,#348]
 170:../Dave/Generated/CMSIS_DSP/Source/TransformFunctions/arm_cfft_radix4_q31.c ****   n1 = n2;
 138              	 .loc 1 170 0
 139 0020 D7F85C31 	 ldr r3,[r7,#348]
 140 0024 C7F84431 	 str r3,[r7,#324]
 171:../Dave/Generated/CMSIS_DSP/Source/TransformFunctions/arm_cfft_radix4_q31.c ****   /* n2 = fftLen/4 */
 172:../Dave/Generated/CMSIS_DSP/Source/TransformFunctions/arm_cfft_radix4_q31.c ****   n2 >>= 2U;
 141              	 .loc 1 172 0
 142 0028 D7F85C31 	 ldr r3,[r7,#348]
 143 002c 9B08     	 lsrs r3,r3,#2
 144 002e C7F85C31 	 str r3,[r7,#348]
 173:../Dave/Generated/CMSIS_DSP/Source/TransformFunctions/arm_cfft_radix4_q31.c ****   i0 = 0U;
 145              	 .loc 1 173 0
 146 0032 0023     	 movs r3,#0
 147 0034 C7F85431 	 str r3,[r7,#340]
 174:../Dave/Generated/CMSIS_DSP/Source/TransformFunctions/arm_cfft_radix4_q31.c ****   ia1 = 0U;
 148              	 .loc 1 174 0
 149 0038 0023     	 movs r3,#0
 150 003a C7F85831 	 str r3,[r7,#344]
 175:../Dave/Generated/CMSIS_DSP/Source/TransformFunctions/arm_cfft_radix4_q31.c **** 
 176:../Dave/Generated/CMSIS_DSP/Source/TransformFunctions/arm_cfft_radix4_q31.c ****   j = n2;
 151              	 .loc 1 176 0
 152 003e D7F85C31 	 ldr r3,[r7,#348]
 153 0042 C7F85031 	 str r3,[r7,#336]
 154              	.L6:
 177:../Dave/Generated/CMSIS_DSP/Source/TransformFunctions/arm_cfft_radix4_q31.c **** 
 178:../Dave/Generated/CMSIS_DSP/Source/TransformFunctions/arm_cfft_radix4_q31.c ****   /*  Calculation of first stage */
 179:../Dave/Generated/CMSIS_DSP/Source/TransformFunctions/arm_cfft_radix4_q31.c ****   do
 180:../Dave/Generated/CMSIS_DSP/Source/TransformFunctions/arm_cfft_radix4_q31.c ****   {
 181:../Dave/Generated/CMSIS_DSP/Source/TransformFunctions/arm_cfft_radix4_q31.c ****     /*  index calculation for the input as, */
 182:../Dave/Generated/CMSIS_DSP/Source/TransformFunctions/arm_cfft_radix4_q31.c ****     /*  pSrc[i0 + 0], pSrc[i0 + fftLen/4], pSrc[i0 + fftLen/2U], pSrc[i0 + 3fftLen/4] */
 183:../Dave/Generated/CMSIS_DSP/Source/TransformFunctions/arm_cfft_radix4_q31.c ****     i1 = i0 + n2;
 155              	 .loc 1 183 0 discriminator 1
 156 0046 D7F85421 	 ldr r2,[r7,#340]
 157 004a D7F85C31 	 ldr r3,[r7,#348]
 158 004e 1344     	 add r3,r3,r2
 159 0050 C7F84031 	 str r3,[r7,#320]
 184:../Dave/Generated/CMSIS_DSP/Source/TransformFunctions/arm_cfft_radix4_q31.c ****     i2 = i1 + n2;
 160              	 .loc 1 184 0 discriminator 1
 161 0054 D7F84021 	 ldr r2,[r7,#320]
 162 0058 D7F85C31 	 ldr r3,[r7,#348]
 163 005c 1344     	 add r3,r3,r2
 164 005e C7F83C31 	 str r3,[r7,#316]
 185:../Dave/Generated/CMSIS_DSP/Source/TransformFunctions/arm_cfft_radix4_q31.c ****     i3 = i2 + n2;
 165              	 .loc 1 185 0 discriminator 1
 166 0062 D7F83C21 	 ldr r2,[r7,#316]
 167 0066 D7F85C31 	 ldr r3,[r7,#348]
 168 006a 1344     	 add r3,r3,r2
 169 006c C7F83831 	 str r3,[r7,#312]
 186:../Dave/Generated/CMSIS_DSP/Source/TransformFunctions/arm_cfft_radix4_q31.c **** 
 187:../Dave/Generated/CMSIS_DSP/Source/TransformFunctions/arm_cfft_radix4_q31.c ****     /* input is in 1.31(q31) format and provide 4 guard bits for the input */
 188:../Dave/Generated/CMSIS_DSP/Source/TransformFunctions/arm_cfft_radix4_q31.c **** 
 189:../Dave/Generated/CMSIS_DSP/Source/TransformFunctions/arm_cfft_radix4_q31.c ****     /*  Butterfly implementation */
 190:../Dave/Generated/CMSIS_DSP/Source/TransformFunctions/arm_cfft_radix4_q31.c ****     /* xa + xc */
 191:../Dave/Generated/CMSIS_DSP/Source/TransformFunctions/arm_cfft_radix4_q31.c ****     r1 = (pSrc[(2U * i0)] >> 4U) + (pSrc[(2U * i2)] >> 4U);
 170              	 .loc 1 191 0 discriminator 1
 171 0070 D7F85431 	 ldr r3,[r7,#340]
 172 0074 DA00     	 lsls r2,r3,#3
 173 0076 D7F8BC30 	 ldr r3,[r7,#188]
 174 007a 1344     	 add r3,r3,r2
 175 007c 1B68     	 ldr r3,[r3]
 176 007e 1911     	 asrs r1,r3,#4
 177 0080 D7F83C31 	 ldr r3,[r7,#316]
 178 0084 DA00     	 lsls r2,r3,#3
 179 0086 D7F8BC30 	 ldr r3,[r7,#188]
 180 008a 1344     	 add r3,r3,r2
 181 008c 1B68     	 ldr r3,[r3]
 182 008e 1B11     	 asrs r3,r3,#4
 183 0090 0B44     	 add r3,r3,r1
 184 0092 C7F83431 	 str r3,[r7,#308]
 192:../Dave/Generated/CMSIS_DSP/Source/TransformFunctions/arm_cfft_radix4_q31.c ****     /* xa - xc */
 193:../Dave/Generated/CMSIS_DSP/Source/TransformFunctions/arm_cfft_radix4_q31.c ****     r2 = (pSrc[(2U * i0)] >> 4U) - (pSrc[(2U * i2)] >> 4U);
 185              	 .loc 1 193 0 discriminator 1
 186 0096 D7F85431 	 ldr r3,[r7,#340]
 187 009a DA00     	 lsls r2,r3,#3
 188 009c D7F8BC30 	 ldr r3,[r7,#188]
 189 00a0 1344     	 add r3,r3,r2
 190 00a2 1B68     	 ldr r3,[r3]
 191 00a4 1911     	 asrs r1,r3,#4
 192 00a6 D7F83C31 	 ldr r3,[r7,#316]
 193 00aa DA00     	 lsls r2,r3,#3
 194 00ac D7F8BC30 	 ldr r3,[r7,#188]
 195 00b0 1344     	 add r3,r3,r2
 196 00b2 1B68     	 ldr r3,[r3]
 197 00b4 1B11     	 asrs r3,r3,#4
 198 00b6 CB1A     	 subs r3,r1,r3
 199 00b8 C7F83031 	 str r3,[r7,#304]
 194:../Dave/Generated/CMSIS_DSP/Source/TransformFunctions/arm_cfft_radix4_q31.c **** 
 195:../Dave/Generated/CMSIS_DSP/Source/TransformFunctions/arm_cfft_radix4_q31.c ****     /* xb + xd */
 196:../Dave/Generated/CMSIS_DSP/Source/TransformFunctions/arm_cfft_radix4_q31.c ****     t1 = (pSrc[(2U * i1)] >> 4U) + (pSrc[(2U * i3)] >> 4U);
 200              	 .loc 1 196 0 discriminator 1
 201 00bc D7F84031 	 ldr r3,[r7,#320]
 202 00c0 DA00     	 lsls r2,r3,#3
 203 00c2 D7F8BC30 	 ldr r3,[r7,#188]
 204 00c6 1344     	 add r3,r3,r2
 205 00c8 1B68     	 ldr r3,[r3]
 206 00ca 1911     	 asrs r1,r3,#4
 207 00cc D7F83831 	 ldr r3,[r7,#312]
 208 00d0 DA00     	 lsls r2,r3,#3
 209 00d2 D7F8BC30 	 ldr r3,[r7,#188]
 210 00d6 1344     	 add r3,r3,r2
 211 00d8 1B68     	 ldr r3,[r3]
 212 00da 1B11     	 asrs r3,r3,#4
 213 00dc 0B44     	 add r3,r3,r1
 214 00de C7F82C31 	 str r3,[r7,#300]
 197:../Dave/Generated/CMSIS_DSP/Source/TransformFunctions/arm_cfft_radix4_q31.c **** 
 198:../Dave/Generated/CMSIS_DSP/Source/TransformFunctions/arm_cfft_radix4_q31.c ****     /* ya + yc */
 199:../Dave/Generated/CMSIS_DSP/Source/TransformFunctions/arm_cfft_radix4_q31.c ****     s1 = (pSrc[(2U * i0) + 1U] >> 4U) + (pSrc[(2U * i2) + 1U] >> 4U);
 215              	 .loc 1 199 0 discriminator 1
 216 00e2 D7F85431 	 ldr r3,[r7,#340]
 217 00e6 DB00     	 lsls r3,r3,#3
 218 00e8 1A1D     	 adds r2,r3,#4
 219 00ea D7F8BC30 	 ldr r3,[r7,#188]
 220 00ee 1344     	 add r3,r3,r2
 221 00f0 1B68     	 ldr r3,[r3]
 222 00f2 1911     	 asrs r1,r3,#4
 223 00f4 D7F83C31 	 ldr r3,[r7,#316]
 224 00f8 DB00     	 lsls r3,r3,#3
 225 00fa 1A1D     	 adds r2,r3,#4
 226 00fc D7F8BC30 	 ldr r3,[r7,#188]
 227 0100 1344     	 add r3,r3,r2
 228 0102 1B68     	 ldr r3,[r3]
 229 0104 1B11     	 asrs r3,r3,#4
 230 0106 0B44     	 add r3,r3,r1
 231 0108 C7F82831 	 str r3,[r7,#296]
 200:../Dave/Generated/CMSIS_DSP/Source/TransformFunctions/arm_cfft_radix4_q31.c ****     /* ya - yc */
 201:../Dave/Generated/CMSIS_DSP/Source/TransformFunctions/arm_cfft_radix4_q31.c ****     s2 = (pSrc[(2U * i0) + 1U] >> 4U) - (pSrc[(2U * i2) + 1U] >> 4U);
 232              	 .loc 1 201 0 discriminator 1
 233 010c D7F85431 	 ldr r3,[r7,#340]
 234 0110 DB00     	 lsls r3,r3,#3
 235 0112 1A1D     	 adds r2,r3,#4
 236 0114 D7F8BC30 	 ldr r3,[r7,#188]
 237 0118 1344     	 add r3,r3,r2
 238 011a 1B68     	 ldr r3,[r3]
 239 011c 1911     	 asrs r1,r3,#4
 240 011e D7F83C31 	 ldr r3,[r7,#316]
 241 0122 DB00     	 lsls r3,r3,#3
 242 0124 1A1D     	 adds r2,r3,#4
 243 0126 D7F8BC30 	 ldr r3,[r7,#188]
 244 012a 1344     	 add r3,r3,r2
 245 012c 1B68     	 ldr r3,[r3]
 246 012e 1B11     	 asrs r3,r3,#4
 247 0130 CB1A     	 subs r3,r1,r3
 248 0132 C7F82431 	 str r3,[r7,#292]
 202:../Dave/Generated/CMSIS_DSP/Source/TransformFunctions/arm_cfft_radix4_q31.c **** 
 203:../Dave/Generated/CMSIS_DSP/Source/TransformFunctions/arm_cfft_radix4_q31.c ****     /* xa' = xa + xb + xc + xd */
 204:../Dave/Generated/CMSIS_DSP/Source/TransformFunctions/arm_cfft_radix4_q31.c ****     pSrc[2U * i0] = (r1 + t1);
 249              	 .loc 1 204 0 discriminator 1
 250 0136 D7F85431 	 ldr r3,[r7,#340]
 251 013a DA00     	 lsls r2,r3,#3
 252 013c D7F8BC30 	 ldr r3,[r7,#188]
 253 0140 9918     	 adds r1,r3,r2
 254 0142 D7F83421 	 ldr r2,[r7,#308]
 255 0146 D7F82C31 	 ldr r3,[r7,#300]
 256 014a 1344     	 add r3,r3,r2
 257 014c 0B60     	 str r3,[r1]
 205:../Dave/Generated/CMSIS_DSP/Source/TransformFunctions/arm_cfft_radix4_q31.c ****     /* (xa + xc) - (xb + xd) */
 206:../Dave/Generated/CMSIS_DSP/Source/TransformFunctions/arm_cfft_radix4_q31.c ****     r1 = r1 - t1;
 258              	 .loc 1 206 0 discriminator 1
 259 014e D7F83421 	 ldr r2,[r7,#308]
 260 0152 D7F82C31 	 ldr r3,[r7,#300]
 261 0156 D31A     	 subs r3,r2,r3
 262 0158 C7F83431 	 str r3,[r7,#308]
 207:../Dave/Generated/CMSIS_DSP/Source/TransformFunctions/arm_cfft_radix4_q31.c ****     /* yb + yd */
 208:../Dave/Generated/CMSIS_DSP/Source/TransformFunctions/arm_cfft_radix4_q31.c ****     t2 = (pSrc[(2U * i1) + 1U] >> 4U) + (pSrc[(2U * i3) + 1U] >> 4U);
 263              	 .loc 1 208 0 discriminator 1
 264 015c D7F84031 	 ldr r3,[r7,#320]
 265 0160 DB00     	 lsls r3,r3,#3
 266 0162 1A1D     	 adds r2,r3,#4
 267 0164 D7F8BC30 	 ldr r3,[r7,#188]
 268 0168 1344     	 add r3,r3,r2
 269 016a 1B68     	 ldr r3,[r3]
 270 016c 1911     	 asrs r1,r3,#4
 271 016e D7F83831 	 ldr r3,[r7,#312]
 272 0172 DB00     	 lsls r3,r3,#3
 273 0174 1A1D     	 adds r2,r3,#4
 274 0176 D7F8BC30 	 ldr r3,[r7,#188]
 275 017a 1344     	 add r3,r3,r2
 276 017c 1B68     	 ldr r3,[r3]
 277 017e 1B11     	 asrs r3,r3,#4
 278 0180 0B44     	 add r3,r3,r1
 279 0182 C7F82031 	 str r3,[r7,#288]
 209:../Dave/Generated/CMSIS_DSP/Source/TransformFunctions/arm_cfft_radix4_q31.c **** 
 210:../Dave/Generated/CMSIS_DSP/Source/TransformFunctions/arm_cfft_radix4_q31.c ****     /* ya' = ya + yb + yc + yd */
 211:../Dave/Generated/CMSIS_DSP/Source/TransformFunctions/arm_cfft_radix4_q31.c ****     pSrc[(2U * i0) + 1U] = (s1 + t2);
 280              	 .loc 1 211 0 discriminator 1
 281 0186 D7F85431 	 ldr r3,[r7,#340]
 282 018a DB00     	 lsls r3,r3,#3
 283 018c 1A1D     	 adds r2,r3,#4
 284 018e D7F8BC30 	 ldr r3,[r7,#188]
 285 0192 9918     	 adds r1,r3,r2
 286 0194 D7F82821 	 ldr r2,[r7,#296]
 287 0198 D7F82031 	 ldr r3,[r7,#288]
 288 019c 1344     	 add r3,r3,r2
 289 019e 0B60     	 str r3,[r1]
 212:../Dave/Generated/CMSIS_DSP/Source/TransformFunctions/arm_cfft_radix4_q31.c **** 
 213:../Dave/Generated/CMSIS_DSP/Source/TransformFunctions/arm_cfft_radix4_q31.c ****     /* (ya + yc) - (yb + yd) */
 214:../Dave/Generated/CMSIS_DSP/Source/TransformFunctions/arm_cfft_radix4_q31.c ****     s1 = s1 - t2;
 290              	 .loc 1 214 0 discriminator 1
 291 01a0 D7F82821 	 ldr r2,[r7,#296]
 292 01a4 D7F82031 	 ldr r3,[r7,#288]
 293 01a8 D31A     	 subs r3,r2,r3
 294 01aa C7F82831 	 str r3,[r7,#296]
 215:../Dave/Generated/CMSIS_DSP/Source/TransformFunctions/arm_cfft_radix4_q31.c **** 
 216:../Dave/Generated/CMSIS_DSP/Source/TransformFunctions/arm_cfft_radix4_q31.c ****     /* yb - yd */
 217:../Dave/Generated/CMSIS_DSP/Source/TransformFunctions/arm_cfft_radix4_q31.c ****     t1 = (pSrc[(2U * i1) + 1U] >> 4U) - (pSrc[(2U * i3) + 1U] >> 4U);
 295              	 .loc 1 217 0 discriminator 1
 296 01ae D7F84031 	 ldr r3,[r7,#320]
 297 01b2 DB00     	 lsls r3,r3,#3
 298 01b4 1A1D     	 adds r2,r3,#4
 299 01b6 D7F8BC30 	 ldr r3,[r7,#188]
 300 01ba 1344     	 add r3,r3,r2
 301 01bc 1B68     	 ldr r3,[r3]
 302 01be 1911     	 asrs r1,r3,#4
 303 01c0 D7F83831 	 ldr r3,[r7,#312]
 304 01c4 DB00     	 lsls r3,r3,#3
 305 01c6 1A1D     	 adds r2,r3,#4
 306 01c8 D7F8BC30 	 ldr r3,[r7,#188]
 307 01cc 1344     	 add r3,r3,r2
 308 01ce 1B68     	 ldr r3,[r3]
 309 01d0 1B11     	 asrs r3,r3,#4
 310 01d2 CB1A     	 subs r3,r1,r3
 311 01d4 C7F82C31 	 str r3,[r7,#300]
 218:../Dave/Generated/CMSIS_DSP/Source/TransformFunctions/arm_cfft_radix4_q31.c ****     /* xb - xd */
 219:../Dave/Generated/CMSIS_DSP/Source/TransformFunctions/arm_cfft_radix4_q31.c ****     t2 = (pSrc[(2U * i1)] >> 4U) - (pSrc[(2U * i3)] >> 4U);
 312              	 .loc 1 219 0 discriminator 1
 313 01d8 D7F84031 	 ldr r3,[r7,#320]
 314 01dc DA00     	 lsls r2,r3,#3
 315 01de D7F8BC30 	 ldr r3,[r7,#188]
 316 01e2 1344     	 add r3,r3,r2
 317 01e4 1B68     	 ldr r3,[r3]
 318 01e6 1911     	 asrs r1,r3,#4
 319 01e8 D7F83831 	 ldr r3,[r7,#312]
 320 01ec DA00     	 lsls r2,r3,#3
 321 01ee D7F8BC30 	 ldr r3,[r7,#188]
 322 01f2 1344     	 add r3,r3,r2
 323 01f4 1B68     	 ldr r3,[r3]
 324 01f6 1B11     	 asrs r3,r3,#4
 325 01f8 CB1A     	 subs r3,r1,r3
 326 01fa C7F82031 	 str r3,[r7,#288]
 220:../Dave/Generated/CMSIS_DSP/Source/TransformFunctions/arm_cfft_radix4_q31.c **** 
 221:../Dave/Generated/CMSIS_DSP/Source/TransformFunctions/arm_cfft_radix4_q31.c ****     /*  index calculation for the coefficients */
 222:../Dave/Generated/CMSIS_DSP/Source/TransformFunctions/arm_cfft_radix4_q31.c ****     ia2 = 2U * ia1;
 327              	 .loc 1 222 0 discriminator 1
 328 01fe D7F85831 	 ldr r3,[r7,#344]
 329 0202 5B00     	 lsls r3,r3,#1
 330 0204 C7F81C31 	 str r3,[r7,#284]
 223:../Dave/Generated/CMSIS_DSP/Source/TransformFunctions/arm_cfft_radix4_q31.c ****     co2 = pCoef[(ia2 * 2U)];
 331              	 .loc 1 223 0 discriminator 1
 332 0208 D7F81C31 	 ldr r3,[r7,#284]
 333 020c DA00     	 lsls r2,r3,#3
 334 020e D7F8B430 	 ldr r3,[r7,#180]
 335 0212 1344     	 add r3,r3,r2
 336 0214 1B68     	 ldr r3,[r3]
 337 0216 C7F81831 	 str r3,[r7,#280]
 224:../Dave/Generated/CMSIS_DSP/Source/TransformFunctions/arm_cfft_radix4_q31.c ****     si2 = pCoef[(ia2 * 2U) + 1U];
 338              	 .loc 1 224 0 discriminator 1
 339 021a D7F81C31 	 ldr r3,[r7,#284]
 340 021e DB00     	 lsls r3,r3,#3
 341 0220 1A1D     	 adds r2,r3,#4
 342 0222 D7F8B430 	 ldr r3,[r7,#180]
 343 0226 1344     	 add r3,r3,r2
 344 0228 1B68     	 ldr r3,[r3]
 345 022a C7F81431 	 str r3,[r7,#276]
 225:../Dave/Generated/CMSIS_DSP/Source/TransformFunctions/arm_cfft_radix4_q31.c **** 
 226:../Dave/Generated/CMSIS_DSP/Source/TransformFunctions/arm_cfft_radix4_q31.c ****     /* xc' = (xa-xb+xc-xd)co2 + (ya-yb+yc-yd)(si2) */
 227:../Dave/Generated/CMSIS_DSP/Source/TransformFunctions/arm_cfft_radix4_q31.c ****     pSrc[2U * i1] = (((int32_t) (((q63_t) r1 * co2) >> 32)) +
 346              	 .loc 1 227 0 discriminator 1
 347 022e D7F84031 	 ldr r3,[r7,#320]
 348 0232 DA00     	 lsls r2,r3,#3
 349 0234 D7F8BC30 	 ldr r3,[r7,#188]
 350 0238 03EB020E 	 add lr,r3,r2
 351 023c D7F83431 	 ldr r3,[r7,#308]
 352 0240 1846     	 mov r0,r3
 353 0242 4FEAE071 	 asr r1,r0,#31
 354 0246 D7F81831 	 ldr r3,[r7,#280]
 355 024a 1A46     	 mov r2,r3
 356 024c 4FEAE273 	 asr r3,r2,#31
 357 0250 02FB01F5 	 mul r5,r2,r1
 358 0254 00FB03F4 	 mul r4,r0,r3
 359 0258 2C44     	 add r4,r4,r5
 360 025a A0FB0223 	 umull r2,r3,r0,r2
 361 025e E118     	 adds r1,r4,r3
 362 0260 0B46     	 mov r3,r1
 363 0262 1900     	 movs r1,r3
 364 0264 C7F8A810 	 str r1,[r7,#168]
 365 0268 DB17     	 asrs r3,r3,#31
 366 026a C7F8AC30 	 str r3,[r7,#172]
 367 026e D7F8A860 	 ldr r6,[r7,#168]
 228:../Dave/Generated/CMSIS_DSP/Source/TransformFunctions/arm_cfft_radix4_q31.c ****                      ((int32_t) (((q63_t) s1 * si2) >> 32))) << 1U;
 368              	 .loc 1 228 0 discriminator 1
 369 0272 D7F82831 	 ldr r3,[r7,#296]
 370 0276 1846     	 mov r0,r3
 371 0278 4FEAE071 	 asr r1,r0,#31
 372 027c D7F81431 	 ldr r3,[r7,#276]
 373 0280 1A46     	 mov r2,r3
 374 0282 4FEAE273 	 asr r3,r2,#31
 375 0286 02FB01F5 	 mul r5,r2,r1
 376 028a 00FB03F4 	 mul r4,r0,r3
 377 028e 2C44     	 add r4,r4,r5
 378 0290 A0FB0223 	 umull r2,r3,r0,r2
 379 0294 E118     	 adds r1,r4,r3
 380 0296 0B46     	 mov r3,r1
 381 0298 1900     	 movs r1,r3
 382 029a C7F8A010 	 str r1,[r7,#160]
 383 029e DB17     	 asrs r3,r3,#31
 384 02a0 C7F8A430 	 str r3,[r7,#164]
 385 02a4 D7F8A030 	 ldr r3,[r7,#160]
 227:../Dave/Generated/CMSIS_DSP/Source/TransformFunctions/arm_cfft_radix4_q31.c ****                      ((int32_t) (((q63_t) s1 * si2) >> 32))) << 1U;
 386              	 .loc 1 227 0 discriminator 1
 387 02a8 3344     	 add r3,r3,r6
 388              	 .loc 1 228 0 discriminator 1
 389 02aa 5B00     	 lsls r3,r3,#1
 227:../Dave/Generated/CMSIS_DSP/Source/TransformFunctions/arm_cfft_radix4_q31.c ****                      ((int32_t) (((q63_t) s1 * si2) >> 32))) << 1U;
 390              	 .loc 1 227 0 discriminator 1
 391 02ac CEF80030 	 str r3,[lr]
 229:../Dave/Generated/CMSIS_DSP/Source/TransformFunctions/arm_cfft_radix4_q31.c **** 
 230:../Dave/Generated/CMSIS_DSP/Source/TransformFunctions/arm_cfft_radix4_q31.c ****     /* yc' = (ya-yb+yc-yd)co2 - (xa-xb+xc-xd)(si2) */
 231:../Dave/Generated/CMSIS_DSP/Source/TransformFunctions/arm_cfft_radix4_q31.c ****     pSrc[(2U * i1) + 1U] = (((int32_t) (((q63_t) s1 * co2) >> 32)) -
 392              	 .loc 1 231 0 discriminator 1
 393 02b0 D7F84031 	 ldr r3,[r7,#320]
 394 02b4 DB00     	 lsls r3,r3,#3
 395 02b6 1A1D     	 adds r2,r3,#4
 396 02b8 D7F8BC30 	 ldr r3,[r7,#188]
 397 02bc 03EB020E 	 add lr,r3,r2
 398 02c0 D7F82831 	 ldr r3,[r7,#296]
 399 02c4 1846     	 mov r0,r3
 400 02c6 4FEAE071 	 asr r1,r0,#31
 401 02ca D7F81831 	 ldr r3,[r7,#280]
 402 02ce 1A46     	 mov r2,r3
 403 02d0 4FEAE273 	 asr r3,r2,#31
 404 02d4 02FB01F5 	 mul r5,r2,r1
 405 02d8 00FB03F4 	 mul r4,r0,r3
 406 02dc 2C44     	 add r4,r4,r5
 407 02de A0FB0223 	 umull r2,r3,r0,r2
 408 02e2 E118     	 adds r1,r4,r3
 409 02e4 0B46     	 mov r3,r1
 410 02e6 1900     	 movs r1,r3
 411 02e8 C7F89810 	 str r1,[r7,#152]
 412 02ec DB17     	 asrs r3,r3,#31
 413 02ee C7F89C30 	 str r3,[r7,#156]
 414 02f2 D7F89860 	 ldr r6,[r7,#152]
 232:../Dave/Generated/CMSIS_DSP/Source/TransformFunctions/arm_cfft_radix4_q31.c ****                             ((int32_t) (((q63_t) r1 * si2) >> 32))) << 1U;
 415              	 .loc 1 232 0 discriminator 1
 416 02f6 D7F83431 	 ldr r3,[r7,#308]
 417 02fa 1846     	 mov r0,r3
 418 02fc 4FEAE071 	 asr r1,r0,#31
 419 0300 D7F81431 	 ldr r3,[r7,#276]
 420 0304 1A46     	 mov r2,r3
 421 0306 4FEAE273 	 asr r3,r2,#31
 422 030a 02FB01F5 	 mul r5,r2,r1
 423 030e 00FB03F4 	 mul r4,r0,r3
 424 0312 2C44     	 add r4,r4,r5
 425 0314 A0FB0223 	 umull r2,r3,r0,r2
 426 0318 E118     	 adds r1,r4,r3
 427 031a 0B46     	 mov r3,r1
 428 031c 1900     	 movs r1,r3
 429 031e C7F89010 	 str r1,[r7,#144]
 430 0322 DB17     	 asrs r3,r3,#31
 431 0324 C7F89430 	 str r3,[r7,#148]
 432 0328 D7F89030 	 ldr r3,[r7,#144]
 231:../Dave/Generated/CMSIS_DSP/Source/TransformFunctions/arm_cfft_radix4_q31.c ****                             ((int32_t) (((q63_t) r1 * si2) >> 32))) << 1U;
 433              	 .loc 1 231 0 discriminator 1
 434 032c F31A     	 subs r3,r6,r3
 435              	 .loc 1 232 0 discriminator 1
 436 032e 5B00     	 lsls r3,r3,#1
 231:../Dave/Generated/CMSIS_DSP/Source/TransformFunctions/arm_cfft_radix4_q31.c ****                             ((int32_t) (((q63_t) r1 * si2) >> 32))) << 1U;
 437              	 .loc 1 231 0 discriminator 1
 438 0330 CEF80030 	 str r3,[lr]
 233:../Dave/Generated/CMSIS_DSP/Source/TransformFunctions/arm_cfft_radix4_q31.c **** 
 234:../Dave/Generated/CMSIS_DSP/Source/TransformFunctions/arm_cfft_radix4_q31.c ****     /* (xa - xc) + (yb - yd) */
 235:../Dave/Generated/CMSIS_DSP/Source/TransformFunctions/arm_cfft_radix4_q31.c ****     r1 = r2 + t1;
 439              	 .loc 1 235 0 discriminator 1
 440 0334 D7F83021 	 ldr r2,[r7,#304]
 441 0338 D7F82C31 	 ldr r3,[r7,#300]
 442 033c 1344     	 add r3,r3,r2
 443 033e C7F83431 	 str r3,[r7,#308]
 236:../Dave/Generated/CMSIS_DSP/Source/TransformFunctions/arm_cfft_radix4_q31.c ****     /* (xa - xc) - (yb - yd) */
 237:../Dave/Generated/CMSIS_DSP/Source/TransformFunctions/arm_cfft_radix4_q31.c ****     r2 = r2 - t1;
 444              	 .loc 1 237 0 discriminator 1
 445 0342 D7F83021 	 ldr r2,[r7,#304]
 446 0346 D7F82C31 	 ldr r3,[r7,#300]
 447 034a D31A     	 subs r3,r2,r3
 448 034c C7F83031 	 str r3,[r7,#304]
 238:../Dave/Generated/CMSIS_DSP/Source/TransformFunctions/arm_cfft_radix4_q31.c **** 
 239:../Dave/Generated/CMSIS_DSP/Source/TransformFunctions/arm_cfft_radix4_q31.c ****     /* (ya - yc) - (xb - xd) */
 240:../Dave/Generated/CMSIS_DSP/Source/TransformFunctions/arm_cfft_radix4_q31.c ****     s1 = s2 - t2;
 449              	 .loc 1 240 0 discriminator 1
 450 0350 D7F82421 	 ldr r2,[r7,#292]
 451 0354 D7F82031 	 ldr r3,[r7,#288]
 452 0358 D31A     	 subs r3,r2,r3
 453 035a C7F82831 	 str r3,[r7,#296]
 241:../Dave/Generated/CMSIS_DSP/Source/TransformFunctions/arm_cfft_radix4_q31.c ****     /* (ya - yc) + (xb - xd) */
 242:../Dave/Generated/CMSIS_DSP/Source/TransformFunctions/arm_cfft_radix4_q31.c ****     s2 = s2 + t2;
 454              	 .loc 1 242 0 discriminator 1
 455 035e D7F82421 	 ldr r2,[r7,#292]
 456 0362 D7F82031 	 ldr r3,[r7,#288]
 457 0366 1344     	 add r3,r3,r2
 458 0368 C7F82431 	 str r3,[r7,#292]
 243:../Dave/Generated/CMSIS_DSP/Source/TransformFunctions/arm_cfft_radix4_q31.c **** 
 244:../Dave/Generated/CMSIS_DSP/Source/TransformFunctions/arm_cfft_radix4_q31.c ****     co1 = pCoef[(ia1 * 2U)];
 459              	 .loc 1 244 0 discriminator 1
 460 036c D7F85831 	 ldr r3,[r7,#344]
 461 0370 DA00     	 lsls r2,r3,#3
 462 0372 D7F8B430 	 ldr r3,[r7,#180]
 463 0376 1344     	 add r3,r3,r2
 464 0378 1B68     	 ldr r3,[r3]
 465 037a C7F81031 	 str r3,[r7,#272]
 245:../Dave/Generated/CMSIS_DSP/Source/TransformFunctions/arm_cfft_radix4_q31.c ****     si1 = pCoef[(ia1 * 2U) + 1U];
 466              	 .loc 1 245 0 discriminator 1
 467 037e D7F85831 	 ldr r3,[r7,#344]
 468 0382 DB00     	 lsls r3,r3,#3
 469 0384 1A1D     	 adds r2,r3,#4
 470 0386 D7F8B430 	 ldr r3,[r7,#180]
 471 038a 1344     	 add r3,r3,r2
 472 038c 1B68     	 ldr r3,[r3]
 473 038e C7F80C31 	 str r3,[r7,#268]
 246:../Dave/Generated/CMSIS_DSP/Source/TransformFunctions/arm_cfft_radix4_q31.c **** 
 247:../Dave/Generated/CMSIS_DSP/Source/TransformFunctions/arm_cfft_radix4_q31.c ****     /* xb' = (xa+yb-xc-yd)co1 + (ya-xb-yc+xd)(si1) */
 248:../Dave/Generated/CMSIS_DSP/Source/TransformFunctions/arm_cfft_radix4_q31.c ****     pSrc[2U * i2] = (((int32_t) (((q63_t) r1 * co1) >> 32)) +
 474              	 .loc 1 248 0 discriminator 1
 475 0392 D7F83C31 	 ldr r3,[r7,#316]
 476 0396 DA00     	 lsls r2,r3,#3
 477 0398 D7F8BC30 	 ldr r3,[r7,#188]
 478 039c 03EB020E 	 add lr,r3,r2
 479 03a0 D7F83431 	 ldr r3,[r7,#308]
 480 03a4 1846     	 mov r0,r3
 481 03a6 4FEAE071 	 asr r1,r0,#31
 482 03aa D7F81031 	 ldr r3,[r7,#272]
 483 03ae 1A46     	 mov r2,r3
 484 03b0 4FEAE273 	 asr r3,r2,#31
 485 03b4 02FB01F5 	 mul r5,r2,r1
 486 03b8 00FB03F4 	 mul r4,r0,r3
 487 03bc 2C44     	 add r4,r4,r5
 488 03be A0FB0223 	 umull r2,r3,r0,r2
 489 03c2 E118     	 adds r1,r4,r3
 490 03c4 0B46     	 mov r3,r1
 491 03c6 1900     	 movs r1,r3
 492 03c8 C7F88810 	 str r1,[r7,#136]
 493 03cc DB17     	 asrs r3,r3,#31
 494 03ce C7F88C30 	 str r3,[r7,#140]
 495 03d2 D7F88860 	 ldr r6,[r7,#136]
 249:../Dave/Generated/CMSIS_DSP/Source/TransformFunctions/arm_cfft_radix4_q31.c ****                      ((int32_t) (((q63_t) s1 * si1) >> 32))) << 1U;
 496              	 .loc 1 249 0 discriminator 1
 497 03d6 D7F82831 	 ldr r3,[r7,#296]
 498 03da 1846     	 mov r0,r3
 499 03dc 4FEAE071 	 asr r1,r0,#31
 500 03e0 D7F80C31 	 ldr r3,[r7,#268]
 501 03e4 1A46     	 mov r2,r3
 502 03e6 4FEAE273 	 asr r3,r2,#31
 503 03ea 02FB01F5 	 mul r5,r2,r1
 504 03ee 00FB03F4 	 mul r4,r0,r3
 505 03f2 2C44     	 add r4,r4,r5
 506 03f4 A0FB0223 	 umull r2,r3,r0,r2
 507 03f8 E118     	 adds r1,r4,r3
 508 03fa 0B46     	 mov r3,r1
 509 03fc 1900     	 movs r1,r3
 510 03fe C7F88010 	 str r1,[r7,#128]
 511 0402 DB17     	 asrs r3,r3,#31
 512 0404 C7F88430 	 str r3,[r7,#132]
 513 0408 D7F88030 	 ldr r3,[r7,#128]
 248:../Dave/Generated/CMSIS_DSP/Source/TransformFunctions/arm_cfft_radix4_q31.c ****                      ((int32_t) (((q63_t) s1 * si1) >> 32))) << 1U;
 514              	 .loc 1 248 0 discriminator 1
 515 040c 3344     	 add r3,r3,r6
 516              	 .loc 1 249 0 discriminator 1
 517 040e 5B00     	 lsls r3,r3,#1
 248:../Dave/Generated/CMSIS_DSP/Source/TransformFunctions/arm_cfft_radix4_q31.c ****                      ((int32_t) (((q63_t) s1 * si1) >> 32))) << 1U;
 518              	 .loc 1 248 0 discriminator 1
 519 0410 CEF80030 	 str r3,[lr]
 250:../Dave/Generated/CMSIS_DSP/Source/TransformFunctions/arm_cfft_radix4_q31.c **** 
 251:../Dave/Generated/CMSIS_DSP/Source/TransformFunctions/arm_cfft_radix4_q31.c ****     /* yb' = (ya-xb-yc+xd)co1 - (xa+yb-xc-yd)(si1) */
 252:../Dave/Generated/CMSIS_DSP/Source/TransformFunctions/arm_cfft_radix4_q31.c ****     pSrc[(2U * i2) + 1U] = (((int32_t) (((q63_t) s1 * co1) >> 32)) -
 520              	 .loc 1 252 0 discriminator 1
 521 0414 D7F83C31 	 ldr r3,[r7,#316]
 522 0418 DB00     	 lsls r3,r3,#3
 523 041a 1A1D     	 adds r2,r3,#4
 524 041c D7F8BC30 	 ldr r3,[r7,#188]
 525 0420 03EB020E 	 add lr,r3,r2
 526 0424 D7F82831 	 ldr r3,[r7,#296]
 527 0428 1846     	 mov r0,r3
 528 042a 4FEAE071 	 asr r1,r0,#31
 529 042e D7F81031 	 ldr r3,[r7,#272]
 530 0432 1A46     	 mov r2,r3
 531 0434 4FEAE273 	 asr r3,r2,#31
 532 0438 02FB01F5 	 mul r5,r2,r1
 533 043c 00FB03F4 	 mul r4,r0,r3
 534 0440 2C44     	 add r4,r4,r5
 535 0442 A0FB0223 	 umull r2,r3,r0,r2
 536 0446 E118     	 adds r1,r4,r3
 537 0448 0B46     	 mov r3,r1
 538 044a 1900     	 movs r1,r3
 539 044c B967     	 str r1,[r7,#120]
 540 044e DB17     	 asrs r3,r3,#31
 541 0450 FB67     	 str r3,[r7,#124]
 542 0452 BE6F     	 ldr r6,[r7,#120]
 253:../Dave/Generated/CMSIS_DSP/Source/TransformFunctions/arm_cfft_radix4_q31.c ****                             ((int32_t) (((q63_t) r1 * si1) >> 32))) << 1U;
 543              	 .loc 1 253 0 discriminator 1
 544 0454 D7F83431 	 ldr r3,[r7,#308]
 545 0458 1846     	 mov r0,r3
 546 045a 4FEAE071 	 asr r1,r0,#31
 547 045e D7F80C31 	 ldr r3,[r7,#268]
 548 0462 1A46     	 mov r2,r3
 549 0464 4FEAE273 	 asr r3,r2,#31
 550 0468 02FB01F5 	 mul r5,r2,r1
 551 046c 00FB03F4 	 mul r4,r0,r3
 552 0470 2C44     	 add r4,r4,r5
 553 0472 A0FB0223 	 umull r2,r3,r0,r2
 554 0476 E118     	 adds r1,r4,r3
 555 0478 0B46     	 mov r3,r1
 556 047a 1900     	 movs r1,r3
 557 047c 3967     	 str r1,[r7,#112]
 558 047e DB17     	 asrs r3,r3,#31
 559 0480 7B67     	 str r3,[r7,#116]
 560 0482 3B6F     	 ldr r3,[r7,#112]
 252:../Dave/Generated/CMSIS_DSP/Source/TransformFunctions/arm_cfft_radix4_q31.c ****                             ((int32_t) (((q63_t) r1 * si1) >> 32))) << 1U;
 561              	 .loc 1 252 0 discriminator 1
 562 0484 F31A     	 subs r3,r6,r3
 563              	 .loc 1 253 0 discriminator 1
 564 0486 5B00     	 lsls r3,r3,#1
 252:../Dave/Generated/CMSIS_DSP/Source/TransformFunctions/arm_cfft_radix4_q31.c ****                             ((int32_t) (((q63_t) r1 * si1) >> 32))) << 1U;
 565              	 .loc 1 252 0 discriminator 1
 566 0488 CEF80030 	 str r3,[lr]
 254:../Dave/Generated/CMSIS_DSP/Source/TransformFunctions/arm_cfft_radix4_q31.c **** 
 255:../Dave/Generated/CMSIS_DSP/Source/TransformFunctions/arm_cfft_radix4_q31.c ****     /*  index calculation for the coefficients */
 256:../Dave/Generated/CMSIS_DSP/Source/TransformFunctions/arm_cfft_radix4_q31.c ****     ia3 = 3U * ia1;
 567              	 .loc 1 256 0 discriminator 1
 568 048c D7F85821 	 ldr r2,[r7,#344]
 569 0490 1346     	 mov r3,r2
 570 0492 5B00     	 lsls r3,r3,#1
 571 0494 1344     	 add r3,r3,r2
 572 0496 C7F80831 	 str r3,[r7,#264]
 257:../Dave/Generated/CMSIS_DSP/Source/TransformFunctions/arm_cfft_radix4_q31.c ****     co3 = pCoef[(ia3 * 2U)];
 573              	 .loc 1 257 0 discriminator 1
 574 049a D7F80831 	 ldr r3,[r7,#264]
 575 049e DA00     	 lsls r2,r3,#3
 576 04a0 D7F8B430 	 ldr r3,[r7,#180]
 577 04a4 1344     	 add r3,r3,r2
 578 04a6 1B68     	 ldr r3,[r3]
 579 04a8 C7F80431 	 str r3,[r7,#260]
 258:../Dave/Generated/CMSIS_DSP/Source/TransformFunctions/arm_cfft_radix4_q31.c ****     si3 = pCoef[(ia3 * 2U) + 1U];
 580              	 .loc 1 258 0 discriminator 1
 581 04ac D7F80831 	 ldr r3,[r7,#264]
 582 04b0 DB00     	 lsls r3,r3,#3
 583 04b2 1A1D     	 adds r2,r3,#4
 584 04b4 D7F8B430 	 ldr r3,[r7,#180]
 585 04b8 1344     	 add r3,r3,r2
 586 04ba 1B68     	 ldr r3,[r3]
 587 04bc C7F80031 	 str r3,[r7,#256]
 259:../Dave/Generated/CMSIS_DSP/Source/TransformFunctions/arm_cfft_radix4_q31.c **** 
 260:../Dave/Generated/CMSIS_DSP/Source/TransformFunctions/arm_cfft_radix4_q31.c ****     /* xd' = (xa-yb-xc+yd)co3 + (ya+xb-yc-xd)(si3) */
 261:../Dave/Generated/CMSIS_DSP/Source/TransformFunctions/arm_cfft_radix4_q31.c ****     pSrc[2U * i3] = (((int32_t) (((q63_t) r2 * co3) >> 32)) +
 588              	 .loc 1 261 0 discriminator 1
 589 04c0 D7F83831 	 ldr r3,[r7,#312]
 590 04c4 DA00     	 lsls r2,r3,#3
 591 04c6 D7F8BC30 	 ldr r3,[r7,#188]
 592 04ca 03EB020E 	 add lr,r3,r2
 593 04ce D7F83031 	 ldr r3,[r7,#304]
 594 04d2 1846     	 mov r0,r3
 595 04d4 4FEAE071 	 asr r1,r0,#31
 596 04d8 D7F80431 	 ldr r3,[r7,#260]
 597 04dc 1A46     	 mov r2,r3
 598 04de 4FEAE273 	 asr r3,r2,#31
 599 04e2 02FB01F5 	 mul r5,r2,r1
 600 04e6 00FB03F4 	 mul r4,r0,r3
 601 04ea 2C44     	 add r4,r4,r5
 602 04ec A0FB0223 	 umull r2,r3,r0,r2
 603 04f0 E118     	 adds r1,r4,r3
 604 04f2 0B46     	 mov r3,r1
 605 04f4 1900     	 movs r1,r3
 606 04f6 B966     	 str r1,[r7,#104]
 607 04f8 DB17     	 asrs r3,r3,#31
 608 04fa FB66     	 str r3,[r7,#108]
 609 04fc BE6E     	 ldr r6,[r7,#104]
 262:../Dave/Generated/CMSIS_DSP/Source/TransformFunctions/arm_cfft_radix4_q31.c ****                      ((int32_t) (((q63_t) s2 * si3) >> 32))) << 1U;
 610              	 .loc 1 262 0 discriminator 1
 611 04fe D7F82431 	 ldr r3,[r7,#292]
 612 0502 1846     	 mov r0,r3
 613 0504 4FEAE071 	 asr r1,r0,#31
 614 0508 D7F80031 	 ldr r3,[r7,#256]
 615 050c 1A46     	 mov r2,r3
 616 050e 4FEAE273 	 asr r3,r2,#31
 617 0512 02FB01F5 	 mul r5,r2,r1
 618 0516 00FB03F4 	 mul r4,r0,r3
 619 051a 2C44     	 add r4,r4,r5
 620 051c A0FB0223 	 umull r2,r3,r0,r2
 621 0520 E118     	 adds r1,r4,r3
 622 0522 0B46     	 mov r3,r1
 623 0524 1900     	 movs r1,r3
 624 0526 3966     	 str r1,[r7,#96]
 625 0528 DB17     	 asrs r3,r3,#31
 626 052a 7B66     	 str r3,[r7,#100]
 627 052c 3B6E     	 ldr r3,[r7,#96]
 261:../Dave/Generated/CMSIS_DSP/Source/TransformFunctions/arm_cfft_radix4_q31.c ****                      ((int32_t) (((q63_t) s2 * si3) >> 32))) << 1U;
 628              	 .loc 1 261 0 discriminator 1
 629 052e 3344     	 add r3,r3,r6
 630              	 .loc 1 262 0 discriminator 1
 631 0530 5B00     	 lsls r3,r3,#1
 261:../Dave/Generated/CMSIS_DSP/Source/TransformFunctions/arm_cfft_radix4_q31.c ****                      ((int32_t) (((q63_t) s2 * si3) >> 32))) << 1U;
 632              	 .loc 1 261 0 discriminator 1
 633 0532 CEF80030 	 str r3,[lr]
 263:../Dave/Generated/CMSIS_DSP/Source/TransformFunctions/arm_cfft_radix4_q31.c **** 
 264:../Dave/Generated/CMSIS_DSP/Source/TransformFunctions/arm_cfft_radix4_q31.c ****     /* yd' = (ya+xb-yc-xd)co3 - (xa-yb-xc+yd)(si3) */
 265:../Dave/Generated/CMSIS_DSP/Source/TransformFunctions/arm_cfft_radix4_q31.c ****     pSrc[(2U * i3) + 1U] = (((int32_t) (((q63_t) s2 * co3) >> 32)) -
 634              	 .loc 1 265 0 discriminator 1
 635 0536 D7F83831 	 ldr r3,[r7,#312]
 636 053a DB00     	 lsls r3,r3,#3
 637 053c 1A1D     	 adds r2,r3,#4
 638 053e D7F8BC30 	 ldr r3,[r7,#188]
 639 0542 03EB020E 	 add lr,r3,r2
 640 0546 D7F82431 	 ldr r3,[r7,#292]
 641 054a 1846     	 mov r0,r3
 642 054c 4FEAE071 	 asr r1,r0,#31
 643 0550 D7F80431 	 ldr r3,[r7,#260]
 644 0554 1A46     	 mov r2,r3
 645 0556 4FEAE273 	 asr r3,r2,#31
 646 055a 02FB01F5 	 mul r5,r2,r1
 647 055e 00FB03F4 	 mul r4,r0,r3
 648 0562 2C44     	 add r4,r4,r5
 649 0564 A0FB0223 	 umull r2,r3,r0,r2
 650 0568 E118     	 adds r1,r4,r3
 651 056a 0B46     	 mov r3,r1
 652 056c 9A46     	 mov r10,r3
 653 056e 4FEAE37B 	 asr fp,r3,#31
 654 0572 5646     	 mov r6,r10
 266:../Dave/Generated/CMSIS_DSP/Source/TransformFunctions/arm_cfft_radix4_q31.c ****                             ((int32_t) (((q63_t) r2 * si3) >> 32))) << 1U;
 655              	 .loc 1 266 0 discriminator 1
 656 0574 D7F83031 	 ldr r3,[r7,#304]
 657 0578 1846     	 mov r0,r3
 658 057a 4FEAE071 	 asr r1,r0,#31
 659 057e D7F80031 	 ldr r3,[r7,#256]
 660 0582 1A46     	 mov r2,r3
 661 0584 4FEAE273 	 asr r3,r2,#31
 662 0588 02FB01F5 	 mul r5,r2,r1
 663 058c 00FB03F4 	 mul r4,r0,r3
 664 0590 2C44     	 add r4,r4,r5
 665 0592 A0FB0223 	 umull r2,r3,r0,r2
 666 0596 E118     	 adds r1,r4,r3
 667 0598 0B46     	 mov r3,r1
 668 059a 9846     	 mov r8,r3
 669 059c 4FEAE379 	 asr r9,r3,#31
 670 05a0 4346     	 mov r3,r8
 265:../Dave/Generated/CMSIS_DSP/Source/TransformFunctions/arm_cfft_radix4_q31.c ****                             ((int32_t) (((q63_t) r2 * si3) >> 32))) << 1U;
 671              	 .loc 1 265 0 discriminator 1
 672 05a2 F31A     	 subs r3,r6,r3
 673              	 .loc 1 266 0 discriminator 1
 674 05a4 5B00     	 lsls r3,r3,#1
 265:../Dave/Generated/CMSIS_DSP/Source/TransformFunctions/arm_cfft_radix4_q31.c ****                             ((int32_t) (((q63_t) r2 * si3) >> 32))) << 1U;
 675              	 .loc 1 265 0 discriminator 1
 676 05a6 CEF80030 	 str r3,[lr]
 267:../Dave/Generated/CMSIS_DSP/Source/TransformFunctions/arm_cfft_radix4_q31.c **** 
 268:../Dave/Generated/CMSIS_DSP/Source/TransformFunctions/arm_cfft_radix4_q31.c ****     /*  Twiddle coefficients index modifier */
 269:../Dave/Generated/CMSIS_DSP/Source/TransformFunctions/arm_cfft_radix4_q31.c ****     ia1 = ia1 + twidCoefModifier;
 677              	 .loc 1 269 0 discriminator 1
 678 05aa D7F85821 	 ldr r2,[r7,#344]
 679 05ae D7F8B030 	 ldr r3,[r7,#176]
 680 05b2 1344     	 add r3,r3,r2
 681 05b4 C7F85831 	 str r3,[r7,#344]
 270:../Dave/Generated/CMSIS_DSP/Source/TransformFunctions/arm_cfft_radix4_q31.c **** 
 271:../Dave/Generated/CMSIS_DSP/Source/TransformFunctions/arm_cfft_radix4_q31.c ****     /*  Updating input index */
 272:../Dave/Generated/CMSIS_DSP/Source/TransformFunctions/arm_cfft_radix4_q31.c ****     i0 = i0 + 1U;
 682              	 .loc 1 272 0 discriminator 1
 683 05b8 D7F85431 	 ldr r3,[r7,#340]
 684 05bc 0133     	 adds r3,r3,#1
 685 05be C7F85431 	 str r3,[r7,#340]
 273:../Dave/Generated/CMSIS_DSP/Source/TransformFunctions/arm_cfft_radix4_q31.c **** 
 274:../Dave/Generated/CMSIS_DSP/Source/TransformFunctions/arm_cfft_radix4_q31.c ****   } while (--j);
 686              	 .loc 1 274 0 discriminator 1
 687 05c2 D7F85031 	 ldr r3,[r7,#336]
 688 05c6 013B     	 subs r3,r3,#1
 689 05c8 C7F85031 	 str r3,[r7,#336]
 690 05cc D7F85031 	 ldr r3,[r7,#336]
 691 05d0 002B     	 cmp r3,#0
 692 05d2 7FF438AD 	 bne .L6
 275:../Dave/Generated/CMSIS_DSP/Source/TransformFunctions/arm_cfft_radix4_q31.c **** 
 276:../Dave/Generated/CMSIS_DSP/Source/TransformFunctions/arm_cfft_radix4_q31.c ****   /* end of first stage process */
 277:../Dave/Generated/CMSIS_DSP/Source/TransformFunctions/arm_cfft_radix4_q31.c **** 
 278:../Dave/Generated/CMSIS_DSP/Source/TransformFunctions/arm_cfft_radix4_q31.c ****   /* data is in 5.27(q27) format */
 279:../Dave/Generated/CMSIS_DSP/Source/TransformFunctions/arm_cfft_radix4_q31.c **** 
 280:../Dave/Generated/CMSIS_DSP/Source/TransformFunctions/arm_cfft_radix4_q31.c **** 
 281:../Dave/Generated/CMSIS_DSP/Source/TransformFunctions/arm_cfft_radix4_q31.c ****   /* start of Middle stages process */
 282:../Dave/Generated/CMSIS_DSP/Source/TransformFunctions/arm_cfft_radix4_q31.c **** 
 283:../Dave/Generated/CMSIS_DSP/Source/TransformFunctions/arm_cfft_radix4_q31.c **** 
 284:../Dave/Generated/CMSIS_DSP/Source/TransformFunctions/arm_cfft_radix4_q31.c ****   /* each stage in middle stages provides two down scaling of the input */
 285:../Dave/Generated/CMSIS_DSP/Source/TransformFunctions/arm_cfft_radix4_q31.c **** 
 286:../Dave/Generated/CMSIS_DSP/Source/TransformFunctions/arm_cfft_radix4_q31.c ****   twidCoefModifier <<= 2U;
 693              	 .loc 1 286 0
 694 05d6 D7F8B030 	 ldr r3,[r7,#176]
 695 05da 9B00     	 lsls r3,r3,#2
 696 05dc C7F8B030 	 str r3,[r7,#176]
 287:../Dave/Generated/CMSIS_DSP/Source/TransformFunctions/arm_cfft_radix4_q31.c **** 
 288:../Dave/Generated/CMSIS_DSP/Source/TransformFunctions/arm_cfft_radix4_q31.c **** 
 289:../Dave/Generated/CMSIS_DSP/Source/TransformFunctions/arm_cfft_radix4_q31.c ****   for (k = fftLen / 4U; k > 4U; k >>= 2U)
 697              	 .loc 1 289 0
 698 05e0 D7F8B830 	 ldr r3,[r7,#184]
 699 05e4 9B08     	 lsrs r3,r3,#2
 700 05e6 C7F84C31 	 str r3,[r7,#332]
 701 05ea D6E2     	 b .L7
 702              	.L12:
 290:../Dave/Generated/CMSIS_DSP/Source/TransformFunctions/arm_cfft_radix4_q31.c ****   {
 291:../Dave/Generated/CMSIS_DSP/Source/TransformFunctions/arm_cfft_radix4_q31.c ****     /*  Initializations for the first stage */
 292:../Dave/Generated/CMSIS_DSP/Source/TransformFunctions/arm_cfft_radix4_q31.c ****     n1 = n2;
 703              	 .loc 1 292 0
 704 05ec D7F85C31 	 ldr r3,[r7,#348]
 705 05f0 C7F84431 	 str r3,[r7,#324]
 293:../Dave/Generated/CMSIS_DSP/Source/TransformFunctions/arm_cfft_radix4_q31.c ****     n2 >>= 2U;
 706              	 .loc 1 293 0
 707 05f4 D7F85C31 	 ldr r3,[r7,#348]
 708 05f8 9B08     	 lsrs r3,r3,#2
 709 05fa C7F85C31 	 str r3,[r7,#348]
 294:../Dave/Generated/CMSIS_DSP/Source/TransformFunctions/arm_cfft_radix4_q31.c ****     ia1 = 0U;
 710              	 .loc 1 294 0
 711 05fe 0023     	 movs r3,#0
 712 0600 C7F85831 	 str r3,[r7,#344]
 295:../Dave/Generated/CMSIS_DSP/Source/TransformFunctions/arm_cfft_radix4_q31.c **** 
 296:../Dave/Generated/CMSIS_DSP/Source/TransformFunctions/arm_cfft_radix4_q31.c ****     /*  Calculation of first stage */
 297:../Dave/Generated/CMSIS_DSP/Source/TransformFunctions/arm_cfft_radix4_q31.c ****     for (j = 0U; j <= (n2 - 1U); j++)
 713              	 .loc 1 297 0
 714 0604 0023     	 movs r3,#0
 715 0606 C7F85031 	 str r3,[r7,#336]
 716 060a B4E2     	 b .L8
 717              	.L11:
 298:../Dave/Generated/CMSIS_DSP/Source/TransformFunctions/arm_cfft_radix4_q31.c ****     {
 299:../Dave/Generated/CMSIS_DSP/Source/TransformFunctions/arm_cfft_radix4_q31.c ****       /*  index calculation for the coefficients */
 300:../Dave/Generated/CMSIS_DSP/Source/TransformFunctions/arm_cfft_radix4_q31.c ****       ia2 = ia1 + ia1;
 718              	 .loc 1 300 0
 719 060c D7F85821 	 ldr r2,[r7,#344]
 720 0610 D7F85831 	 ldr r3,[r7,#344]
 721 0614 1344     	 add r3,r3,r2
 722 0616 C7F81C31 	 str r3,[r7,#284]
 301:../Dave/Generated/CMSIS_DSP/Source/TransformFunctions/arm_cfft_radix4_q31.c ****       ia3 = ia2 + ia1;
 723              	 .loc 1 301 0
 724 061a D7F81C21 	 ldr r2,[r7,#284]
 725 061e D7F85831 	 ldr r3,[r7,#344]
 726 0622 1344     	 add r3,r3,r2
 727 0624 C7F80831 	 str r3,[r7,#264]
 302:../Dave/Generated/CMSIS_DSP/Source/TransformFunctions/arm_cfft_radix4_q31.c ****       co1 = pCoef[(ia1 * 2U)];
 728              	 .loc 1 302 0
 729 0628 D7F85831 	 ldr r3,[r7,#344]
 730 062c DA00     	 lsls r2,r3,#3
 731 062e D7F8B430 	 ldr r3,[r7,#180]
 732 0632 1344     	 add r3,r3,r2
 733 0634 1B68     	 ldr r3,[r3]
 734 0636 C7F81031 	 str r3,[r7,#272]
 303:../Dave/Generated/CMSIS_DSP/Source/TransformFunctions/arm_cfft_radix4_q31.c ****       si1 = pCoef[(ia1 * 2U) + 1U];
 735              	 .loc 1 303 0
 736 063a D7F85831 	 ldr r3,[r7,#344]
 737 063e DB00     	 lsls r3,r3,#3
 738 0640 1A1D     	 adds r2,r3,#4
 739 0642 D7F8B430 	 ldr r3,[r7,#180]
 740 0646 1344     	 add r3,r3,r2
 741 0648 1B68     	 ldr r3,[r3]
 742 064a C7F80C31 	 str r3,[r7,#268]
 304:../Dave/Generated/CMSIS_DSP/Source/TransformFunctions/arm_cfft_radix4_q31.c ****       co2 = pCoef[(ia2 * 2U)];
 743              	 .loc 1 304 0
 744 064e D7F81C31 	 ldr r3,[r7,#284]
 745 0652 DA00     	 lsls r2,r3,#3
 746 0654 D7F8B430 	 ldr r3,[r7,#180]
 747 0658 1344     	 add r3,r3,r2
 748 065a 1B68     	 ldr r3,[r3]
 749 065c C7F81831 	 str r3,[r7,#280]
 305:../Dave/Generated/CMSIS_DSP/Source/TransformFunctions/arm_cfft_radix4_q31.c ****       si2 = pCoef[(ia2 * 2U) + 1U];
 750              	 .loc 1 305 0
 751 0660 D7F81C31 	 ldr r3,[r7,#284]
 752 0664 DB00     	 lsls r3,r3,#3
 753 0666 1A1D     	 adds r2,r3,#4
 754 0668 D7F8B430 	 ldr r3,[r7,#180]
 755 066c 1344     	 add r3,r3,r2
 756 066e 1B68     	 ldr r3,[r3]
 757 0670 C7F81431 	 str r3,[r7,#276]
 306:../Dave/Generated/CMSIS_DSP/Source/TransformFunctions/arm_cfft_radix4_q31.c ****       co3 = pCoef[(ia3 * 2U)];
 758              	 .loc 1 306 0
 759 0674 D7F80831 	 ldr r3,[r7,#264]
 760 0678 DA00     	 lsls r2,r3,#3
 761 067a D7F8B430 	 ldr r3,[r7,#180]
 762 067e 1344     	 add r3,r3,r2
 763 0680 1B68     	 ldr r3,[r3]
 764 0682 C7F80431 	 str r3,[r7,#260]
 307:../Dave/Generated/CMSIS_DSP/Source/TransformFunctions/arm_cfft_radix4_q31.c ****       si3 = pCoef[(ia3 * 2U) + 1U];
 765              	 .loc 1 307 0
 766 0686 D7F80831 	 ldr r3,[r7,#264]
 767 068a DB00     	 lsls r3,r3,#3
 768 068c 1A1D     	 adds r2,r3,#4
 769 068e D7F8B430 	 ldr r3,[r7,#180]
 770 0692 1344     	 add r3,r3,r2
 771 0694 1B68     	 ldr r3,[r3]
 772 0696 C7F80031 	 str r3,[r7,#256]
 308:../Dave/Generated/CMSIS_DSP/Source/TransformFunctions/arm_cfft_radix4_q31.c ****       /*  Twiddle coefficients index modifier */
 309:../Dave/Generated/CMSIS_DSP/Source/TransformFunctions/arm_cfft_radix4_q31.c ****       ia1 = ia1 + twidCoefModifier;
 773              	 .loc 1 309 0
 774 069a D7F85821 	 ldr r2,[r7,#344]
 775 069e D7F8B030 	 ldr r3,[r7,#176]
 776 06a2 1344     	 add r3,r3,r2
 777 06a4 C7F85831 	 str r3,[r7,#344]
 310:../Dave/Generated/CMSIS_DSP/Source/TransformFunctions/arm_cfft_radix4_q31.c **** 
 311:../Dave/Generated/CMSIS_DSP/Source/TransformFunctions/arm_cfft_radix4_q31.c ****       for (i0 = j; i0 < fftLen; i0 += n1)
 778              	 .loc 1 311 0
 779 06a8 D7F85031 	 ldr r3,[r7,#336]
 780 06ac C7F85431 	 str r3,[r7,#340]
 781 06b0 55E2     	 b .L9
 782              	.L10:
 312:../Dave/Generated/CMSIS_DSP/Source/TransformFunctions/arm_cfft_radix4_q31.c ****       {
 313:../Dave/Generated/CMSIS_DSP/Source/TransformFunctions/arm_cfft_radix4_q31.c ****         /*  index calculation for the input as, */
 314:../Dave/Generated/CMSIS_DSP/Source/TransformFunctions/arm_cfft_radix4_q31.c ****         /*  pSrc[i0 + 0], pSrc[i0 + fftLen/4], pSrc[i0 + fftLen/2U], pSrc[i0 + 3fftLen/4] */
 315:../Dave/Generated/CMSIS_DSP/Source/TransformFunctions/arm_cfft_radix4_q31.c ****         i1 = i0 + n2;
 783              	 .loc 1 315 0 discriminator 3
 784 06b2 D7F85421 	 ldr r2,[r7,#340]
 785 06b6 D7F85C31 	 ldr r3,[r7,#348]
 786 06ba 1344     	 add r3,r3,r2
 787 06bc C7F84031 	 str r3,[r7,#320]
 316:../Dave/Generated/CMSIS_DSP/Source/TransformFunctions/arm_cfft_radix4_q31.c ****         i2 = i1 + n2;
 788              	 .loc 1 316 0 discriminator 3
 789 06c0 D7F84021 	 ldr r2,[r7,#320]
 790 06c4 D7F85C31 	 ldr r3,[r7,#348]
 791 06c8 1344     	 add r3,r3,r2
 792 06ca C7F83C31 	 str r3,[r7,#316]
 317:../Dave/Generated/CMSIS_DSP/Source/TransformFunctions/arm_cfft_radix4_q31.c ****         i3 = i2 + n2;
 793              	 .loc 1 317 0 discriminator 3
 794 06ce D7F83C21 	 ldr r2,[r7,#316]
 795 06d2 D7F85C31 	 ldr r3,[r7,#348]
 796 06d6 1344     	 add r3,r3,r2
 797 06d8 C7F83831 	 str r3,[r7,#312]
 318:../Dave/Generated/CMSIS_DSP/Source/TransformFunctions/arm_cfft_radix4_q31.c **** 
 319:../Dave/Generated/CMSIS_DSP/Source/TransformFunctions/arm_cfft_radix4_q31.c ****         /*  Butterfly implementation */
 320:../Dave/Generated/CMSIS_DSP/Source/TransformFunctions/arm_cfft_radix4_q31.c ****         /* xa + xc */
 321:../Dave/Generated/CMSIS_DSP/Source/TransformFunctions/arm_cfft_radix4_q31.c ****         r1 = pSrc[2U * i0] + pSrc[2U * i2];
 798              	 .loc 1 321 0 discriminator 3
 799 06dc D7F85431 	 ldr r3,[r7,#340]
 800 06e0 DA00     	 lsls r2,r3,#3
 801 06e2 D7F8BC30 	 ldr r3,[r7,#188]
 802 06e6 1344     	 add r3,r3,r2
 803 06e8 1968     	 ldr r1,[r3]
 804 06ea D7F83C31 	 ldr r3,[r7,#316]
 805 06ee DA00     	 lsls r2,r3,#3
 806 06f0 D7F8BC30 	 ldr r3,[r7,#188]
 807 06f4 1344     	 add r3,r3,r2
 808 06f6 1B68     	 ldr r3,[r3]
 809 06f8 0B44     	 add r3,r3,r1
 810 06fa C7F83431 	 str r3,[r7,#308]
 322:../Dave/Generated/CMSIS_DSP/Source/TransformFunctions/arm_cfft_radix4_q31.c ****         /* xa - xc */
 323:../Dave/Generated/CMSIS_DSP/Source/TransformFunctions/arm_cfft_radix4_q31.c ****         r2 = pSrc[2U * i0] - pSrc[2U * i2];
 811              	 .loc 1 323 0 discriminator 3
 812 06fe D7F85431 	 ldr r3,[r7,#340]
 813 0702 DA00     	 lsls r2,r3,#3
 814 0704 D7F8BC30 	 ldr r3,[r7,#188]
 815 0708 1344     	 add r3,r3,r2
 816 070a 1968     	 ldr r1,[r3]
 817 070c D7F83C31 	 ldr r3,[r7,#316]
 818 0710 DA00     	 lsls r2,r3,#3
 819 0712 D7F8BC30 	 ldr r3,[r7,#188]
 820 0716 1344     	 add r3,r3,r2
 821 0718 1B68     	 ldr r3,[r3]
 822 071a CB1A     	 subs r3,r1,r3
 823 071c C7F83031 	 str r3,[r7,#304]
 324:../Dave/Generated/CMSIS_DSP/Source/TransformFunctions/arm_cfft_radix4_q31.c **** 
 325:../Dave/Generated/CMSIS_DSP/Source/TransformFunctions/arm_cfft_radix4_q31.c ****         /* ya + yc */
 326:../Dave/Generated/CMSIS_DSP/Source/TransformFunctions/arm_cfft_radix4_q31.c ****         s1 = pSrc[(2U * i0) + 1U] + pSrc[(2U * i2) + 1U];
 824              	 .loc 1 326 0 discriminator 3
 825 0720 D7F85431 	 ldr r3,[r7,#340]
 826 0724 DB00     	 lsls r3,r3,#3
 827 0726 1A1D     	 adds r2,r3,#4
 828 0728 D7F8BC30 	 ldr r3,[r7,#188]
 829 072c 1344     	 add r3,r3,r2
 830 072e 1968     	 ldr r1,[r3]
 831 0730 D7F83C31 	 ldr r3,[r7,#316]
 832 0734 DB00     	 lsls r3,r3,#3
 833 0736 1A1D     	 adds r2,r3,#4
 834 0738 D7F8BC30 	 ldr r3,[r7,#188]
 835 073c 1344     	 add r3,r3,r2
 836 073e 1B68     	 ldr r3,[r3]
 837 0740 0B44     	 add r3,r3,r1
 838 0742 C7F82831 	 str r3,[r7,#296]
 327:../Dave/Generated/CMSIS_DSP/Source/TransformFunctions/arm_cfft_radix4_q31.c ****         /* ya - yc */
 328:../Dave/Generated/CMSIS_DSP/Source/TransformFunctions/arm_cfft_radix4_q31.c ****         s2 = pSrc[(2U * i0) + 1U] - pSrc[(2U * i2) + 1U];
 839              	 .loc 1 328 0 discriminator 3
 840 0746 D7F85431 	 ldr r3,[r7,#340]
 841 074a DB00     	 lsls r3,r3,#3
 842 074c 1A1D     	 adds r2,r3,#4
 843 074e D7F8BC30 	 ldr r3,[r7,#188]
 844 0752 1344     	 add r3,r3,r2
 845 0754 1968     	 ldr r1,[r3]
 846 0756 D7F83C31 	 ldr r3,[r7,#316]
 847 075a DB00     	 lsls r3,r3,#3
 848 075c 1A1D     	 adds r2,r3,#4
 849 075e D7F8BC30 	 ldr r3,[r7,#188]
 850 0762 1344     	 add r3,r3,r2
 851 0764 1B68     	 ldr r3,[r3]
 852 0766 CB1A     	 subs r3,r1,r3
 853 0768 C7F82431 	 str r3,[r7,#292]
 329:../Dave/Generated/CMSIS_DSP/Source/TransformFunctions/arm_cfft_radix4_q31.c **** 
 330:../Dave/Generated/CMSIS_DSP/Source/TransformFunctions/arm_cfft_radix4_q31.c ****         /* xb + xd */
 331:../Dave/Generated/CMSIS_DSP/Source/TransformFunctions/arm_cfft_radix4_q31.c ****         t1 = pSrc[2U * i1] + pSrc[2U * i3];
 854              	 .loc 1 331 0 discriminator 3
 855 076c D7F84031 	 ldr r3,[r7,#320]
 856 0770 DA00     	 lsls r2,r3,#3
 857 0772 D7F8BC30 	 ldr r3,[r7,#188]
 858 0776 1344     	 add r3,r3,r2
 859 0778 1968     	 ldr r1,[r3]
 860 077a D7F83831 	 ldr r3,[r7,#312]
 861 077e DA00     	 lsls r2,r3,#3
 862 0780 D7F8BC30 	 ldr r3,[r7,#188]
 863 0784 1344     	 add r3,r3,r2
 864 0786 1B68     	 ldr r3,[r3]
 865 0788 0B44     	 add r3,r3,r1
 866 078a C7F82C31 	 str r3,[r7,#300]
 332:../Dave/Generated/CMSIS_DSP/Source/TransformFunctions/arm_cfft_radix4_q31.c **** 
 333:../Dave/Generated/CMSIS_DSP/Source/TransformFunctions/arm_cfft_radix4_q31.c ****         /* xa' = xa + xb + xc + xd */
 334:../Dave/Generated/CMSIS_DSP/Source/TransformFunctions/arm_cfft_radix4_q31.c ****         pSrc[2U * i0] = (r1 + t1) >> 2U;
 867              	 .loc 1 334 0 discriminator 3
 868 078e D7F85431 	 ldr r3,[r7,#340]
 869 0792 DA00     	 lsls r2,r3,#3
 870 0794 D7F8BC30 	 ldr r3,[r7,#188]
 871 0798 9918     	 adds r1,r3,r2
 872 079a D7F83421 	 ldr r2,[r7,#308]
 873 079e D7F82C31 	 ldr r3,[r7,#300]
 874 07a2 1344     	 add r3,r3,r2
 875 07a4 9B10     	 asrs r3,r3,#2
 876 07a6 0B60     	 str r3,[r1]
 335:../Dave/Generated/CMSIS_DSP/Source/TransformFunctions/arm_cfft_radix4_q31.c ****         /* xa + xc -(xb + xd) */
 336:../Dave/Generated/CMSIS_DSP/Source/TransformFunctions/arm_cfft_radix4_q31.c ****         r1 = r1 - t1;
 877              	 .loc 1 336 0 discriminator 3
 878 07a8 D7F83421 	 ldr r2,[r7,#308]
 879 07ac D7F82C31 	 ldr r3,[r7,#300]
 880 07b0 D31A     	 subs r3,r2,r3
 881 07b2 C7F83431 	 str r3,[r7,#308]
 337:../Dave/Generated/CMSIS_DSP/Source/TransformFunctions/arm_cfft_radix4_q31.c **** 
 338:../Dave/Generated/CMSIS_DSP/Source/TransformFunctions/arm_cfft_radix4_q31.c ****         /* yb + yd */
 339:../Dave/Generated/CMSIS_DSP/Source/TransformFunctions/arm_cfft_radix4_q31.c ****         t2 = pSrc[(2U * i1) + 1U] + pSrc[(2U * i3) + 1U];
 882              	 .loc 1 339 0 discriminator 3
 883 07b6 D7F84031 	 ldr r3,[r7,#320]
 884 07ba DB00     	 lsls r3,r3,#3
 885 07bc 1A1D     	 adds r2,r3,#4
 886 07be D7F8BC30 	 ldr r3,[r7,#188]
 887 07c2 1344     	 add r3,r3,r2
 888 07c4 1968     	 ldr r1,[r3]
 889 07c6 D7F83831 	 ldr r3,[r7,#312]
 890 07ca DB00     	 lsls r3,r3,#3
 891 07cc 1A1D     	 adds r2,r3,#4
 892 07ce D7F8BC30 	 ldr r3,[r7,#188]
 893 07d2 1344     	 add r3,r3,r2
 894 07d4 1B68     	 ldr r3,[r3]
 895 07d6 0B44     	 add r3,r3,r1
 896 07d8 C7F82031 	 str r3,[r7,#288]
 340:../Dave/Generated/CMSIS_DSP/Source/TransformFunctions/arm_cfft_radix4_q31.c ****         /* ya' = ya + yb + yc + yd */
 341:../Dave/Generated/CMSIS_DSP/Source/TransformFunctions/arm_cfft_radix4_q31.c ****         pSrc[(2U * i0) + 1U] = (s1 + t2) >> 2U;
 897              	 .loc 1 341 0 discriminator 3
 898 07dc D7F85431 	 ldr r3,[r7,#340]
 899 07e0 DB00     	 lsls r3,r3,#3
 900 07e2 1A1D     	 adds r2,r3,#4
 901 07e4 D7F8BC30 	 ldr r3,[r7,#188]
 902 07e8 9918     	 adds r1,r3,r2
 903 07ea D7F82821 	 ldr r2,[r7,#296]
 904 07ee D7F82031 	 ldr r3,[r7,#288]
 905 07f2 1344     	 add r3,r3,r2
 906 07f4 9B10     	 asrs r3,r3,#2
 907 07f6 0B60     	 str r3,[r1]
 342:../Dave/Generated/CMSIS_DSP/Source/TransformFunctions/arm_cfft_radix4_q31.c **** 
 343:../Dave/Generated/CMSIS_DSP/Source/TransformFunctions/arm_cfft_radix4_q31.c ****         /* (ya + yc) - (yb + yd) */
 344:../Dave/Generated/CMSIS_DSP/Source/TransformFunctions/arm_cfft_radix4_q31.c ****         s1 = s1 - t2;
 908              	 .loc 1 344 0 discriminator 3
 909 07f8 D7F82821 	 ldr r2,[r7,#296]
 910 07fc D7F82031 	 ldr r3,[r7,#288]
 911 0800 D31A     	 subs r3,r2,r3
 912 0802 C7F82831 	 str r3,[r7,#296]
 345:../Dave/Generated/CMSIS_DSP/Source/TransformFunctions/arm_cfft_radix4_q31.c **** 
 346:../Dave/Generated/CMSIS_DSP/Source/TransformFunctions/arm_cfft_radix4_q31.c ****         /* (yb - yd) */
 347:../Dave/Generated/CMSIS_DSP/Source/TransformFunctions/arm_cfft_radix4_q31.c ****         t1 = pSrc[(2U * i1) + 1U] - pSrc[(2U * i3) + 1U];
 913              	 .loc 1 347 0 discriminator 3
 914 0806 D7F84031 	 ldr r3,[r7,#320]
 915 080a DB00     	 lsls r3,r3,#3
 916 080c 1A1D     	 adds r2,r3,#4
 917 080e D7F8BC30 	 ldr r3,[r7,#188]
 918 0812 1344     	 add r3,r3,r2
 919 0814 1968     	 ldr r1,[r3]
 920 0816 D7F83831 	 ldr r3,[r7,#312]
 921 081a DB00     	 lsls r3,r3,#3
 922 081c 1A1D     	 adds r2,r3,#4
 923 081e D7F8BC30 	 ldr r3,[r7,#188]
 924 0822 1344     	 add r3,r3,r2
 925 0824 1B68     	 ldr r3,[r3]
 926 0826 CB1A     	 subs r3,r1,r3
 927 0828 C7F82C31 	 str r3,[r7,#300]
 348:../Dave/Generated/CMSIS_DSP/Source/TransformFunctions/arm_cfft_radix4_q31.c ****         /* (xb - xd) */
 349:../Dave/Generated/CMSIS_DSP/Source/TransformFunctions/arm_cfft_radix4_q31.c ****         t2 = pSrc[2U * i1] - pSrc[2U * i3];
 928              	 .loc 1 349 0 discriminator 3
 929 082c D7F84031 	 ldr r3,[r7,#320]
 930 0830 DA00     	 lsls r2,r3,#3
 931 0832 D7F8BC30 	 ldr r3,[r7,#188]
 932 0836 1344     	 add r3,r3,r2
 933 0838 1968     	 ldr r1,[r3]
 934 083a D7F83831 	 ldr r3,[r7,#312]
 935 083e DA00     	 lsls r2,r3,#3
 936 0840 D7F8BC30 	 ldr r3,[r7,#188]
 937 0844 1344     	 add r3,r3,r2
 938 0846 1B68     	 ldr r3,[r3]
 939 0848 CB1A     	 subs r3,r1,r3
 940 084a C7F82031 	 str r3,[r7,#288]
 350:../Dave/Generated/CMSIS_DSP/Source/TransformFunctions/arm_cfft_radix4_q31.c **** 
 351:../Dave/Generated/CMSIS_DSP/Source/TransformFunctions/arm_cfft_radix4_q31.c ****         /* xc' = (xa-xb+xc-xd)co2 + (ya-yb+yc-yd)(si2) */
 352:../Dave/Generated/CMSIS_DSP/Source/TransformFunctions/arm_cfft_radix4_q31.c ****         pSrc[2U * i1] = (((int32_t) (((q63_t) r1 * co2) >> 32)) +
 941              	 .loc 1 352 0 discriminator 3
 942 084e D7F84031 	 ldr r3,[r7,#320]
 943 0852 DA00     	 lsls r2,r3,#3
 944 0854 D7F8BC30 	 ldr r3,[r7,#188]
 945 0858 03EB020E 	 add lr,r3,r2
 946 085c D7F83431 	 ldr r3,[r7,#308]
 947 0860 1846     	 mov r0,r3
 948 0862 4FEAE071 	 asr r1,r0,#31
 949 0866 D7F81831 	 ldr r3,[r7,#280]
 950 086a 1A46     	 mov r2,r3
 951 086c 4FEAE273 	 asr r3,r2,#31
 952 0870 02FB01F5 	 mul r5,r2,r1
 953 0874 00FB03F4 	 mul r4,r0,r3
 954 0878 2C44     	 add r4,r4,r5
 955 087a A0FB0223 	 umull r2,r3,r0,r2
 956 087e E118     	 adds r1,r4,r3
 957 0880 0B46     	 mov r3,r1
 958 0882 1900     	 movs r1,r3
 959 0884 B965     	 str r1,[r7,#88]
 960 0886 DB17     	 asrs r3,r3,#31
 961 0888 FB65     	 str r3,[r7,#92]
 962 088a BE6D     	 ldr r6,[r7,#88]
 353:../Dave/Generated/CMSIS_DSP/Source/TransformFunctions/arm_cfft_radix4_q31.c ****                          ((int32_t) (((q63_t) s1 * si2) >> 32))) >> 1U;
 963              	 .loc 1 353 0 discriminator 3
 964 088c D7F82831 	 ldr r3,[r7,#296]
 965 0890 1846     	 mov r0,r3
 966 0892 4FEAE071 	 asr r1,r0,#31
 967 0896 D7F81431 	 ldr r3,[r7,#276]
 968 089a 1A46     	 mov r2,r3
 969 089c 4FEAE273 	 asr r3,r2,#31
 970 08a0 02FB01F5 	 mul r5,r2,r1
 971 08a4 00FB03F4 	 mul r4,r0,r3
 972 08a8 2C44     	 add r4,r4,r5
 973 08aa A0FB0223 	 umull r2,r3,r0,r2
 974 08ae E118     	 adds r1,r4,r3
 975 08b0 0B46     	 mov r3,r1
 976 08b2 1900     	 movs r1,r3
 977 08b4 3965     	 str r1,[r7,#80]
 978 08b6 DB17     	 asrs r3,r3,#31
 979 08b8 7B65     	 str r3,[r7,#84]
 980 08ba 3B6D     	 ldr r3,[r7,#80]
 352:../Dave/Generated/CMSIS_DSP/Source/TransformFunctions/arm_cfft_radix4_q31.c ****                          ((int32_t) (((q63_t) s1 * si2) >> 32))) >> 1U;
 981              	 .loc 1 352 0 discriminator 3
 982 08bc 3344     	 add r3,r3,r6
 983              	 .loc 1 353 0 discriminator 3
 984 08be 5B10     	 asrs r3,r3,#1
 352:../Dave/Generated/CMSIS_DSP/Source/TransformFunctions/arm_cfft_radix4_q31.c ****                          ((int32_t) (((q63_t) s1 * si2) >> 32))) >> 1U;
 985              	 .loc 1 352 0 discriminator 3
 986 08c0 CEF80030 	 str r3,[lr]
 354:../Dave/Generated/CMSIS_DSP/Source/TransformFunctions/arm_cfft_radix4_q31.c **** 
 355:../Dave/Generated/CMSIS_DSP/Source/TransformFunctions/arm_cfft_radix4_q31.c ****         /* yc' = (ya-yb+yc-yd)co2 - (xa-xb+xc-xd)(si2) */
 356:../Dave/Generated/CMSIS_DSP/Source/TransformFunctions/arm_cfft_radix4_q31.c ****         pSrc[(2U * i1) + 1U] = (((int32_t) (((q63_t) s1 * co2) >> 32)) -
 987              	 .loc 1 356 0 discriminator 3
 988 08c4 D7F84031 	 ldr r3,[r7,#320]
 989 08c8 DB00     	 lsls r3,r3,#3
 990 08ca 1A1D     	 adds r2,r3,#4
 991 08cc D7F8BC30 	 ldr r3,[r7,#188]
 992 08d0 03EB020E 	 add lr,r3,r2
 993 08d4 D7F82831 	 ldr r3,[r7,#296]
 994 08d8 1846     	 mov r0,r3
 995 08da 4FEAE071 	 asr r1,r0,#31
 996 08de D7F81831 	 ldr r3,[r7,#280]
 997 08e2 1A46     	 mov r2,r3
 998 08e4 4FEAE273 	 asr r3,r2,#31
 999 08e8 02FB01F5 	 mul r5,r2,r1
 1000 08ec 00FB03F4 	 mul r4,r0,r3
 1001 08f0 2C44     	 add r4,r4,r5
 1002 08f2 A0FB0223 	 umull r2,r3,r0,r2
 1003 08f6 E118     	 adds r1,r4,r3
 1004 08f8 0B46     	 mov r3,r1
 1005 08fa 1900     	 movs r1,r3
 1006 08fc B964     	 str r1,[r7,#72]
 1007 08fe DB17     	 asrs r3,r3,#31
 1008 0900 FB64     	 str r3,[r7,#76]
 1009 0902 BE6C     	 ldr r6,[r7,#72]
 357:../Dave/Generated/CMSIS_DSP/Source/TransformFunctions/arm_cfft_radix4_q31.c ****                                 ((int32_t) (((q63_t) r1 * si2) >> 32))) >> 1U;
 1010              	 .loc 1 357 0 discriminator 3
 1011 0904 D7F83431 	 ldr r3,[r7,#308]
 1012 0908 1846     	 mov r0,r3
 1013 090a 4FEAE071 	 asr r1,r0,#31
 1014 090e D7F81431 	 ldr r3,[r7,#276]
 1015 0912 1A46     	 mov r2,r3
 1016 0914 4FEAE273 	 asr r3,r2,#31
 1017 0918 02FB01F5 	 mul r5,r2,r1
 1018 091c 00FB03F4 	 mul r4,r0,r3
 1019 0920 2C44     	 add r4,r4,r5
 1020 0922 A0FB0223 	 umull r2,r3,r0,r2
 1021 0926 E118     	 adds r1,r4,r3
 1022 0928 0B46     	 mov r3,r1
 1023 092a 1900     	 movs r1,r3
 1024 092c 3964     	 str r1,[r7,#64]
 1025 092e DB17     	 asrs r3,r3,#31
 1026 0930 7B64     	 str r3,[r7,#68]
 1027 0932 3B6C     	 ldr r3,[r7,#64]
 356:../Dave/Generated/CMSIS_DSP/Source/TransformFunctions/arm_cfft_radix4_q31.c ****                                 ((int32_t) (((q63_t) r1 * si2) >> 32))) >> 1U;
 1028              	 .loc 1 356 0 discriminator 3
 1029 0934 F31A     	 subs r3,r6,r3
 1030              	 .loc 1 357 0 discriminator 3
 1031 0936 5B10     	 asrs r3,r3,#1
 356:../Dave/Generated/CMSIS_DSP/Source/TransformFunctions/arm_cfft_radix4_q31.c ****                                 ((int32_t) (((q63_t) r1 * si2) >> 32))) >> 1U;
 1032              	 .loc 1 356 0 discriminator 3
 1033 0938 CEF80030 	 str r3,[lr]
 358:../Dave/Generated/CMSIS_DSP/Source/TransformFunctions/arm_cfft_radix4_q31.c **** 
 359:../Dave/Generated/CMSIS_DSP/Source/TransformFunctions/arm_cfft_radix4_q31.c ****         /* (xa - xc) + (yb - yd) */
 360:../Dave/Generated/CMSIS_DSP/Source/TransformFunctions/arm_cfft_radix4_q31.c ****         r1 = r2 + t1;
 1034              	 .loc 1 360 0 discriminator 3
 1035 093c D7F83021 	 ldr r2,[r7,#304]
 1036 0940 D7F82C31 	 ldr r3,[r7,#300]
 1037 0944 1344     	 add r3,r3,r2
 1038 0946 C7F83431 	 str r3,[r7,#308]
 361:../Dave/Generated/CMSIS_DSP/Source/TransformFunctions/arm_cfft_radix4_q31.c ****         /* (xa - xc) - (yb - yd) */
 362:../Dave/Generated/CMSIS_DSP/Source/TransformFunctions/arm_cfft_radix4_q31.c ****         r2 = r2 - t1;
 1039              	 .loc 1 362 0 discriminator 3
 1040 094a D7F83021 	 ldr r2,[r7,#304]
 1041 094e D7F82C31 	 ldr r3,[r7,#300]
 1042 0952 D31A     	 subs r3,r2,r3
 1043 0954 C7F83031 	 str r3,[r7,#304]
 363:../Dave/Generated/CMSIS_DSP/Source/TransformFunctions/arm_cfft_radix4_q31.c **** 
 364:../Dave/Generated/CMSIS_DSP/Source/TransformFunctions/arm_cfft_radix4_q31.c ****         /* (ya - yc) -  (xb - xd) */
 365:../Dave/Generated/CMSIS_DSP/Source/TransformFunctions/arm_cfft_radix4_q31.c ****         s1 = s2 - t2;
 1044              	 .loc 1 365 0 discriminator 3
 1045 0958 D7F82421 	 ldr r2,[r7,#292]
 1046 095c D7F82031 	 ldr r3,[r7,#288]
 1047 0960 D31A     	 subs r3,r2,r3
 1048 0962 C7F82831 	 str r3,[r7,#296]
 366:../Dave/Generated/CMSIS_DSP/Source/TransformFunctions/arm_cfft_radix4_q31.c ****         /* (ya - yc) +  (xb - xd) */
 367:../Dave/Generated/CMSIS_DSP/Source/TransformFunctions/arm_cfft_radix4_q31.c ****         s2 = s2 + t2;
 1049              	 .loc 1 367 0 discriminator 3
 1050 0966 D7F82421 	 ldr r2,[r7,#292]
 1051 096a D7F82031 	 ldr r3,[r7,#288]
 1052 096e 1344     	 add r3,r3,r2
 1053 0970 C7F82431 	 str r3,[r7,#292]
 368:../Dave/Generated/CMSIS_DSP/Source/TransformFunctions/arm_cfft_radix4_q31.c **** 
 369:../Dave/Generated/CMSIS_DSP/Source/TransformFunctions/arm_cfft_radix4_q31.c ****         /* xb' = (xa+yb-xc-yd)co1 + (ya-xb-yc+xd)(si1) */
 370:../Dave/Generated/CMSIS_DSP/Source/TransformFunctions/arm_cfft_radix4_q31.c ****         pSrc[2U * i2] = (((int32_t) (((q63_t) r1 * co1) >> 32)) +
 1054              	 .loc 1 370 0 discriminator 3
 1055 0974 D7F83C31 	 ldr r3,[r7,#316]
 1056 0978 DA00     	 lsls r2,r3,#3
 1057 097a D7F8BC30 	 ldr r3,[r7,#188]
 1058 097e 03EB020E 	 add lr,r3,r2
 1059 0982 D7F83431 	 ldr r3,[r7,#308]
 1060 0986 1846     	 mov r0,r3
 1061 0988 4FEAE071 	 asr r1,r0,#31
 1062 098c D7F81031 	 ldr r3,[r7,#272]
 1063 0990 1A46     	 mov r2,r3
 1064 0992 4FEAE273 	 asr r3,r2,#31
 1065 0996 02FB01F5 	 mul r5,r2,r1
 1066 099a 00FB03F4 	 mul r4,r0,r3
 1067 099e 2C44     	 add r4,r4,r5
 1068 09a0 A0FB0223 	 umull r2,r3,r0,r2
 1069 09a4 E118     	 adds r1,r4,r3
 1070 09a6 0B46     	 mov r3,r1
 1071 09a8 1900     	 movs r1,r3
 1072 09aa B963     	 str r1,[r7,#56]
 1073 09ac DB17     	 asrs r3,r3,#31
 1074 09ae FB63     	 str r3,[r7,#60]
 1075 09b0 BE6B     	 ldr r6,[r7,#56]
 371:../Dave/Generated/CMSIS_DSP/Source/TransformFunctions/arm_cfft_radix4_q31.c ****                          ((int32_t) (((q63_t) s1 * si1) >> 32))) >> 1U;
 1076              	 .loc 1 371 0 discriminator 3
 1077 09b2 D7F82831 	 ldr r3,[r7,#296]
 1078 09b6 1846     	 mov r0,r3
 1079 09b8 4FEAE071 	 asr r1,r0,#31
 1080 09bc D7F80C31 	 ldr r3,[r7,#268]
 1081 09c0 1A46     	 mov r2,r3
 1082 09c2 4FEAE273 	 asr r3,r2,#31
 1083 09c6 02FB01F5 	 mul r5,r2,r1
 1084 09ca 00FB03F4 	 mul r4,r0,r3
 1085 09ce 2C44     	 add r4,r4,r5
 1086 09d0 A0FB0223 	 umull r2,r3,r0,r2
 1087 09d4 E118     	 adds r1,r4,r3
 1088 09d6 0B46     	 mov r3,r1
 1089 09d8 1900     	 movs r1,r3
 1090 09da 3963     	 str r1,[r7,#48]
 1091 09dc DB17     	 asrs r3,r3,#31
 1092 09de 7B63     	 str r3,[r7,#52]
 1093 09e0 3B6B     	 ldr r3,[r7,#48]
 370:../Dave/Generated/CMSIS_DSP/Source/TransformFunctions/arm_cfft_radix4_q31.c ****                          ((int32_t) (((q63_t) s1 * si1) >> 32))) >> 1U;
 1094              	 .loc 1 370 0 discriminator 3
 1095 09e2 3344     	 add r3,r3,r6
 1096              	 .loc 1 371 0 discriminator 3
 1097 09e4 5B10     	 asrs r3,r3,#1
 370:../Dave/Generated/CMSIS_DSP/Source/TransformFunctions/arm_cfft_radix4_q31.c ****                          ((int32_t) (((q63_t) s1 * si1) >> 32))) >> 1U;
 1098              	 .loc 1 370 0 discriminator 3
 1099 09e6 CEF80030 	 str r3,[lr]
 372:../Dave/Generated/CMSIS_DSP/Source/TransformFunctions/arm_cfft_radix4_q31.c **** 
 373:../Dave/Generated/CMSIS_DSP/Source/TransformFunctions/arm_cfft_radix4_q31.c ****         /* yb' = (ya-xb-yc+xd)co1 - (xa+yb-xc-yd)(si1) */
 374:../Dave/Generated/CMSIS_DSP/Source/TransformFunctions/arm_cfft_radix4_q31.c ****         pSrc[(2U * i2) + 1U] = (((int32_t) (((q63_t) s1 * co1) >> 32)) -
 1100              	 .loc 1 374 0 discriminator 3
 1101 09ea D7F83C31 	 ldr r3,[r7,#316]
 1102 09ee DB00     	 lsls r3,r3,#3
 1103 09f0 1A1D     	 adds r2,r3,#4
 1104 09f2 D7F8BC30 	 ldr r3,[r7,#188]
 1105 09f6 03EB020E 	 add lr,r3,r2
 1106 09fa D7F82831 	 ldr r3,[r7,#296]
 1107 09fe 1846     	 mov r0,r3
 1108 0a00 4FEAE071 	 asr r1,r0,#31
 1109 0a04 D7F81031 	 ldr r3,[r7,#272]
 1110 0a08 1A46     	 mov r2,r3
 1111 0a0a 4FEAE273 	 asr r3,r2,#31
 1112 0a0e 02FB01F5 	 mul r5,r2,r1
 1113 0a12 00FB03F4 	 mul r4,r0,r3
 1114 0a16 2C44     	 add r4,r4,r5
 1115 0a18 A0FB0223 	 umull r2,r3,r0,r2
 1116 0a1c E118     	 adds r1,r4,r3
 1117 0a1e 0B46     	 mov r3,r1
 1118 0a20 1900     	 movs r1,r3
 1119 0a22 B962     	 str r1,[r7,#40]
 1120 0a24 DB17     	 asrs r3,r3,#31
 1121 0a26 FB62     	 str r3,[r7,#44]
 1122 0a28 BE6A     	 ldr r6,[r7,#40]
 375:../Dave/Generated/CMSIS_DSP/Source/TransformFunctions/arm_cfft_radix4_q31.c ****                                 ((int32_t) (((q63_t) r1 * si1) >> 32))) >> 1U;
 1123              	 .loc 1 375 0 discriminator 3
 1124 0a2a D7F83431 	 ldr r3,[r7,#308]
 1125 0a2e 1846     	 mov r0,r3
 1126 0a30 4FEAE071 	 asr r1,r0,#31
 1127 0a34 D7F80C31 	 ldr r3,[r7,#268]
 1128 0a38 1A46     	 mov r2,r3
 1129 0a3a 4FEAE273 	 asr r3,r2,#31
 1130 0a3e 02FB01F5 	 mul r5,r2,r1
 1131 0a42 00FB03F4 	 mul r4,r0,r3
 1132 0a46 2C44     	 add r4,r4,r5
 1133 0a48 A0FB0223 	 umull r2,r3,r0,r2
 1134 0a4c E118     	 adds r1,r4,r3
 1135 0a4e 0B46     	 mov r3,r1
 1136 0a50 1900     	 movs r1,r3
 1137 0a52 3962     	 str r1,[r7,#32]
 1138 0a54 DB17     	 asrs r3,r3,#31
 1139 0a56 7B62     	 str r3,[r7,#36]
 1140 0a58 3B6A     	 ldr r3,[r7,#32]
 374:../Dave/Generated/CMSIS_DSP/Source/TransformFunctions/arm_cfft_radix4_q31.c ****                                 ((int32_t) (((q63_t) r1 * si1) >> 32))) >> 1U;
 1141              	 .loc 1 374 0 discriminator 3
 1142 0a5a F31A     	 subs r3,r6,r3
 1143              	 .loc 1 375 0 discriminator 3
 1144 0a5c 5B10     	 asrs r3,r3,#1
 374:../Dave/Generated/CMSIS_DSP/Source/TransformFunctions/arm_cfft_radix4_q31.c ****                                 ((int32_t) (((q63_t) r1 * si1) >> 32))) >> 1U;
 1145              	 .loc 1 374 0 discriminator 3
 1146 0a5e CEF80030 	 str r3,[lr]
 376:../Dave/Generated/CMSIS_DSP/Source/TransformFunctions/arm_cfft_radix4_q31.c **** 
 377:../Dave/Generated/CMSIS_DSP/Source/TransformFunctions/arm_cfft_radix4_q31.c ****         /* xd' = (xa-yb-xc+yd)co3 + (ya+xb-yc-xd)(si3) */
 378:../Dave/Generated/CMSIS_DSP/Source/TransformFunctions/arm_cfft_radix4_q31.c ****         pSrc[2U * i3] = (((int32_t) (((q63_t) r2 * co3) >> 32)) +
 1147              	 .loc 1 378 0 discriminator 3
 1148 0a62 D7F83831 	 ldr r3,[r7,#312]
 1149 0a66 DA00     	 lsls r2,r3,#3
 1150 0a68 D7F8BC30 	 ldr r3,[r7,#188]
 1151 0a6c 03EB020E 	 add lr,r3,r2
 1152 0a70 D7F83031 	 ldr r3,[r7,#304]
 1153 0a74 1846     	 mov r0,r3
 1154 0a76 4FEAE071 	 asr r1,r0,#31
 1155 0a7a D7F80431 	 ldr r3,[r7,#260]
 1156 0a7e 1A46     	 mov r2,r3
 1157 0a80 4FEAE273 	 asr r3,r2,#31
 1158 0a84 02FB01F5 	 mul r5,r2,r1
 1159 0a88 00FB03F4 	 mul r4,r0,r3
 1160 0a8c 2C44     	 add r4,r4,r5
 1161 0a8e A0FB0223 	 umull r2,r3,r0,r2
 1162 0a92 E118     	 adds r1,r4,r3
 1163 0a94 0B46     	 mov r3,r1
 1164 0a96 1900     	 movs r1,r3
 1165 0a98 B961     	 str r1,[r7,#24]
 1166 0a9a DB17     	 asrs r3,r3,#31
 1167 0a9c FB61     	 str r3,[r7,#28]
 1168 0a9e BE69     	 ldr r6,[r7,#24]
 379:../Dave/Generated/CMSIS_DSP/Source/TransformFunctions/arm_cfft_radix4_q31.c ****                          ((int32_t) (((q63_t) s2 * si3) >> 32))) >> 1U;
 1169              	 .loc 1 379 0 discriminator 3
 1170 0aa0 D7F82431 	 ldr r3,[r7,#292]
 1171 0aa4 1846     	 mov r0,r3
 1172 0aa6 4FEAE071 	 asr r1,r0,#31
 1173 0aaa D7F80031 	 ldr r3,[r7,#256]
 1174 0aae 1A46     	 mov r2,r3
 1175 0ab0 4FEAE273 	 asr r3,r2,#31
 1176 0ab4 02FB01F5 	 mul r5,r2,r1
 1177 0ab8 00FB03F4 	 mul r4,r0,r3
 1178 0abc 2C44     	 add r4,r4,r5
 1179 0abe A0FB0223 	 umull r2,r3,r0,r2
 1180 0ac2 E118     	 adds r1,r4,r3
 1181 0ac4 0B46     	 mov r3,r1
 1182 0ac6 1900     	 movs r1,r3
 1183 0ac8 3961     	 str r1,[r7,#16]
 1184 0aca DB17     	 asrs r3,r3,#31
 1185 0acc 7B61     	 str r3,[r7,#20]
 1186 0ace 3B69     	 ldr r3,[r7,#16]
 378:../Dave/Generated/CMSIS_DSP/Source/TransformFunctions/arm_cfft_radix4_q31.c ****                          ((int32_t) (((q63_t) s2 * si3) >> 32))) >> 1U;
 1187              	 .loc 1 378 0 discriminator 3
 1188 0ad0 3344     	 add r3,r3,r6
 1189              	 .loc 1 379 0 discriminator 3
 1190 0ad2 5B10     	 asrs r3,r3,#1
 378:../Dave/Generated/CMSIS_DSP/Source/TransformFunctions/arm_cfft_radix4_q31.c ****                          ((int32_t) (((q63_t) s2 * si3) >> 32))) >> 1U;
 1191              	 .loc 1 378 0 discriminator 3
 1192 0ad4 CEF80030 	 str r3,[lr]
 380:../Dave/Generated/CMSIS_DSP/Source/TransformFunctions/arm_cfft_radix4_q31.c **** 
 381:../Dave/Generated/CMSIS_DSP/Source/TransformFunctions/arm_cfft_radix4_q31.c ****         /* yd' = (ya+xb-yc-xd)co3 - (xa-yb-xc+yd)(si3) */
 382:../Dave/Generated/CMSIS_DSP/Source/TransformFunctions/arm_cfft_radix4_q31.c ****         pSrc[(2U * i3) + 1U] = (((int32_t) (((q63_t) s2 * co3) >> 32)) -
 1193              	 .loc 1 382 0 discriminator 3
 1194 0ad8 D7F83831 	 ldr r3,[r7,#312]
 1195 0adc DB00     	 lsls r3,r3,#3
 1196 0ade 1A1D     	 adds r2,r3,#4
 1197 0ae0 D7F8BC30 	 ldr r3,[r7,#188]
 1198 0ae4 03EB020E 	 add lr,r3,r2
 1199 0ae8 D7F82431 	 ldr r3,[r7,#292]
 1200 0aec 1846     	 mov r0,r3
 1201 0aee 4FEAE071 	 asr r1,r0,#31
 1202 0af2 D7F80431 	 ldr r3,[r7,#260]
 1203 0af6 1A46     	 mov r2,r3
 1204 0af8 4FEAE273 	 asr r3,r2,#31
 1205 0afc 02FB01F5 	 mul r5,r2,r1
 1206 0b00 00FB03F4 	 mul r4,r0,r3
 1207 0b04 2C44     	 add r4,r4,r5
 1208 0b06 A0FB0223 	 umull r2,r3,r0,r2
 1209 0b0a E118     	 adds r1,r4,r3
 1210 0b0c 0B46     	 mov r3,r1
 1211 0b0e 1900     	 movs r1,r3
 1212 0b10 B960     	 str r1,[r7,#8]
 1213 0b12 DB17     	 asrs r3,r3,#31
 1214 0b14 FB60     	 str r3,[r7,#12]
 1215 0b16 BE68     	 ldr r6,[r7,#8]
 383:../Dave/Generated/CMSIS_DSP/Source/TransformFunctions/arm_cfft_radix4_q31.c ****                                 ((int32_t) (((q63_t) r2 * si3) >> 32))) >> 1U;
 1216              	 .loc 1 383 0 discriminator 3
 1217 0b18 D7F83031 	 ldr r3,[r7,#304]
 1218 0b1c 1846     	 mov r0,r3
 1219 0b1e 4FEAE071 	 asr r1,r0,#31
 1220 0b22 D7F80031 	 ldr r3,[r7,#256]
 1221 0b26 1A46     	 mov r2,r3
 1222 0b28 4FEAE273 	 asr r3,r2,#31
 1223 0b2c 02FB01F5 	 mul r5,r2,r1
 1224 0b30 00FB03F4 	 mul r4,r0,r3
 1225 0b34 2C44     	 add r4,r4,r5
 1226 0b36 A0FB0223 	 umull r2,r3,r0,r2
 1227 0b3a E118     	 adds r1,r4,r3
 1228 0b3c 0B46     	 mov r3,r1
 1229 0b3e 1900     	 movs r1,r3
 1230 0b40 3960     	 str r1,[r7]
 1231 0b42 DB17     	 asrs r3,r3,#31
 1232 0b44 7B60     	 str r3,[r7,#4]
 1233 0b46 3B68     	 ldr r3,[r7]
 382:../Dave/Generated/CMSIS_DSP/Source/TransformFunctions/arm_cfft_radix4_q31.c ****                                 ((int32_t) (((q63_t) r2 * si3) >> 32))) >> 1U;
 1234              	 .loc 1 382 0 discriminator 3
 1235 0b48 F31A     	 subs r3,r6,r3
 1236              	 .loc 1 383 0 discriminator 3
 1237 0b4a 5B10     	 asrs r3,r3,#1
 382:../Dave/Generated/CMSIS_DSP/Source/TransformFunctions/arm_cfft_radix4_q31.c ****                                 ((int32_t) (((q63_t) r2 * si3) >> 32))) >> 1U;
 1238              	 .loc 1 382 0 discriminator 3
 1239 0b4c CEF80030 	 str r3,[lr]
 311:../Dave/Generated/CMSIS_DSP/Source/TransformFunctions/arm_cfft_radix4_q31.c ****       {
 1240              	 .loc 1 311 0 discriminator 3
 1241 0b50 D7F85421 	 ldr r2,[r7,#340]
 1242 0b54 D7F84431 	 ldr r3,[r7,#324]
 1243 0b58 1344     	 add r3,r3,r2
 1244 0b5a C7F85431 	 str r3,[r7,#340]
 1245              	.L9:
 311:../Dave/Generated/CMSIS_DSP/Source/TransformFunctions/arm_cfft_radix4_q31.c ****       {
 1246              	 .loc 1 311 0 is_stmt 0 discriminator 1
 1247 0b5e D7F85421 	 ldr r2,[r7,#340]
 1248 0b62 D7F8B830 	 ldr r3,[r7,#184]
 1249 0b66 9A42     	 cmp r2,r3
 1250 0b68 FFF4A3AD 	 bcc .L10
 297:../Dave/Generated/CMSIS_DSP/Source/TransformFunctions/arm_cfft_radix4_q31.c ****     {
 1251              	 .loc 1 297 0 is_stmt 1 discriminator 2
 1252 0b6c D7F85031 	 ldr r3,[r7,#336]
 1253 0b70 0133     	 adds r3,r3,#1
 1254 0b72 C7F85031 	 str r3,[r7,#336]
 1255              	.L8:
 297:../Dave/Generated/CMSIS_DSP/Source/TransformFunctions/arm_cfft_radix4_q31.c ****     {
 1256              	 .loc 1 297 0 is_stmt 0 discriminator 1
 1257 0b76 D7F85C31 	 ldr r3,[r7,#348]
 1258 0b7a 5A1E     	 subs r2,r3,#1
 1259 0b7c D7F85031 	 ldr r3,[r7,#336]
 1260 0b80 9A42     	 cmp r2,r3
 1261 0b82 BFF443AD 	 bcs .L11
 384:../Dave/Generated/CMSIS_DSP/Source/TransformFunctions/arm_cfft_radix4_q31.c ****       }
 385:../Dave/Generated/CMSIS_DSP/Source/TransformFunctions/arm_cfft_radix4_q31.c ****     }
 386:../Dave/Generated/CMSIS_DSP/Source/TransformFunctions/arm_cfft_radix4_q31.c ****     twidCoefModifier <<= 2U;
 1262              	 .loc 1 386 0 is_stmt 1 discriminator 2
 1263 0b86 D7F8B030 	 ldr r3,[r7,#176]
 1264 0b8a 9B00     	 lsls r3,r3,#2
 1265 0b8c C7F8B030 	 str r3,[r7,#176]
 289:../Dave/Generated/CMSIS_DSP/Source/TransformFunctions/arm_cfft_radix4_q31.c ****   {
 1266              	 .loc 1 289 0 discriminator 2
 1267 0b90 D7F84C31 	 ldr r3,[r7,#332]
 1268 0b94 9B08     	 lsrs r3,r3,#2
 1269 0b96 C7F84C31 	 str r3,[r7,#332]
 1270              	.L7:
 289:../Dave/Generated/CMSIS_DSP/Source/TransformFunctions/arm_cfft_radix4_q31.c ****   {
 1271              	 .loc 1 289 0 is_stmt 0 discriminator 1
 1272 0b9a D7F84C31 	 ldr r3,[r7,#332]
 1273 0b9e 042B     	 cmp r3,#4
 1274 0ba0 3FF624AD 	 bhi .L12
 387:../Dave/Generated/CMSIS_DSP/Source/TransformFunctions/arm_cfft_radix4_q31.c ****   }
 388:../Dave/Generated/CMSIS_DSP/Source/TransformFunctions/arm_cfft_radix4_q31.c **** 
 389:../Dave/Generated/CMSIS_DSP/Source/TransformFunctions/arm_cfft_radix4_q31.c ****   /* End of Middle stages process */
 390:../Dave/Generated/CMSIS_DSP/Source/TransformFunctions/arm_cfft_radix4_q31.c **** 
 391:../Dave/Generated/CMSIS_DSP/Source/TransformFunctions/arm_cfft_radix4_q31.c ****   /* data is in 11.21(q21) format for the 1024 point as there are 3 middle stages */
 392:../Dave/Generated/CMSIS_DSP/Source/TransformFunctions/arm_cfft_radix4_q31.c ****   /* data is in 9.23(q23) format for the 256 point as there are 2 middle stages */
 393:../Dave/Generated/CMSIS_DSP/Source/TransformFunctions/arm_cfft_radix4_q31.c ****   /* data is in 7.25(q25) format for the 64 point as there are 1 middle stage */
 394:../Dave/Generated/CMSIS_DSP/Source/TransformFunctions/arm_cfft_radix4_q31.c ****   /* data is in 5.27(q27) format for the 16 point as there are no middle stages */
 395:../Dave/Generated/CMSIS_DSP/Source/TransformFunctions/arm_cfft_radix4_q31.c **** 
 396:../Dave/Generated/CMSIS_DSP/Source/TransformFunctions/arm_cfft_radix4_q31.c **** 
 397:../Dave/Generated/CMSIS_DSP/Source/TransformFunctions/arm_cfft_radix4_q31.c ****   /* start of Last stage process */
 398:../Dave/Generated/CMSIS_DSP/Source/TransformFunctions/arm_cfft_radix4_q31.c ****   /*  Initializations for the last stage */
 399:../Dave/Generated/CMSIS_DSP/Source/TransformFunctions/arm_cfft_radix4_q31.c ****   j = fftLen >> 2;
 1275              	 .loc 1 399 0 is_stmt 1
 1276 0ba4 D7F8B830 	 ldr r3,[r7,#184]
 1277 0ba8 9B08     	 lsrs r3,r3,#2
 1278 0baa C7F85031 	 str r3,[r7,#336]
 400:../Dave/Generated/CMSIS_DSP/Source/TransformFunctions/arm_cfft_radix4_q31.c ****   ptr1 = &pSrc[0];
 1279              	 .loc 1 400 0
 1280 0bae D7F8BC30 	 ldr r3,[r7,#188]
 1281 0bb2 C7F84831 	 str r3,[r7,#328]
 1282              	.L13:
 401:../Dave/Generated/CMSIS_DSP/Source/TransformFunctions/arm_cfft_radix4_q31.c **** 
 402:../Dave/Generated/CMSIS_DSP/Source/TransformFunctions/arm_cfft_radix4_q31.c ****   /*  Calculations of last stage */
 403:../Dave/Generated/CMSIS_DSP/Source/TransformFunctions/arm_cfft_radix4_q31.c ****   do
 404:../Dave/Generated/CMSIS_DSP/Source/TransformFunctions/arm_cfft_radix4_q31.c ****   {
 405:../Dave/Generated/CMSIS_DSP/Source/TransformFunctions/arm_cfft_radix4_q31.c ****     /* Read xa (real), ya(imag) input */
 406:../Dave/Generated/CMSIS_DSP/Source/TransformFunctions/arm_cfft_radix4_q31.c ****     xa = *ptr1++;
 1283              	 .loc 1 406 0 discriminator 1
 1284 0bb6 D7F84831 	 ldr r3,[r7,#328]
 1285 0bba 1A1D     	 adds r2,r3,#4
 1286 0bbc C7F84821 	 str r2,[r7,#328]
 1287 0bc0 1B68     	 ldr r3,[r3]
 1288 0bc2 C7F8FC30 	 str r3,[r7,#252]
 407:../Dave/Generated/CMSIS_DSP/Source/TransformFunctions/arm_cfft_radix4_q31.c ****     ya = *ptr1++;
 1289              	 .loc 1 407 0 discriminator 1
 1290 0bc6 D7F84831 	 ldr r3,[r7,#328]
 1291 0bca 1A1D     	 adds r2,r3,#4
 1292 0bcc C7F84821 	 str r2,[r7,#328]
 1293 0bd0 1B68     	 ldr r3,[r3]
 1294 0bd2 C7F8F830 	 str r3,[r7,#248]
 408:../Dave/Generated/CMSIS_DSP/Source/TransformFunctions/arm_cfft_radix4_q31.c **** 
 409:../Dave/Generated/CMSIS_DSP/Source/TransformFunctions/arm_cfft_radix4_q31.c ****     /* Read xb (real), yb(imag) input */
 410:../Dave/Generated/CMSIS_DSP/Source/TransformFunctions/arm_cfft_radix4_q31.c ****     xb = *ptr1++;
 1295              	 .loc 1 410 0 discriminator 1
 1296 0bd6 D7F84831 	 ldr r3,[r7,#328]
 1297 0bda 1A1D     	 adds r2,r3,#4
 1298 0bdc C7F84821 	 str r2,[r7,#328]
 1299 0be0 1B68     	 ldr r3,[r3]
 1300 0be2 C7F8F430 	 str r3,[r7,#244]
 411:../Dave/Generated/CMSIS_DSP/Source/TransformFunctions/arm_cfft_radix4_q31.c ****     yb = *ptr1++;
 1301              	 .loc 1 411 0 discriminator 1
 1302 0be6 D7F84831 	 ldr r3,[r7,#328]
 1303 0bea 1A1D     	 adds r2,r3,#4
 1304 0bec C7F84821 	 str r2,[r7,#328]
 1305 0bf0 1B68     	 ldr r3,[r3]
 1306 0bf2 C7F8F030 	 str r3,[r7,#240]
 412:../Dave/Generated/CMSIS_DSP/Source/TransformFunctions/arm_cfft_radix4_q31.c **** 
 413:../Dave/Generated/CMSIS_DSP/Source/TransformFunctions/arm_cfft_radix4_q31.c ****     /* Read xc (real), yc(imag) input */
 414:../Dave/Generated/CMSIS_DSP/Source/TransformFunctions/arm_cfft_radix4_q31.c ****     xc = *ptr1++;
 1307              	 .loc 1 414 0 discriminator 1
 1308 0bf6 D7F84831 	 ldr r3,[r7,#328]
 1309 0bfa 1A1D     	 adds r2,r3,#4
 1310 0bfc C7F84821 	 str r2,[r7,#328]
 1311 0c00 1B68     	 ldr r3,[r3]
 1312 0c02 C7F8EC30 	 str r3,[r7,#236]
 415:../Dave/Generated/CMSIS_DSP/Source/TransformFunctions/arm_cfft_radix4_q31.c ****     yc = *ptr1++;
 1313              	 .loc 1 415 0 discriminator 1
 1314 0c06 D7F84831 	 ldr r3,[r7,#328]
 1315 0c0a 1A1D     	 adds r2,r3,#4
 1316 0c0c C7F84821 	 str r2,[r7,#328]
 1317 0c10 1B68     	 ldr r3,[r3]
 1318 0c12 C7F8E830 	 str r3,[r7,#232]
 416:../Dave/Generated/CMSIS_DSP/Source/TransformFunctions/arm_cfft_radix4_q31.c **** 
 417:../Dave/Generated/CMSIS_DSP/Source/TransformFunctions/arm_cfft_radix4_q31.c ****     /* Read xc (real), yc(imag) input */
 418:../Dave/Generated/CMSIS_DSP/Source/TransformFunctions/arm_cfft_radix4_q31.c ****     xd = *ptr1++;
 1319              	 .loc 1 418 0 discriminator 1
 1320 0c16 D7F84831 	 ldr r3,[r7,#328]
 1321 0c1a 1A1D     	 adds r2,r3,#4
 1322 0c1c C7F84821 	 str r2,[r7,#328]
 1323 0c20 1B68     	 ldr r3,[r3]
 1324 0c22 C7F8E430 	 str r3,[r7,#228]
 419:../Dave/Generated/CMSIS_DSP/Source/TransformFunctions/arm_cfft_radix4_q31.c ****     yd = *ptr1++;
 1325              	 .loc 1 419 0 discriminator 1
 1326 0c26 D7F84831 	 ldr r3,[r7,#328]
 1327 0c2a 1A1D     	 adds r2,r3,#4
 1328 0c2c C7F84821 	 str r2,[r7,#328]
 1329 0c30 1B68     	 ldr r3,[r3]
 1330 0c32 C7F8E030 	 str r3,[r7,#224]
 420:../Dave/Generated/CMSIS_DSP/Source/TransformFunctions/arm_cfft_radix4_q31.c **** 
 421:../Dave/Generated/CMSIS_DSP/Source/TransformFunctions/arm_cfft_radix4_q31.c ****     /* xa' = xa + xb + xc + xd */
 422:../Dave/Generated/CMSIS_DSP/Source/TransformFunctions/arm_cfft_radix4_q31.c ****     xa_out = xa + xb + xc + xd;
 1331              	 .loc 1 422 0 discriminator 1
 1332 0c36 D7F8FC20 	 ldr r2,[r7,#252]
 1333 0c3a D7F8F430 	 ldr r3,[r7,#244]
 1334 0c3e 1A44     	 add r2,r2,r3
 1335 0c40 D7F8EC30 	 ldr r3,[r7,#236]
 1336 0c44 1A44     	 add r2,r2,r3
 1337 0c46 D7F8E430 	 ldr r3,[r7,#228]
 1338 0c4a 1344     	 add r3,r3,r2
 1339 0c4c C7F8DC30 	 str r3,[r7,#220]
 423:../Dave/Generated/CMSIS_DSP/Source/TransformFunctions/arm_cfft_radix4_q31.c **** 
 424:../Dave/Generated/CMSIS_DSP/Source/TransformFunctions/arm_cfft_radix4_q31.c ****     /* ya' = ya + yb + yc + yd */
 425:../Dave/Generated/CMSIS_DSP/Source/TransformFunctions/arm_cfft_radix4_q31.c ****     ya_out = ya + yb + yc + yd;
 1340              	 .loc 1 425 0 discriminator 1
 1341 0c50 D7F8F820 	 ldr r2,[r7,#248]
 1342 0c54 D7F8F030 	 ldr r3,[r7,#240]
 1343 0c58 1A44     	 add r2,r2,r3
 1344 0c5a D7F8E830 	 ldr r3,[r7,#232]
 1345 0c5e 1A44     	 add r2,r2,r3
 1346 0c60 D7F8E030 	 ldr r3,[r7,#224]
 1347 0c64 1344     	 add r3,r3,r2
 1348 0c66 C7F8D830 	 str r3,[r7,#216]
 426:../Dave/Generated/CMSIS_DSP/Source/TransformFunctions/arm_cfft_radix4_q31.c **** 
 427:../Dave/Generated/CMSIS_DSP/Source/TransformFunctions/arm_cfft_radix4_q31.c ****     /* pointer updation for writing */
 428:../Dave/Generated/CMSIS_DSP/Source/TransformFunctions/arm_cfft_radix4_q31.c ****     ptr1 = ptr1 - 8U;
 1349              	 .loc 1 428 0 discriminator 1
 1350 0c6a D7F84831 	 ldr r3,[r7,#328]
 1351 0c6e 203B     	 subs r3,r3,#32
 1352 0c70 C7F84831 	 str r3,[r7,#328]
 429:../Dave/Generated/CMSIS_DSP/Source/TransformFunctions/arm_cfft_radix4_q31.c **** 
 430:../Dave/Generated/CMSIS_DSP/Source/TransformFunctions/arm_cfft_radix4_q31.c ****     /* writing xa' and ya' */
 431:../Dave/Generated/CMSIS_DSP/Source/TransformFunctions/arm_cfft_radix4_q31.c ****     *ptr1++ = xa_out;
 1353              	 .loc 1 431 0 discriminator 1
 1354 0c74 D7F84831 	 ldr r3,[r7,#328]
 1355 0c78 1A1D     	 adds r2,r3,#4
 1356 0c7a C7F84821 	 str r2,[r7,#328]
 1357 0c7e D7F8DC20 	 ldr r2,[r7,#220]
 1358 0c82 1A60     	 str r2,[r3]
 432:../Dave/Generated/CMSIS_DSP/Source/TransformFunctions/arm_cfft_radix4_q31.c ****     *ptr1++ = ya_out;
 1359              	 .loc 1 432 0 discriminator 1
 1360 0c84 D7F84831 	 ldr r3,[r7,#328]
 1361 0c88 1A1D     	 adds r2,r3,#4
 1362 0c8a C7F84821 	 str r2,[r7,#328]
 1363 0c8e D7F8D820 	 ldr r2,[r7,#216]
 1364 0c92 1A60     	 str r2,[r3]
 433:../Dave/Generated/CMSIS_DSP/Source/TransformFunctions/arm_cfft_radix4_q31.c **** 
 434:../Dave/Generated/CMSIS_DSP/Source/TransformFunctions/arm_cfft_radix4_q31.c ****     xc_out = (xa - xb + xc - xd);
 1365              	 .loc 1 434 0 discriminator 1
 1366 0c94 D7F8FC20 	 ldr r2,[r7,#252]
 1367 0c98 D7F8F430 	 ldr r3,[r7,#244]
 1368 0c9c D21A     	 subs r2,r2,r3
 1369 0c9e D7F8EC30 	 ldr r3,[r7,#236]
 1370 0ca2 1A44     	 add r2,r2,r3
 1371 0ca4 D7F8E430 	 ldr r3,[r7,#228]
 1372 0ca8 D31A     	 subs r3,r2,r3
 1373 0caa C7F8D430 	 str r3,[r7,#212]
 435:../Dave/Generated/CMSIS_DSP/Source/TransformFunctions/arm_cfft_radix4_q31.c ****     yc_out = (ya - yb + yc - yd);
 1374              	 .loc 1 435 0 discriminator 1
 1375 0cae D7F8F820 	 ldr r2,[r7,#248]
 1376 0cb2 D7F8F030 	 ldr r3,[r7,#240]
 1377 0cb6 D21A     	 subs r2,r2,r3
 1378 0cb8 D7F8E830 	 ldr r3,[r7,#232]
 1379 0cbc 1A44     	 add r2,r2,r3
 1380 0cbe D7F8E030 	 ldr r3,[r7,#224]
 1381 0cc2 D31A     	 subs r3,r2,r3
 1382 0cc4 C7F8D030 	 str r3,[r7,#208]
 436:../Dave/Generated/CMSIS_DSP/Source/TransformFunctions/arm_cfft_radix4_q31.c **** 
 437:../Dave/Generated/CMSIS_DSP/Source/TransformFunctions/arm_cfft_radix4_q31.c ****     /* writing xc' and yc' */
 438:../Dave/Generated/CMSIS_DSP/Source/TransformFunctions/arm_cfft_radix4_q31.c ****     *ptr1++ = xc_out;
 1383              	 .loc 1 438 0 discriminator 1
 1384 0cc8 D7F84831 	 ldr r3,[r7,#328]
 1385 0ccc 1A1D     	 adds r2,r3,#4
 1386 0cce C7F84821 	 str r2,[r7,#328]
 1387 0cd2 D7F8D420 	 ldr r2,[r7,#212]
 1388 0cd6 1A60     	 str r2,[r3]
 439:../Dave/Generated/CMSIS_DSP/Source/TransformFunctions/arm_cfft_radix4_q31.c ****     *ptr1++ = yc_out;
 1389              	 .loc 1 439 0 discriminator 1
 1390 0cd8 D7F84831 	 ldr r3,[r7,#328]
 1391 0cdc 1A1D     	 adds r2,r3,#4
 1392 0cde C7F84821 	 str r2,[r7,#328]
 1393 0ce2 D7F8D020 	 ldr r2,[r7,#208]
 1394 0ce6 1A60     	 str r2,[r3]
 440:../Dave/Generated/CMSIS_DSP/Source/TransformFunctions/arm_cfft_radix4_q31.c **** 
 441:../Dave/Generated/CMSIS_DSP/Source/TransformFunctions/arm_cfft_radix4_q31.c ****     xb_out = (xa + yb - xc - yd);
 1395              	 .loc 1 441 0 discriminator 1
 1396 0ce8 D7F8FC20 	 ldr r2,[r7,#252]
 1397 0cec D7F8F030 	 ldr r3,[r7,#240]
 1398 0cf0 1A44     	 add r2,r2,r3
 1399 0cf2 D7F8EC30 	 ldr r3,[r7,#236]
 1400 0cf6 D21A     	 subs r2,r2,r3
 1401 0cf8 D7F8E030 	 ldr r3,[r7,#224]
 1402 0cfc D31A     	 subs r3,r2,r3
 1403 0cfe C7F8CC30 	 str r3,[r7,#204]
 442:../Dave/Generated/CMSIS_DSP/Source/TransformFunctions/arm_cfft_radix4_q31.c ****     yb_out = (ya - xb - yc + xd);
 1404              	 .loc 1 442 0 discriminator 1
 1405 0d02 D7F8F820 	 ldr r2,[r7,#248]
 1406 0d06 D7F8F430 	 ldr r3,[r7,#244]
 1407 0d0a D21A     	 subs r2,r2,r3
 1408 0d0c D7F8E830 	 ldr r3,[r7,#232]
 1409 0d10 D21A     	 subs r2,r2,r3
 1410 0d12 D7F8E430 	 ldr r3,[r7,#228]
 1411 0d16 1344     	 add r3,r3,r2
 1412 0d18 C7F8C830 	 str r3,[r7,#200]
 443:../Dave/Generated/CMSIS_DSP/Source/TransformFunctions/arm_cfft_radix4_q31.c **** 
 444:../Dave/Generated/CMSIS_DSP/Source/TransformFunctions/arm_cfft_radix4_q31.c ****     /* writing xb' and yb' */
 445:../Dave/Generated/CMSIS_DSP/Source/TransformFunctions/arm_cfft_radix4_q31.c ****     *ptr1++ = xb_out;
 1413              	 .loc 1 445 0 discriminator 1
 1414 0d1c D7F84831 	 ldr r3,[r7,#328]
 1415 0d20 1A1D     	 adds r2,r3,#4
 1416 0d22 C7F84821 	 str r2,[r7,#328]
 1417 0d26 D7F8CC20 	 ldr r2,[r7,#204]
 1418 0d2a 1A60     	 str r2,[r3]
 446:../Dave/Generated/CMSIS_DSP/Source/TransformFunctions/arm_cfft_radix4_q31.c ****     *ptr1++ = yb_out;
 1419              	 .loc 1 446 0 discriminator 1
 1420 0d2c D7F84831 	 ldr r3,[r7,#328]
 1421 0d30 1A1D     	 adds r2,r3,#4
 1422 0d32 C7F84821 	 str r2,[r7,#328]
 1423 0d36 D7F8C820 	 ldr r2,[r7,#200]
 1424 0d3a 1A60     	 str r2,[r3]
 447:../Dave/Generated/CMSIS_DSP/Source/TransformFunctions/arm_cfft_radix4_q31.c **** 
 448:../Dave/Generated/CMSIS_DSP/Source/TransformFunctions/arm_cfft_radix4_q31.c ****     xd_out = (xa - yb - xc + yd);
 1425              	 .loc 1 448 0 discriminator 1
 1426 0d3c D7F8FC20 	 ldr r2,[r7,#252]
 1427 0d40 D7F8F030 	 ldr r3,[r7,#240]
 1428 0d44 D21A     	 subs r2,r2,r3
 1429 0d46 D7F8EC30 	 ldr r3,[r7,#236]
 1430 0d4a D21A     	 subs r2,r2,r3
 1431 0d4c D7F8E030 	 ldr r3,[r7,#224]
 1432 0d50 1344     	 add r3,r3,r2
 1433 0d52 C7F8C430 	 str r3,[r7,#196]
 449:../Dave/Generated/CMSIS_DSP/Source/TransformFunctions/arm_cfft_radix4_q31.c ****     yd_out = (ya + xb - yc - xd);
 1434              	 .loc 1 449 0 discriminator 1
 1435 0d56 D7F8F820 	 ldr r2,[r7,#248]
 1436 0d5a D7F8F430 	 ldr r3,[r7,#244]
 1437 0d5e 1A44     	 add r2,r2,r3
 1438 0d60 D7F8E830 	 ldr r3,[r7,#232]
 1439 0d64 D21A     	 subs r2,r2,r3
 1440 0d66 D7F8E430 	 ldr r3,[r7,#228]
 1441 0d6a D31A     	 subs r3,r2,r3
 1442 0d6c C7F8C030 	 str r3,[r7,#192]
 450:../Dave/Generated/CMSIS_DSP/Source/TransformFunctions/arm_cfft_radix4_q31.c **** 
 451:../Dave/Generated/CMSIS_DSP/Source/TransformFunctions/arm_cfft_radix4_q31.c ****     /* writing xd' and yd' */
 452:../Dave/Generated/CMSIS_DSP/Source/TransformFunctions/arm_cfft_radix4_q31.c ****     *ptr1++ = xd_out;
 1443              	 .loc 1 452 0 discriminator 1
 1444 0d70 D7F84831 	 ldr r3,[r7,#328]
 1445 0d74 1A1D     	 adds r2,r3,#4
 1446 0d76 C7F84821 	 str r2,[r7,#328]
 1447 0d7a D7F8C420 	 ldr r2,[r7,#196]
 1448 0d7e 1A60     	 str r2,[r3]
 453:../Dave/Generated/CMSIS_DSP/Source/TransformFunctions/arm_cfft_radix4_q31.c ****     *ptr1++ = yd_out;
 1449              	 .loc 1 453 0 discriminator 1
 1450 0d80 D7F84831 	 ldr r3,[r7,#328]
 1451 0d84 1A1D     	 adds r2,r3,#4
 1452 0d86 C7F84821 	 str r2,[r7,#328]
 1453 0d8a D7F8C020 	 ldr r2,[r7,#192]
 1454 0d8e 1A60     	 str r2,[r3]
 454:../Dave/Generated/CMSIS_DSP/Source/TransformFunctions/arm_cfft_radix4_q31.c **** 
 455:../Dave/Generated/CMSIS_DSP/Source/TransformFunctions/arm_cfft_radix4_q31.c **** 
 456:../Dave/Generated/CMSIS_DSP/Source/TransformFunctions/arm_cfft_radix4_q31.c ****   } while (--j);
 1455              	 .loc 1 456 0 discriminator 1
 1456 0d90 D7F85031 	 ldr r3,[r7,#336]
 1457 0d94 013B     	 subs r3,r3,#1
 1458 0d96 C7F85031 	 str r3,[r7,#336]
 1459 0d9a D7F85031 	 ldr r3,[r7,#336]
 1460 0d9e 002B     	 cmp r3,#0
 1461 0da0 7FF409AF 	 bne .L13
 457:../Dave/Generated/CMSIS_DSP/Source/TransformFunctions/arm_cfft_radix4_q31.c **** 
 458:../Dave/Generated/CMSIS_DSP/Source/TransformFunctions/arm_cfft_radix4_q31.c ****   /* output is in 11.21(q21) format for the 1024 point */
 459:../Dave/Generated/CMSIS_DSP/Source/TransformFunctions/arm_cfft_radix4_q31.c ****   /* output is in 9.23(q23) format for the 256 point */
 460:../Dave/Generated/CMSIS_DSP/Source/TransformFunctions/arm_cfft_radix4_q31.c ****   /* output is in 7.25(q25) format for the 64 point */
 461:../Dave/Generated/CMSIS_DSP/Source/TransformFunctions/arm_cfft_radix4_q31.c ****   /* output is in 5.27(q27) format for the 16 point */
 462:../Dave/Generated/CMSIS_DSP/Source/TransformFunctions/arm_cfft_radix4_q31.c **** 
 463:../Dave/Generated/CMSIS_DSP/Source/TransformFunctions/arm_cfft_radix4_q31.c ****   /* End of last stage process */
 464:../Dave/Generated/CMSIS_DSP/Source/TransformFunctions/arm_cfft_radix4_q31.c **** 
 465:../Dave/Generated/CMSIS_DSP/Source/TransformFunctions/arm_cfft_radix4_q31.c **** }
 1462              	 .loc 1 465 0
 1463 0da4 07F5B277 	 add r7,r7,#356
 1464              	.LCFI8:
 1465              	 .cfi_def_cfa_offset 36
 1466 0da8 BD46     	 mov sp,r7
 1467              	.LCFI9:
 1468              	 .cfi_def_cfa_register 13
 1469              	 
 1470 0daa BDE8F08F 	 pop {r4,r5,r6,r7,r8,r9,r10,fp,pc}
 1471              	 .cfi_endproc
 1472              	.LFE150:
 1474 0dae 00BF     	 .section .text.arm_radix4_butterfly_inverse_q31,"ax",%progbits
 1475              	 .align 2
 1476              	 .global arm_radix4_butterfly_inverse_q31
 1477              	 .thumb
 1478              	 .thumb_func
 1480              	arm_radix4_butterfly_inverse_q31:
 1481              	.LFB151:
 466:../Dave/Generated/CMSIS_DSP/Source/TransformFunctions/arm_cfft_radix4_q31.c **** 
 467:../Dave/Generated/CMSIS_DSP/Source/TransformFunctions/arm_cfft_radix4_q31.c **** 
 468:../Dave/Generated/CMSIS_DSP/Source/TransformFunctions/arm_cfft_radix4_q31.c **** /**
 469:../Dave/Generated/CMSIS_DSP/Source/TransformFunctions/arm_cfft_radix4_q31.c ****   @brief         Core function for the Q31 CIFFT butterfly process.
 470:../Dave/Generated/CMSIS_DSP/Source/TransformFunctions/arm_cfft_radix4_q31.c ****   @param[in,out] pSrc             points to the in-place buffer of Q31 data type.
 471:../Dave/Generated/CMSIS_DSP/Source/TransformFunctions/arm_cfft_radix4_q31.c ****   @param[in]     fftLen           length of the FFT.
 472:../Dave/Generated/CMSIS_DSP/Source/TransformFunctions/arm_cfft_radix4_q31.c ****   @param[in]     pCoef            points to twiddle coefficient buffer.
 473:../Dave/Generated/CMSIS_DSP/Source/TransformFunctions/arm_cfft_radix4_q31.c ****   @param[in]     twidCoefModifier twiddle coefficient modifier that supports different size FFTs wi
 474:../Dave/Generated/CMSIS_DSP/Source/TransformFunctions/arm_cfft_radix4_q31.c ****   @return        none
 475:../Dave/Generated/CMSIS_DSP/Source/TransformFunctions/arm_cfft_radix4_q31.c ****  */
 476:../Dave/Generated/CMSIS_DSP/Source/TransformFunctions/arm_cfft_radix4_q31.c **** 
 477:../Dave/Generated/CMSIS_DSP/Source/TransformFunctions/arm_cfft_radix4_q31.c **** /*
 478:../Dave/Generated/CMSIS_DSP/Source/TransformFunctions/arm_cfft_radix4_q31.c ****  * Radix-4 IFFT algorithm used is :
 479:../Dave/Generated/CMSIS_DSP/Source/TransformFunctions/arm_cfft_radix4_q31.c ****  *
 480:../Dave/Generated/CMSIS_DSP/Source/TransformFunctions/arm_cfft_radix4_q31.c ****  * CIFFT uses same twiddle coefficients as CFFT Function
 481:../Dave/Generated/CMSIS_DSP/Source/TransformFunctions/arm_cfft_radix4_q31.c ****  *  x[k] = x[n] + (j)k * x[n + fftLen/4] + (-1)k * x[n+fftLen/2] + (-j)k * x[n+3*fftLen/4]
 482:../Dave/Generated/CMSIS_DSP/Source/TransformFunctions/arm_cfft_radix4_q31.c ****  *
 483:../Dave/Generated/CMSIS_DSP/Source/TransformFunctions/arm_cfft_radix4_q31.c ****  *
 484:../Dave/Generated/CMSIS_DSP/Source/TransformFunctions/arm_cfft_radix4_q31.c ****  * IFFT is implemented with following changes in equations from FFT
 485:../Dave/Generated/CMSIS_DSP/Source/TransformFunctions/arm_cfft_radix4_q31.c ****  *
 486:../Dave/Generated/CMSIS_DSP/Source/TransformFunctions/arm_cfft_radix4_q31.c ****  * Input real and imaginary data:
 487:../Dave/Generated/CMSIS_DSP/Source/TransformFunctions/arm_cfft_radix4_q31.c ****  * x(n) = xa + j * ya
 488:../Dave/Generated/CMSIS_DSP/Source/TransformFunctions/arm_cfft_radix4_q31.c ****  * x(n+N/4 ) = xb + j * yb
 489:../Dave/Generated/CMSIS_DSP/Source/TransformFunctions/arm_cfft_radix4_q31.c ****  * x(n+N/2 ) = xc + j * yc
 490:../Dave/Generated/CMSIS_DSP/Source/TransformFunctions/arm_cfft_radix4_q31.c ****  * x(n+3N 4) = xd + j * yd
 491:../Dave/Generated/CMSIS_DSP/Source/TransformFunctions/arm_cfft_radix4_q31.c ****  *
 492:../Dave/Generated/CMSIS_DSP/Source/TransformFunctions/arm_cfft_radix4_q31.c ****  *
 493:../Dave/Generated/CMSIS_DSP/Source/TransformFunctions/arm_cfft_radix4_q31.c ****  * Output real and imaginary data:
 494:../Dave/Generated/CMSIS_DSP/Source/TransformFunctions/arm_cfft_radix4_q31.c ****  * x(4r) = xa'+ j * ya'
 495:../Dave/Generated/CMSIS_DSP/Source/TransformFunctions/arm_cfft_radix4_q31.c ****  * x(4r+1) = xb'+ j * yb'
 496:../Dave/Generated/CMSIS_DSP/Source/TransformFunctions/arm_cfft_radix4_q31.c ****  * x(4r+2) = xc'+ j * yc'
 497:../Dave/Generated/CMSIS_DSP/Source/TransformFunctions/arm_cfft_radix4_q31.c ****  * x(4r+3) = xd'+ j * yd'
 498:../Dave/Generated/CMSIS_DSP/Source/TransformFunctions/arm_cfft_radix4_q31.c ****  *
 499:../Dave/Generated/CMSIS_DSP/Source/TransformFunctions/arm_cfft_radix4_q31.c ****  *
 500:../Dave/Generated/CMSIS_DSP/Source/TransformFunctions/arm_cfft_radix4_q31.c ****  * Twiddle factors for radix-4 IFFT:
 501:../Dave/Generated/CMSIS_DSP/Source/TransformFunctions/arm_cfft_radix4_q31.c ****  * Wn = co1 + j * (si1)
 502:../Dave/Generated/CMSIS_DSP/Source/TransformFunctions/arm_cfft_radix4_q31.c ****  * W2n = co2 + j * (si2)
 503:../Dave/Generated/CMSIS_DSP/Source/TransformFunctions/arm_cfft_radix4_q31.c ****  * W3n = co3 + j * (si3)
 504:../Dave/Generated/CMSIS_DSP/Source/TransformFunctions/arm_cfft_radix4_q31.c ****  
 505:../Dave/Generated/CMSIS_DSP/Source/TransformFunctions/arm_cfft_radix4_q31.c ****  * The real and imaginary output values for the radix-4 butterfly are
 506:../Dave/Generated/CMSIS_DSP/Source/TransformFunctions/arm_cfft_radix4_q31.c ****  * xa' = xa + xb + xc + xd
 507:../Dave/Generated/CMSIS_DSP/Source/TransformFunctions/arm_cfft_radix4_q31.c ****  * ya' = ya + yb + yc + yd
 508:../Dave/Generated/CMSIS_DSP/Source/TransformFunctions/arm_cfft_radix4_q31.c ****  * xb' = (xa-yb-xc+yd)* co1 - (ya+xb-yc-xd)* (si1)
 509:../Dave/Generated/CMSIS_DSP/Source/TransformFunctions/arm_cfft_radix4_q31.c ****  * yb' = (ya+xb-yc-xd)* co1 + (xa-yb-xc+yd)* (si1)
 510:../Dave/Generated/CMSIS_DSP/Source/TransformFunctions/arm_cfft_radix4_q31.c ****  * xc' = (xa-xb+xc-xd)* co2 - (ya-yb+yc-yd)* (si2)
 511:../Dave/Generated/CMSIS_DSP/Source/TransformFunctions/arm_cfft_radix4_q31.c ****  * yc' = (ya-yb+yc-yd)* co2 + (xa-xb+xc-xd)* (si2)
 512:../Dave/Generated/CMSIS_DSP/Source/TransformFunctions/arm_cfft_radix4_q31.c ****  * xd' = (xa+yb-xc-yd)* co3 - (ya-xb-yc+xd)* (si3)
 513:../Dave/Generated/CMSIS_DSP/Source/TransformFunctions/arm_cfft_radix4_q31.c ****  * yd' = (ya-xb-yc+xd)* co3 + (xa+yb-xc-yd)* (si3)
 514:../Dave/Generated/CMSIS_DSP/Source/TransformFunctions/arm_cfft_radix4_q31.c ****  *
 515:../Dave/Generated/CMSIS_DSP/Source/TransformFunctions/arm_cfft_radix4_q31.c ****  */
 516:../Dave/Generated/CMSIS_DSP/Source/TransformFunctions/arm_cfft_radix4_q31.c **** 
 517:../Dave/Generated/CMSIS_DSP/Source/TransformFunctions/arm_cfft_radix4_q31.c **** void arm_radix4_butterfly_inverse_q31(
 518:../Dave/Generated/CMSIS_DSP/Source/TransformFunctions/arm_cfft_radix4_q31.c ****         q31_t * pSrc,
 519:../Dave/Generated/CMSIS_DSP/Source/TransformFunctions/arm_cfft_radix4_q31.c ****         uint32_t fftLen,
 520:../Dave/Generated/CMSIS_DSP/Source/TransformFunctions/arm_cfft_radix4_q31.c ****   const q31_t * pCoef,
 521:../Dave/Generated/CMSIS_DSP/Source/TransformFunctions/arm_cfft_radix4_q31.c ****         uint32_t twidCoefModifier)
 522:../Dave/Generated/CMSIS_DSP/Source/TransformFunctions/arm_cfft_radix4_q31.c **** {
 1482              	 .loc 1 522 0
 1483              	 .cfi_startproc
 1484              	 
 1485              	 
 1486 0000 2DE9F04F 	 push {r4,r5,r6,r7,r8,r9,r10,fp,lr}
 1487              	.LCFI10:
 1488              	 .cfi_def_cfa_offset 36
 1489              	 .cfi_offset 4,-36
 1490              	 .cfi_offset 5,-32
 1491              	 .cfi_offset 6,-28
 1492              	 .cfi_offset 7,-24
 1493              	 .cfi_offset 8,-20
 1494              	 .cfi_offset 9,-16
 1495              	 .cfi_offset 10,-12
 1496              	 .cfi_offset 11,-8
 1497              	 .cfi_offset 14,-4
 1498 0004 D9B0     	 sub sp,sp,#356
 1499              	.LCFI11:
 1500              	 .cfi_def_cfa_offset 392
 1501 0006 00AF     	 add r7,sp,#0
 1502              	.LCFI12:
 1503              	 .cfi_def_cfa_register 7
 1504 0008 C7F8BC00 	 str r0,[r7,#188]
 1505 000c C7F8B810 	 str r1,[r7,#184]
 1506 0010 C7F8B420 	 str r2,[r7,#180]
 1507 0014 C7F8B030 	 str r3,[r7,#176]
 523:../Dave/Generated/CMSIS_DSP/Source/TransformFunctions/arm_cfft_radix4_q31.c ****         uint32_t n1, n2, ia1, ia2, ia3, i0, i1, i2, i3, j, k;
 524:../Dave/Generated/CMSIS_DSP/Source/TransformFunctions/arm_cfft_radix4_q31.c ****         q31_t t1, t2, r1, r2, s1, s2, co1, co2, co3, si1, si2, si3;
 525:../Dave/Generated/CMSIS_DSP/Source/TransformFunctions/arm_cfft_radix4_q31.c ****         q31_t xa, xb, xc, xd;
 526:../Dave/Generated/CMSIS_DSP/Source/TransformFunctions/arm_cfft_radix4_q31.c ****         q31_t ya, yb, yc, yd;
 527:../Dave/Generated/CMSIS_DSP/Source/TransformFunctions/arm_cfft_radix4_q31.c ****         q31_t xa_out, xb_out, xc_out, xd_out;
 528:../Dave/Generated/CMSIS_DSP/Source/TransformFunctions/arm_cfft_radix4_q31.c ****         q31_t ya_out, yb_out, yc_out, yd_out;
 529:../Dave/Generated/CMSIS_DSP/Source/TransformFunctions/arm_cfft_radix4_q31.c ****         
 530:../Dave/Generated/CMSIS_DSP/Source/TransformFunctions/arm_cfft_radix4_q31.c ****         q31_t *ptr1;
 531:../Dave/Generated/CMSIS_DSP/Source/TransformFunctions/arm_cfft_radix4_q31.c **** 
 532:../Dave/Generated/CMSIS_DSP/Source/TransformFunctions/arm_cfft_radix4_q31.c ****   /* input is be 1.31(q31) format for all FFT sizes */
 533:../Dave/Generated/CMSIS_DSP/Source/TransformFunctions/arm_cfft_radix4_q31.c ****   /* Total process is divided into three stages */
 534:../Dave/Generated/CMSIS_DSP/Source/TransformFunctions/arm_cfft_radix4_q31.c ****   /* process first stage, middle stages, & last stage */
 535:../Dave/Generated/CMSIS_DSP/Source/TransformFunctions/arm_cfft_radix4_q31.c **** 
 536:../Dave/Generated/CMSIS_DSP/Source/TransformFunctions/arm_cfft_radix4_q31.c ****   /* Start of first stage process */
 537:../Dave/Generated/CMSIS_DSP/Source/TransformFunctions/arm_cfft_radix4_q31.c **** 
 538:../Dave/Generated/CMSIS_DSP/Source/TransformFunctions/arm_cfft_radix4_q31.c ****   /* Initializations for the first stage */
 539:../Dave/Generated/CMSIS_DSP/Source/TransformFunctions/arm_cfft_radix4_q31.c ****   n2 = fftLen;
 1508              	 .loc 1 539 0
 1509 0018 D7F8B830 	 ldr r3,[r7,#184]
 1510 001c C7F85C31 	 str r3,[r7,#348]
 540:../Dave/Generated/CMSIS_DSP/Source/TransformFunctions/arm_cfft_radix4_q31.c ****   n1 = n2;
 1511              	 .loc 1 540 0
 1512 0020 D7F85C31 	 ldr r3,[r7,#348]
 1513 0024 C7F84431 	 str r3,[r7,#324]
 541:../Dave/Generated/CMSIS_DSP/Source/TransformFunctions/arm_cfft_radix4_q31.c ****   /* n2 = fftLen/4 */
 542:../Dave/Generated/CMSIS_DSP/Source/TransformFunctions/arm_cfft_radix4_q31.c ****   n2 >>= 2U;
 1514              	 .loc 1 542 0
 1515 0028 D7F85C31 	 ldr r3,[r7,#348]
 1516 002c 9B08     	 lsrs r3,r3,#2
 1517 002e C7F85C31 	 str r3,[r7,#348]
 543:../Dave/Generated/CMSIS_DSP/Source/TransformFunctions/arm_cfft_radix4_q31.c ****   i0 = 0U;
 1518              	 .loc 1 543 0
 1519 0032 0023     	 movs r3,#0
 1520 0034 C7F85431 	 str r3,[r7,#340]
 544:../Dave/Generated/CMSIS_DSP/Source/TransformFunctions/arm_cfft_radix4_q31.c ****   ia1 = 0U;
 1521              	 .loc 1 544 0
 1522 0038 0023     	 movs r3,#0
 1523 003a C7F85831 	 str r3,[r7,#344]
 545:../Dave/Generated/CMSIS_DSP/Source/TransformFunctions/arm_cfft_radix4_q31.c **** 
 546:../Dave/Generated/CMSIS_DSP/Source/TransformFunctions/arm_cfft_radix4_q31.c ****   j = n2;
 1524              	 .loc 1 546 0
 1525 003e D7F85C31 	 ldr r3,[r7,#348]
 1526 0042 C7F85031 	 str r3,[r7,#336]
 1527              	.L15:
 547:../Dave/Generated/CMSIS_DSP/Source/TransformFunctions/arm_cfft_radix4_q31.c **** 
 548:../Dave/Generated/CMSIS_DSP/Source/TransformFunctions/arm_cfft_radix4_q31.c ****   do
 549:../Dave/Generated/CMSIS_DSP/Source/TransformFunctions/arm_cfft_radix4_q31.c ****   {
 550:../Dave/Generated/CMSIS_DSP/Source/TransformFunctions/arm_cfft_radix4_q31.c ****     /* input is in 1.31(q31) format and provide 4 guard bits for the input */
 551:../Dave/Generated/CMSIS_DSP/Source/TransformFunctions/arm_cfft_radix4_q31.c **** 
 552:../Dave/Generated/CMSIS_DSP/Source/TransformFunctions/arm_cfft_radix4_q31.c ****     /*  index calculation for the input as, */
 553:../Dave/Generated/CMSIS_DSP/Source/TransformFunctions/arm_cfft_radix4_q31.c ****     /*  pSrc[i0 + 0], pSrc[i0 + fftLen/4], pSrc[i0 + fftLen/2U], pSrc[i0 + 3fftLen/4] */
 554:../Dave/Generated/CMSIS_DSP/Source/TransformFunctions/arm_cfft_radix4_q31.c ****     i1 = i0 + n2;
 1528              	 .loc 1 554 0 discriminator 1
 1529 0046 D7F85421 	 ldr r2,[r7,#340]
 1530 004a D7F85C31 	 ldr r3,[r7,#348]
 1531 004e 1344     	 add r3,r3,r2
 1532 0050 C7F84031 	 str r3,[r7,#320]
 555:../Dave/Generated/CMSIS_DSP/Source/TransformFunctions/arm_cfft_radix4_q31.c ****     i2 = i1 + n2;
 1533              	 .loc 1 555 0 discriminator 1
 1534 0054 D7F84021 	 ldr r2,[r7,#320]
 1535 0058 D7F85C31 	 ldr r3,[r7,#348]
 1536 005c 1344     	 add r3,r3,r2
 1537 005e C7F83C31 	 str r3,[r7,#316]
 556:../Dave/Generated/CMSIS_DSP/Source/TransformFunctions/arm_cfft_radix4_q31.c ****     i3 = i2 + n2;
 1538              	 .loc 1 556 0 discriminator 1
 1539 0062 D7F83C21 	 ldr r2,[r7,#316]
 1540 0066 D7F85C31 	 ldr r3,[r7,#348]
 1541 006a 1344     	 add r3,r3,r2
 1542 006c C7F83831 	 str r3,[r7,#312]
 557:../Dave/Generated/CMSIS_DSP/Source/TransformFunctions/arm_cfft_radix4_q31.c **** 
 558:../Dave/Generated/CMSIS_DSP/Source/TransformFunctions/arm_cfft_radix4_q31.c ****     /*  Butterfly implementation */
 559:../Dave/Generated/CMSIS_DSP/Source/TransformFunctions/arm_cfft_radix4_q31.c ****     /* xa + xc */
 560:../Dave/Generated/CMSIS_DSP/Source/TransformFunctions/arm_cfft_radix4_q31.c ****     r1 = (pSrc[2U * i0] >> 4U) + (pSrc[2U * i2] >> 4U);
 1543              	 .loc 1 560 0 discriminator 1
 1544 0070 D7F85431 	 ldr r3,[r7,#340]
 1545 0074 DA00     	 lsls r2,r3,#3
 1546 0076 D7F8BC30 	 ldr r3,[r7,#188]
 1547 007a 1344     	 add r3,r3,r2
 1548 007c 1B68     	 ldr r3,[r3]
 1549 007e 1911     	 asrs r1,r3,#4
 1550 0080 D7F83C31 	 ldr r3,[r7,#316]
 1551 0084 DA00     	 lsls r2,r3,#3
 1552 0086 D7F8BC30 	 ldr r3,[r7,#188]
 1553 008a 1344     	 add r3,r3,r2
 1554 008c 1B68     	 ldr r3,[r3]
 1555 008e 1B11     	 asrs r3,r3,#4
 1556 0090 0B44     	 add r3,r3,r1
 1557 0092 C7F83431 	 str r3,[r7,#308]
 561:../Dave/Generated/CMSIS_DSP/Source/TransformFunctions/arm_cfft_radix4_q31.c ****     /* xa - xc */
 562:../Dave/Generated/CMSIS_DSP/Source/TransformFunctions/arm_cfft_radix4_q31.c ****     r2 = (pSrc[2U * i0] >> 4U) - (pSrc[2U * i2] >> 4U);
 1558              	 .loc 1 562 0 discriminator 1
 1559 0096 D7F85431 	 ldr r3,[r7,#340]
 1560 009a DA00     	 lsls r2,r3,#3
 1561 009c D7F8BC30 	 ldr r3,[r7,#188]
 1562 00a0 1344     	 add r3,r3,r2
 1563 00a2 1B68     	 ldr r3,[r3]
 1564 00a4 1911     	 asrs r1,r3,#4
 1565 00a6 D7F83C31 	 ldr r3,[r7,#316]
 1566 00aa DA00     	 lsls r2,r3,#3
 1567 00ac D7F8BC30 	 ldr r3,[r7,#188]
 1568 00b0 1344     	 add r3,r3,r2
 1569 00b2 1B68     	 ldr r3,[r3]
 1570 00b4 1B11     	 asrs r3,r3,#4
 1571 00b6 CB1A     	 subs r3,r1,r3
 1572 00b8 C7F83031 	 str r3,[r7,#304]
 563:../Dave/Generated/CMSIS_DSP/Source/TransformFunctions/arm_cfft_radix4_q31.c **** 
 564:../Dave/Generated/CMSIS_DSP/Source/TransformFunctions/arm_cfft_radix4_q31.c ****     /* xb + xd */
 565:../Dave/Generated/CMSIS_DSP/Source/TransformFunctions/arm_cfft_radix4_q31.c ****     t1 = (pSrc[2U * i1] >> 4U) + (pSrc[2U * i3] >> 4U);
 1573              	 .loc 1 565 0 discriminator 1
 1574 00bc D7F84031 	 ldr r3,[r7,#320]
 1575 00c0 DA00     	 lsls r2,r3,#3
 1576 00c2 D7F8BC30 	 ldr r3,[r7,#188]
 1577 00c6 1344     	 add r3,r3,r2
 1578 00c8 1B68     	 ldr r3,[r3]
 1579 00ca 1911     	 asrs r1,r3,#4
 1580 00cc D7F83831 	 ldr r3,[r7,#312]
 1581 00d0 DA00     	 lsls r2,r3,#3
 1582 00d2 D7F8BC30 	 ldr r3,[r7,#188]
 1583 00d6 1344     	 add r3,r3,r2
 1584 00d8 1B68     	 ldr r3,[r3]
 1585 00da 1B11     	 asrs r3,r3,#4
 1586 00dc 0B44     	 add r3,r3,r1
 1587 00de C7F82C31 	 str r3,[r7,#300]
 566:../Dave/Generated/CMSIS_DSP/Source/TransformFunctions/arm_cfft_radix4_q31.c **** 
 567:../Dave/Generated/CMSIS_DSP/Source/TransformFunctions/arm_cfft_radix4_q31.c ****     /* ya + yc */
 568:../Dave/Generated/CMSIS_DSP/Source/TransformFunctions/arm_cfft_radix4_q31.c ****     s1 = (pSrc[(2U * i0) + 1U] >> 4U) + (pSrc[(2U * i2) + 1U] >> 4U);
 1588              	 .loc 1 568 0 discriminator 1
 1589 00e2 D7F85431 	 ldr r3,[r7,#340]
 1590 00e6 DB00     	 lsls r3,r3,#3
 1591 00e8 1A1D     	 adds r2,r3,#4
 1592 00ea D7F8BC30 	 ldr r3,[r7,#188]
 1593 00ee 1344     	 add r3,r3,r2
 1594 00f0 1B68     	 ldr r3,[r3]
 1595 00f2 1911     	 asrs r1,r3,#4
 1596 00f4 D7F83C31 	 ldr r3,[r7,#316]
 1597 00f8 DB00     	 lsls r3,r3,#3
 1598 00fa 1A1D     	 adds r2,r3,#4
 1599 00fc D7F8BC30 	 ldr r3,[r7,#188]
 1600 0100 1344     	 add r3,r3,r2
 1601 0102 1B68     	 ldr r3,[r3]
 1602 0104 1B11     	 asrs r3,r3,#4
 1603 0106 0B44     	 add r3,r3,r1
 1604 0108 C7F82831 	 str r3,[r7,#296]
 569:../Dave/Generated/CMSIS_DSP/Source/TransformFunctions/arm_cfft_radix4_q31.c ****     /* ya - yc */
 570:../Dave/Generated/CMSIS_DSP/Source/TransformFunctions/arm_cfft_radix4_q31.c ****     s2 = (pSrc[(2U * i0) + 1U] >> 4U) - (pSrc[(2U * i2) + 1U] >> 4U);
 1605              	 .loc 1 570 0 discriminator 1
 1606 010c D7F85431 	 ldr r3,[r7,#340]
 1607 0110 DB00     	 lsls r3,r3,#3
 1608 0112 1A1D     	 adds r2,r3,#4
 1609 0114 D7F8BC30 	 ldr r3,[r7,#188]
 1610 0118 1344     	 add r3,r3,r2
 1611 011a 1B68     	 ldr r3,[r3]
 1612 011c 1911     	 asrs r1,r3,#4
 1613 011e D7F83C31 	 ldr r3,[r7,#316]
 1614 0122 DB00     	 lsls r3,r3,#3
 1615 0124 1A1D     	 adds r2,r3,#4
 1616 0126 D7F8BC30 	 ldr r3,[r7,#188]
 1617 012a 1344     	 add r3,r3,r2
 1618 012c 1B68     	 ldr r3,[r3]
 1619 012e 1B11     	 asrs r3,r3,#4
 1620 0130 CB1A     	 subs r3,r1,r3
 1621 0132 C7F82431 	 str r3,[r7,#292]
 571:../Dave/Generated/CMSIS_DSP/Source/TransformFunctions/arm_cfft_radix4_q31.c **** 
 572:../Dave/Generated/CMSIS_DSP/Source/TransformFunctions/arm_cfft_radix4_q31.c ****     /* xa' = xa + xb + xc + xd */
 573:../Dave/Generated/CMSIS_DSP/Source/TransformFunctions/arm_cfft_radix4_q31.c ****     pSrc[2U * i0] = (r1 + t1);
 1622              	 .loc 1 573 0 discriminator 1
 1623 0136 D7F85431 	 ldr r3,[r7,#340]
 1624 013a DA00     	 lsls r2,r3,#3
 1625 013c D7F8BC30 	 ldr r3,[r7,#188]
 1626 0140 9918     	 adds r1,r3,r2
 1627 0142 D7F83421 	 ldr r2,[r7,#308]
 1628 0146 D7F82C31 	 ldr r3,[r7,#300]
 1629 014a 1344     	 add r3,r3,r2
 1630 014c 0B60     	 str r3,[r1]
 574:../Dave/Generated/CMSIS_DSP/Source/TransformFunctions/arm_cfft_radix4_q31.c ****     /* (xa + xc) - (xb + xd) */
 575:../Dave/Generated/CMSIS_DSP/Source/TransformFunctions/arm_cfft_radix4_q31.c ****     r1 = r1 - t1;
 1631              	 .loc 1 575 0 discriminator 1
 1632 014e D7F83421 	 ldr r2,[r7,#308]
 1633 0152 D7F82C31 	 ldr r3,[r7,#300]
 1634 0156 D31A     	 subs r3,r2,r3
 1635 0158 C7F83431 	 str r3,[r7,#308]
 576:../Dave/Generated/CMSIS_DSP/Source/TransformFunctions/arm_cfft_radix4_q31.c ****     /* yb + yd */
 577:../Dave/Generated/CMSIS_DSP/Source/TransformFunctions/arm_cfft_radix4_q31.c ****     t2 = (pSrc[(2U * i1) + 1U] >> 4U) + (pSrc[(2U * i3) + 1U] >> 4U);
 1636              	 .loc 1 577 0 discriminator 1
 1637 015c D7F84031 	 ldr r3,[r7,#320]
 1638 0160 DB00     	 lsls r3,r3,#3
 1639 0162 1A1D     	 adds r2,r3,#4
 1640 0164 D7F8BC30 	 ldr r3,[r7,#188]
 1641 0168 1344     	 add r3,r3,r2
 1642 016a 1B68     	 ldr r3,[r3]
 1643 016c 1911     	 asrs r1,r3,#4
 1644 016e D7F83831 	 ldr r3,[r7,#312]
 1645 0172 DB00     	 lsls r3,r3,#3
 1646 0174 1A1D     	 adds r2,r3,#4
 1647 0176 D7F8BC30 	 ldr r3,[r7,#188]
 1648 017a 1344     	 add r3,r3,r2
 1649 017c 1B68     	 ldr r3,[r3]
 1650 017e 1B11     	 asrs r3,r3,#4
 1651 0180 0B44     	 add r3,r3,r1
 1652 0182 C7F82031 	 str r3,[r7,#288]
 578:../Dave/Generated/CMSIS_DSP/Source/TransformFunctions/arm_cfft_radix4_q31.c ****     /* ya' = ya + yb + yc + yd */
 579:../Dave/Generated/CMSIS_DSP/Source/TransformFunctions/arm_cfft_radix4_q31.c ****     pSrc[(2U * i0) + 1U] = (s1 + t2);
 1653              	 .loc 1 579 0 discriminator 1
 1654 0186 D7F85431 	 ldr r3,[r7,#340]
 1655 018a DB00     	 lsls r3,r3,#3
 1656 018c 1A1D     	 adds r2,r3,#4
 1657 018e D7F8BC30 	 ldr r3,[r7,#188]
 1658 0192 9918     	 adds r1,r3,r2
 1659 0194 D7F82821 	 ldr r2,[r7,#296]
 1660 0198 D7F82031 	 ldr r3,[r7,#288]
 1661 019c 1344     	 add r3,r3,r2
 1662 019e 0B60     	 str r3,[r1]
 580:../Dave/Generated/CMSIS_DSP/Source/TransformFunctions/arm_cfft_radix4_q31.c **** 
 581:../Dave/Generated/CMSIS_DSP/Source/TransformFunctions/arm_cfft_radix4_q31.c ****     /* (ya + yc) - (yb + yd) */
 582:../Dave/Generated/CMSIS_DSP/Source/TransformFunctions/arm_cfft_radix4_q31.c ****     s1 = s1 - t2;
 1663              	 .loc 1 582 0 discriminator 1
 1664 01a0 D7F82821 	 ldr r2,[r7,#296]
 1665 01a4 D7F82031 	 ldr r3,[r7,#288]
 1666 01a8 D31A     	 subs r3,r2,r3
 1667 01aa C7F82831 	 str r3,[r7,#296]
 583:../Dave/Generated/CMSIS_DSP/Source/TransformFunctions/arm_cfft_radix4_q31.c **** 
 584:../Dave/Generated/CMSIS_DSP/Source/TransformFunctions/arm_cfft_radix4_q31.c ****     /* yb - yd */
 585:../Dave/Generated/CMSIS_DSP/Source/TransformFunctions/arm_cfft_radix4_q31.c ****     t1 = (pSrc[(2U * i1) + 1U] >> 4U) - (pSrc[(2U * i3) + 1U] >> 4U);
 1668              	 .loc 1 585 0 discriminator 1
 1669 01ae D7F84031 	 ldr r3,[r7,#320]
 1670 01b2 DB00     	 lsls r3,r3,#3
 1671 01b4 1A1D     	 adds r2,r3,#4
 1672 01b6 D7F8BC30 	 ldr r3,[r7,#188]
 1673 01ba 1344     	 add r3,r3,r2
 1674 01bc 1B68     	 ldr r3,[r3]
 1675 01be 1911     	 asrs r1,r3,#4
 1676 01c0 D7F83831 	 ldr r3,[r7,#312]
 1677 01c4 DB00     	 lsls r3,r3,#3
 1678 01c6 1A1D     	 adds r2,r3,#4
 1679 01c8 D7F8BC30 	 ldr r3,[r7,#188]
 1680 01cc 1344     	 add r3,r3,r2
 1681 01ce 1B68     	 ldr r3,[r3]
 1682 01d0 1B11     	 asrs r3,r3,#4
 1683 01d2 CB1A     	 subs r3,r1,r3
 1684 01d4 C7F82C31 	 str r3,[r7,#300]
 586:../Dave/Generated/CMSIS_DSP/Source/TransformFunctions/arm_cfft_radix4_q31.c ****     /* xb - xd */
 587:../Dave/Generated/CMSIS_DSP/Source/TransformFunctions/arm_cfft_radix4_q31.c ****     t2 = (pSrc[2U * i1] >> 4U) - (pSrc[2U * i3] >> 4U);
 1685              	 .loc 1 587 0 discriminator 1
 1686 01d8 D7F84031 	 ldr r3,[r7,#320]
 1687 01dc DA00     	 lsls r2,r3,#3
 1688 01de D7F8BC30 	 ldr r3,[r7,#188]
 1689 01e2 1344     	 add r3,r3,r2
 1690 01e4 1B68     	 ldr r3,[r3]
 1691 01e6 1911     	 asrs r1,r3,#4
 1692 01e8 D7F83831 	 ldr r3,[r7,#312]
 1693 01ec DA00     	 lsls r2,r3,#3
 1694 01ee D7F8BC30 	 ldr r3,[r7,#188]
 1695 01f2 1344     	 add r3,r3,r2
 1696 01f4 1B68     	 ldr r3,[r3]
 1697 01f6 1B11     	 asrs r3,r3,#4
 1698 01f8 CB1A     	 subs r3,r1,r3
 1699 01fa C7F82031 	 str r3,[r7,#288]
 588:../Dave/Generated/CMSIS_DSP/Source/TransformFunctions/arm_cfft_radix4_q31.c **** 
 589:../Dave/Generated/CMSIS_DSP/Source/TransformFunctions/arm_cfft_radix4_q31.c ****     /*  index calculation for the coefficients */
 590:../Dave/Generated/CMSIS_DSP/Source/TransformFunctions/arm_cfft_radix4_q31.c ****     ia2 = 2U * ia1;
 1700              	 .loc 1 590 0 discriminator 1
 1701 01fe D7F85831 	 ldr r3,[r7,#344]
 1702 0202 5B00     	 lsls r3,r3,#1
 1703 0204 C7F81C31 	 str r3,[r7,#284]
 591:../Dave/Generated/CMSIS_DSP/Source/TransformFunctions/arm_cfft_radix4_q31.c ****     co2 = pCoef[ia2 * 2U];
 1704              	 .loc 1 591 0 discriminator 1
 1705 0208 D7F81C31 	 ldr r3,[r7,#284]
 1706 020c DA00     	 lsls r2,r3,#3
 1707 020e D7F8B430 	 ldr r3,[r7,#180]
 1708 0212 1344     	 add r3,r3,r2
 1709 0214 1B68     	 ldr r3,[r3]
 1710 0216 C7F81831 	 str r3,[r7,#280]
 592:../Dave/Generated/CMSIS_DSP/Source/TransformFunctions/arm_cfft_radix4_q31.c ****     si2 = pCoef[(ia2 * 2U) + 1U];
 1711              	 .loc 1 592 0 discriminator 1
 1712 021a D7F81C31 	 ldr r3,[r7,#284]
 1713 021e DB00     	 lsls r3,r3,#3
 1714 0220 1A1D     	 adds r2,r3,#4
 1715 0222 D7F8B430 	 ldr r3,[r7,#180]
 1716 0226 1344     	 add r3,r3,r2
 1717 0228 1B68     	 ldr r3,[r3]
 1718 022a C7F81431 	 str r3,[r7,#276]
 593:../Dave/Generated/CMSIS_DSP/Source/TransformFunctions/arm_cfft_radix4_q31.c **** 
 594:../Dave/Generated/CMSIS_DSP/Source/TransformFunctions/arm_cfft_radix4_q31.c ****     /* xc' = (xa-xb+xc-xd)co2 - (ya-yb+yc-yd)(si2) */
 595:../Dave/Generated/CMSIS_DSP/Source/TransformFunctions/arm_cfft_radix4_q31.c ****     pSrc[2U * i1] = (((int32_t) (((q63_t) r1 * co2) >> 32)) -
 1719              	 .loc 1 595 0 discriminator 1
 1720 022e D7F84031 	 ldr r3,[r7,#320]
 1721 0232 DA00     	 lsls r2,r3,#3
 1722 0234 D7F8BC30 	 ldr r3,[r7,#188]
 1723 0238 03EB020E 	 add lr,r3,r2
 1724 023c D7F83431 	 ldr r3,[r7,#308]
 1725 0240 1846     	 mov r0,r3
 1726 0242 4FEAE071 	 asr r1,r0,#31
 1727 0246 D7F81831 	 ldr r3,[r7,#280]
 1728 024a 1A46     	 mov r2,r3
 1729 024c 4FEAE273 	 asr r3,r2,#31
 1730 0250 02FB01F5 	 mul r5,r2,r1
 1731 0254 00FB03F4 	 mul r4,r0,r3
 1732 0258 2C44     	 add r4,r4,r5
 1733 025a A0FB0223 	 umull r2,r3,r0,r2
 1734 025e E118     	 adds r1,r4,r3
 1735 0260 0B46     	 mov r3,r1
 1736 0262 1900     	 movs r1,r3
 1737 0264 C7F8A810 	 str r1,[r7,#168]
 1738 0268 DB17     	 asrs r3,r3,#31
 1739 026a C7F8AC30 	 str r3,[r7,#172]
 1740 026e D7F8A860 	 ldr r6,[r7,#168]
 596:../Dave/Generated/CMSIS_DSP/Source/TransformFunctions/arm_cfft_radix4_q31.c ****                      ((int32_t) (((q63_t) s1 * si2) >> 32))) << 1U;
 1741              	 .loc 1 596 0 discriminator 1
 1742 0272 D7F82831 	 ldr r3,[r7,#296]
 1743 0276 1846     	 mov r0,r3
 1744 0278 4FEAE071 	 asr r1,r0,#31
 1745 027c D7F81431 	 ldr r3,[r7,#276]
 1746 0280 1A46     	 mov r2,r3
 1747 0282 4FEAE273 	 asr r3,r2,#31
 1748 0286 02FB01F5 	 mul r5,r2,r1
 1749 028a 00FB03F4 	 mul r4,r0,r3
 1750 028e 2C44     	 add r4,r4,r5
 1751 0290 A0FB0223 	 umull r2,r3,r0,r2
 1752 0294 E118     	 adds r1,r4,r3
 1753 0296 0B46     	 mov r3,r1
 1754 0298 1900     	 movs r1,r3
 1755 029a C7F8A010 	 str r1,[r7,#160]
 1756 029e DB17     	 asrs r3,r3,#31
 1757 02a0 C7F8A430 	 str r3,[r7,#164]
 1758 02a4 D7F8A030 	 ldr r3,[r7,#160]
 595:../Dave/Generated/CMSIS_DSP/Source/TransformFunctions/arm_cfft_radix4_q31.c ****                      ((int32_t) (((q63_t) s1 * si2) >> 32))) << 1U;
 1759              	 .loc 1 595 0 discriminator 1
 1760 02a8 F31A     	 subs r3,r6,r3
 1761              	 .loc 1 596 0 discriminator 1
 1762 02aa 5B00     	 lsls r3,r3,#1
 595:../Dave/Generated/CMSIS_DSP/Source/TransformFunctions/arm_cfft_radix4_q31.c ****                      ((int32_t) (((q63_t) s1 * si2) >> 32))) << 1U;
 1763              	 .loc 1 595 0 discriminator 1
 1764 02ac CEF80030 	 str r3,[lr]
 597:../Dave/Generated/CMSIS_DSP/Source/TransformFunctions/arm_cfft_radix4_q31.c **** 
 598:../Dave/Generated/CMSIS_DSP/Source/TransformFunctions/arm_cfft_radix4_q31.c ****     /* yc' = (ya-yb+yc-yd)co2 + (xa-xb+xc-xd)(si2) */
 599:../Dave/Generated/CMSIS_DSP/Source/TransformFunctions/arm_cfft_radix4_q31.c ****     pSrc[2U * i1 + 1U] = (((int32_t) (((q63_t) s1 * co2) >> 32)) +
 1765              	 .loc 1 599 0 discriminator 1
 1766 02b0 D7F84031 	 ldr r3,[r7,#320]
 1767 02b4 DB00     	 lsls r3,r3,#3
 1768 02b6 1A1D     	 adds r2,r3,#4
 1769 02b8 D7F8BC30 	 ldr r3,[r7,#188]
 1770 02bc 03EB020E 	 add lr,r3,r2
 1771 02c0 D7F82831 	 ldr r3,[r7,#296]
 1772 02c4 1846     	 mov r0,r3
 1773 02c6 4FEAE071 	 asr r1,r0,#31
 1774 02ca D7F81831 	 ldr r3,[r7,#280]
 1775 02ce 1A46     	 mov r2,r3
 1776 02d0 4FEAE273 	 asr r3,r2,#31
 1777 02d4 02FB01F5 	 mul r5,r2,r1
 1778 02d8 00FB03F4 	 mul r4,r0,r3
 1779 02dc 2C44     	 add r4,r4,r5
 1780 02de A0FB0223 	 umull r2,r3,r0,r2
 1781 02e2 E118     	 adds r1,r4,r3
 1782 02e4 0B46     	 mov r3,r1
 1783 02e6 1900     	 movs r1,r3
 1784 02e8 C7F89810 	 str r1,[r7,#152]
 1785 02ec DB17     	 asrs r3,r3,#31
 1786 02ee C7F89C30 	 str r3,[r7,#156]
 1787 02f2 D7F89860 	 ldr r6,[r7,#152]
 600:../Dave/Generated/CMSIS_DSP/Source/TransformFunctions/arm_cfft_radix4_q31.c ****                           ((int32_t) (((q63_t) r1 * si2) >> 32))) << 1U;
 1788              	 .loc 1 600 0 discriminator 1
 1789 02f6 D7F83431 	 ldr r3,[r7,#308]
 1790 02fa 1846     	 mov r0,r3
 1791 02fc 4FEAE071 	 asr r1,r0,#31
 1792 0300 D7F81431 	 ldr r3,[r7,#276]
 1793 0304 1A46     	 mov r2,r3
 1794 0306 4FEAE273 	 asr r3,r2,#31
 1795 030a 02FB01F5 	 mul r5,r2,r1
 1796 030e 00FB03F4 	 mul r4,r0,r3
 1797 0312 2C44     	 add r4,r4,r5
 1798 0314 A0FB0223 	 umull r2,r3,r0,r2
 1799 0318 E118     	 adds r1,r4,r3
 1800 031a 0B46     	 mov r3,r1
 1801 031c 1900     	 movs r1,r3
 1802 031e C7F89010 	 str r1,[r7,#144]
 1803 0322 DB17     	 asrs r3,r3,#31
 1804 0324 C7F89430 	 str r3,[r7,#148]
 1805 0328 D7F89030 	 ldr r3,[r7,#144]
 599:../Dave/Generated/CMSIS_DSP/Source/TransformFunctions/arm_cfft_radix4_q31.c ****                           ((int32_t) (((q63_t) r1 * si2) >> 32))) << 1U;
 1806              	 .loc 1 599 0 discriminator 1
 1807 032c 3344     	 add r3,r3,r6
 1808              	 .loc 1 600 0 discriminator 1
 1809 032e 5B00     	 lsls r3,r3,#1
 599:../Dave/Generated/CMSIS_DSP/Source/TransformFunctions/arm_cfft_radix4_q31.c ****                           ((int32_t) (((q63_t) r1 * si2) >> 32))) << 1U;
 1810              	 .loc 1 599 0 discriminator 1
 1811 0330 CEF80030 	 str r3,[lr]
 601:../Dave/Generated/CMSIS_DSP/Source/TransformFunctions/arm_cfft_radix4_q31.c **** 
 602:../Dave/Generated/CMSIS_DSP/Source/TransformFunctions/arm_cfft_radix4_q31.c ****     /* (xa - xc) - (yb - yd) */
 603:../Dave/Generated/CMSIS_DSP/Source/TransformFunctions/arm_cfft_radix4_q31.c ****     r1 = r2 - t1;
 1812              	 .loc 1 603 0 discriminator 1
 1813 0334 D7F83021 	 ldr r2,[r7,#304]
 1814 0338 D7F82C31 	 ldr r3,[r7,#300]
 1815 033c D31A     	 subs r3,r2,r3
 1816 033e C7F83431 	 str r3,[r7,#308]
 604:../Dave/Generated/CMSIS_DSP/Source/TransformFunctions/arm_cfft_radix4_q31.c ****     /* (xa - xc) + (yb - yd) */
 605:../Dave/Generated/CMSIS_DSP/Source/TransformFunctions/arm_cfft_radix4_q31.c ****     r2 = r2 + t1;
 1817              	 .loc 1 605 0 discriminator 1
 1818 0342 D7F83021 	 ldr r2,[r7,#304]
 1819 0346 D7F82C31 	 ldr r3,[r7,#300]
 1820 034a 1344     	 add r3,r3,r2
 1821 034c C7F83031 	 str r3,[r7,#304]
 606:../Dave/Generated/CMSIS_DSP/Source/TransformFunctions/arm_cfft_radix4_q31.c **** 
 607:../Dave/Generated/CMSIS_DSP/Source/TransformFunctions/arm_cfft_radix4_q31.c ****     /* (ya - yc) + (xb - xd) */
 608:../Dave/Generated/CMSIS_DSP/Source/TransformFunctions/arm_cfft_radix4_q31.c ****     s1 = s2 + t2;
 1822              	 .loc 1 608 0 discriminator 1
 1823 0350 D7F82421 	 ldr r2,[r7,#292]
 1824 0354 D7F82031 	 ldr r3,[r7,#288]
 1825 0358 1344     	 add r3,r3,r2
 1826 035a C7F82831 	 str r3,[r7,#296]
 609:../Dave/Generated/CMSIS_DSP/Source/TransformFunctions/arm_cfft_radix4_q31.c ****     /* (ya - yc) - (xb - xd) */
 610:../Dave/Generated/CMSIS_DSP/Source/TransformFunctions/arm_cfft_radix4_q31.c ****     s2 = s2 - t2;
 1827              	 .loc 1 610 0 discriminator 1
 1828 035e D7F82421 	 ldr r2,[r7,#292]
 1829 0362 D7F82031 	 ldr r3,[r7,#288]
 1830 0366 D31A     	 subs r3,r2,r3
 1831 0368 C7F82431 	 str r3,[r7,#292]
 611:../Dave/Generated/CMSIS_DSP/Source/TransformFunctions/arm_cfft_radix4_q31.c **** 
 612:../Dave/Generated/CMSIS_DSP/Source/TransformFunctions/arm_cfft_radix4_q31.c ****     co1 = pCoef[ia1 * 2U];
 1832              	 .loc 1 612 0 discriminator 1
 1833 036c D7F85831 	 ldr r3,[r7,#344]
 1834 0370 DA00     	 lsls r2,r3,#3
 1835 0372 D7F8B430 	 ldr r3,[r7,#180]
 1836 0376 1344     	 add r3,r3,r2
 1837 0378 1B68     	 ldr r3,[r3]
 1838 037a C7F81031 	 str r3,[r7,#272]
 613:../Dave/Generated/CMSIS_DSP/Source/TransformFunctions/arm_cfft_radix4_q31.c ****     si1 = pCoef[(ia1 * 2U) + 1U];
 1839              	 .loc 1 613 0 discriminator 1
 1840 037e D7F85831 	 ldr r3,[r7,#344]
 1841 0382 DB00     	 lsls r3,r3,#3
 1842 0384 1A1D     	 adds r2,r3,#4
 1843 0386 D7F8B430 	 ldr r3,[r7,#180]
 1844 038a 1344     	 add r3,r3,r2
 1845 038c 1B68     	 ldr r3,[r3]
 1846 038e C7F80C31 	 str r3,[r7,#268]
 614:../Dave/Generated/CMSIS_DSP/Source/TransformFunctions/arm_cfft_radix4_q31.c **** 
 615:../Dave/Generated/CMSIS_DSP/Source/TransformFunctions/arm_cfft_radix4_q31.c ****     /* xb' = (xa+yb-xc-yd)co1 - (ya-xb-yc+xd)(si1) */
 616:../Dave/Generated/CMSIS_DSP/Source/TransformFunctions/arm_cfft_radix4_q31.c ****     pSrc[2U * i2] = (((int32_t) (((q63_t) r1 * co1) >> 32)) -
 1847              	 .loc 1 616 0 discriminator 1
 1848 0392 D7F83C31 	 ldr r3,[r7,#316]
 1849 0396 DA00     	 lsls r2,r3,#3
 1850 0398 D7F8BC30 	 ldr r3,[r7,#188]
 1851 039c 03EB020E 	 add lr,r3,r2
 1852 03a0 D7F83431 	 ldr r3,[r7,#308]
 1853 03a4 1846     	 mov r0,r3
 1854 03a6 4FEAE071 	 asr r1,r0,#31
 1855 03aa D7F81031 	 ldr r3,[r7,#272]
 1856 03ae 1A46     	 mov r2,r3
 1857 03b0 4FEAE273 	 asr r3,r2,#31
 1858 03b4 02FB01F5 	 mul r5,r2,r1
 1859 03b8 00FB03F4 	 mul r4,r0,r3
 1860 03bc 2C44     	 add r4,r4,r5
 1861 03be A0FB0223 	 umull r2,r3,r0,r2
 1862 03c2 E118     	 adds r1,r4,r3
 1863 03c4 0B46     	 mov r3,r1
 1864 03c6 1900     	 movs r1,r3
 1865 03c8 C7F88810 	 str r1,[r7,#136]
 1866 03cc DB17     	 asrs r3,r3,#31
 1867 03ce C7F88C30 	 str r3,[r7,#140]
 1868 03d2 D7F88860 	 ldr r6,[r7,#136]
 617:../Dave/Generated/CMSIS_DSP/Source/TransformFunctions/arm_cfft_radix4_q31.c ****                      ((int32_t) (((q63_t) s1 * si1) >> 32))) << 1U;
 1869              	 .loc 1 617 0 discriminator 1
 1870 03d6 D7F82831 	 ldr r3,[r7,#296]
 1871 03da 1846     	 mov r0,r3
 1872 03dc 4FEAE071 	 asr r1,r0,#31
 1873 03e0 D7F80C31 	 ldr r3,[r7,#268]
 1874 03e4 1A46     	 mov r2,r3
 1875 03e6 4FEAE273 	 asr r3,r2,#31
 1876 03ea 02FB01F5 	 mul r5,r2,r1
 1877 03ee 00FB03F4 	 mul r4,r0,r3
 1878 03f2 2C44     	 add r4,r4,r5
 1879 03f4 A0FB0223 	 umull r2,r3,r0,r2
 1880 03f8 E118     	 adds r1,r4,r3
 1881 03fa 0B46     	 mov r3,r1
 1882 03fc 1900     	 movs r1,r3
 1883 03fe C7F88010 	 str r1,[r7,#128]
 1884 0402 DB17     	 asrs r3,r3,#31
 1885 0404 C7F88430 	 str r3,[r7,#132]
 1886 0408 D7F88030 	 ldr r3,[r7,#128]
 616:../Dave/Generated/CMSIS_DSP/Source/TransformFunctions/arm_cfft_radix4_q31.c ****                      ((int32_t) (((q63_t) s1 * si1) >> 32))) << 1U;
 1887              	 .loc 1 616 0 discriminator 1
 1888 040c F31A     	 subs r3,r6,r3
 1889              	 .loc 1 617 0 discriminator 1
 1890 040e 5B00     	 lsls r3,r3,#1
 616:../Dave/Generated/CMSIS_DSP/Source/TransformFunctions/arm_cfft_radix4_q31.c ****                      ((int32_t) (((q63_t) s1 * si1) >> 32))) << 1U;
 1891              	 .loc 1 616 0 discriminator 1
 1892 0410 CEF80030 	 str r3,[lr]
 618:../Dave/Generated/CMSIS_DSP/Source/TransformFunctions/arm_cfft_radix4_q31.c **** 
 619:../Dave/Generated/CMSIS_DSP/Source/TransformFunctions/arm_cfft_radix4_q31.c ****     /* yb' = (ya-xb-yc+xd)co1 + (xa+yb-xc-yd)(si1) */
 620:../Dave/Generated/CMSIS_DSP/Source/TransformFunctions/arm_cfft_radix4_q31.c ****     pSrc[(2U * i2) + 1U] = (((int32_t) (((q63_t) s1 * co1) >> 32)) +
 1893              	 .loc 1 620 0 discriminator 1
 1894 0414 D7F83C31 	 ldr r3,[r7,#316]
 1895 0418 DB00     	 lsls r3,r3,#3
 1896 041a 1A1D     	 adds r2,r3,#4
 1897 041c D7F8BC30 	 ldr r3,[r7,#188]
 1898 0420 03EB020E 	 add lr,r3,r2
 1899 0424 D7F82831 	 ldr r3,[r7,#296]
 1900 0428 1846     	 mov r0,r3
 1901 042a 4FEAE071 	 asr r1,r0,#31
 1902 042e D7F81031 	 ldr r3,[r7,#272]
 1903 0432 1A46     	 mov r2,r3
 1904 0434 4FEAE273 	 asr r3,r2,#31
 1905 0438 02FB01F5 	 mul r5,r2,r1
 1906 043c 00FB03F4 	 mul r4,r0,r3
 1907 0440 2C44     	 add r4,r4,r5
 1908 0442 A0FB0223 	 umull r2,r3,r0,r2
 1909 0446 E118     	 adds r1,r4,r3
 1910 0448 0B46     	 mov r3,r1
 1911 044a 1900     	 movs r1,r3
 1912 044c B967     	 str r1,[r7,#120]
 1913 044e DB17     	 asrs r3,r3,#31
 1914 0450 FB67     	 str r3,[r7,#124]
 1915 0452 BE6F     	 ldr r6,[r7,#120]
 621:../Dave/Generated/CMSIS_DSP/Source/TransformFunctions/arm_cfft_radix4_q31.c ****                             ((int32_t) (((q63_t) r1 * si1) >> 32))) << 1U;
 1916              	 .loc 1 621 0 discriminator 1
 1917 0454 D7F83431 	 ldr r3,[r7,#308]
 1918 0458 1846     	 mov r0,r3
 1919 045a 4FEAE071 	 asr r1,r0,#31
 1920 045e D7F80C31 	 ldr r3,[r7,#268]
 1921 0462 1A46     	 mov r2,r3
 1922 0464 4FEAE273 	 asr r3,r2,#31
 1923 0468 02FB01F5 	 mul r5,r2,r1
 1924 046c 00FB03F4 	 mul r4,r0,r3
 1925 0470 2C44     	 add r4,r4,r5
 1926 0472 A0FB0223 	 umull r2,r3,r0,r2
 1927 0476 E118     	 adds r1,r4,r3
 1928 0478 0B46     	 mov r3,r1
 1929 047a 1900     	 movs r1,r3
 1930 047c 3967     	 str r1,[r7,#112]
 1931 047e DB17     	 asrs r3,r3,#31
 1932 0480 7B67     	 str r3,[r7,#116]
 1933 0482 3B6F     	 ldr r3,[r7,#112]
 620:../Dave/Generated/CMSIS_DSP/Source/TransformFunctions/arm_cfft_radix4_q31.c ****                             ((int32_t) (((q63_t) r1 * si1) >> 32))) << 1U;
 1934              	 .loc 1 620 0 discriminator 1
 1935 0484 3344     	 add r3,r3,r6
 1936              	 .loc 1 621 0 discriminator 1
 1937 0486 5B00     	 lsls r3,r3,#1
 620:../Dave/Generated/CMSIS_DSP/Source/TransformFunctions/arm_cfft_radix4_q31.c ****                             ((int32_t) (((q63_t) r1 * si1) >> 32))) << 1U;
 1938              	 .loc 1 620 0 discriminator 1
 1939 0488 CEF80030 	 str r3,[lr]
 622:../Dave/Generated/CMSIS_DSP/Source/TransformFunctions/arm_cfft_radix4_q31.c **** 
 623:../Dave/Generated/CMSIS_DSP/Source/TransformFunctions/arm_cfft_radix4_q31.c ****     /*  index calculation for the coefficients */
 624:../Dave/Generated/CMSIS_DSP/Source/TransformFunctions/arm_cfft_radix4_q31.c ****     ia3 = 3U * ia1;
 1940              	 .loc 1 624 0 discriminator 1
 1941 048c D7F85821 	 ldr r2,[r7,#344]
 1942 0490 1346     	 mov r3,r2
 1943 0492 5B00     	 lsls r3,r3,#1
 1944 0494 1344     	 add r3,r3,r2
 1945 0496 C7F80831 	 str r3,[r7,#264]
 625:../Dave/Generated/CMSIS_DSP/Source/TransformFunctions/arm_cfft_radix4_q31.c ****     co3 = pCoef[ia3 * 2U];
 1946              	 .loc 1 625 0 discriminator 1
 1947 049a D7F80831 	 ldr r3,[r7,#264]
 1948 049e DA00     	 lsls r2,r3,#3
 1949 04a0 D7F8B430 	 ldr r3,[r7,#180]
 1950 04a4 1344     	 add r3,r3,r2
 1951 04a6 1B68     	 ldr r3,[r3]
 1952 04a8 C7F80431 	 str r3,[r7,#260]
 626:../Dave/Generated/CMSIS_DSP/Source/TransformFunctions/arm_cfft_radix4_q31.c ****     si3 = pCoef[(ia3 * 2U) + 1U];
 1953              	 .loc 1 626 0 discriminator 1
 1954 04ac D7F80831 	 ldr r3,[r7,#264]
 1955 04b0 DB00     	 lsls r3,r3,#3
 1956 04b2 1A1D     	 adds r2,r3,#4
 1957 04b4 D7F8B430 	 ldr r3,[r7,#180]
 1958 04b8 1344     	 add r3,r3,r2
 1959 04ba 1B68     	 ldr r3,[r3]
 1960 04bc C7F80031 	 str r3,[r7,#256]
 627:../Dave/Generated/CMSIS_DSP/Source/TransformFunctions/arm_cfft_radix4_q31.c **** 
 628:../Dave/Generated/CMSIS_DSP/Source/TransformFunctions/arm_cfft_radix4_q31.c ****     /* xd' = (xa-yb-xc+yd)co3 - (ya+xb-yc-xd)(si3) */
 629:../Dave/Generated/CMSIS_DSP/Source/TransformFunctions/arm_cfft_radix4_q31.c ****     pSrc[2U * i3] = (((int32_t) (((q63_t) r2 * co3) >> 32)) -
 1961              	 .loc 1 629 0 discriminator 1
 1962 04c0 D7F83831 	 ldr r3,[r7,#312]
 1963 04c4 DA00     	 lsls r2,r3,#3
 1964 04c6 D7F8BC30 	 ldr r3,[r7,#188]
 1965 04ca 03EB020E 	 add lr,r3,r2
 1966 04ce D7F83031 	 ldr r3,[r7,#304]
 1967 04d2 1846     	 mov r0,r3
 1968 04d4 4FEAE071 	 asr r1,r0,#31
 1969 04d8 D7F80431 	 ldr r3,[r7,#260]
 1970 04dc 1A46     	 mov r2,r3
 1971 04de 4FEAE273 	 asr r3,r2,#31
 1972 04e2 02FB01F5 	 mul r5,r2,r1
 1973 04e6 00FB03F4 	 mul r4,r0,r3
 1974 04ea 2C44     	 add r4,r4,r5
 1975 04ec A0FB0223 	 umull r2,r3,r0,r2
 1976 04f0 E118     	 adds r1,r4,r3
 1977 04f2 0B46     	 mov r3,r1
 1978 04f4 1900     	 movs r1,r3
 1979 04f6 B966     	 str r1,[r7,#104]
 1980 04f8 DB17     	 asrs r3,r3,#31
 1981 04fa FB66     	 str r3,[r7,#108]
 1982 04fc BE6E     	 ldr r6,[r7,#104]
 630:../Dave/Generated/CMSIS_DSP/Source/TransformFunctions/arm_cfft_radix4_q31.c ****                      ((int32_t) (((q63_t) s2 * si3) >> 32))) << 1U;
 1983              	 .loc 1 630 0 discriminator 1
 1984 04fe D7F82431 	 ldr r3,[r7,#292]
 1985 0502 1846     	 mov r0,r3
 1986 0504 4FEAE071 	 asr r1,r0,#31
 1987 0508 D7F80031 	 ldr r3,[r7,#256]
 1988 050c 1A46     	 mov r2,r3
 1989 050e 4FEAE273 	 asr r3,r2,#31
 1990 0512 02FB01F5 	 mul r5,r2,r1
 1991 0516 00FB03F4 	 mul r4,r0,r3
 1992 051a 2C44     	 add r4,r4,r5
 1993 051c A0FB0223 	 umull r2,r3,r0,r2
 1994 0520 E118     	 adds r1,r4,r3
 1995 0522 0B46     	 mov r3,r1
 1996 0524 1900     	 movs r1,r3
 1997 0526 3966     	 str r1,[r7,#96]
 1998 0528 DB17     	 asrs r3,r3,#31
 1999 052a 7B66     	 str r3,[r7,#100]
 2000 052c 3B6E     	 ldr r3,[r7,#96]
 629:../Dave/Generated/CMSIS_DSP/Source/TransformFunctions/arm_cfft_radix4_q31.c ****                      ((int32_t) (((q63_t) s2 * si3) >> 32))) << 1U;
 2001              	 .loc 1 629 0 discriminator 1
 2002 052e F31A     	 subs r3,r6,r3
 2003              	 .loc 1 630 0 discriminator 1
 2004 0530 5B00     	 lsls r3,r3,#1
 629:../Dave/Generated/CMSIS_DSP/Source/TransformFunctions/arm_cfft_radix4_q31.c ****                      ((int32_t) (((q63_t) s2 * si3) >> 32))) << 1U;
 2005              	 .loc 1 629 0 discriminator 1
 2006 0532 CEF80030 	 str r3,[lr]
 631:../Dave/Generated/CMSIS_DSP/Source/TransformFunctions/arm_cfft_radix4_q31.c **** 
 632:../Dave/Generated/CMSIS_DSP/Source/TransformFunctions/arm_cfft_radix4_q31.c ****     /* yd' = (ya+xb-yc-xd)co3 + (xa-yb-xc+yd)(si3) */
 633:../Dave/Generated/CMSIS_DSP/Source/TransformFunctions/arm_cfft_radix4_q31.c ****     pSrc[(2U * i3) + 1U] = (((int32_t) (((q63_t) s2 * co3) >> 32)) +
 2007              	 .loc 1 633 0 discriminator 1
 2008 0536 D7F83831 	 ldr r3,[r7,#312]
 2009 053a DB00     	 lsls r3,r3,#3
 2010 053c 1A1D     	 adds r2,r3,#4
 2011 053e D7F8BC30 	 ldr r3,[r7,#188]
 2012 0542 03EB020E 	 add lr,r3,r2
 2013 0546 D7F82431 	 ldr r3,[r7,#292]
 2014 054a 1846     	 mov r0,r3
 2015 054c 4FEAE071 	 asr r1,r0,#31
 2016 0550 D7F80431 	 ldr r3,[r7,#260]
 2017 0554 1A46     	 mov r2,r3
 2018 0556 4FEAE273 	 asr r3,r2,#31
 2019 055a 02FB01F5 	 mul r5,r2,r1
 2020 055e 00FB03F4 	 mul r4,r0,r3
 2021 0562 2C44     	 add r4,r4,r5
 2022 0564 A0FB0223 	 umull r2,r3,r0,r2
 2023 0568 E118     	 adds r1,r4,r3
 2024 056a 0B46     	 mov r3,r1
 2025 056c 9A46     	 mov r10,r3
 2026 056e 4FEAE37B 	 asr fp,r3,#31
 2027 0572 5646     	 mov r6,r10
 634:../Dave/Generated/CMSIS_DSP/Source/TransformFunctions/arm_cfft_radix4_q31.c ****                             ((int32_t) (((q63_t) r2 * si3) >> 32))) << 1U;
 2028              	 .loc 1 634 0 discriminator 1
 2029 0574 D7F83031 	 ldr r3,[r7,#304]
 2030 0578 1846     	 mov r0,r3
 2031 057a 4FEAE071 	 asr r1,r0,#31
 2032 057e D7F80031 	 ldr r3,[r7,#256]
 2033 0582 1A46     	 mov r2,r3
 2034 0584 4FEAE273 	 asr r3,r2,#31
 2035 0588 02FB01F5 	 mul r5,r2,r1
 2036 058c 00FB03F4 	 mul r4,r0,r3
 2037 0590 2C44     	 add r4,r4,r5
 2038 0592 A0FB0223 	 umull r2,r3,r0,r2
 2039 0596 E118     	 adds r1,r4,r3
 2040 0598 0B46     	 mov r3,r1
 2041 059a 9846     	 mov r8,r3
 2042 059c 4FEAE379 	 asr r9,r3,#31
 2043 05a0 4346     	 mov r3,r8
 633:../Dave/Generated/CMSIS_DSP/Source/TransformFunctions/arm_cfft_radix4_q31.c ****                             ((int32_t) (((q63_t) r2 * si3) >> 32))) << 1U;
 2044              	 .loc 1 633 0 discriminator 1
 2045 05a2 3344     	 add r3,r3,r6
 2046              	 .loc 1 634 0 discriminator 1
 2047 05a4 5B00     	 lsls r3,r3,#1
 633:../Dave/Generated/CMSIS_DSP/Source/TransformFunctions/arm_cfft_radix4_q31.c ****                             ((int32_t) (((q63_t) r2 * si3) >> 32))) << 1U;
 2048              	 .loc 1 633 0 discriminator 1
 2049 05a6 CEF80030 	 str r3,[lr]
 635:../Dave/Generated/CMSIS_DSP/Source/TransformFunctions/arm_cfft_radix4_q31.c **** 
 636:../Dave/Generated/CMSIS_DSP/Source/TransformFunctions/arm_cfft_radix4_q31.c ****     /*  Twiddle coefficients index modifier */
 637:../Dave/Generated/CMSIS_DSP/Source/TransformFunctions/arm_cfft_radix4_q31.c ****     ia1 = ia1 + twidCoefModifier;
 2050              	 .loc 1 637 0 discriminator 1
 2051 05aa D7F85821 	 ldr r2,[r7,#344]
 2052 05ae D7F8B030 	 ldr r3,[r7,#176]
 2053 05b2 1344     	 add r3,r3,r2
 2054 05b4 C7F85831 	 str r3,[r7,#344]
 638:../Dave/Generated/CMSIS_DSP/Source/TransformFunctions/arm_cfft_radix4_q31.c **** 
 639:../Dave/Generated/CMSIS_DSP/Source/TransformFunctions/arm_cfft_radix4_q31.c ****     /*  Updating input index */
 640:../Dave/Generated/CMSIS_DSP/Source/TransformFunctions/arm_cfft_radix4_q31.c ****     i0 = i0 + 1U;
 2055              	 .loc 1 640 0 discriminator 1
 2056 05b8 D7F85431 	 ldr r3,[r7,#340]
 2057 05bc 0133     	 adds r3,r3,#1
 2058 05be C7F85431 	 str r3,[r7,#340]
 641:../Dave/Generated/CMSIS_DSP/Source/TransformFunctions/arm_cfft_radix4_q31.c **** 
 642:../Dave/Generated/CMSIS_DSP/Source/TransformFunctions/arm_cfft_radix4_q31.c ****   } while (--j);
 2059              	 .loc 1 642 0 discriminator 1
 2060 05c2 D7F85031 	 ldr r3,[r7,#336]
 2061 05c6 013B     	 subs r3,r3,#1
 2062 05c8 C7F85031 	 str r3,[r7,#336]
 2063 05cc D7F85031 	 ldr r3,[r7,#336]
 2064 05d0 002B     	 cmp r3,#0
 2065 05d2 7FF438AD 	 bne .L15
 643:../Dave/Generated/CMSIS_DSP/Source/TransformFunctions/arm_cfft_radix4_q31.c **** 
 644:../Dave/Generated/CMSIS_DSP/Source/TransformFunctions/arm_cfft_radix4_q31.c ****   /* data is in 5.27(q27) format */
 645:../Dave/Generated/CMSIS_DSP/Source/TransformFunctions/arm_cfft_radix4_q31.c ****   /* each stage provides two down scaling of the input */
 646:../Dave/Generated/CMSIS_DSP/Source/TransformFunctions/arm_cfft_radix4_q31.c **** 
 647:../Dave/Generated/CMSIS_DSP/Source/TransformFunctions/arm_cfft_radix4_q31.c **** 
 648:../Dave/Generated/CMSIS_DSP/Source/TransformFunctions/arm_cfft_radix4_q31.c ****   /* Start of Middle stages process */
 649:../Dave/Generated/CMSIS_DSP/Source/TransformFunctions/arm_cfft_radix4_q31.c **** 
 650:../Dave/Generated/CMSIS_DSP/Source/TransformFunctions/arm_cfft_radix4_q31.c ****   twidCoefModifier <<= 2U;
 2066              	 .loc 1 650 0
 2067 05d6 D7F8B030 	 ldr r3,[r7,#176]
 2068 05da 9B00     	 lsls r3,r3,#2
 2069 05dc C7F8B030 	 str r3,[r7,#176]
 651:../Dave/Generated/CMSIS_DSP/Source/TransformFunctions/arm_cfft_radix4_q31.c **** 
 652:../Dave/Generated/CMSIS_DSP/Source/TransformFunctions/arm_cfft_radix4_q31.c ****   /*  Calculation of second stage to excluding last stage */
 653:../Dave/Generated/CMSIS_DSP/Source/TransformFunctions/arm_cfft_radix4_q31.c ****   for (k = fftLen / 4U; k > 4U; k >>= 2U)
 2070              	 .loc 1 653 0
 2071 05e0 D7F8B830 	 ldr r3,[r7,#184]
 2072 05e4 9B08     	 lsrs r3,r3,#2
 2073 05e6 C7F84C31 	 str r3,[r7,#332]
 2074 05ea D6E2     	 b .L16
 2075              	.L21:
 654:../Dave/Generated/CMSIS_DSP/Source/TransformFunctions/arm_cfft_radix4_q31.c ****   {
 655:../Dave/Generated/CMSIS_DSP/Source/TransformFunctions/arm_cfft_radix4_q31.c ****     /*  Initializations for the first stage */
 656:../Dave/Generated/CMSIS_DSP/Source/TransformFunctions/arm_cfft_radix4_q31.c ****     n1 = n2;
 2076              	 .loc 1 656 0
 2077 05ec D7F85C31 	 ldr r3,[r7,#348]
 2078 05f0 C7F84431 	 str r3,[r7,#324]
 657:../Dave/Generated/CMSIS_DSP/Source/TransformFunctions/arm_cfft_radix4_q31.c ****     n2 >>= 2U;
 2079              	 .loc 1 657 0
 2080 05f4 D7F85C31 	 ldr r3,[r7,#348]
 2081 05f8 9B08     	 lsrs r3,r3,#2
 2082 05fa C7F85C31 	 str r3,[r7,#348]
 658:../Dave/Generated/CMSIS_DSP/Source/TransformFunctions/arm_cfft_radix4_q31.c ****     ia1 = 0U;
 2083              	 .loc 1 658 0
 2084 05fe 0023     	 movs r3,#0
 2085 0600 C7F85831 	 str r3,[r7,#344]
 659:../Dave/Generated/CMSIS_DSP/Source/TransformFunctions/arm_cfft_radix4_q31.c **** 
 660:../Dave/Generated/CMSIS_DSP/Source/TransformFunctions/arm_cfft_radix4_q31.c ****     for (j = 0; j <= (n2 - 1U); j++)
 2086              	 .loc 1 660 0
 2087 0604 0023     	 movs r3,#0
 2088 0606 C7F85031 	 str r3,[r7,#336]
 2089 060a B4E2     	 b .L17
 2090              	.L20:
 661:../Dave/Generated/CMSIS_DSP/Source/TransformFunctions/arm_cfft_radix4_q31.c ****     {
 662:../Dave/Generated/CMSIS_DSP/Source/TransformFunctions/arm_cfft_radix4_q31.c ****       /*  index calculation for the coefficients */
 663:../Dave/Generated/CMSIS_DSP/Source/TransformFunctions/arm_cfft_radix4_q31.c ****       ia2 = ia1 + ia1;
 2091              	 .loc 1 663 0
 2092 060c D7F85821 	 ldr r2,[r7,#344]
 2093 0610 D7F85831 	 ldr r3,[r7,#344]
 2094 0614 1344     	 add r3,r3,r2
 2095 0616 C7F81C31 	 str r3,[r7,#284]
 664:../Dave/Generated/CMSIS_DSP/Source/TransformFunctions/arm_cfft_radix4_q31.c ****       ia3 = ia2 + ia1;
 2096              	 .loc 1 664 0
 2097 061a D7F81C21 	 ldr r2,[r7,#284]
 2098 061e D7F85831 	 ldr r3,[r7,#344]
 2099 0622 1344     	 add r3,r3,r2
 2100 0624 C7F80831 	 str r3,[r7,#264]
 665:../Dave/Generated/CMSIS_DSP/Source/TransformFunctions/arm_cfft_radix4_q31.c ****       co1 = pCoef[(ia1 * 2U)];
 2101              	 .loc 1 665 0
 2102 0628 D7F85831 	 ldr r3,[r7,#344]
 2103 062c DA00     	 lsls r2,r3,#3
 2104 062e D7F8B430 	 ldr r3,[r7,#180]
 2105 0632 1344     	 add r3,r3,r2
 2106 0634 1B68     	 ldr r3,[r3]
 2107 0636 C7F81031 	 str r3,[r7,#272]
 666:../Dave/Generated/CMSIS_DSP/Source/TransformFunctions/arm_cfft_radix4_q31.c ****       si1 = pCoef[(ia1 * 2U) + 1U];
 2108              	 .loc 1 666 0
 2109 063a D7F85831 	 ldr r3,[r7,#344]
 2110 063e DB00     	 lsls r3,r3,#3
 2111 0640 1A1D     	 adds r2,r3,#4
 2112 0642 D7F8B430 	 ldr r3,[r7,#180]
 2113 0646 1344     	 add r3,r3,r2
 2114 0648 1B68     	 ldr r3,[r3]
 2115 064a C7F80C31 	 str r3,[r7,#268]
 667:../Dave/Generated/CMSIS_DSP/Source/TransformFunctions/arm_cfft_radix4_q31.c ****       co2 = pCoef[(ia2 * 2U)];
 2116              	 .loc 1 667 0
 2117 064e D7F81C31 	 ldr r3,[r7,#284]
 2118 0652 DA00     	 lsls r2,r3,#3
 2119 0654 D7F8B430 	 ldr r3,[r7,#180]
 2120 0658 1344     	 add r3,r3,r2
 2121 065a 1B68     	 ldr r3,[r3]
 2122 065c C7F81831 	 str r3,[r7,#280]
 668:../Dave/Generated/CMSIS_DSP/Source/TransformFunctions/arm_cfft_radix4_q31.c ****       si2 = pCoef[(ia2 * 2U) + 1U];
 2123              	 .loc 1 668 0
 2124 0660 D7F81C31 	 ldr r3,[r7,#284]
 2125 0664 DB00     	 lsls r3,r3,#3
 2126 0666 1A1D     	 adds r2,r3,#4
 2127 0668 D7F8B430 	 ldr r3,[r7,#180]
 2128 066c 1344     	 add r3,r3,r2
 2129 066e 1B68     	 ldr r3,[r3]
 2130 0670 C7F81431 	 str r3,[r7,#276]
 669:../Dave/Generated/CMSIS_DSP/Source/TransformFunctions/arm_cfft_radix4_q31.c ****       co3 = pCoef[(ia3 * 2U)];
 2131              	 .loc 1 669 0
 2132 0674 D7F80831 	 ldr r3,[r7,#264]
 2133 0678 DA00     	 lsls r2,r3,#3
 2134 067a D7F8B430 	 ldr r3,[r7,#180]
 2135 067e 1344     	 add r3,r3,r2
 2136 0680 1B68     	 ldr r3,[r3]
 2137 0682 C7F80431 	 str r3,[r7,#260]
 670:../Dave/Generated/CMSIS_DSP/Source/TransformFunctions/arm_cfft_radix4_q31.c ****       si3 = pCoef[(ia3 * 2U) + 1U];
 2138              	 .loc 1 670 0
 2139 0686 D7F80831 	 ldr r3,[r7,#264]
 2140 068a DB00     	 lsls r3,r3,#3
 2141 068c 1A1D     	 adds r2,r3,#4
 2142 068e D7F8B430 	 ldr r3,[r7,#180]
 2143 0692 1344     	 add r3,r3,r2
 2144 0694 1B68     	 ldr r3,[r3]
 2145 0696 C7F80031 	 str r3,[r7,#256]
 671:../Dave/Generated/CMSIS_DSP/Source/TransformFunctions/arm_cfft_radix4_q31.c ****       /*  Twiddle coefficients index modifier */
 672:../Dave/Generated/CMSIS_DSP/Source/TransformFunctions/arm_cfft_radix4_q31.c ****       ia1 = ia1 + twidCoefModifier;
 2146              	 .loc 1 672 0
 2147 069a D7F85821 	 ldr r2,[r7,#344]
 2148 069e D7F8B030 	 ldr r3,[r7,#176]
 2149 06a2 1344     	 add r3,r3,r2
 2150 06a4 C7F85831 	 str r3,[r7,#344]
 673:../Dave/Generated/CMSIS_DSP/Source/TransformFunctions/arm_cfft_radix4_q31.c **** 
 674:../Dave/Generated/CMSIS_DSP/Source/TransformFunctions/arm_cfft_radix4_q31.c ****       for (i0 = j; i0 < fftLen; i0 += n1)
 2151              	 .loc 1 674 0
 2152 06a8 D7F85031 	 ldr r3,[r7,#336]
 2153 06ac C7F85431 	 str r3,[r7,#340]
 2154 06b0 55E2     	 b .L18
 2155              	.L19:
 675:../Dave/Generated/CMSIS_DSP/Source/TransformFunctions/arm_cfft_radix4_q31.c ****       {
 676:../Dave/Generated/CMSIS_DSP/Source/TransformFunctions/arm_cfft_radix4_q31.c ****         /*  index calculation for the input as, */
 677:../Dave/Generated/CMSIS_DSP/Source/TransformFunctions/arm_cfft_radix4_q31.c ****         /*  pSrc[i0 + 0], pSrc[i0 + fftLen/4], pSrc[i0 + fftLen/2U], pSrc[i0 + 3fftLen/4] */
 678:../Dave/Generated/CMSIS_DSP/Source/TransformFunctions/arm_cfft_radix4_q31.c ****         i1 = i0 + n2;
 2156              	 .loc 1 678 0 discriminator 3
 2157 06b2 D7F85421 	 ldr r2,[r7,#340]
 2158 06b6 D7F85C31 	 ldr r3,[r7,#348]
 2159 06ba 1344     	 add r3,r3,r2
 2160 06bc C7F84031 	 str r3,[r7,#320]
 679:../Dave/Generated/CMSIS_DSP/Source/TransformFunctions/arm_cfft_radix4_q31.c ****         i2 = i1 + n2;
 2161              	 .loc 1 679 0 discriminator 3
 2162 06c0 D7F84021 	 ldr r2,[r7,#320]
 2163 06c4 D7F85C31 	 ldr r3,[r7,#348]
 2164 06c8 1344     	 add r3,r3,r2
 2165 06ca C7F83C31 	 str r3,[r7,#316]
 680:../Dave/Generated/CMSIS_DSP/Source/TransformFunctions/arm_cfft_radix4_q31.c ****         i3 = i2 + n2;
 2166              	 .loc 1 680 0 discriminator 3
 2167 06ce D7F83C21 	 ldr r2,[r7,#316]
 2168 06d2 D7F85C31 	 ldr r3,[r7,#348]
 2169 06d6 1344     	 add r3,r3,r2
 2170 06d8 C7F83831 	 str r3,[r7,#312]
 681:../Dave/Generated/CMSIS_DSP/Source/TransformFunctions/arm_cfft_radix4_q31.c **** 
 682:../Dave/Generated/CMSIS_DSP/Source/TransformFunctions/arm_cfft_radix4_q31.c ****         /*  Butterfly implementation */
 683:../Dave/Generated/CMSIS_DSP/Source/TransformFunctions/arm_cfft_radix4_q31.c ****         /* xa + xc */
 684:../Dave/Generated/CMSIS_DSP/Source/TransformFunctions/arm_cfft_radix4_q31.c ****         r1 = pSrc[2U * i0] + pSrc[2U * i2];
 2171              	 .loc 1 684 0 discriminator 3
 2172 06dc D7F85431 	 ldr r3,[r7,#340]
 2173 06e0 DA00     	 lsls r2,r3,#3
 2174 06e2 D7F8BC30 	 ldr r3,[r7,#188]
 2175 06e6 1344     	 add r3,r3,r2
 2176 06e8 1968     	 ldr r1,[r3]
 2177 06ea D7F83C31 	 ldr r3,[r7,#316]
 2178 06ee DA00     	 lsls r2,r3,#3
 2179 06f0 D7F8BC30 	 ldr r3,[r7,#188]
 2180 06f4 1344     	 add r3,r3,r2
 2181 06f6 1B68     	 ldr r3,[r3]
 2182 06f8 0B44     	 add r3,r3,r1
 2183 06fa C7F83431 	 str r3,[r7,#308]
 685:../Dave/Generated/CMSIS_DSP/Source/TransformFunctions/arm_cfft_radix4_q31.c ****         /* xa - xc */
 686:../Dave/Generated/CMSIS_DSP/Source/TransformFunctions/arm_cfft_radix4_q31.c ****         r2 = pSrc[2U * i0] - pSrc[2U * i2];
 2184              	 .loc 1 686 0 discriminator 3
 2185 06fe D7F85431 	 ldr r3,[r7,#340]
 2186 0702 DA00     	 lsls r2,r3,#3
 2187 0704 D7F8BC30 	 ldr r3,[r7,#188]
 2188 0708 1344     	 add r3,r3,r2
 2189 070a 1968     	 ldr r1,[r3]
 2190 070c D7F83C31 	 ldr r3,[r7,#316]
 2191 0710 DA00     	 lsls r2,r3,#3
 2192 0712 D7F8BC30 	 ldr r3,[r7,#188]
 2193 0716 1344     	 add r3,r3,r2
 2194 0718 1B68     	 ldr r3,[r3]
 2195 071a CB1A     	 subs r3,r1,r3
 2196 071c C7F83031 	 str r3,[r7,#304]
 687:../Dave/Generated/CMSIS_DSP/Source/TransformFunctions/arm_cfft_radix4_q31.c **** 
 688:../Dave/Generated/CMSIS_DSP/Source/TransformFunctions/arm_cfft_radix4_q31.c ****         /* ya + yc */
 689:../Dave/Generated/CMSIS_DSP/Source/TransformFunctions/arm_cfft_radix4_q31.c ****         s1 = pSrc[(2U * i0) + 1U] + pSrc[(2U * i2) + 1U];
 2197              	 .loc 1 689 0 discriminator 3
 2198 0720 D7F85431 	 ldr r3,[r7,#340]
 2199 0724 DB00     	 lsls r3,r3,#3
 2200 0726 1A1D     	 adds r2,r3,#4
 2201 0728 D7F8BC30 	 ldr r3,[r7,#188]
 2202 072c 1344     	 add r3,r3,r2
 2203 072e 1968     	 ldr r1,[r3]
 2204 0730 D7F83C31 	 ldr r3,[r7,#316]
 2205 0734 DB00     	 lsls r3,r3,#3
 2206 0736 1A1D     	 adds r2,r3,#4
 2207 0738 D7F8BC30 	 ldr r3,[r7,#188]
 2208 073c 1344     	 add r3,r3,r2
 2209 073e 1B68     	 ldr r3,[r3]
 2210 0740 0B44     	 add r3,r3,r1
 2211 0742 C7F82831 	 str r3,[r7,#296]
 690:../Dave/Generated/CMSIS_DSP/Source/TransformFunctions/arm_cfft_radix4_q31.c ****         /* ya - yc */
 691:../Dave/Generated/CMSIS_DSP/Source/TransformFunctions/arm_cfft_radix4_q31.c ****         s2 = pSrc[(2U * i0) + 1U] - pSrc[(2U * i2) + 1U];
 2212              	 .loc 1 691 0 discriminator 3
 2213 0746 D7F85431 	 ldr r3,[r7,#340]
 2214 074a DB00     	 lsls r3,r3,#3
 2215 074c 1A1D     	 adds r2,r3,#4
 2216 074e D7F8BC30 	 ldr r3,[r7,#188]
 2217 0752 1344     	 add r3,r3,r2
 2218 0754 1968     	 ldr r1,[r3]
 2219 0756 D7F83C31 	 ldr r3,[r7,#316]
 2220 075a DB00     	 lsls r3,r3,#3
 2221 075c 1A1D     	 adds r2,r3,#4
 2222 075e D7F8BC30 	 ldr r3,[r7,#188]
 2223 0762 1344     	 add r3,r3,r2
 2224 0764 1B68     	 ldr r3,[r3]
 2225 0766 CB1A     	 subs r3,r1,r3
 2226 0768 C7F82431 	 str r3,[r7,#292]
 692:../Dave/Generated/CMSIS_DSP/Source/TransformFunctions/arm_cfft_radix4_q31.c **** 
 693:../Dave/Generated/CMSIS_DSP/Source/TransformFunctions/arm_cfft_radix4_q31.c ****         /* xb + xd */
 694:../Dave/Generated/CMSIS_DSP/Source/TransformFunctions/arm_cfft_radix4_q31.c ****         t1 = pSrc[2U * i1] + pSrc[2U * i3];
 2227              	 .loc 1 694 0 discriminator 3
 2228 076c D7F84031 	 ldr r3,[r7,#320]
 2229 0770 DA00     	 lsls r2,r3,#3
 2230 0772 D7F8BC30 	 ldr r3,[r7,#188]
 2231 0776 1344     	 add r3,r3,r2
 2232 0778 1968     	 ldr r1,[r3]
 2233 077a D7F83831 	 ldr r3,[r7,#312]
 2234 077e DA00     	 lsls r2,r3,#3
 2235 0780 D7F8BC30 	 ldr r3,[r7,#188]
 2236 0784 1344     	 add r3,r3,r2
 2237 0786 1B68     	 ldr r3,[r3]
 2238 0788 0B44     	 add r3,r3,r1
 2239 078a C7F82C31 	 str r3,[r7,#300]
 695:../Dave/Generated/CMSIS_DSP/Source/TransformFunctions/arm_cfft_radix4_q31.c **** 
 696:../Dave/Generated/CMSIS_DSP/Source/TransformFunctions/arm_cfft_radix4_q31.c ****         /* xa' = xa + xb + xc + xd */
 697:../Dave/Generated/CMSIS_DSP/Source/TransformFunctions/arm_cfft_radix4_q31.c ****         pSrc[2U * i0] = (r1 + t1) >> 2U;
 2240              	 .loc 1 697 0 discriminator 3
 2241 078e D7F85431 	 ldr r3,[r7,#340]
 2242 0792 DA00     	 lsls r2,r3,#3
 2243 0794 D7F8BC30 	 ldr r3,[r7,#188]
 2244 0798 9918     	 adds r1,r3,r2
 2245 079a D7F83421 	 ldr r2,[r7,#308]
 2246 079e D7F82C31 	 ldr r3,[r7,#300]
 2247 07a2 1344     	 add r3,r3,r2
 2248 07a4 9B10     	 asrs r3,r3,#2
 2249 07a6 0B60     	 str r3,[r1]
 698:../Dave/Generated/CMSIS_DSP/Source/TransformFunctions/arm_cfft_radix4_q31.c ****         /* xa + xc -(xb + xd) */
 699:../Dave/Generated/CMSIS_DSP/Source/TransformFunctions/arm_cfft_radix4_q31.c ****         r1 = r1 - t1;
 2250              	 .loc 1 699 0 discriminator 3
 2251 07a8 D7F83421 	 ldr r2,[r7,#308]
 2252 07ac D7F82C31 	 ldr r3,[r7,#300]
 2253 07b0 D31A     	 subs r3,r2,r3
 2254 07b2 C7F83431 	 str r3,[r7,#308]
 700:../Dave/Generated/CMSIS_DSP/Source/TransformFunctions/arm_cfft_radix4_q31.c ****         /* yb + yd */
 701:../Dave/Generated/CMSIS_DSP/Source/TransformFunctions/arm_cfft_radix4_q31.c ****         t2 = pSrc[(2U * i1) + 1U] + pSrc[(2U * i3) + 1U];
 2255              	 .loc 1 701 0 discriminator 3
 2256 07b6 D7F84031 	 ldr r3,[r7,#320]
 2257 07ba DB00     	 lsls r3,r3,#3
 2258 07bc 1A1D     	 adds r2,r3,#4
 2259 07be D7F8BC30 	 ldr r3,[r7,#188]
 2260 07c2 1344     	 add r3,r3,r2
 2261 07c4 1968     	 ldr r1,[r3]
 2262 07c6 D7F83831 	 ldr r3,[r7,#312]
 2263 07ca DB00     	 lsls r3,r3,#3
 2264 07cc 1A1D     	 adds r2,r3,#4
 2265 07ce D7F8BC30 	 ldr r3,[r7,#188]
 2266 07d2 1344     	 add r3,r3,r2
 2267 07d4 1B68     	 ldr r3,[r3]
 2268 07d6 0B44     	 add r3,r3,r1
 2269 07d8 C7F82031 	 str r3,[r7,#288]
 702:../Dave/Generated/CMSIS_DSP/Source/TransformFunctions/arm_cfft_radix4_q31.c ****         /* ya' = ya + yb + yc + yd */
 703:../Dave/Generated/CMSIS_DSP/Source/TransformFunctions/arm_cfft_radix4_q31.c ****         pSrc[(2U * i0) + 1U] = (s1 + t2) >> 2U;
 2270              	 .loc 1 703 0 discriminator 3
 2271 07dc D7F85431 	 ldr r3,[r7,#340]
 2272 07e0 DB00     	 lsls r3,r3,#3
 2273 07e2 1A1D     	 adds r2,r3,#4
 2274 07e4 D7F8BC30 	 ldr r3,[r7,#188]
 2275 07e8 9918     	 adds r1,r3,r2
 2276 07ea D7F82821 	 ldr r2,[r7,#296]
 2277 07ee D7F82031 	 ldr r3,[r7,#288]
 2278 07f2 1344     	 add r3,r3,r2
 2279 07f4 9B10     	 asrs r3,r3,#2
 2280 07f6 0B60     	 str r3,[r1]
 704:../Dave/Generated/CMSIS_DSP/Source/TransformFunctions/arm_cfft_radix4_q31.c **** 
 705:../Dave/Generated/CMSIS_DSP/Source/TransformFunctions/arm_cfft_radix4_q31.c ****         /* (ya + yc) - (yb + yd) */
 706:../Dave/Generated/CMSIS_DSP/Source/TransformFunctions/arm_cfft_radix4_q31.c ****         s1 = s1 - t2;
 2281              	 .loc 1 706 0 discriminator 3
 2282 07f8 D7F82821 	 ldr r2,[r7,#296]
 2283 07fc D7F82031 	 ldr r3,[r7,#288]
 2284 0800 D31A     	 subs r3,r2,r3
 2285 0802 C7F82831 	 str r3,[r7,#296]
 707:../Dave/Generated/CMSIS_DSP/Source/TransformFunctions/arm_cfft_radix4_q31.c **** 
 708:../Dave/Generated/CMSIS_DSP/Source/TransformFunctions/arm_cfft_radix4_q31.c ****         /* (yb - yd) */
 709:../Dave/Generated/CMSIS_DSP/Source/TransformFunctions/arm_cfft_radix4_q31.c ****         t1 = pSrc[(2U * i1) + 1U] - pSrc[(2U * i3) + 1U];
 2286              	 .loc 1 709 0 discriminator 3
 2287 0806 D7F84031 	 ldr r3,[r7,#320]
 2288 080a DB00     	 lsls r3,r3,#3
 2289 080c 1A1D     	 adds r2,r3,#4
 2290 080e D7F8BC30 	 ldr r3,[r7,#188]
 2291 0812 1344     	 add r3,r3,r2
 2292 0814 1968     	 ldr r1,[r3]
 2293 0816 D7F83831 	 ldr r3,[r7,#312]
 2294 081a DB00     	 lsls r3,r3,#3
 2295 081c 1A1D     	 adds r2,r3,#4
 2296 081e D7F8BC30 	 ldr r3,[r7,#188]
 2297 0822 1344     	 add r3,r3,r2
 2298 0824 1B68     	 ldr r3,[r3]
 2299 0826 CB1A     	 subs r3,r1,r3
 2300 0828 C7F82C31 	 str r3,[r7,#300]
 710:../Dave/Generated/CMSIS_DSP/Source/TransformFunctions/arm_cfft_radix4_q31.c ****         /* (xb - xd) */
 711:../Dave/Generated/CMSIS_DSP/Source/TransformFunctions/arm_cfft_radix4_q31.c ****         t2 = pSrc[2U * i1] - pSrc[2U * i3];
 2301              	 .loc 1 711 0 discriminator 3
 2302 082c D7F84031 	 ldr r3,[r7,#320]
 2303 0830 DA00     	 lsls r2,r3,#3
 2304 0832 D7F8BC30 	 ldr r3,[r7,#188]
 2305 0836 1344     	 add r3,r3,r2
 2306 0838 1968     	 ldr r1,[r3]
 2307 083a D7F83831 	 ldr r3,[r7,#312]
 2308 083e DA00     	 lsls r2,r3,#3
 2309 0840 D7F8BC30 	 ldr r3,[r7,#188]
 2310 0844 1344     	 add r3,r3,r2
 2311 0846 1B68     	 ldr r3,[r3]
 2312 0848 CB1A     	 subs r3,r1,r3
 2313 084a C7F82031 	 str r3,[r7,#288]
 712:../Dave/Generated/CMSIS_DSP/Source/TransformFunctions/arm_cfft_radix4_q31.c **** 
 713:../Dave/Generated/CMSIS_DSP/Source/TransformFunctions/arm_cfft_radix4_q31.c ****         /* xc' = (xa-xb+xc-xd)co2 - (ya-yb+yc-yd)(si2) */
 714:../Dave/Generated/CMSIS_DSP/Source/TransformFunctions/arm_cfft_radix4_q31.c ****         pSrc[2U * i1] = (((int32_t) (((q63_t) r1 * co2) >> 32U)) -
 2314              	 .loc 1 714 0 discriminator 3
 2315 084e D7F84031 	 ldr r3,[r7,#320]
 2316 0852 DA00     	 lsls r2,r3,#3
 2317 0854 D7F8BC30 	 ldr r3,[r7,#188]
 2318 0858 03EB020E 	 add lr,r3,r2
 2319 085c D7F83431 	 ldr r3,[r7,#308]
 2320 0860 1846     	 mov r0,r3
 2321 0862 4FEAE071 	 asr r1,r0,#31
 2322 0866 D7F81831 	 ldr r3,[r7,#280]
 2323 086a 1A46     	 mov r2,r3
 2324 086c 4FEAE273 	 asr r3,r2,#31
 2325 0870 02FB01F5 	 mul r5,r2,r1
 2326 0874 00FB03F4 	 mul r4,r0,r3
 2327 0878 2C44     	 add r4,r4,r5
 2328 087a A0FB0223 	 umull r2,r3,r0,r2
 2329 087e E118     	 adds r1,r4,r3
 2330 0880 0B46     	 mov r3,r1
 2331 0882 1900     	 movs r1,r3
 2332 0884 B965     	 str r1,[r7,#88]
 2333 0886 DB17     	 asrs r3,r3,#31
 2334 0888 FB65     	 str r3,[r7,#92]
 2335 088a BE6D     	 ldr r6,[r7,#88]
 715:../Dave/Generated/CMSIS_DSP/Source/TransformFunctions/arm_cfft_radix4_q31.c ****                          ((int32_t) (((q63_t) s1 * si2) >> 32U))) >> 1U;
 2336              	 .loc 1 715 0 discriminator 3
 2337 088c D7F82831 	 ldr r3,[r7,#296]
 2338 0890 1846     	 mov r0,r3
 2339 0892 4FEAE071 	 asr r1,r0,#31
 2340 0896 D7F81431 	 ldr r3,[r7,#276]
 2341 089a 1A46     	 mov r2,r3
 2342 089c 4FEAE273 	 asr r3,r2,#31
 2343 08a0 02FB01F5 	 mul r5,r2,r1
 2344 08a4 00FB03F4 	 mul r4,r0,r3
 2345 08a8 2C44     	 add r4,r4,r5
 2346 08aa A0FB0223 	 umull r2,r3,r0,r2
 2347 08ae E118     	 adds r1,r4,r3
 2348 08b0 0B46     	 mov r3,r1
 2349 08b2 1900     	 movs r1,r3
 2350 08b4 3965     	 str r1,[r7,#80]
 2351 08b6 DB17     	 asrs r3,r3,#31
 2352 08b8 7B65     	 str r3,[r7,#84]
 2353 08ba 3B6D     	 ldr r3,[r7,#80]
 714:../Dave/Generated/CMSIS_DSP/Source/TransformFunctions/arm_cfft_radix4_q31.c ****                          ((int32_t) (((q63_t) s1 * si2) >> 32U))) >> 1U;
 2354              	 .loc 1 714 0 discriminator 3
 2355 08bc F31A     	 subs r3,r6,r3
 2356              	 .loc 1 715 0 discriminator 3
 2357 08be 5B10     	 asrs r3,r3,#1
 714:../Dave/Generated/CMSIS_DSP/Source/TransformFunctions/arm_cfft_radix4_q31.c ****                          ((int32_t) (((q63_t) s1 * si2) >> 32U))) >> 1U;
 2358              	 .loc 1 714 0 discriminator 3
 2359 08c0 CEF80030 	 str r3,[lr]
 716:../Dave/Generated/CMSIS_DSP/Source/TransformFunctions/arm_cfft_radix4_q31.c **** 
 717:../Dave/Generated/CMSIS_DSP/Source/TransformFunctions/arm_cfft_radix4_q31.c ****         /* yc' = (ya-yb+yc-yd)co2 + (xa-xb+xc-xd)(si2) */
 718:../Dave/Generated/CMSIS_DSP/Source/TransformFunctions/arm_cfft_radix4_q31.c ****         pSrc[(2U * i1) + 1U] = (((int32_t) (((q63_t) s1 * co2) >> 32U)) +
 2360              	 .loc 1 718 0 discriminator 3
 2361 08c4 D7F84031 	 ldr r3,[r7,#320]
 2362 08c8 DB00     	 lsls r3,r3,#3
 2363 08ca 1A1D     	 adds r2,r3,#4
 2364 08cc D7F8BC30 	 ldr r3,[r7,#188]
 2365 08d0 03EB020E 	 add lr,r3,r2
 2366 08d4 D7F82831 	 ldr r3,[r7,#296]
 2367 08d8 1846     	 mov r0,r3
 2368 08da 4FEAE071 	 asr r1,r0,#31
 2369 08de D7F81831 	 ldr r3,[r7,#280]
 2370 08e2 1A46     	 mov r2,r3
 2371 08e4 4FEAE273 	 asr r3,r2,#31
 2372 08e8 02FB01F5 	 mul r5,r2,r1
 2373 08ec 00FB03F4 	 mul r4,r0,r3
 2374 08f0 2C44     	 add r4,r4,r5
 2375 08f2 A0FB0223 	 umull r2,r3,r0,r2
 2376 08f6 E118     	 adds r1,r4,r3
 2377 08f8 0B46     	 mov r3,r1
 2378 08fa 1900     	 movs r1,r3
 2379 08fc B964     	 str r1,[r7,#72]
 2380 08fe DB17     	 asrs r3,r3,#31
 2381 0900 FB64     	 str r3,[r7,#76]
 2382 0902 BE6C     	 ldr r6,[r7,#72]
 719:../Dave/Generated/CMSIS_DSP/Source/TransformFunctions/arm_cfft_radix4_q31.c ****                                 ((int32_t) (((q63_t) r1 * si2) >> 32U))) >> 1U;
 2383              	 .loc 1 719 0 discriminator 3
 2384 0904 D7F83431 	 ldr r3,[r7,#308]
 2385 0908 1846     	 mov r0,r3
 2386 090a 4FEAE071 	 asr r1,r0,#31
 2387 090e D7F81431 	 ldr r3,[r7,#276]
 2388 0912 1A46     	 mov r2,r3
 2389 0914 4FEAE273 	 asr r3,r2,#31
 2390 0918 02FB01F5 	 mul r5,r2,r1
 2391 091c 00FB03F4 	 mul r4,r0,r3
 2392 0920 2C44     	 add r4,r4,r5
 2393 0922 A0FB0223 	 umull r2,r3,r0,r2
 2394 0926 E118     	 adds r1,r4,r3
 2395 0928 0B46     	 mov r3,r1
 2396 092a 1900     	 movs r1,r3
 2397 092c 3964     	 str r1,[r7,#64]
 2398 092e DB17     	 asrs r3,r3,#31
 2399 0930 7B64     	 str r3,[r7,#68]
 2400 0932 3B6C     	 ldr r3,[r7,#64]
 718:../Dave/Generated/CMSIS_DSP/Source/TransformFunctions/arm_cfft_radix4_q31.c ****                                 ((int32_t) (((q63_t) r1 * si2) >> 32U))) >> 1U;
 2401              	 .loc 1 718 0 discriminator 3
 2402 0934 3344     	 add r3,r3,r6
 2403              	 .loc 1 719 0 discriminator 3
 2404 0936 5B10     	 asrs r3,r3,#1
 718:../Dave/Generated/CMSIS_DSP/Source/TransformFunctions/arm_cfft_radix4_q31.c ****                                 ((int32_t) (((q63_t) r1 * si2) >> 32U))) >> 1U;
 2405              	 .loc 1 718 0 discriminator 3
 2406 0938 CEF80030 	 str r3,[lr]
 720:../Dave/Generated/CMSIS_DSP/Source/TransformFunctions/arm_cfft_radix4_q31.c **** 
 721:../Dave/Generated/CMSIS_DSP/Source/TransformFunctions/arm_cfft_radix4_q31.c ****         /* (xa - xc) - (yb - yd) */
 722:../Dave/Generated/CMSIS_DSP/Source/TransformFunctions/arm_cfft_radix4_q31.c ****         r1 = r2 - t1;
 2407              	 .loc 1 722 0 discriminator 3
 2408 093c D7F83021 	 ldr r2,[r7,#304]
 2409 0940 D7F82C31 	 ldr r3,[r7,#300]
 2410 0944 D31A     	 subs r3,r2,r3
 2411 0946 C7F83431 	 str r3,[r7,#308]
 723:../Dave/Generated/CMSIS_DSP/Source/TransformFunctions/arm_cfft_radix4_q31.c ****         /* (xa - xc) + (yb - yd) */
 724:../Dave/Generated/CMSIS_DSP/Source/TransformFunctions/arm_cfft_radix4_q31.c ****         r2 = r2 + t1;
 2412              	 .loc 1 724 0 discriminator 3
 2413 094a D7F83021 	 ldr r2,[r7,#304]
 2414 094e D7F82C31 	 ldr r3,[r7,#300]
 2415 0952 1344     	 add r3,r3,r2
 2416 0954 C7F83031 	 str r3,[r7,#304]
 725:../Dave/Generated/CMSIS_DSP/Source/TransformFunctions/arm_cfft_radix4_q31.c **** 
 726:../Dave/Generated/CMSIS_DSP/Source/TransformFunctions/arm_cfft_radix4_q31.c ****         /* (ya - yc) +  (xb - xd) */
 727:../Dave/Generated/CMSIS_DSP/Source/TransformFunctions/arm_cfft_radix4_q31.c ****         s1 = s2 + t2;
 2417              	 .loc 1 727 0 discriminator 3
 2418 0958 D7F82421 	 ldr r2,[r7,#292]
 2419 095c D7F82031 	 ldr r3,[r7,#288]
 2420 0960 1344     	 add r3,r3,r2
 2421 0962 C7F82831 	 str r3,[r7,#296]
 728:../Dave/Generated/CMSIS_DSP/Source/TransformFunctions/arm_cfft_radix4_q31.c ****         /* (ya - yc) -  (xb - xd) */
 729:../Dave/Generated/CMSIS_DSP/Source/TransformFunctions/arm_cfft_radix4_q31.c ****         s2 = s2 - t2;
 2422              	 .loc 1 729 0 discriminator 3
 2423 0966 D7F82421 	 ldr r2,[r7,#292]
 2424 096a D7F82031 	 ldr r3,[r7,#288]
 2425 096e D31A     	 subs r3,r2,r3
 2426 0970 C7F82431 	 str r3,[r7,#292]
 730:../Dave/Generated/CMSIS_DSP/Source/TransformFunctions/arm_cfft_radix4_q31.c **** 
 731:../Dave/Generated/CMSIS_DSP/Source/TransformFunctions/arm_cfft_radix4_q31.c ****         /* xb' = (xa+yb-xc-yd)co1 - (ya-xb-yc+xd)(si1) */
 732:../Dave/Generated/CMSIS_DSP/Source/TransformFunctions/arm_cfft_radix4_q31.c ****         pSrc[2U * i2] = (((int32_t) (((q63_t) r1 * co1) >> 32)) -
 2427              	 .loc 1 732 0 discriminator 3
 2428 0974 D7F83C31 	 ldr r3,[r7,#316]
 2429 0978 DA00     	 lsls r2,r3,#3
 2430 097a D7F8BC30 	 ldr r3,[r7,#188]
 2431 097e 03EB020E 	 add lr,r3,r2
 2432 0982 D7F83431 	 ldr r3,[r7,#308]
 2433 0986 1846     	 mov r0,r3
 2434 0988 4FEAE071 	 asr r1,r0,#31
 2435 098c D7F81031 	 ldr r3,[r7,#272]
 2436 0990 1A46     	 mov r2,r3
 2437 0992 4FEAE273 	 asr r3,r2,#31
 2438 0996 02FB01F5 	 mul r5,r2,r1
 2439 099a 00FB03F4 	 mul r4,r0,r3
 2440 099e 2C44     	 add r4,r4,r5
 2441 09a0 A0FB0223 	 umull r2,r3,r0,r2
 2442 09a4 E118     	 adds r1,r4,r3
 2443 09a6 0B46     	 mov r3,r1
 2444 09a8 1900     	 movs r1,r3
 2445 09aa B963     	 str r1,[r7,#56]
 2446 09ac DB17     	 asrs r3,r3,#31
 2447 09ae FB63     	 str r3,[r7,#60]
 2448 09b0 BE6B     	 ldr r6,[r7,#56]
 733:../Dave/Generated/CMSIS_DSP/Source/TransformFunctions/arm_cfft_radix4_q31.c ****                          ((int32_t) (((q63_t) s1 * si1) >> 32))) >> 1U;
 2449              	 .loc 1 733 0 discriminator 3
 2450 09b2 D7F82831 	 ldr r3,[r7,#296]
 2451 09b6 1846     	 mov r0,r3
 2452 09b8 4FEAE071 	 asr r1,r0,#31
 2453 09bc D7F80C31 	 ldr r3,[r7,#268]
 2454 09c0 1A46     	 mov r2,r3
 2455 09c2 4FEAE273 	 asr r3,r2,#31
 2456 09c6 02FB01F5 	 mul r5,r2,r1
 2457 09ca 00FB03F4 	 mul r4,r0,r3
 2458 09ce 2C44     	 add r4,r4,r5
 2459 09d0 A0FB0223 	 umull r2,r3,r0,r2
 2460 09d4 E118     	 adds r1,r4,r3
 2461 09d6 0B46     	 mov r3,r1
 2462 09d8 1900     	 movs r1,r3
 2463 09da 3963     	 str r1,[r7,#48]
 2464 09dc DB17     	 asrs r3,r3,#31
 2465 09de 7B63     	 str r3,[r7,#52]
 2466 09e0 3B6B     	 ldr r3,[r7,#48]
 732:../Dave/Generated/CMSIS_DSP/Source/TransformFunctions/arm_cfft_radix4_q31.c ****                          ((int32_t) (((q63_t) s1 * si1) >> 32))) >> 1U;
 2467              	 .loc 1 732 0 discriminator 3
 2468 09e2 F31A     	 subs r3,r6,r3
 2469              	 .loc 1 733 0 discriminator 3
 2470 09e4 5B10     	 asrs r3,r3,#1
 732:../Dave/Generated/CMSIS_DSP/Source/TransformFunctions/arm_cfft_radix4_q31.c ****                          ((int32_t) (((q63_t) s1 * si1) >> 32))) >> 1U;
 2471              	 .loc 1 732 0 discriminator 3
 2472 09e6 CEF80030 	 str r3,[lr]
 734:../Dave/Generated/CMSIS_DSP/Source/TransformFunctions/arm_cfft_radix4_q31.c **** 
 735:../Dave/Generated/CMSIS_DSP/Source/TransformFunctions/arm_cfft_radix4_q31.c ****         /* yb' = (ya-xb-yc+xd)co1 + (xa+yb-xc-yd)(si1) */
 736:../Dave/Generated/CMSIS_DSP/Source/TransformFunctions/arm_cfft_radix4_q31.c ****         pSrc[(2U * i2) + 1U] = (((int32_t) (((q63_t) s1 * co1) >> 32)) +
 2473              	 .loc 1 736 0 discriminator 3
 2474 09ea D7F83C31 	 ldr r3,[r7,#316]
 2475 09ee DB00     	 lsls r3,r3,#3
 2476 09f0 1A1D     	 adds r2,r3,#4
 2477 09f2 D7F8BC30 	 ldr r3,[r7,#188]
 2478 09f6 03EB020E 	 add lr,r3,r2
 2479 09fa D7F82831 	 ldr r3,[r7,#296]
 2480 09fe 1846     	 mov r0,r3
 2481 0a00 4FEAE071 	 asr r1,r0,#31
 2482 0a04 D7F81031 	 ldr r3,[r7,#272]
 2483 0a08 1A46     	 mov r2,r3
 2484 0a0a 4FEAE273 	 asr r3,r2,#31
 2485 0a0e 02FB01F5 	 mul r5,r2,r1
 2486 0a12 00FB03F4 	 mul r4,r0,r3
 2487 0a16 2C44     	 add r4,r4,r5
 2488 0a18 A0FB0223 	 umull r2,r3,r0,r2
 2489 0a1c E118     	 adds r1,r4,r3
 2490 0a1e 0B46     	 mov r3,r1
 2491 0a20 1900     	 movs r1,r3
 2492 0a22 B962     	 str r1,[r7,#40]
 2493 0a24 DB17     	 asrs r3,r3,#31
 2494 0a26 FB62     	 str r3,[r7,#44]
 2495 0a28 BE6A     	 ldr r6,[r7,#40]
 737:../Dave/Generated/CMSIS_DSP/Source/TransformFunctions/arm_cfft_radix4_q31.c ****                                 ((int32_t) (((q63_t) r1 * si1) >> 32))) >> 1U;
 2496              	 .loc 1 737 0 discriminator 3
 2497 0a2a D7F83431 	 ldr r3,[r7,#308]
 2498 0a2e 1846     	 mov r0,r3
 2499 0a30 4FEAE071 	 asr r1,r0,#31
 2500 0a34 D7F80C31 	 ldr r3,[r7,#268]
 2501 0a38 1A46     	 mov r2,r3
 2502 0a3a 4FEAE273 	 asr r3,r2,#31
 2503 0a3e 02FB01F5 	 mul r5,r2,r1
 2504 0a42 00FB03F4 	 mul r4,r0,r3
 2505 0a46 2C44     	 add r4,r4,r5
 2506 0a48 A0FB0223 	 umull r2,r3,r0,r2
 2507 0a4c E118     	 adds r1,r4,r3
 2508 0a4e 0B46     	 mov r3,r1
 2509 0a50 1900     	 movs r1,r3
 2510 0a52 3962     	 str r1,[r7,#32]
 2511 0a54 DB17     	 asrs r3,r3,#31
 2512 0a56 7B62     	 str r3,[r7,#36]
 2513 0a58 3B6A     	 ldr r3,[r7,#32]
 736:../Dave/Generated/CMSIS_DSP/Source/TransformFunctions/arm_cfft_radix4_q31.c ****                                 ((int32_t) (((q63_t) r1 * si1) >> 32))) >> 1U;
 2514              	 .loc 1 736 0 discriminator 3
 2515 0a5a 3344     	 add r3,r3,r6
 2516              	 .loc 1 737 0 discriminator 3
 2517 0a5c 5B10     	 asrs r3,r3,#1
 736:../Dave/Generated/CMSIS_DSP/Source/TransformFunctions/arm_cfft_radix4_q31.c ****                                 ((int32_t) (((q63_t) r1 * si1) >> 32))) >> 1U;
 2518              	 .loc 1 736 0 discriminator 3
 2519 0a5e CEF80030 	 str r3,[lr]
 738:../Dave/Generated/CMSIS_DSP/Source/TransformFunctions/arm_cfft_radix4_q31.c **** 
 739:../Dave/Generated/CMSIS_DSP/Source/TransformFunctions/arm_cfft_radix4_q31.c ****         /* xd' = (xa-yb-xc+yd)co3 - (ya+xb-yc-xd)(si3) */
 740:../Dave/Generated/CMSIS_DSP/Source/TransformFunctions/arm_cfft_radix4_q31.c ****         pSrc[(2U * i3)] = (((int32_t) (((q63_t) r2 * co3) >> 32)) -
 2520              	 .loc 1 740 0 discriminator 3
 2521 0a62 D7F83831 	 ldr r3,[r7,#312]
 2522 0a66 DA00     	 lsls r2,r3,#3
 2523 0a68 D7F8BC30 	 ldr r3,[r7,#188]
 2524 0a6c 03EB020E 	 add lr,r3,r2
 2525 0a70 D7F83031 	 ldr r3,[r7,#304]
 2526 0a74 1846     	 mov r0,r3
 2527 0a76 4FEAE071 	 asr r1,r0,#31
 2528 0a7a D7F80431 	 ldr r3,[r7,#260]
 2529 0a7e 1A46     	 mov r2,r3
 2530 0a80 4FEAE273 	 asr r3,r2,#31
 2531 0a84 02FB01F5 	 mul r5,r2,r1
 2532 0a88 00FB03F4 	 mul r4,r0,r3
 2533 0a8c 2C44     	 add r4,r4,r5
 2534 0a8e A0FB0223 	 umull r2,r3,r0,r2
 2535 0a92 E118     	 adds r1,r4,r3
 2536 0a94 0B46     	 mov r3,r1
 2537 0a96 1900     	 movs r1,r3
 2538 0a98 B961     	 str r1,[r7,#24]
 2539 0a9a DB17     	 asrs r3,r3,#31
 2540 0a9c FB61     	 str r3,[r7,#28]
 2541 0a9e BE69     	 ldr r6,[r7,#24]
 741:../Dave/Generated/CMSIS_DSP/Source/TransformFunctions/arm_cfft_radix4_q31.c ****                            ((int32_t) (((q63_t) s2 * si3) >> 32))) >> 1U;
 2542              	 .loc 1 741 0 discriminator 3
 2543 0aa0 D7F82431 	 ldr r3,[r7,#292]
 2544 0aa4 1846     	 mov r0,r3
 2545 0aa6 4FEAE071 	 asr r1,r0,#31
 2546 0aaa D7F80031 	 ldr r3,[r7,#256]
 2547 0aae 1A46     	 mov r2,r3
 2548 0ab0 4FEAE273 	 asr r3,r2,#31
 2549 0ab4 02FB01F5 	 mul r5,r2,r1
 2550 0ab8 00FB03F4 	 mul r4,r0,r3
 2551 0abc 2C44     	 add r4,r4,r5
 2552 0abe A0FB0223 	 umull r2,r3,r0,r2
 2553 0ac2 E118     	 adds r1,r4,r3
 2554 0ac4 0B46     	 mov r3,r1
 2555 0ac6 1900     	 movs r1,r3
 2556 0ac8 3961     	 str r1,[r7,#16]
 2557 0aca DB17     	 asrs r3,r3,#31
 2558 0acc 7B61     	 str r3,[r7,#20]
 2559 0ace 3B69     	 ldr r3,[r7,#16]
 740:../Dave/Generated/CMSIS_DSP/Source/TransformFunctions/arm_cfft_radix4_q31.c ****                            ((int32_t) (((q63_t) s2 * si3) >> 32))) >> 1U;
 2560              	 .loc 1 740 0 discriminator 3
 2561 0ad0 F31A     	 subs r3,r6,r3
 2562              	 .loc 1 741 0 discriminator 3
 2563 0ad2 5B10     	 asrs r3,r3,#1
 740:../Dave/Generated/CMSIS_DSP/Source/TransformFunctions/arm_cfft_radix4_q31.c ****                            ((int32_t) (((q63_t) s2 * si3) >> 32))) >> 1U;
 2564              	 .loc 1 740 0 discriminator 3
 2565 0ad4 CEF80030 	 str r3,[lr]
 742:../Dave/Generated/CMSIS_DSP/Source/TransformFunctions/arm_cfft_radix4_q31.c **** 
 743:../Dave/Generated/CMSIS_DSP/Source/TransformFunctions/arm_cfft_radix4_q31.c ****         /* yd' = (ya+xb-yc-xd)co3 + (xa-yb-xc+yd)(si3) */
 744:../Dave/Generated/CMSIS_DSP/Source/TransformFunctions/arm_cfft_radix4_q31.c ****         pSrc[(2U * i3) + 1U] = (((int32_t) (((q63_t) s2 * co3) >> 32)) +
 2566              	 .loc 1 744 0 discriminator 3
 2567 0ad8 D7F83831 	 ldr r3,[r7,#312]
 2568 0adc DB00     	 lsls r3,r3,#3
 2569 0ade 1A1D     	 adds r2,r3,#4
 2570 0ae0 D7F8BC30 	 ldr r3,[r7,#188]
 2571 0ae4 03EB020E 	 add lr,r3,r2
 2572 0ae8 D7F82431 	 ldr r3,[r7,#292]
 2573 0aec 1846     	 mov r0,r3
 2574 0aee 4FEAE071 	 asr r1,r0,#31
 2575 0af2 D7F80431 	 ldr r3,[r7,#260]
 2576 0af6 1A46     	 mov r2,r3
 2577 0af8 4FEAE273 	 asr r3,r2,#31
 2578 0afc 02FB01F5 	 mul r5,r2,r1
 2579 0b00 00FB03F4 	 mul r4,r0,r3
 2580 0b04 2C44     	 add r4,r4,r5
 2581 0b06 A0FB0223 	 umull r2,r3,r0,r2
 2582 0b0a E118     	 adds r1,r4,r3
 2583 0b0c 0B46     	 mov r3,r1
 2584 0b0e 1900     	 movs r1,r3
 2585 0b10 B960     	 str r1,[r7,#8]
 2586 0b12 DB17     	 asrs r3,r3,#31
 2587 0b14 FB60     	 str r3,[r7,#12]
 2588 0b16 BE68     	 ldr r6,[r7,#8]
 745:../Dave/Generated/CMSIS_DSP/Source/TransformFunctions/arm_cfft_radix4_q31.c ****                                 ((int32_t) (((q63_t) r2 * si3) >> 32))) >> 1U;
 2589              	 .loc 1 745 0 discriminator 3
 2590 0b18 D7F83031 	 ldr r3,[r7,#304]
 2591 0b1c 1846     	 mov r0,r3
 2592 0b1e 4FEAE071 	 asr r1,r0,#31
 2593 0b22 D7F80031 	 ldr r3,[r7,#256]
 2594 0b26 1A46     	 mov r2,r3
 2595 0b28 4FEAE273 	 asr r3,r2,#31
 2596 0b2c 02FB01F5 	 mul r5,r2,r1
 2597 0b30 00FB03F4 	 mul r4,r0,r3
 2598 0b34 2C44     	 add r4,r4,r5
 2599 0b36 A0FB0223 	 umull r2,r3,r0,r2
 2600 0b3a E118     	 adds r1,r4,r3
 2601 0b3c 0B46     	 mov r3,r1
 2602 0b3e 1900     	 movs r1,r3
 2603 0b40 3960     	 str r1,[r7]
 2604 0b42 DB17     	 asrs r3,r3,#31
 2605 0b44 7B60     	 str r3,[r7,#4]
 2606 0b46 3B68     	 ldr r3,[r7]
 744:../Dave/Generated/CMSIS_DSP/Source/TransformFunctions/arm_cfft_radix4_q31.c ****                                 ((int32_t) (((q63_t) r2 * si3) >> 32))) >> 1U;
 2607              	 .loc 1 744 0 discriminator 3
 2608 0b48 3344     	 add r3,r3,r6
 2609              	 .loc 1 745 0 discriminator 3
 2610 0b4a 5B10     	 asrs r3,r3,#1
 744:../Dave/Generated/CMSIS_DSP/Source/TransformFunctions/arm_cfft_radix4_q31.c ****                                 ((int32_t) (((q63_t) r2 * si3) >> 32))) >> 1U;
 2611              	 .loc 1 744 0 discriminator 3
 2612 0b4c CEF80030 	 str r3,[lr]
 674:../Dave/Generated/CMSIS_DSP/Source/TransformFunctions/arm_cfft_radix4_q31.c ****       {
 2613              	 .loc 1 674 0 discriminator 3
 2614 0b50 D7F85421 	 ldr r2,[r7,#340]
 2615 0b54 D7F84431 	 ldr r3,[r7,#324]
 2616 0b58 1344     	 add r3,r3,r2
 2617 0b5a C7F85431 	 str r3,[r7,#340]
 2618              	.L18:
 674:../Dave/Generated/CMSIS_DSP/Source/TransformFunctions/arm_cfft_radix4_q31.c ****       {
 2619              	 .loc 1 674 0 is_stmt 0 discriminator 1
 2620 0b5e D7F85421 	 ldr r2,[r7,#340]
 2621 0b62 D7F8B830 	 ldr r3,[r7,#184]
 2622 0b66 9A42     	 cmp r2,r3
 2623 0b68 FFF4A3AD 	 bcc .L19
 660:../Dave/Generated/CMSIS_DSP/Source/TransformFunctions/arm_cfft_radix4_q31.c ****     {
 2624              	 .loc 1 660 0 is_stmt 1 discriminator 2
 2625 0b6c D7F85031 	 ldr r3,[r7,#336]
 2626 0b70 0133     	 adds r3,r3,#1
 2627 0b72 C7F85031 	 str r3,[r7,#336]
 2628              	.L17:
 660:../Dave/Generated/CMSIS_DSP/Source/TransformFunctions/arm_cfft_radix4_q31.c ****     {
 2629              	 .loc 1 660 0 is_stmt 0 discriminator 1
 2630 0b76 D7F85C31 	 ldr r3,[r7,#348]
 2631 0b7a 5A1E     	 subs r2,r3,#1
 2632 0b7c D7F85031 	 ldr r3,[r7,#336]
 2633 0b80 9A42     	 cmp r2,r3
 2634 0b82 BFF443AD 	 bcs .L20
 746:../Dave/Generated/CMSIS_DSP/Source/TransformFunctions/arm_cfft_radix4_q31.c ****       }
 747:../Dave/Generated/CMSIS_DSP/Source/TransformFunctions/arm_cfft_radix4_q31.c ****     }
 748:../Dave/Generated/CMSIS_DSP/Source/TransformFunctions/arm_cfft_radix4_q31.c ****     twidCoefModifier <<= 2U;
 2635              	 .loc 1 748 0 is_stmt 1 discriminator 2
 2636 0b86 D7F8B030 	 ldr r3,[r7,#176]
 2637 0b8a 9B00     	 lsls r3,r3,#2
 2638 0b8c C7F8B030 	 str r3,[r7,#176]
 653:../Dave/Generated/CMSIS_DSP/Source/TransformFunctions/arm_cfft_radix4_q31.c ****   {
 2639              	 .loc 1 653 0 discriminator 2
 2640 0b90 D7F84C31 	 ldr r3,[r7,#332]
 2641 0b94 9B08     	 lsrs r3,r3,#2
 2642 0b96 C7F84C31 	 str r3,[r7,#332]
 2643              	.L16:
 653:../Dave/Generated/CMSIS_DSP/Source/TransformFunctions/arm_cfft_radix4_q31.c ****   {
 2644              	 .loc 1 653 0 is_stmt 0 discriminator 1
 2645 0b9a D7F84C31 	 ldr r3,[r7,#332]
 2646 0b9e 042B     	 cmp r3,#4
 2647 0ba0 3FF624AD 	 bhi .L21
 749:../Dave/Generated/CMSIS_DSP/Source/TransformFunctions/arm_cfft_radix4_q31.c ****   }
 750:../Dave/Generated/CMSIS_DSP/Source/TransformFunctions/arm_cfft_radix4_q31.c **** 
 751:../Dave/Generated/CMSIS_DSP/Source/TransformFunctions/arm_cfft_radix4_q31.c ****   /* End of Middle stages process */
 752:../Dave/Generated/CMSIS_DSP/Source/TransformFunctions/arm_cfft_radix4_q31.c **** 
 753:../Dave/Generated/CMSIS_DSP/Source/TransformFunctions/arm_cfft_radix4_q31.c ****   /* data is in 11.21(q21) format for the 1024 point as there are 3 middle stages */
 754:../Dave/Generated/CMSIS_DSP/Source/TransformFunctions/arm_cfft_radix4_q31.c ****   /* data is in 9.23(q23) format for the 256 point as there are 2 middle stages */
 755:../Dave/Generated/CMSIS_DSP/Source/TransformFunctions/arm_cfft_radix4_q31.c ****   /* data is in 7.25(q25) format for the 64 point as there are 1 middle stage */
 756:../Dave/Generated/CMSIS_DSP/Source/TransformFunctions/arm_cfft_radix4_q31.c ****   /* data is in 5.27(q27) format for the 16 point as there are no middle stages */
 757:../Dave/Generated/CMSIS_DSP/Source/TransformFunctions/arm_cfft_radix4_q31.c **** 
 758:../Dave/Generated/CMSIS_DSP/Source/TransformFunctions/arm_cfft_radix4_q31.c **** 
 759:../Dave/Generated/CMSIS_DSP/Source/TransformFunctions/arm_cfft_radix4_q31.c ****   /* Start of last stage process */
 760:../Dave/Generated/CMSIS_DSP/Source/TransformFunctions/arm_cfft_radix4_q31.c **** 
 761:../Dave/Generated/CMSIS_DSP/Source/TransformFunctions/arm_cfft_radix4_q31.c **** 
 762:../Dave/Generated/CMSIS_DSP/Source/TransformFunctions/arm_cfft_radix4_q31.c ****   /*  Initializations for the last stage */
 763:../Dave/Generated/CMSIS_DSP/Source/TransformFunctions/arm_cfft_radix4_q31.c ****   j = fftLen >> 2;
 2648              	 .loc 1 763 0 is_stmt 1
 2649 0ba4 D7F8B830 	 ldr r3,[r7,#184]
 2650 0ba8 9B08     	 lsrs r3,r3,#2
 2651 0baa C7F85031 	 str r3,[r7,#336]
 764:../Dave/Generated/CMSIS_DSP/Source/TransformFunctions/arm_cfft_radix4_q31.c ****   ptr1 = &pSrc[0];
 2652              	 .loc 1 764 0
 2653 0bae D7F8BC30 	 ldr r3,[r7,#188]
 2654 0bb2 C7F84831 	 str r3,[r7,#328]
 2655              	.L22:
 765:../Dave/Generated/CMSIS_DSP/Source/TransformFunctions/arm_cfft_radix4_q31.c **** 
 766:../Dave/Generated/CMSIS_DSP/Source/TransformFunctions/arm_cfft_radix4_q31.c ****   /*  Calculations of last stage */
 767:../Dave/Generated/CMSIS_DSP/Source/TransformFunctions/arm_cfft_radix4_q31.c ****   do
 768:../Dave/Generated/CMSIS_DSP/Source/TransformFunctions/arm_cfft_radix4_q31.c ****   {
 769:../Dave/Generated/CMSIS_DSP/Source/TransformFunctions/arm_cfft_radix4_q31.c ****     /* Read xa (real), ya(imag) input */
 770:../Dave/Generated/CMSIS_DSP/Source/TransformFunctions/arm_cfft_radix4_q31.c ****     xa = *ptr1++;
 2656              	 .loc 1 770 0 discriminator 1
 2657 0bb6 D7F84831 	 ldr r3,[r7,#328]
 2658 0bba 1A1D     	 adds r2,r3,#4
 2659 0bbc C7F84821 	 str r2,[r7,#328]
 2660 0bc0 1B68     	 ldr r3,[r3]
 2661 0bc2 C7F8FC30 	 str r3,[r7,#252]
 771:../Dave/Generated/CMSIS_DSP/Source/TransformFunctions/arm_cfft_radix4_q31.c ****     ya = *ptr1++;
 2662              	 .loc 1 771 0 discriminator 1
 2663 0bc6 D7F84831 	 ldr r3,[r7,#328]
 2664 0bca 1A1D     	 adds r2,r3,#4
 2665 0bcc C7F84821 	 str r2,[r7,#328]
 2666 0bd0 1B68     	 ldr r3,[r3]
 2667 0bd2 C7F8F830 	 str r3,[r7,#248]
 772:../Dave/Generated/CMSIS_DSP/Source/TransformFunctions/arm_cfft_radix4_q31.c **** 
 773:../Dave/Generated/CMSIS_DSP/Source/TransformFunctions/arm_cfft_radix4_q31.c ****     /* Read xb (real), yb(imag) input */
 774:../Dave/Generated/CMSIS_DSP/Source/TransformFunctions/arm_cfft_radix4_q31.c ****     xb = *ptr1++;
 2668              	 .loc 1 774 0 discriminator 1
 2669 0bd6 D7F84831 	 ldr r3,[r7,#328]
 2670 0bda 1A1D     	 adds r2,r3,#4
 2671 0bdc C7F84821 	 str r2,[r7,#328]
 2672 0be0 1B68     	 ldr r3,[r3]
 2673 0be2 C7F8F430 	 str r3,[r7,#244]
 775:../Dave/Generated/CMSIS_DSP/Source/TransformFunctions/arm_cfft_radix4_q31.c ****     yb = *ptr1++;
 2674              	 .loc 1 775 0 discriminator 1
 2675 0be6 D7F84831 	 ldr r3,[r7,#328]
 2676 0bea 1A1D     	 adds r2,r3,#4
 2677 0bec C7F84821 	 str r2,[r7,#328]
 2678 0bf0 1B68     	 ldr r3,[r3]
 2679 0bf2 C7F8F030 	 str r3,[r7,#240]
 776:../Dave/Generated/CMSIS_DSP/Source/TransformFunctions/arm_cfft_radix4_q31.c **** 
 777:../Dave/Generated/CMSIS_DSP/Source/TransformFunctions/arm_cfft_radix4_q31.c ****     /* Read xc (real), yc(imag) input */
 778:../Dave/Generated/CMSIS_DSP/Source/TransformFunctions/arm_cfft_radix4_q31.c ****     xc = *ptr1++;
 2680              	 .loc 1 778 0 discriminator 1
 2681 0bf6 D7F84831 	 ldr r3,[r7,#328]
 2682 0bfa 1A1D     	 adds r2,r3,#4
 2683 0bfc C7F84821 	 str r2,[r7,#328]
 2684 0c00 1B68     	 ldr r3,[r3]
 2685 0c02 C7F8EC30 	 str r3,[r7,#236]
 779:../Dave/Generated/CMSIS_DSP/Source/TransformFunctions/arm_cfft_radix4_q31.c ****     yc = *ptr1++;
 2686              	 .loc 1 779 0 discriminator 1
 2687 0c06 D7F84831 	 ldr r3,[r7,#328]
 2688 0c0a 1A1D     	 adds r2,r3,#4
 2689 0c0c C7F84821 	 str r2,[r7,#328]
 2690 0c10 1B68     	 ldr r3,[r3]
 2691 0c12 C7F8E830 	 str r3,[r7,#232]
 780:../Dave/Generated/CMSIS_DSP/Source/TransformFunctions/arm_cfft_radix4_q31.c **** 
 781:../Dave/Generated/CMSIS_DSP/Source/TransformFunctions/arm_cfft_radix4_q31.c ****     /* Read xc (real), yc(imag) input */
 782:../Dave/Generated/CMSIS_DSP/Source/TransformFunctions/arm_cfft_radix4_q31.c ****     xd = *ptr1++;
 2692              	 .loc 1 782 0 discriminator 1
 2693 0c16 D7F84831 	 ldr r3,[r7,#328]
 2694 0c1a 1A1D     	 adds r2,r3,#4
 2695 0c1c C7F84821 	 str r2,[r7,#328]
 2696 0c20 1B68     	 ldr r3,[r3]
 2697 0c22 C7F8E430 	 str r3,[r7,#228]
 783:../Dave/Generated/CMSIS_DSP/Source/TransformFunctions/arm_cfft_radix4_q31.c ****     yd = *ptr1++;
 2698              	 .loc 1 783 0 discriminator 1
 2699 0c26 D7F84831 	 ldr r3,[r7,#328]
 2700 0c2a 1A1D     	 adds r2,r3,#4
 2701 0c2c C7F84821 	 str r2,[r7,#328]
 2702 0c30 1B68     	 ldr r3,[r3]
 2703 0c32 C7F8E030 	 str r3,[r7,#224]
 784:../Dave/Generated/CMSIS_DSP/Source/TransformFunctions/arm_cfft_radix4_q31.c **** 
 785:../Dave/Generated/CMSIS_DSP/Source/TransformFunctions/arm_cfft_radix4_q31.c ****     /* xa' = xa + xb + xc + xd */
 786:../Dave/Generated/CMSIS_DSP/Source/TransformFunctions/arm_cfft_radix4_q31.c ****     xa_out = xa + xb + xc + xd;
 2704              	 .loc 1 786 0 discriminator 1
 2705 0c36 D7F8FC20 	 ldr r2,[r7,#252]
 2706 0c3a D7F8F430 	 ldr r3,[r7,#244]
 2707 0c3e 1A44     	 add r2,r2,r3
 2708 0c40 D7F8EC30 	 ldr r3,[r7,#236]
 2709 0c44 1A44     	 add r2,r2,r3
 2710 0c46 D7F8E430 	 ldr r3,[r7,#228]
 2711 0c4a 1344     	 add r3,r3,r2
 2712 0c4c C7F8DC30 	 str r3,[r7,#220]
 787:../Dave/Generated/CMSIS_DSP/Source/TransformFunctions/arm_cfft_radix4_q31.c **** 
 788:../Dave/Generated/CMSIS_DSP/Source/TransformFunctions/arm_cfft_radix4_q31.c ****     /* ya' = ya + yb + yc + yd */
 789:../Dave/Generated/CMSIS_DSP/Source/TransformFunctions/arm_cfft_radix4_q31.c ****     ya_out = ya + yb + yc + yd;
 2713              	 .loc 1 789 0 discriminator 1
 2714 0c50 D7F8F820 	 ldr r2,[r7,#248]
 2715 0c54 D7F8F030 	 ldr r3,[r7,#240]
 2716 0c58 1A44     	 add r2,r2,r3
 2717 0c5a D7F8E830 	 ldr r3,[r7,#232]
 2718 0c5e 1A44     	 add r2,r2,r3
 2719 0c60 D7F8E030 	 ldr r3,[r7,#224]
 2720 0c64 1344     	 add r3,r3,r2
 2721 0c66 C7F8D830 	 str r3,[r7,#216]
 790:../Dave/Generated/CMSIS_DSP/Source/TransformFunctions/arm_cfft_radix4_q31.c **** 
 791:../Dave/Generated/CMSIS_DSP/Source/TransformFunctions/arm_cfft_radix4_q31.c ****     /* pointer updation for writing */
 792:../Dave/Generated/CMSIS_DSP/Source/TransformFunctions/arm_cfft_radix4_q31.c ****     ptr1 = ptr1 - 8U;
 2722              	 .loc 1 792 0 discriminator 1
 2723 0c6a D7F84831 	 ldr r3,[r7,#328]
 2724 0c6e 203B     	 subs r3,r3,#32
 2725 0c70 C7F84831 	 str r3,[r7,#328]
 793:../Dave/Generated/CMSIS_DSP/Source/TransformFunctions/arm_cfft_radix4_q31.c **** 
 794:../Dave/Generated/CMSIS_DSP/Source/TransformFunctions/arm_cfft_radix4_q31.c ****     /* writing xa' and ya' */
 795:../Dave/Generated/CMSIS_DSP/Source/TransformFunctions/arm_cfft_radix4_q31.c ****     *ptr1++ = xa_out;
 2726              	 .loc 1 795 0 discriminator 1
 2727 0c74 D7F84831 	 ldr r3,[r7,#328]
 2728 0c78 1A1D     	 adds r2,r3,#4
 2729 0c7a C7F84821 	 str r2,[r7,#328]
 2730 0c7e D7F8DC20 	 ldr r2,[r7,#220]
 2731 0c82 1A60     	 str r2,[r3]
 796:../Dave/Generated/CMSIS_DSP/Source/TransformFunctions/arm_cfft_radix4_q31.c ****     *ptr1++ = ya_out;
 2732              	 .loc 1 796 0 discriminator 1
 2733 0c84 D7F84831 	 ldr r3,[r7,#328]
 2734 0c88 1A1D     	 adds r2,r3,#4
 2735 0c8a C7F84821 	 str r2,[r7,#328]
 2736 0c8e D7F8D820 	 ldr r2,[r7,#216]
 2737 0c92 1A60     	 str r2,[r3]
 797:../Dave/Generated/CMSIS_DSP/Source/TransformFunctions/arm_cfft_radix4_q31.c **** 
 798:../Dave/Generated/CMSIS_DSP/Source/TransformFunctions/arm_cfft_radix4_q31.c ****     xc_out = (xa - xb + xc - xd);
 2738              	 .loc 1 798 0 discriminator 1
 2739 0c94 D7F8FC20 	 ldr r2,[r7,#252]
 2740 0c98 D7F8F430 	 ldr r3,[r7,#244]
 2741 0c9c D21A     	 subs r2,r2,r3
 2742 0c9e D7F8EC30 	 ldr r3,[r7,#236]
 2743 0ca2 1A44     	 add r2,r2,r3
 2744 0ca4 D7F8E430 	 ldr r3,[r7,#228]
 2745 0ca8 D31A     	 subs r3,r2,r3
 2746 0caa C7F8D430 	 str r3,[r7,#212]
 799:../Dave/Generated/CMSIS_DSP/Source/TransformFunctions/arm_cfft_radix4_q31.c ****     yc_out = (ya - yb + yc - yd);
 2747              	 .loc 1 799 0 discriminator 1
 2748 0cae D7F8F820 	 ldr r2,[r7,#248]
 2749 0cb2 D7F8F030 	 ldr r3,[r7,#240]
 2750 0cb6 D21A     	 subs r2,r2,r3
 2751 0cb8 D7F8E830 	 ldr r3,[r7,#232]
 2752 0cbc 1A44     	 add r2,r2,r3
 2753 0cbe D7F8E030 	 ldr r3,[r7,#224]
 2754 0cc2 D31A     	 subs r3,r2,r3
 2755 0cc4 C7F8D030 	 str r3,[r7,#208]
 800:../Dave/Generated/CMSIS_DSP/Source/TransformFunctions/arm_cfft_radix4_q31.c **** 
 801:../Dave/Generated/CMSIS_DSP/Source/TransformFunctions/arm_cfft_radix4_q31.c ****     /* writing xc' and yc' */
 802:../Dave/Generated/CMSIS_DSP/Source/TransformFunctions/arm_cfft_radix4_q31.c ****     *ptr1++ = xc_out;
 2756              	 .loc 1 802 0 discriminator 1
 2757 0cc8 D7F84831 	 ldr r3,[r7,#328]
 2758 0ccc 1A1D     	 adds r2,r3,#4
 2759 0cce C7F84821 	 str r2,[r7,#328]
 2760 0cd2 D7F8D420 	 ldr r2,[r7,#212]
 2761 0cd6 1A60     	 str r2,[r3]
 803:../Dave/Generated/CMSIS_DSP/Source/TransformFunctions/arm_cfft_radix4_q31.c ****     *ptr1++ = yc_out;
 2762              	 .loc 1 803 0 discriminator 1
 2763 0cd8 D7F84831 	 ldr r3,[r7,#328]
 2764 0cdc 1A1D     	 adds r2,r3,#4
 2765 0cde C7F84821 	 str r2,[r7,#328]
 2766 0ce2 D7F8D020 	 ldr r2,[r7,#208]
 2767 0ce6 1A60     	 str r2,[r3]
 804:../Dave/Generated/CMSIS_DSP/Source/TransformFunctions/arm_cfft_radix4_q31.c **** 
 805:../Dave/Generated/CMSIS_DSP/Source/TransformFunctions/arm_cfft_radix4_q31.c ****     xb_out = (xa - yb - xc + yd);
 2768              	 .loc 1 805 0 discriminator 1
 2769 0ce8 D7F8FC20 	 ldr r2,[r7,#252]
 2770 0cec D7F8F030 	 ldr r3,[r7,#240]
 2771 0cf0 D21A     	 subs r2,r2,r3
 2772 0cf2 D7F8EC30 	 ldr r3,[r7,#236]
 2773 0cf6 D21A     	 subs r2,r2,r3
 2774 0cf8 D7F8E030 	 ldr r3,[r7,#224]
 2775 0cfc 1344     	 add r3,r3,r2
 2776 0cfe C7F8CC30 	 str r3,[r7,#204]
 806:../Dave/Generated/CMSIS_DSP/Source/TransformFunctions/arm_cfft_radix4_q31.c ****     yb_out = (ya + xb - yc - xd);
 2777              	 .loc 1 806 0 discriminator 1
 2778 0d02 D7F8F820 	 ldr r2,[r7,#248]
 2779 0d06 D7F8F430 	 ldr r3,[r7,#244]
 2780 0d0a 1A44     	 add r2,r2,r3
 2781 0d0c D7F8E830 	 ldr r3,[r7,#232]
 2782 0d10 D21A     	 subs r2,r2,r3
 2783 0d12 D7F8E430 	 ldr r3,[r7,#228]
 2784 0d16 D31A     	 subs r3,r2,r3
 2785 0d18 C7F8C830 	 str r3,[r7,#200]
 807:../Dave/Generated/CMSIS_DSP/Source/TransformFunctions/arm_cfft_radix4_q31.c **** 
 808:../Dave/Generated/CMSIS_DSP/Source/TransformFunctions/arm_cfft_radix4_q31.c ****     /* writing xb' and yb' */
 809:../Dave/Generated/CMSIS_DSP/Source/TransformFunctions/arm_cfft_radix4_q31.c ****     *ptr1++ = xb_out;
 2786              	 .loc 1 809 0 discriminator 1
 2787 0d1c D7F84831 	 ldr r3,[r7,#328]
 2788 0d20 1A1D     	 adds r2,r3,#4
 2789 0d22 C7F84821 	 str r2,[r7,#328]
 2790 0d26 D7F8CC20 	 ldr r2,[r7,#204]
 2791 0d2a 1A60     	 str r2,[r3]
 810:../Dave/Generated/CMSIS_DSP/Source/TransformFunctions/arm_cfft_radix4_q31.c ****     *ptr1++ = yb_out;
 2792              	 .loc 1 810 0 discriminator 1
 2793 0d2c D7F84831 	 ldr r3,[r7,#328]
 2794 0d30 1A1D     	 adds r2,r3,#4
 2795 0d32 C7F84821 	 str r2,[r7,#328]
 2796 0d36 D7F8C820 	 ldr r2,[r7,#200]
 2797 0d3a 1A60     	 str r2,[r3]
 811:../Dave/Generated/CMSIS_DSP/Source/TransformFunctions/arm_cfft_radix4_q31.c **** 
 812:../Dave/Generated/CMSIS_DSP/Source/TransformFunctions/arm_cfft_radix4_q31.c ****     xd_out = (xa + yb - xc - yd);
 2798              	 .loc 1 812 0 discriminator 1
 2799 0d3c D7F8FC20 	 ldr r2,[r7,#252]
 2800 0d40 D7F8F030 	 ldr r3,[r7,#240]
 2801 0d44 1A44     	 add r2,r2,r3
 2802 0d46 D7F8EC30 	 ldr r3,[r7,#236]
 2803 0d4a D21A     	 subs r2,r2,r3
 2804 0d4c D7F8E030 	 ldr r3,[r7,#224]
 2805 0d50 D31A     	 subs r3,r2,r3
 2806 0d52 C7F8C430 	 str r3,[r7,#196]
 813:../Dave/Generated/CMSIS_DSP/Source/TransformFunctions/arm_cfft_radix4_q31.c ****     yd_out = (ya - xb - yc + xd);
 2807              	 .loc 1 813 0 discriminator 1
 2808 0d56 D7F8F820 	 ldr r2,[r7,#248]
 2809 0d5a D7F8F430 	 ldr r3,[r7,#244]
 2810 0d5e D21A     	 subs r2,r2,r3
 2811 0d60 D7F8E830 	 ldr r3,[r7,#232]
 2812 0d64 D21A     	 subs r2,r2,r3
 2813 0d66 D7F8E430 	 ldr r3,[r7,#228]
 2814 0d6a 1344     	 add r3,r3,r2
 2815 0d6c C7F8C030 	 str r3,[r7,#192]
 814:../Dave/Generated/CMSIS_DSP/Source/TransformFunctions/arm_cfft_radix4_q31.c **** 
 815:../Dave/Generated/CMSIS_DSP/Source/TransformFunctions/arm_cfft_radix4_q31.c ****     /* writing xd' and yd' */
 816:../Dave/Generated/CMSIS_DSP/Source/TransformFunctions/arm_cfft_radix4_q31.c ****     *ptr1++ = xd_out;
 2816              	 .loc 1 816 0 discriminator 1
 2817 0d70 D7F84831 	 ldr r3,[r7,#328]
 2818 0d74 1A1D     	 adds r2,r3,#4
 2819 0d76 C7F84821 	 str r2,[r7,#328]
 2820 0d7a D7F8C420 	 ldr r2,[r7,#196]
 2821 0d7e 1A60     	 str r2,[r3]
 817:../Dave/Generated/CMSIS_DSP/Source/TransformFunctions/arm_cfft_radix4_q31.c ****     *ptr1++ = yd_out;
 2822              	 .loc 1 817 0 discriminator 1
 2823 0d80 D7F84831 	 ldr r3,[r7,#328]
 2824 0d84 1A1D     	 adds r2,r3,#4
 2825 0d86 C7F84821 	 str r2,[r7,#328]
 2826 0d8a D7F8C020 	 ldr r2,[r7,#192]
 2827 0d8e 1A60     	 str r2,[r3]
 818:../Dave/Generated/CMSIS_DSP/Source/TransformFunctions/arm_cfft_radix4_q31.c **** 
 819:../Dave/Generated/CMSIS_DSP/Source/TransformFunctions/arm_cfft_radix4_q31.c ****   } while (--j);
 2828              	 .loc 1 819 0 discriminator 1
 2829 0d90 D7F85031 	 ldr r3,[r7,#336]
 2830 0d94 013B     	 subs r3,r3,#1
 2831 0d96 C7F85031 	 str r3,[r7,#336]
 2832 0d9a D7F85031 	 ldr r3,[r7,#336]
 2833 0d9e 002B     	 cmp r3,#0
 2834 0da0 7FF409AF 	 bne .L22
 820:../Dave/Generated/CMSIS_DSP/Source/TransformFunctions/arm_cfft_radix4_q31.c **** 
 821:../Dave/Generated/CMSIS_DSP/Source/TransformFunctions/arm_cfft_radix4_q31.c ****   /* output is in 11.21(q21) format for the 1024 point */
 822:../Dave/Generated/CMSIS_DSP/Source/TransformFunctions/arm_cfft_radix4_q31.c ****   /* output is in 9.23(q23) format for the 256 point */
 823:../Dave/Generated/CMSIS_DSP/Source/TransformFunctions/arm_cfft_radix4_q31.c ****   /* output is in 7.25(q25) format for the 64 point */
 824:../Dave/Generated/CMSIS_DSP/Source/TransformFunctions/arm_cfft_radix4_q31.c ****   /* output is in 5.27(q27) format for the 16 point */
 825:../Dave/Generated/CMSIS_DSP/Source/TransformFunctions/arm_cfft_radix4_q31.c **** 
 826:../Dave/Generated/CMSIS_DSP/Source/TransformFunctions/arm_cfft_radix4_q31.c ****   /* End of last stage process */
 827:../Dave/Generated/CMSIS_DSP/Source/TransformFunctions/arm_cfft_radix4_q31.c **** }
 2835              	 .loc 1 827 0
 2836 0da4 07F5B277 	 add r7,r7,#356
 2837              	.LCFI13:
 2838              	 .cfi_def_cfa_offset 36
 2839 0da8 BD46     	 mov sp,r7
 2840              	.LCFI14:
 2841              	 .cfi_def_cfa_register 13
 2842              	 
 2843 0daa BDE8F08F 	 pop {r4,r5,r6,r7,r8,r9,r10,fp,pc}
 2844              	 .cfi_endproc
 2845              	.LFE151:
 2847 0dae 00BF     	 .text
 2848              	.Letext0:
 2849              	 .file 2 "c:\\infineon\\tools\\dave ide\\4.5.0.202105191637\\eclipse\\arm-gcc-49\\arm-none-eabi\\include\\machine\\_default_types.h"
 2850              	 .file 3 "c:\\infineon\\tools\\dave ide\\4.5.0.202105191637\\eclipse\\arm-gcc-49\\arm-none-eabi\\include\\stdint.h"
 2851              	 .file 4 "C:/Users/Rui Mendes/Desktop/DAVE/_Naive/_ForTesting/Dave/Generated/CMSIS_DSP/Include/arm_math.h"
 2852              	 .file 5 "C:/Users/Rui Mendes/Desktop/DAVE/_Naive/_ForTesting/Libraries/CMSIS/Include/cmsis_gcc.h"