   1              	 .syntax unified
   2              	 .cpu cortex-m4
   3              	 .eabi_attribute 27,3
   4              	 .fpu fpv4-sp-d16
   5              	 .eabi_attribute 20,1
   6              	 .eabi_attribute 21,1
   7              	 .eabi_attribute 23,3
   8              	 .eabi_attribute 24,1
   9              	 .eabi_attribute 25,1
  10              	 .eabi_attribute 26,1
  11              	 .eabi_attribute 30,6
  12              	 .eabi_attribute 34,1
  13              	 .eabi_attribute 18,4
  14              	 .thumb
  15              	 .file "arm_rfft_fast_init_f32.c"
  16              	 .text
  17              	.Ltext0:
  18              	 .cfi_sections .debug_frame
  19              	 .section .text.arm_rfft_32_fast_init_f32,"ax",%progbits
  20              	 .align 2
  21              	 .thumb
  22              	 .thumb_func
  24              	arm_rfft_32_fast_init_f32:
  25              	.LFB149:
  26              	 .file 1 "../Dave/Generated/CMSIS_DSP/Source/TransformFunctions/arm_rfft_fast_init_f32.c"
   1:../Dave/Generated/CMSIS_DSP/Source/TransformFunctions/arm_rfft_fast_init_f32.c **** /* ----------------------------------------------------------------------
   2:../Dave/Generated/CMSIS_DSP/Source/TransformFunctions/arm_rfft_fast_init_f32.c ****  * Project:      CMSIS DSP Library
   3:../Dave/Generated/CMSIS_DSP/Source/TransformFunctions/arm_rfft_fast_init_f32.c ****  * Title:        arm_cfft_init_f32.c
   4:../Dave/Generated/CMSIS_DSP/Source/TransformFunctions/arm_rfft_fast_init_f32.c ****  * Description:  Split Radix Decimation in Frequency CFFT Floating point processing function
   5:../Dave/Generated/CMSIS_DSP/Source/TransformFunctions/arm_rfft_fast_init_f32.c ****  *
   6:../Dave/Generated/CMSIS_DSP/Source/TransformFunctions/arm_rfft_fast_init_f32.c ****  * $Date:        18. March 2019
   7:../Dave/Generated/CMSIS_DSP/Source/TransformFunctions/arm_rfft_fast_init_f32.c ****  * $Revision:    V1.6.0
   8:../Dave/Generated/CMSIS_DSP/Source/TransformFunctions/arm_rfft_fast_init_f32.c ****  *
   9:../Dave/Generated/CMSIS_DSP/Source/TransformFunctions/arm_rfft_fast_init_f32.c ****  * Target Processor: Cortex-M cores
  10:../Dave/Generated/CMSIS_DSP/Source/TransformFunctions/arm_rfft_fast_init_f32.c ****  * -------------------------------------------------------------------- */
  11:../Dave/Generated/CMSIS_DSP/Source/TransformFunctions/arm_rfft_fast_init_f32.c **** /*
  12:../Dave/Generated/CMSIS_DSP/Source/TransformFunctions/arm_rfft_fast_init_f32.c ****  * Copyright (C) 2010-2019 ARM Limited or its affiliates. All rights reserved.
  13:../Dave/Generated/CMSIS_DSP/Source/TransformFunctions/arm_rfft_fast_init_f32.c ****  *
  14:../Dave/Generated/CMSIS_DSP/Source/TransformFunctions/arm_rfft_fast_init_f32.c ****  * SPDX-License-Identifier: Apache-2.0
  15:../Dave/Generated/CMSIS_DSP/Source/TransformFunctions/arm_rfft_fast_init_f32.c ****  *
  16:../Dave/Generated/CMSIS_DSP/Source/TransformFunctions/arm_rfft_fast_init_f32.c ****  * Licensed under the Apache License, Version 2.0 (the License); you may
  17:../Dave/Generated/CMSIS_DSP/Source/TransformFunctions/arm_rfft_fast_init_f32.c ****  * not use this file except in compliance with the License.
  18:../Dave/Generated/CMSIS_DSP/Source/TransformFunctions/arm_rfft_fast_init_f32.c ****  * You may obtain a copy of the License at
  19:../Dave/Generated/CMSIS_DSP/Source/TransformFunctions/arm_rfft_fast_init_f32.c ****  *
  20:../Dave/Generated/CMSIS_DSP/Source/TransformFunctions/arm_rfft_fast_init_f32.c ****  * www.apache.org/licenses/LICENSE-2.0
  21:../Dave/Generated/CMSIS_DSP/Source/TransformFunctions/arm_rfft_fast_init_f32.c ****  *
  22:../Dave/Generated/CMSIS_DSP/Source/TransformFunctions/arm_rfft_fast_init_f32.c ****  * Unless required by applicable law or agreed to in writing, software
  23:../Dave/Generated/CMSIS_DSP/Source/TransformFunctions/arm_rfft_fast_init_f32.c ****  * distributed under the License is distributed on an AS IS BASIS, WITHOUT
  24:../Dave/Generated/CMSIS_DSP/Source/TransformFunctions/arm_rfft_fast_init_f32.c ****  * WARRANTIES OR CONDITIONS OF ANY KIND, either express or implied.
  25:../Dave/Generated/CMSIS_DSP/Source/TransformFunctions/arm_rfft_fast_init_f32.c ****  * See the License for the specific language governing permissions and
  26:../Dave/Generated/CMSIS_DSP/Source/TransformFunctions/arm_rfft_fast_init_f32.c ****  * limitations under the License.
  27:../Dave/Generated/CMSIS_DSP/Source/TransformFunctions/arm_rfft_fast_init_f32.c ****  */
  28:../Dave/Generated/CMSIS_DSP/Source/TransformFunctions/arm_rfft_fast_init_f32.c **** 
  29:../Dave/Generated/CMSIS_DSP/Source/TransformFunctions/arm_rfft_fast_init_f32.c **** #include "CMSIS_DSP/cmsis_dsp.h"
  30:../Dave/Generated/CMSIS_DSP/Source/TransformFunctions/arm_rfft_fast_init_f32.c **** #include "CMSIS_DSP/Include/arm_common_tables.h"
  31:../Dave/Generated/CMSIS_DSP/Source/TransformFunctions/arm_rfft_fast_init_f32.c **** 
  32:../Dave/Generated/CMSIS_DSP/Source/TransformFunctions/arm_rfft_fast_init_f32.c **** /**
  33:../Dave/Generated/CMSIS_DSP/Source/TransformFunctions/arm_rfft_fast_init_f32.c ****   @ingroup groupTransforms
  34:../Dave/Generated/CMSIS_DSP/Source/TransformFunctions/arm_rfft_fast_init_f32.c ****  */
  35:../Dave/Generated/CMSIS_DSP/Source/TransformFunctions/arm_rfft_fast_init_f32.c **** 
  36:../Dave/Generated/CMSIS_DSP/Source/TransformFunctions/arm_rfft_fast_init_f32.c **** /**
  37:../Dave/Generated/CMSIS_DSP/Source/TransformFunctions/arm_rfft_fast_init_f32.c ****   @addtogroup RealFFT
  38:../Dave/Generated/CMSIS_DSP/Source/TransformFunctions/arm_rfft_fast_init_f32.c ****   @{
  39:../Dave/Generated/CMSIS_DSP/Source/TransformFunctions/arm_rfft_fast_init_f32.c ****  */
  40:../Dave/Generated/CMSIS_DSP/Source/TransformFunctions/arm_rfft_fast_init_f32.c **** 
  41:../Dave/Generated/CMSIS_DSP/Source/TransformFunctions/arm_rfft_fast_init_f32.c **** #if !defined(ARM_DSP_CONFIG_TABLES) || defined(ARM_ALL_FFT_TABLES) || (defined(ARM_TABLE_TWIDDLECOE
  42:../Dave/Generated/CMSIS_DSP/Source/TransformFunctions/arm_rfft_fast_init_f32.c **** 
  43:../Dave/Generated/CMSIS_DSP/Source/TransformFunctions/arm_rfft_fast_init_f32.c **** /**
  44:../Dave/Generated/CMSIS_DSP/Source/TransformFunctions/arm_rfft_fast_init_f32.c ****   @private
  45:../Dave/Generated/CMSIS_DSP/Source/TransformFunctions/arm_rfft_fast_init_f32.c ****   @brief         Initialization function for the 32pt floating-point real FFT.
  46:../Dave/Generated/CMSIS_DSP/Source/TransformFunctions/arm_rfft_fast_init_f32.c ****   @param[in,out] S  points to an arm_rfft_fast_instance_f32 structure
  47:../Dave/Generated/CMSIS_DSP/Source/TransformFunctions/arm_rfft_fast_init_f32.c ****   @return        execution status
  48:../Dave/Generated/CMSIS_DSP/Source/TransformFunctions/arm_rfft_fast_init_f32.c ****                    - \ref ARM_MATH_SUCCESS        : Operation successful
  49:../Dave/Generated/CMSIS_DSP/Source/TransformFunctions/arm_rfft_fast_init_f32.c ****                    - \ref ARM_MATH_ARGUMENT_ERROR : an error is detected
  50:../Dave/Generated/CMSIS_DSP/Source/TransformFunctions/arm_rfft_fast_init_f32.c ****  */
  51:../Dave/Generated/CMSIS_DSP/Source/TransformFunctions/arm_rfft_fast_init_f32.c **** 
  52:../Dave/Generated/CMSIS_DSP/Source/TransformFunctions/arm_rfft_fast_init_f32.c **** static arm_status arm_rfft_32_fast_init_f32( arm_rfft_fast_instance_f32 * S ) {
  27              	 .loc 1 52 0
  28              	 .cfi_startproc
  29              	 
  30              	 
  31 0000 80B5     	 push {r7,lr}
  32              	.LCFI0:
  33              	 .cfi_def_cfa_offset 8
  34              	 .cfi_offset 7,-8
  35              	 .cfi_offset 14,-4
  36 0002 84B0     	 sub sp,sp,#16
  37              	.LCFI1:
  38              	 .cfi_def_cfa_offset 24
  39 0004 00AF     	 add r7,sp,#0
  40              	.LCFI2:
  41              	 .cfi_def_cfa_register 7
  42 0006 7860     	 str r0,[r7,#4]
  53:../Dave/Generated/CMSIS_DSP/Source/TransformFunctions/arm_rfft_fast_init_f32.c **** 
  54:../Dave/Generated/CMSIS_DSP/Source/TransformFunctions/arm_rfft_fast_init_f32.c ****   arm_status status;
  55:../Dave/Generated/CMSIS_DSP/Source/TransformFunctions/arm_rfft_fast_init_f32.c **** 
  56:../Dave/Generated/CMSIS_DSP/Source/TransformFunctions/arm_rfft_fast_init_f32.c ****   if( !S ) return ARM_MATH_ARGUMENT_ERROR;
  43              	 .loc 1 56 0
  44 0008 7B68     	 ldr r3,[r7,#4]
  45 000a 002B     	 cmp r3,#0
  46 000c 01D1     	 bne .L2
  47              	 .loc 1 56 0 is_stmt 0 discriminator 1
  48 000e FF23     	 movs r3,#255
  49 0010 13E0     	 b .L3
  50              	.L2:
  57:../Dave/Generated/CMSIS_DSP/Source/TransformFunctions/arm_rfft_fast_init_f32.c **** 
  58:../Dave/Generated/CMSIS_DSP/Source/TransformFunctions/arm_rfft_fast_init_f32.c ****   status=arm_cfft_init_f32(&(S->Sint),16);
  51              	 .loc 1 58 0 is_stmt 1
  52 0012 7B68     	 ldr r3,[r7,#4]
  53 0014 1846     	 mov r0,r3
  54 0016 1021     	 movs r1,#16
  55 0018 FFF7FEFF 	 bl arm_cfft_init_f32
  56 001c 0346     	 mov r3,r0
  57 001e FB73     	 strb r3,[r7,#15]
  59:../Dave/Generated/CMSIS_DSP/Source/TransformFunctions/arm_rfft_fast_init_f32.c ****   if (status != ARM_MATH_SUCCESS)
  58              	 .loc 1 59 0
  59 0020 97F90F30 	 ldrsb r3,[r7,#15]
  60 0024 002B     	 cmp r3,#0
  61 0026 01D0     	 beq .L4
  60:../Dave/Generated/CMSIS_DSP/Source/TransformFunctions/arm_rfft_fast_init_f32.c ****   {
  61:../Dave/Generated/CMSIS_DSP/Source/TransformFunctions/arm_rfft_fast_init_f32.c ****     return(status);
  62              	 .loc 1 61 0
  63 0028 FB7B     	 ldrb r3,[r7,#15]
  64 002a 06E0     	 b .L3
  65              	.L4:
  62:../Dave/Generated/CMSIS_DSP/Source/TransformFunctions/arm_rfft_fast_init_f32.c ****   }
  63:../Dave/Generated/CMSIS_DSP/Source/TransformFunctions/arm_rfft_fast_init_f32.c **** 
  64:../Dave/Generated/CMSIS_DSP/Source/TransformFunctions/arm_rfft_fast_init_f32.c ****   S->fftLenRFFT = 32U;
  66              	 .loc 1 64 0
  67 002c 7B68     	 ldr r3,[r7,#4]
  68 002e 2022     	 movs r2,#32
  69 0030 1A82     	 strh r2,[r3,#16]
  65:../Dave/Generated/CMSIS_DSP/Source/TransformFunctions/arm_rfft_fast_init_f32.c ****   S->pTwiddleRFFT    = (float32_t *) twiddleCoef_rfft_32;
  70              	 .loc 1 65 0
  71 0032 7B68     	 ldr r3,[r7,#4]
  72 0034 034A     	 ldr r2,.L5
  73 0036 5A61     	 str r2,[r3,#20]
  66:../Dave/Generated/CMSIS_DSP/Source/TransformFunctions/arm_rfft_fast_init_f32.c **** 
  67:../Dave/Generated/CMSIS_DSP/Source/TransformFunctions/arm_rfft_fast_init_f32.c ****   return ARM_MATH_SUCCESS;
  74              	 .loc 1 67 0
  75 0038 0023     	 movs r3,#0
  76              	.L3:
  77 003a 5BB2     	 sxtb r3,r3
  68:../Dave/Generated/CMSIS_DSP/Source/TransformFunctions/arm_rfft_fast_init_f32.c **** }
  78              	 .loc 1 68 0
  79 003c 1846     	 mov r0,r3
  80 003e 1037     	 adds r7,r7,#16
  81              	.LCFI3:
  82              	 .cfi_def_cfa_offset 8
  83 0040 BD46     	 mov sp,r7
  84              	.LCFI4:
  85              	 .cfi_def_cfa_register 13
  86              	 
  87 0042 80BD     	 pop {r7,pc}
  88              	.L6:
  89              	 .align 2
  90              	.L5:
  91 0044 00000000 	 .word twiddleCoef_rfft_32
  92              	 .cfi_endproc
  93              	.LFE149:
  95              	 .section .text.arm_rfft_64_fast_init_f32,"ax",%progbits
  96              	 .align 2
  97              	 .thumb
  98              	 .thumb_func
 100              	arm_rfft_64_fast_init_f32:
 101              	.LFB150:
  69:../Dave/Generated/CMSIS_DSP/Source/TransformFunctions/arm_rfft_fast_init_f32.c **** #endif 
  70:../Dave/Generated/CMSIS_DSP/Source/TransformFunctions/arm_rfft_fast_init_f32.c **** 
  71:../Dave/Generated/CMSIS_DSP/Source/TransformFunctions/arm_rfft_fast_init_f32.c **** #if !defined(ARM_DSP_CONFIG_TABLES) || defined(ARM_ALL_FFT_TABLES) || (defined(ARM_TABLE_TWIDDLECOE
  72:../Dave/Generated/CMSIS_DSP/Source/TransformFunctions/arm_rfft_fast_init_f32.c **** 
  73:../Dave/Generated/CMSIS_DSP/Source/TransformFunctions/arm_rfft_fast_init_f32.c **** /**
  74:../Dave/Generated/CMSIS_DSP/Source/TransformFunctions/arm_rfft_fast_init_f32.c ****   @private
  75:../Dave/Generated/CMSIS_DSP/Source/TransformFunctions/arm_rfft_fast_init_f32.c ****   @brief         Initialization function for the 64pt floating-point real FFT.
  76:../Dave/Generated/CMSIS_DSP/Source/TransformFunctions/arm_rfft_fast_init_f32.c ****   @param[in,out] S  points to an arm_rfft_fast_instance_f32 structure
  77:../Dave/Generated/CMSIS_DSP/Source/TransformFunctions/arm_rfft_fast_init_f32.c ****   @return        execution status
  78:../Dave/Generated/CMSIS_DSP/Source/TransformFunctions/arm_rfft_fast_init_f32.c ****                    - \ref ARM_MATH_SUCCESS        : Operation successful
  79:../Dave/Generated/CMSIS_DSP/Source/TransformFunctions/arm_rfft_fast_init_f32.c ****                    - \ref ARM_MATH_ARGUMENT_ERROR : an error is detected
  80:../Dave/Generated/CMSIS_DSP/Source/TransformFunctions/arm_rfft_fast_init_f32.c ****  */
  81:../Dave/Generated/CMSIS_DSP/Source/TransformFunctions/arm_rfft_fast_init_f32.c **** 
  82:../Dave/Generated/CMSIS_DSP/Source/TransformFunctions/arm_rfft_fast_init_f32.c **** static arm_status arm_rfft_64_fast_init_f32( arm_rfft_fast_instance_f32 * S ) {
 102              	 .loc 1 82 0
 103              	 .cfi_startproc
 104              	 
 105              	 
 106 0000 80B5     	 push {r7,lr}
 107              	.LCFI5:
 108              	 .cfi_def_cfa_offset 8
 109              	 .cfi_offset 7,-8
 110              	 .cfi_offset 14,-4
 111 0002 84B0     	 sub sp,sp,#16
 112              	.LCFI6:
 113              	 .cfi_def_cfa_offset 24
 114 0004 00AF     	 add r7,sp,#0
 115              	.LCFI7:
 116              	 .cfi_def_cfa_register 7
 117 0006 7860     	 str r0,[r7,#4]
  83:../Dave/Generated/CMSIS_DSP/Source/TransformFunctions/arm_rfft_fast_init_f32.c **** 
  84:../Dave/Generated/CMSIS_DSP/Source/TransformFunctions/arm_rfft_fast_init_f32.c ****   arm_status status;
  85:../Dave/Generated/CMSIS_DSP/Source/TransformFunctions/arm_rfft_fast_init_f32.c **** 
  86:../Dave/Generated/CMSIS_DSP/Source/TransformFunctions/arm_rfft_fast_init_f32.c ****   if( !S ) return ARM_MATH_ARGUMENT_ERROR;
 118              	 .loc 1 86 0
 119 0008 7B68     	 ldr r3,[r7,#4]
 120 000a 002B     	 cmp r3,#0
 121 000c 01D1     	 bne .L8
 122              	 .loc 1 86 0 is_stmt 0 discriminator 1
 123 000e FF23     	 movs r3,#255
 124 0010 13E0     	 b .L9
 125              	.L8:
  87:../Dave/Generated/CMSIS_DSP/Source/TransformFunctions/arm_rfft_fast_init_f32.c **** 
  88:../Dave/Generated/CMSIS_DSP/Source/TransformFunctions/arm_rfft_fast_init_f32.c ****   status=arm_cfft_init_f32(&(S->Sint),32);
 126              	 .loc 1 88 0 is_stmt 1
 127 0012 7B68     	 ldr r3,[r7,#4]
 128 0014 1846     	 mov r0,r3
 129 0016 2021     	 movs r1,#32
 130 0018 FFF7FEFF 	 bl arm_cfft_init_f32
 131 001c 0346     	 mov r3,r0
 132 001e FB73     	 strb r3,[r7,#15]
  89:../Dave/Generated/CMSIS_DSP/Source/TransformFunctions/arm_rfft_fast_init_f32.c ****   if (status != ARM_MATH_SUCCESS)
 133              	 .loc 1 89 0
 134 0020 97F90F30 	 ldrsb r3,[r7,#15]
 135 0024 002B     	 cmp r3,#0
 136 0026 01D0     	 beq .L10
  90:../Dave/Generated/CMSIS_DSP/Source/TransformFunctions/arm_rfft_fast_init_f32.c ****   {
  91:../Dave/Generated/CMSIS_DSP/Source/TransformFunctions/arm_rfft_fast_init_f32.c ****     return(status);
 137              	 .loc 1 91 0
 138 0028 FB7B     	 ldrb r3,[r7,#15]
 139 002a 06E0     	 b .L9
 140              	.L10:
  92:../Dave/Generated/CMSIS_DSP/Source/TransformFunctions/arm_rfft_fast_init_f32.c ****   }
  93:../Dave/Generated/CMSIS_DSP/Source/TransformFunctions/arm_rfft_fast_init_f32.c ****   S->fftLenRFFT = 64U;
 141              	 .loc 1 93 0
 142 002c 7B68     	 ldr r3,[r7,#4]
 143 002e 4022     	 movs r2,#64
 144 0030 1A82     	 strh r2,[r3,#16]
  94:../Dave/Generated/CMSIS_DSP/Source/TransformFunctions/arm_rfft_fast_init_f32.c **** 
  95:../Dave/Generated/CMSIS_DSP/Source/TransformFunctions/arm_rfft_fast_init_f32.c ****   S->pTwiddleRFFT    = (float32_t *) twiddleCoef_rfft_64;
 145              	 .loc 1 95 0
 146 0032 7B68     	 ldr r3,[r7,#4]
 147 0034 034A     	 ldr r2,.L11
 148 0036 5A61     	 str r2,[r3,#20]
  96:../Dave/Generated/CMSIS_DSP/Source/TransformFunctions/arm_rfft_fast_init_f32.c **** 
  97:../Dave/Generated/CMSIS_DSP/Source/TransformFunctions/arm_rfft_fast_init_f32.c ****   return ARM_MATH_SUCCESS;
 149              	 .loc 1 97 0
 150 0038 0023     	 movs r3,#0
 151              	.L9:
 152 003a 5BB2     	 sxtb r3,r3
  98:../Dave/Generated/CMSIS_DSP/Source/TransformFunctions/arm_rfft_fast_init_f32.c **** }
 153              	 .loc 1 98 0
 154 003c 1846     	 mov r0,r3
 155 003e 1037     	 adds r7,r7,#16
 156              	.LCFI8:
 157              	 .cfi_def_cfa_offset 8
 158 0040 BD46     	 mov sp,r7
 159              	.LCFI9:
 160              	 .cfi_def_cfa_register 13
 161              	 
 162 0042 80BD     	 pop {r7,pc}
 163              	.L12:
 164              	 .align 2
 165              	.L11:
 166 0044 00000000 	 .word twiddleCoef_rfft_64
 167              	 .cfi_endproc
 168              	.LFE150:
 170              	 .section .text.arm_rfft_128_fast_init_f32,"ax",%progbits
 171              	 .align 2
 172              	 .thumb
 173              	 .thumb_func
 175              	arm_rfft_128_fast_init_f32:
 176              	.LFB151:
  99:../Dave/Generated/CMSIS_DSP/Source/TransformFunctions/arm_rfft_fast_init_f32.c **** #endif 
 100:../Dave/Generated/CMSIS_DSP/Source/TransformFunctions/arm_rfft_fast_init_f32.c **** 
 101:../Dave/Generated/CMSIS_DSP/Source/TransformFunctions/arm_rfft_fast_init_f32.c **** #if !defined(ARM_DSP_CONFIG_TABLES) || defined(ARM_ALL_FFT_TABLES) || (defined(ARM_TABLE_TWIDDLECOE
 102:../Dave/Generated/CMSIS_DSP/Source/TransformFunctions/arm_rfft_fast_init_f32.c **** 
 103:../Dave/Generated/CMSIS_DSP/Source/TransformFunctions/arm_rfft_fast_init_f32.c **** /**
 104:../Dave/Generated/CMSIS_DSP/Source/TransformFunctions/arm_rfft_fast_init_f32.c ****   @private
 105:../Dave/Generated/CMSIS_DSP/Source/TransformFunctions/arm_rfft_fast_init_f32.c ****   @brief         Initialization function for the 128pt floating-point real FFT.
 106:../Dave/Generated/CMSIS_DSP/Source/TransformFunctions/arm_rfft_fast_init_f32.c ****   @param[in,out] S  points to an arm_rfft_fast_instance_f32 structure
 107:../Dave/Generated/CMSIS_DSP/Source/TransformFunctions/arm_rfft_fast_init_f32.c ****   @return        execution status
 108:../Dave/Generated/CMSIS_DSP/Source/TransformFunctions/arm_rfft_fast_init_f32.c ****                    - \ref ARM_MATH_SUCCESS        : Operation successful
 109:../Dave/Generated/CMSIS_DSP/Source/TransformFunctions/arm_rfft_fast_init_f32.c ****                    - \ref ARM_MATH_ARGUMENT_ERROR : an error is detected
 110:../Dave/Generated/CMSIS_DSP/Source/TransformFunctions/arm_rfft_fast_init_f32.c ****  */
 111:../Dave/Generated/CMSIS_DSP/Source/TransformFunctions/arm_rfft_fast_init_f32.c **** 
 112:../Dave/Generated/CMSIS_DSP/Source/TransformFunctions/arm_rfft_fast_init_f32.c **** static arm_status arm_rfft_128_fast_init_f32( arm_rfft_fast_instance_f32 * S ) {
 177              	 .loc 1 112 0
 178              	 .cfi_startproc
 179              	 
 180              	 
 181 0000 80B5     	 push {r7,lr}
 182              	.LCFI10:
 183              	 .cfi_def_cfa_offset 8
 184              	 .cfi_offset 7,-8
 185              	 .cfi_offset 14,-4
 186 0002 84B0     	 sub sp,sp,#16
 187              	.LCFI11:
 188              	 .cfi_def_cfa_offset 24
 189 0004 00AF     	 add r7,sp,#0
 190              	.LCFI12:
 191              	 .cfi_def_cfa_register 7
 192 0006 7860     	 str r0,[r7,#4]
 113:../Dave/Generated/CMSIS_DSP/Source/TransformFunctions/arm_rfft_fast_init_f32.c **** 
 114:../Dave/Generated/CMSIS_DSP/Source/TransformFunctions/arm_rfft_fast_init_f32.c ****   arm_status status;
 115:../Dave/Generated/CMSIS_DSP/Source/TransformFunctions/arm_rfft_fast_init_f32.c **** 
 116:../Dave/Generated/CMSIS_DSP/Source/TransformFunctions/arm_rfft_fast_init_f32.c ****   if( !S ) return ARM_MATH_ARGUMENT_ERROR;
 193              	 .loc 1 116 0
 194 0008 7B68     	 ldr r3,[r7,#4]
 195 000a 002B     	 cmp r3,#0
 196 000c 01D1     	 bne .L14
 197              	 .loc 1 116 0 is_stmt 0 discriminator 1
 198 000e FF23     	 movs r3,#255
 199 0010 13E0     	 b .L15
 200              	.L14:
 117:../Dave/Generated/CMSIS_DSP/Source/TransformFunctions/arm_rfft_fast_init_f32.c **** 
 118:../Dave/Generated/CMSIS_DSP/Source/TransformFunctions/arm_rfft_fast_init_f32.c ****   status=arm_cfft_init_f32(&(S->Sint),64);
 201              	 .loc 1 118 0 is_stmt 1
 202 0012 7B68     	 ldr r3,[r7,#4]
 203 0014 1846     	 mov r0,r3
 204 0016 4021     	 movs r1,#64
 205 0018 FFF7FEFF 	 bl arm_cfft_init_f32
 206 001c 0346     	 mov r3,r0
 207 001e FB73     	 strb r3,[r7,#15]
 119:../Dave/Generated/CMSIS_DSP/Source/TransformFunctions/arm_rfft_fast_init_f32.c ****   if (status != ARM_MATH_SUCCESS)
 208              	 .loc 1 119 0
 209 0020 97F90F30 	 ldrsb r3,[r7,#15]
 210 0024 002B     	 cmp r3,#0
 211 0026 01D0     	 beq .L16
 120:../Dave/Generated/CMSIS_DSP/Source/TransformFunctions/arm_rfft_fast_init_f32.c ****   {
 121:../Dave/Generated/CMSIS_DSP/Source/TransformFunctions/arm_rfft_fast_init_f32.c ****     return(status);
 212              	 .loc 1 121 0
 213 0028 FB7B     	 ldrb r3,[r7,#15]
 214 002a 06E0     	 b .L15
 215              	.L16:
 122:../Dave/Generated/CMSIS_DSP/Source/TransformFunctions/arm_rfft_fast_init_f32.c ****   }
 123:../Dave/Generated/CMSIS_DSP/Source/TransformFunctions/arm_rfft_fast_init_f32.c ****   S->fftLenRFFT = 128;
 216              	 .loc 1 123 0
 217 002c 7B68     	 ldr r3,[r7,#4]
 218 002e 8022     	 movs r2,#128
 219 0030 1A82     	 strh r2,[r3,#16]
 124:../Dave/Generated/CMSIS_DSP/Source/TransformFunctions/arm_rfft_fast_init_f32.c **** 
 125:../Dave/Generated/CMSIS_DSP/Source/TransformFunctions/arm_rfft_fast_init_f32.c ****   S->pTwiddleRFFT    = (float32_t *) twiddleCoef_rfft_128;
 220              	 .loc 1 125 0
 221 0032 7B68     	 ldr r3,[r7,#4]
 222 0034 034A     	 ldr r2,.L17
 223 0036 5A61     	 str r2,[r3,#20]
 126:../Dave/Generated/CMSIS_DSP/Source/TransformFunctions/arm_rfft_fast_init_f32.c **** 
 127:../Dave/Generated/CMSIS_DSP/Source/TransformFunctions/arm_rfft_fast_init_f32.c ****   return ARM_MATH_SUCCESS;
 224              	 .loc 1 127 0
 225 0038 0023     	 movs r3,#0
 226              	.L15:
 227 003a 5BB2     	 sxtb r3,r3
 128:../Dave/Generated/CMSIS_DSP/Source/TransformFunctions/arm_rfft_fast_init_f32.c **** }
 228              	 .loc 1 128 0
 229 003c 1846     	 mov r0,r3
 230 003e 1037     	 adds r7,r7,#16
 231              	.LCFI13:
 232              	 .cfi_def_cfa_offset 8
 233 0040 BD46     	 mov sp,r7
 234              	.LCFI14:
 235              	 .cfi_def_cfa_register 13
 236              	 
 237 0042 80BD     	 pop {r7,pc}
 238              	.L18:
 239              	 .align 2
 240              	.L17:
 241 0044 00000000 	 .word twiddleCoef_rfft_128
 242              	 .cfi_endproc
 243              	.LFE151:
 245              	 .section .text.arm_rfft_256_fast_init_f32,"ax",%progbits
 246              	 .align 2
 247              	 .thumb
 248              	 .thumb_func
 250              	arm_rfft_256_fast_init_f32:
 251              	.LFB152:
 129:../Dave/Generated/CMSIS_DSP/Source/TransformFunctions/arm_rfft_fast_init_f32.c **** #endif 
 130:../Dave/Generated/CMSIS_DSP/Source/TransformFunctions/arm_rfft_fast_init_f32.c **** 
 131:../Dave/Generated/CMSIS_DSP/Source/TransformFunctions/arm_rfft_fast_init_f32.c **** #if !defined(ARM_DSP_CONFIG_TABLES) || defined(ARM_ALL_FFT_TABLES) || (defined(ARM_TABLE_TWIDDLECOE
 132:../Dave/Generated/CMSIS_DSP/Source/TransformFunctions/arm_rfft_fast_init_f32.c **** 
 133:../Dave/Generated/CMSIS_DSP/Source/TransformFunctions/arm_rfft_fast_init_f32.c **** /**
 134:../Dave/Generated/CMSIS_DSP/Source/TransformFunctions/arm_rfft_fast_init_f32.c ****   @private
 135:../Dave/Generated/CMSIS_DSP/Source/TransformFunctions/arm_rfft_fast_init_f32.c ****   @brief         Initialization function for the 256pt floating-point real FFT.
 136:../Dave/Generated/CMSIS_DSP/Source/TransformFunctions/arm_rfft_fast_init_f32.c ****   @param[in,out] S  points to an arm_rfft_fast_instance_f32 structure
 137:../Dave/Generated/CMSIS_DSP/Source/TransformFunctions/arm_rfft_fast_init_f32.c ****   @return        execution status
 138:../Dave/Generated/CMSIS_DSP/Source/TransformFunctions/arm_rfft_fast_init_f32.c ****                    - \ref ARM_MATH_SUCCESS        : Operation successful
 139:../Dave/Generated/CMSIS_DSP/Source/TransformFunctions/arm_rfft_fast_init_f32.c ****                    - \ref ARM_MATH_ARGUMENT_ERROR : an error is detected
 140:../Dave/Generated/CMSIS_DSP/Source/TransformFunctions/arm_rfft_fast_init_f32.c **** */
 141:../Dave/Generated/CMSIS_DSP/Source/TransformFunctions/arm_rfft_fast_init_f32.c **** 
 142:../Dave/Generated/CMSIS_DSP/Source/TransformFunctions/arm_rfft_fast_init_f32.c **** static arm_status arm_rfft_256_fast_init_f32( arm_rfft_fast_instance_f32 * S ) {
 252              	 .loc 1 142 0
 253              	 .cfi_startproc
 254              	 
 255              	 
 256 0000 80B5     	 push {r7,lr}
 257              	.LCFI15:
 258              	 .cfi_def_cfa_offset 8
 259              	 .cfi_offset 7,-8
 260              	 .cfi_offset 14,-4
 261 0002 84B0     	 sub sp,sp,#16
 262              	.LCFI16:
 263              	 .cfi_def_cfa_offset 24
 264 0004 00AF     	 add r7,sp,#0
 265              	.LCFI17:
 266              	 .cfi_def_cfa_register 7
 267 0006 7860     	 str r0,[r7,#4]
 143:../Dave/Generated/CMSIS_DSP/Source/TransformFunctions/arm_rfft_fast_init_f32.c **** 
 144:../Dave/Generated/CMSIS_DSP/Source/TransformFunctions/arm_rfft_fast_init_f32.c ****   arm_status status;
 145:../Dave/Generated/CMSIS_DSP/Source/TransformFunctions/arm_rfft_fast_init_f32.c **** 
 146:../Dave/Generated/CMSIS_DSP/Source/TransformFunctions/arm_rfft_fast_init_f32.c ****   if( !S ) return ARM_MATH_ARGUMENT_ERROR;
 268              	 .loc 1 146 0
 269 0008 7B68     	 ldr r3,[r7,#4]
 270 000a 002B     	 cmp r3,#0
 271 000c 01D1     	 bne .L20
 272              	 .loc 1 146 0 is_stmt 0 discriminator 1
 273 000e FF23     	 movs r3,#255
 274 0010 14E0     	 b .L21
 275              	.L20:
 147:../Dave/Generated/CMSIS_DSP/Source/TransformFunctions/arm_rfft_fast_init_f32.c **** 
 148:../Dave/Generated/CMSIS_DSP/Source/TransformFunctions/arm_rfft_fast_init_f32.c ****   status=arm_cfft_init_f32(&(S->Sint),128);
 276              	 .loc 1 148 0 is_stmt 1
 277 0012 7B68     	 ldr r3,[r7,#4]
 278 0014 1846     	 mov r0,r3
 279 0016 8021     	 movs r1,#128
 280 0018 FFF7FEFF 	 bl arm_cfft_init_f32
 281 001c 0346     	 mov r3,r0
 282 001e FB73     	 strb r3,[r7,#15]
 149:../Dave/Generated/CMSIS_DSP/Source/TransformFunctions/arm_rfft_fast_init_f32.c ****   if (status != ARM_MATH_SUCCESS)
 283              	 .loc 1 149 0
 284 0020 97F90F30 	 ldrsb r3,[r7,#15]
 285 0024 002B     	 cmp r3,#0
 286 0026 01D0     	 beq .L22
 150:../Dave/Generated/CMSIS_DSP/Source/TransformFunctions/arm_rfft_fast_init_f32.c ****   {
 151:../Dave/Generated/CMSIS_DSP/Source/TransformFunctions/arm_rfft_fast_init_f32.c ****     return(status);
 287              	 .loc 1 151 0
 288 0028 FB7B     	 ldrb r3,[r7,#15]
 289 002a 07E0     	 b .L21
 290              	.L22:
 152:../Dave/Generated/CMSIS_DSP/Source/TransformFunctions/arm_rfft_fast_init_f32.c ****   }
 153:../Dave/Generated/CMSIS_DSP/Source/TransformFunctions/arm_rfft_fast_init_f32.c ****   S->fftLenRFFT = 256U;
 291              	 .loc 1 153 0
 292 002c 7B68     	 ldr r3,[r7,#4]
 293 002e 4FF48072 	 mov r2,#256
 294 0032 1A82     	 strh r2,[r3,#16]
 154:../Dave/Generated/CMSIS_DSP/Source/TransformFunctions/arm_rfft_fast_init_f32.c **** 
 155:../Dave/Generated/CMSIS_DSP/Source/TransformFunctions/arm_rfft_fast_init_f32.c ****   S->pTwiddleRFFT    = (float32_t *) twiddleCoef_rfft_256;
 295              	 .loc 1 155 0
 296 0034 7B68     	 ldr r3,[r7,#4]
 297 0036 044A     	 ldr r2,.L23
 298 0038 5A61     	 str r2,[r3,#20]
 156:../Dave/Generated/CMSIS_DSP/Source/TransformFunctions/arm_rfft_fast_init_f32.c **** 
 157:../Dave/Generated/CMSIS_DSP/Source/TransformFunctions/arm_rfft_fast_init_f32.c ****   return ARM_MATH_SUCCESS;
 299              	 .loc 1 157 0
 300 003a 0023     	 movs r3,#0
 301              	.L21:
 302 003c 5BB2     	 sxtb r3,r3
 158:../Dave/Generated/CMSIS_DSP/Source/TransformFunctions/arm_rfft_fast_init_f32.c **** }
 303              	 .loc 1 158 0
 304 003e 1846     	 mov r0,r3
 305 0040 1037     	 adds r7,r7,#16
 306              	.LCFI18:
 307              	 .cfi_def_cfa_offset 8
 308 0042 BD46     	 mov sp,r7
 309              	.LCFI19:
 310              	 .cfi_def_cfa_register 13
 311              	 
 312 0044 80BD     	 pop {r7,pc}
 313              	.L24:
 314 0046 00BF     	 .align 2
 315              	.L23:
 316 0048 00000000 	 .word twiddleCoef_rfft_256
 317              	 .cfi_endproc
 318              	.LFE152:
 320              	 .section .text.arm_rfft_512_fast_init_f32,"ax",%progbits
 321              	 .align 2
 322              	 .thumb
 323              	 .thumb_func
 325              	arm_rfft_512_fast_init_f32:
 326              	.LFB153:
 159:../Dave/Generated/CMSIS_DSP/Source/TransformFunctions/arm_rfft_fast_init_f32.c **** #endif 
 160:../Dave/Generated/CMSIS_DSP/Source/TransformFunctions/arm_rfft_fast_init_f32.c **** 
 161:../Dave/Generated/CMSIS_DSP/Source/TransformFunctions/arm_rfft_fast_init_f32.c **** #if !defined(ARM_DSP_CONFIG_TABLES) || defined(ARM_ALL_FFT_TABLES) || (defined(ARM_TABLE_TWIDDLECOE
 162:../Dave/Generated/CMSIS_DSP/Source/TransformFunctions/arm_rfft_fast_init_f32.c **** 
 163:../Dave/Generated/CMSIS_DSP/Source/TransformFunctions/arm_rfft_fast_init_f32.c **** /**
 164:../Dave/Generated/CMSIS_DSP/Source/TransformFunctions/arm_rfft_fast_init_f32.c ****   @private
 165:../Dave/Generated/CMSIS_DSP/Source/TransformFunctions/arm_rfft_fast_init_f32.c ****   @brief         Initialization function for the 512pt floating-point real FFT.
 166:../Dave/Generated/CMSIS_DSP/Source/TransformFunctions/arm_rfft_fast_init_f32.c ****   @param[in,out] S  points to an arm_rfft_fast_instance_f32 structure
 167:../Dave/Generated/CMSIS_DSP/Source/TransformFunctions/arm_rfft_fast_init_f32.c ****   @return        execution status
 168:../Dave/Generated/CMSIS_DSP/Source/TransformFunctions/arm_rfft_fast_init_f32.c ****                    - \ref ARM_MATH_SUCCESS        : Operation successful
 169:../Dave/Generated/CMSIS_DSP/Source/TransformFunctions/arm_rfft_fast_init_f32.c ****                    - \ref ARM_MATH_ARGUMENT_ERROR : an error is detected
 170:../Dave/Generated/CMSIS_DSP/Source/TransformFunctions/arm_rfft_fast_init_f32.c ****  */
 171:../Dave/Generated/CMSIS_DSP/Source/TransformFunctions/arm_rfft_fast_init_f32.c **** 
 172:../Dave/Generated/CMSIS_DSP/Source/TransformFunctions/arm_rfft_fast_init_f32.c **** static arm_status arm_rfft_512_fast_init_f32( arm_rfft_fast_instance_f32 * S ) {
 327              	 .loc 1 172 0
 328              	 .cfi_startproc
 329              	 
 330              	 
 331 0000 80B5     	 push {r7,lr}
 332              	.LCFI20:
 333              	 .cfi_def_cfa_offset 8
 334              	 .cfi_offset 7,-8
 335              	 .cfi_offset 14,-4
 336 0002 84B0     	 sub sp,sp,#16
 337              	.LCFI21:
 338              	 .cfi_def_cfa_offset 24
 339 0004 00AF     	 add r7,sp,#0
 340              	.LCFI22:
 341              	 .cfi_def_cfa_register 7
 342 0006 7860     	 str r0,[r7,#4]
 173:../Dave/Generated/CMSIS_DSP/Source/TransformFunctions/arm_rfft_fast_init_f32.c **** 
 174:../Dave/Generated/CMSIS_DSP/Source/TransformFunctions/arm_rfft_fast_init_f32.c ****   arm_status status;
 175:../Dave/Generated/CMSIS_DSP/Source/TransformFunctions/arm_rfft_fast_init_f32.c **** 
 176:../Dave/Generated/CMSIS_DSP/Source/TransformFunctions/arm_rfft_fast_init_f32.c ****   if( !S ) return ARM_MATH_ARGUMENT_ERROR;
 343              	 .loc 1 176 0
 344 0008 7B68     	 ldr r3,[r7,#4]
 345 000a 002B     	 cmp r3,#0
 346 000c 01D1     	 bne .L26
 347              	 .loc 1 176 0 is_stmt 0 discriminator 1
 348 000e FF23     	 movs r3,#255
 349 0010 15E0     	 b .L27
 350              	.L26:
 177:../Dave/Generated/CMSIS_DSP/Source/TransformFunctions/arm_rfft_fast_init_f32.c **** 
 178:../Dave/Generated/CMSIS_DSP/Source/TransformFunctions/arm_rfft_fast_init_f32.c ****   status=arm_cfft_init_f32(&(S->Sint),256);
 351              	 .loc 1 178 0 is_stmt 1
 352 0012 7B68     	 ldr r3,[r7,#4]
 353 0014 1846     	 mov r0,r3
 354 0016 4FF48071 	 mov r1,#256
 355 001a FFF7FEFF 	 bl arm_cfft_init_f32
 356 001e 0346     	 mov r3,r0
 357 0020 FB73     	 strb r3,[r7,#15]
 179:../Dave/Generated/CMSIS_DSP/Source/TransformFunctions/arm_rfft_fast_init_f32.c ****   if (status != ARM_MATH_SUCCESS)
 358              	 .loc 1 179 0
 359 0022 97F90F30 	 ldrsb r3,[r7,#15]
 360 0026 002B     	 cmp r3,#0
 361 0028 01D0     	 beq .L28
 180:../Dave/Generated/CMSIS_DSP/Source/TransformFunctions/arm_rfft_fast_init_f32.c ****   {
 181:../Dave/Generated/CMSIS_DSP/Source/TransformFunctions/arm_rfft_fast_init_f32.c ****     return(status);
 362              	 .loc 1 181 0
 363 002a FB7B     	 ldrb r3,[r7,#15]
 364 002c 07E0     	 b .L27
 365              	.L28:
 182:../Dave/Generated/CMSIS_DSP/Source/TransformFunctions/arm_rfft_fast_init_f32.c ****   }
 183:../Dave/Generated/CMSIS_DSP/Source/TransformFunctions/arm_rfft_fast_init_f32.c ****   S->fftLenRFFT = 512U;
 366              	 .loc 1 183 0
 367 002e 7B68     	 ldr r3,[r7,#4]
 368 0030 4FF40072 	 mov r2,#512
 369 0034 1A82     	 strh r2,[r3,#16]
 184:../Dave/Generated/CMSIS_DSP/Source/TransformFunctions/arm_rfft_fast_init_f32.c **** 
 185:../Dave/Generated/CMSIS_DSP/Source/TransformFunctions/arm_rfft_fast_init_f32.c ****   S->pTwiddleRFFT    = (float32_t *) twiddleCoef_rfft_512;
 370              	 .loc 1 185 0
 371 0036 7B68     	 ldr r3,[r7,#4]
 372 0038 034A     	 ldr r2,.L29
 373 003a 5A61     	 str r2,[r3,#20]
 186:../Dave/Generated/CMSIS_DSP/Source/TransformFunctions/arm_rfft_fast_init_f32.c **** 
 187:../Dave/Generated/CMSIS_DSP/Source/TransformFunctions/arm_rfft_fast_init_f32.c ****   return ARM_MATH_SUCCESS;
 374              	 .loc 1 187 0
 375 003c 0023     	 movs r3,#0
 376              	.L27:
 377 003e 5BB2     	 sxtb r3,r3
 188:../Dave/Generated/CMSIS_DSP/Source/TransformFunctions/arm_rfft_fast_init_f32.c **** }
 378              	 .loc 1 188 0
 379 0040 1846     	 mov r0,r3
 380 0042 1037     	 adds r7,r7,#16
 381              	.LCFI23:
 382              	 .cfi_def_cfa_offset 8
 383 0044 BD46     	 mov sp,r7
 384              	.LCFI24:
 385              	 .cfi_def_cfa_register 13
 386              	 
 387 0046 80BD     	 pop {r7,pc}
 388              	.L30:
 389              	 .align 2
 390              	.L29:
 391 0048 00000000 	 .word twiddleCoef_rfft_512
 392              	 .cfi_endproc
 393              	.LFE153:
 395              	 .section .text.arm_rfft_1024_fast_init_f32,"ax",%progbits
 396              	 .align 2
 397              	 .thumb
 398              	 .thumb_func
 400              	arm_rfft_1024_fast_init_f32:
 401              	.LFB154:
 189:../Dave/Generated/CMSIS_DSP/Source/TransformFunctions/arm_rfft_fast_init_f32.c **** #endif 
 190:../Dave/Generated/CMSIS_DSP/Source/TransformFunctions/arm_rfft_fast_init_f32.c **** 
 191:../Dave/Generated/CMSIS_DSP/Source/TransformFunctions/arm_rfft_fast_init_f32.c **** #if !defined(ARM_DSP_CONFIG_TABLES) || defined(ARM_ALL_FFT_TABLES) || (defined(ARM_TABLE_TWIDDLECOE
 192:../Dave/Generated/CMSIS_DSP/Source/TransformFunctions/arm_rfft_fast_init_f32.c **** /**
 193:../Dave/Generated/CMSIS_DSP/Source/TransformFunctions/arm_rfft_fast_init_f32.c ****   @private
 194:../Dave/Generated/CMSIS_DSP/Source/TransformFunctions/arm_rfft_fast_init_f32.c ****   @brief         Initialization function for the 1024pt floating-point real FFT.
 195:../Dave/Generated/CMSIS_DSP/Source/TransformFunctions/arm_rfft_fast_init_f32.c ****   @param[in,out] S  points to an arm_rfft_fast_instance_f32 structure
 196:../Dave/Generated/CMSIS_DSP/Source/TransformFunctions/arm_rfft_fast_init_f32.c ****   @return        execution status
 197:../Dave/Generated/CMSIS_DSP/Source/TransformFunctions/arm_rfft_fast_init_f32.c ****                    - \ref ARM_MATH_SUCCESS        : Operation successful
 198:../Dave/Generated/CMSIS_DSP/Source/TransformFunctions/arm_rfft_fast_init_f32.c ****                    - \ref ARM_MATH_ARGUMENT_ERROR : an error is detected
 199:../Dave/Generated/CMSIS_DSP/Source/TransformFunctions/arm_rfft_fast_init_f32.c ****  */
 200:../Dave/Generated/CMSIS_DSP/Source/TransformFunctions/arm_rfft_fast_init_f32.c **** 
 201:../Dave/Generated/CMSIS_DSP/Source/TransformFunctions/arm_rfft_fast_init_f32.c **** static arm_status arm_rfft_1024_fast_init_f32( arm_rfft_fast_instance_f32 * S ) {
 402              	 .loc 1 201 0
 403              	 .cfi_startproc
 404              	 
 405              	 
 406 0000 80B5     	 push {r7,lr}
 407              	.LCFI25:
 408              	 .cfi_def_cfa_offset 8
 409              	 .cfi_offset 7,-8
 410              	 .cfi_offset 14,-4
 411 0002 84B0     	 sub sp,sp,#16
 412              	.LCFI26:
 413              	 .cfi_def_cfa_offset 24
 414 0004 00AF     	 add r7,sp,#0
 415              	.LCFI27:
 416              	 .cfi_def_cfa_register 7
 417 0006 7860     	 str r0,[r7,#4]
 202:../Dave/Generated/CMSIS_DSP/Source/TransformFunctions/arm_rfft_fast_init_f32.c **** 
 203:../Dave/Generated/CMSIS_DSP/Source/TransformFunctions/arm_rfft_fast_init_f32.c ****   arm_status status;
 204:../Dave/Generated/CMSIS_DSP/Source/TransformFunctions/arm_rfft_fast_init_f32.c **** 
 205:../Dave/Generated/CMSIS_DSP/Source/TransformFunctions/arm_rfft_fast_init_f32.c ****   if( !S ) return ARM_MATH_ARGUMENT_ERROR;
 418              	 .loc 1 205 0
 419 0008 7B68     	 ldr r3,[r7,#4]
 420 000a 002B     	 cmp r3,#0
 421 000c 01D1     	 bne .L32
 422              	 .loc 1 205 0 is_stmt 0 discriminator 1
 423 000e FF23     	 movs r3,#255
 424 0010 15E0     	 b .L33
 425              	.L32:
 206:../Dave/Generated/CMSIS_DSP/Source/TransformFunctions/arm_rfft_fast_init_f32.c **** 
 207:../Dave/Generated/CMSIS_DSP/Source/TransformFunctions/arm_rfft_fast_init_f32.c ****   status=arm_cfft_init_f32(&(S->Sint),512);
 426              	 .loc 1 207 0 is_stmt 1
 427 0012 7B68     	 ldr r3,[r7,#4]
 428 0014 1846     	 mov r0,r3
 429 0016 4FF40071 	 mov r1,#512
 430 001a FFF7FEFF 	 bl arm_cfft_init_f32
 431 001e 0346     	 mov r3,r0
 432 0020 FB73     	 strb r3,[r7,#15]
 208:../Dave/Generated/CMSIS_DSP/Source/TransformFunctions/arm_rfft_fast_init_f32.c ****   if (status != ARM_MATH_SUCCESS)
 433              	 .loc 1 208 0
 434 0022 97F90F30 	 ldrsb r3,[r7,#15]
 435 0026 002B     	 cmp r3,#0
 436 0028 01D0     	 beq .L34
 209:../Dave/Generated/CMSIS_DSP/Source/TransformFunctions/arm_rfft_fast_init_f32.c ****   {
 210:../Dave/Generated/CMSIS_DSP/Source/TransformFunctions/arm_rfft_fast_init_f32.c ****     return(status);
 437              	 .loc 1 210 0
 438 002a FB7B     	 ldrb r3,[r7,#15]
 439 002c 07E0     	 b .L33
 440              	.L34:
 211:../Dave/Generated/CMSIS_DSP/Source/TransformFunctions/arm_rfft_fast_init_f32.c ****   }
 212:../Dave/Generated/CMSIS_DSP/Source/TransformFunctions/arm_rfft_fast_init_f32.c ****   S->fftLenRFFT = 1024U;
 441              	 .loc 1 212 0
 442 002e 7B68     	 ldr r3,[r7,#4]
 443 0030 4FF48062 	 mov r2,#1024
 444 0034 1A82     	 strh r2,[r3,#16]
 213:../Dave/Generated/CMSIS_DSP/Source/TransformFunctions/arm_rfft_fast_init_f32.c **** 
 214:../Dave/Generated/CMSIS_DSP/Source/TransformFunctions/arm_rfft_fast_init_f32.c ****   S->pTwiddleRFFT    = (float32_t *) twiddleCoef_rfft_1024;
 445              	 .loc 1 214 0
 446 0036 7B68     	 ldr r3,[r7,#4]
 447 0038 034A     	 ldr r2,.L35
 448 003a 5A61     	 str r2,[r3,#20]
 215:../Dave/Generated/CMSIS_DSP/Source/TransformFunctions/arm_rfft_fast_init_f32.c **** 
 216:../Dave/Generated/CMSIS_DSP/Source/TransformFunctions/arm_rfft_fast_init_f32.c ****   return ARM_MATH_SUCCESS;
 449              	 .loc 1 216 0
 450 003c 0023     	 movs r3,#0
 451              	.L33:
 452 003e 5BB2     	 sxtb r3,r3
 217:../Dave/Generated/CMSIS_DSP/Source/TransformFunctions/arm_rfft_fast_init_f32.c **** }
 453              	 .loc 1 217 0
 454 0040 1846     	 mov r0,r3
 455 0042 1037     	 adds r7,r7,#16
 456              	.LCFI28:
 457              	 .cfi_def_cfa_offset 8
 458 0044 BD46     	 mov sp,r7
 459              	.LCFI29:
 460              	 .cfi_def_cfa_register 13
 461              	 
 462 0046 80BD     	 pop {r7,pc}
 463              	.L36:
 464              	 .align 2
 465              	.L35:
 466 0048 00000000 	 .word twiddleCoef_rfft_1024
 467              	 .cfi_endproc
 468              	.LFE154:
 470              	 .section .text.arm_rfft_2048_fast_init_f32,"ax",%progbits
 471              	 .align 2
 472              	 .thumb
 473              	 .thumb_func
 475              	arm_rfft_2048_fast_init_f32:
 476              	.LFB155:
 218:../Dave/Generated/CMSIS_DSP/Source/TransformFunctions/arm_rfft_fast_init_f32.c **** #endif
 219:../Dave/Generated/CMSIS_DSP/Source/TransformFunctions/arm_rfft_fast_init_f32.c **** 
 220:../Dave/Generated/CMSIS_DSP/Source/TransformFunctions/arm_rfft_fast_init_f32.c **** #if !defined(ARM_DSP_CONFIG_TABLES) || defined(ARM_ALL_FFT_TABLES) || (defined(ARM_TABLE_TWIDDLECOE
 221:../Dave/Generated/CMSIS_DSP/Source/TransformFunctions/arm_rfft_fast_init_f32.c **** /**
 222:../Dave/Generated/CMSIS_DSP/Source/TransformFunctions/arm_rfft_fast_init_f32.c ****   @private
 223:../Dave/Generated/CMSIS_DSP/Source/TransformFunctions/arm_rfft_fast_init_f32.c ****   @brief         Initialization function for the 2048pt floating-point real FFT.
 224:../Dave/Generated/CMSIS_DSP/Source/TransformFunctions/arm_rfft_fast_init_f32.c ****   @param[in,out] S  points to an arm_rfft_fast_instance_f32 structure
 225:../Dave/Generated/CMSIS_DSP/Source/TransformFunctions/arm_rfft_fast_init_f32.c ****   @return        execution status
 226:../Dave/Generated/CMSIS_DSP/Source/TransformFunctions/arm_rfft_fast_init_f32.c ****                    - \ref ARM_MATH_SUCCESS        : Operation successful
 227:../Dave/Generated/CMSIS_DSP/Source/TransformFunctions/arm_rfft_fast_init_f32.c ****                    - \ref ARM_MATH_ARGUMENT_ERROR : an error is detected
 228:../Dave/Generated/CMSIS_DSP/Source/TransformFunctions/arm_rfft_fast_init_f32.c ****  */
 229:../Dave/Generated/CMSIS_DSP/Source/TransformFunctions/arm_rfft_fast_init_f32.c **** static arm_status arm_rfft_2048_fast_init_f32( arm_rfft_fast_instance_f32 * S ) {
 477              	 .loc 1 229 0
 478              	 .cfi_startproc
 479              	 
 480              	 
 481 0000 80B5     	 push {r7,lr}
 482              	.LCFI30:
 483              	 .cfi_def_cfa_offset 8
 484              	 .cfi_offset 7,-8
 485              	 .cfi_offset 14,-4
 486 0002 84B0     	 sub sp,sp,#16
 487              	.LCFI31:
 488              	 .cfi_def_cfa_offset 24
 489 0004 00AF     	 add r7,sp,#0
 490              	.LCFI32:
 491              	 .cfi_def_cfa_register 7
 492 0006 7860     	 str r0,[r7,#4]
 230:../Dave/Generated/CMSIS_DSP/Source/TransformFunctions/arm_rfft_fast_init_f32.c **** 
 231:../Dave/Generated/CMSIS_DSP/Source/TransformFunctions/arm_rfft_fast_init_f32.c ****   arm_status status;
 232:../Dave/Generated/CMSIS_DSP/Source/TransformFunctions/arm_rfft_fast_init_f32.c **** 
 233:../Dave/Generated/CMSIS_DSP/Source/TransformFunctions/arm_rfft_fast_init_f32.c ****   if( !S ) return ARM_MATH_ARGUMENT_ERROR;
 493              	 .loc 1 233 0
 494 0008 7B68     	 ldr r3,[r7,#4]
 495 000a 002B     	 cmp r3,#0
 496 000c 01D1     	 bne .L38
 497              	 .loc 1 233 0 is_stmt 0 discriminator 1
 498 000e FF23     	 movs r3,#255
 499 0010 15E0     	 b .L39
 500              	.L38:
 234:../Dave/Generated/CMSIS_DSP/Source/TransformFunctions/arm_rfft_fast_init_f32.c **** 
 235:../Dave/Generated/CMSIS_DSP/Source/TransformFunctions/arm_rfft_fast_init_f32.c ****   status=arm_cfft_init_f32(&(S->Sint),1024);
 501              	 .loc 1 235 0 is_stmt 1
 502 0012 7B68     	 ldr r3,[r7,#4]
 503 0014 1846     	 mov r0,r3
 504 0016 4FF48061 	 mov r1,#1024
 505 001a FFF7FEFF 	 bl arm_cfft_init_f32
 506 001e 0346     	 mov r3,r0
 507 0020 FB73     	 strb r3,[r7,#15]
 236:../Dave/Generated/CMSIS_DSP/Source/TransformFunctions/arm_rfft_fast_init_f32.c ****   if (status != ARM_MATH_SUCCESS)
 508              	 .loc 1 236 0
 509 0022 97F90F30 	 ldrsb r3,[r7,#15]
 510 0026 002B     	 cmp r3,#0
 511 0028 01D0     	 beq .L40
 237:../Dave/Generated/CMSIS_DSP/Source/TransformFunctions/arm_rfft_fast_init_f32.c ****   {
 238:../Dave/Generated/CMSIS_DSP/Source/TransformFunctions/arm_rfft_fast_init_f32.c ****     return(status);
 512              	 .loc 1 238 0
 513 002a FB7B     	 ldrb r3,[r7,#15]
 514 002c 07E0     	 b .L39
 515              	.L40:
 239:../Dave/Generated/CMSIS_DSP/Source/TransformFunctions/arm_rfft_fast_init_f32.c ****   }
 240:../Dave/Generated/CMSIS_DSP/Source/TransformFunctions/arm_rfft_fast_init_f32.c ****   S->fftLenRFFT = 2048U;
 516              	 .loc 1 240 0
 517 002e 7B68     	 ldr r3,[r7,#4]
 518 0030 4FF40062 	 mov r2,#2048
 519 0034 1A82     	 strh r2,[r3,#16]
 241:../Dave/Generated/CMSIS_DSP/Source/TransformFunctions/arm_rfft_fast_init_f32.c **** 
 242:../Dave/Generated/CMSIS_DSP/Source/TransformFunctions/arm_rfft_fast_init_f32.c ****   S->pTwiddleRFFT    = (float32_t *) twiddleCoef_rfft_2048;
 520              	 .loc 1 242 0
 521 0036 7B68     	 ldr r3,[r7,#4]
 522 0038 034A     	 ldr r2,.L41
 523 003a 5A61     	 str r2,[r3,#20]
 243:../Dave/Generated/CMSIS_DSP/Source/TransformFunctions/arm_rfft_fast_init_f32.c **** 
 244:../Dave/Generated/CMSIS_DSP/Source/TransformFunctions/arm_rfft_fast_init_f32.c ****   return ARM_MATH_SUCCESS;
 524              	 .loc 1 244 0
 525 003c 0023     	 movs r3,#0
 526              	.L39:
 527 003e 5BB2     	 sxtb r3,r3
 245:../Dave/Generated/CMSIS_DSP/Source/TransformFunctions/arm_rfft_fast_init_f32.c **** }
 528              	 .loc 1 245 0
 529 0040 1846     	 mov r0,r3
 530 0042 1037     	 adds r7,r7,#16
 531              	.LCFI33:
 532              	 .cfi_def_cfa_offset 8
 533 0044 BD46     	 mov sp,r7
 534              	.LCFI34:
 535              	 .cfi_def_cfa_register 13
 536              	 
 537 0046 80BD     	 pop {r7,pc}
 538              	.L42:
 539              	 .align 2
 540              	.L41:
 541 0048 00000000 	 .word twiddleCoef_rfft_2048
 542              	 .cfi_endproc
 543              	.LFE155:
 545              	 .section .text.arm_rfft_4096_fast_init_f32,"ax",%progbits
 546              	 .align 2
 547              	 .thumb
 548              	 .thumb_func
 550              	arm_rfft_4096_fast_init_f32:
 551              	.LFB156:
 246:../Dave/Generated/CMSIS_DSP/Source/TransformFunctions/arm_rfft_fast_init_f32.c **** #endif
 247:../Dave/Generated/CMSIS_DSP/Source/TransformFunctions/arm_rfft_fast_init_f32.c **** 
 248:../Dave/Generated/CMSIS_DSP/Source/TransformFunctions/arm_rfft_fast_init_f32.c **** #if !defined(ARM_DSP_CONFIG_TABLES) || defined(ARM_ALL_FFT_TABLES) || (defined(ARM_TABLE_TWIDDLECOE
 249:../Dave/Generated/CMSIS_DSP/Source/TransformFunctions/arm_rfft_fast_init_f32.c **** /**
 250:../Dave/Generated/CMSIS_DSP/Source/TransformFunctions/arm_rfft_fast_init_f32.c ****   @private
 251:../Dave/Generated/CMSIS_DSP/Source/TransformFunctions/arm_rfft_fast_init_f32.c **** * @brief         Initialization function for the 4096pt floating-point real FFT.
 252:../Dave/Generated/CMSIS_DSP/Source/TransformFunctions/arm_rfft_fast_init_f32.c **** * @param[in,out] S  points to an arm_rfft_fast_instance_f32 structure
 253:../Dave/Generated/CMSIS_DSP/Source/TransformFunctions/arm_rfft_fast_init_f32.c ****   @return        execution status
 254:../Dave/Generated/CMSIS_DSP/Source/TransformFunctions/arm_rfft_fast_init_f32.c ****                    - \ref ARM_MATH_SUCCESS        : Operation successful
 255:../Dave/Generated/CMSIS_DSP/Source/TransformFunctions/arm_rfft_fast_init_f32.c ****                    - \ref ARM_MATH_ARGUMENT_ERROR : an error is detected
 256:../Dave/Generated/CMSIS_DSP/Source/TransformFunctions/arm_rfft_fast_init_f32.c ****  */
 257:../Dave/Generated/CMSIS_DSP/Source/TransformFunctions/arm_rfft_fast_init_f32.c **** 
 258:../Dave/Generated/CMSIS_DSP/Source/TransformFunctions/arm_rfft_fast_init_f32.c **** static arm_status arm_rfft_4096_fast_init_f32( arm_rfft_fast_instance_f32 * S ) {
 552              	 .loc 1 258 0
 553              	 .cfi_startproc
 554              	 
 555              	 
 556 0000 80B5     	 push {r7,lr}
 557              	.LCFI35:
 558              	 .cfi_def_cfa_offset 8
 559              	 .cfi_offset 7,-8
 560              	 .cfi_offset 14,-4
 561 0002 84B0     	 sub sp,sp,#16
 562              	.LCFI36:
 563              	 .cfi_def_cfa_offset 24
 564 0004 00AF     	 add r7,sp,#0
 565              	.LCFI37:
 566              	 .cfi_def_cfa_register 7
 567 0006 7860     	 str r0,[r7,#4]
 259:../Dave/Generated/CMSIS_DSP/Source/TransformFunctions/arm_rfft_fast_init_f32.c **** 
 260:../Dave/Generated/CMSIS_DSP/Source/TransformFunctions/arm_rfft_fast_init_f32.c ****   arm_status status;
 261:../Dave/Generated/CMSIS_DSP/Source/TransformFunctions/arm_rfft_fast_init_f32.c **** 
 262:../Dave/Generated/CMSIS_DSP/Source/TransformFunctions/arm_rfft_fast_init_f32.c ****   if( !S ) return ARM_MATH_ARGUMENT_ERROR;
 568              	 .loc 1 262 0
 569 0008 7B68     	 ldr r3,[r7,#4]
 570 000a 002B     	 cmp r3,#0
 571 000c 01D1     	 bne .L44
 572              	 .loc 1 262 0 is_stmt 0 discriminator 1
 573 000e FF23     	 movs r3,#255
 574 0010 15E0     	 b .L45
 575              	.L44:
 263:../Dave/Generated/CMSIS_DSP/Source/TransformFunctions/arm_rfft_fast_init_f32.c **** 
 264:../Dave/Generated/CMSIS_DSP/Source/TransformFunctions/arm_rfft_fast_init_f32.c ****   status=arm_cfft_init_f32(&(S->Sint),2048);
 576              	 .loc 1 264 0 is_stmt 1
 577 0012 7B68     	 ldr r3,[r7,#4]
 578 0014 1846     	 mov r0,r3
 579 0016 4FF40061 	 mov r1,#2048
 580 001a FFF7FEFF 	 bl arm_cfft_init_f32
 581 001e 0346     	 mov r3,r0
 582 0020 FB73     	 strb r3,[r7,#15]
 265:../Dave/Generated/CMSIS_DSP/Source/TransformFunctions/arm_rfft_fast_init_f32.c ****   if (status != ARM_MATH_SUCCESS)
 583              	 .loc 1 265 0
 584 0022 97F90F30 	 ldrsb r3,[r7,#15]
 585 0026 002B     	 cmp r3,#0
 586 0028 01D0     	 beq .L46
 266:../Dave/Generated/CMSIS_DSP/Source/TransformFunctions/arm_rfft_fast_init_f32.c ****   {
 267:../Dave/Generated/CMSIS_DSP/Source/TransformFunctions/arm_rfft_fast_init_f32.c ****     return(status);
 587              	 .loc 1 267 0
 588 002a FB7B     	 ldrb r3,[r7,#15]
 589 002c 07E0     	 b .L45
 590              	.L46:
 268:../Dave/Generated/CMSIS_DSP/Source/TransformFunctions/arm_rfft_fast_init_f32.c ****   }
 269:../Dave/Generated/CMSIS_DSP/Source/TransformFunctions/arm_rfft_fast_init_f32.c ****   S->fftLenRFFT = 4096U;
 591              	 .loc 1 269 0
 592 002e 7B68     	 ldr r3,[r7,#4]
 593 0030 4FF48052 	 mov r2,#4096
 594 0034 1A82     	 strh r2,[r3,#16]
 270:../Dave/Generated/CMSIS_DSP/Source/TransformFunctions/arm_rfft_fast_init_f32.c **** 
 271:../Dave/Generated/CMSIS_DSP/Source/TransformFunctions/arm_rfft_fast_init_f32.c ****   S->pTwiddleRFFT    = (float32_t *) twiddleCoef_rfft_4096;
 595              	 .loc 1 271 0
 596 0036 7B68     	 ldr r3,[r7,#4]
 597 0038 034A     	 ldr r2,.L47
 598 003a 5A61     	 str r2,[r3,#20]
 272:../Dave/Generated/CMSIS_DSP/Source/TransformFunctions/arm_rfft_fast_init_f32.c **** 
 273:../Dave/Generated/CMSIS_DSP/Source/TransformFunctions/arm_rfft_fast_init_f32.c ****   return ARM_MATH_SUCCESS;
 599              	 .loc 1 273 0
 600 003c 0023     	 movs r3,#0
 601              	.L45:
 602 003e 5BB2     	 sxtb r3,r3
 274:../Dave/Generated/CMSIS_DSP/Source/TransformFunctions/arm_rfft_fast_init_f32.c **** }
 603              	 .loc 1 274 0
 604 0040 1846     	 mov r0,r3
 605 0042 1037     	 adds r7,r7,#16
 606              	.LCFI38:
 607              	 .cfi_def_cfa_offset 8
 608 0044 BD46     	 mov sp,r7
 609              	.LCFI39:
 610              	 .cfi_def_cfa_register 13
 611              	 
 612 0046 80BD     	 pop {r7,pc}
 613              	.L48:
 614              	 .align 2
 615              	.L47:
 616 0048 00000000 	 .word twiddleCoef_rfft_4096
 617              	 .cfi_endproc
 618              	.LFE156:
 620              	 .section .text.arm_rfft_fast_init_f32,"ax",%progbits
 621              	 .align 2
 622              	 .global arm_rfft_fast_init_f32
 623              	 .thumb
 624              	 .thumb_func
 626              	arm_rfft_fast_init_f32:
 627              	.LFB157:
 275:../Dave/Generated/CMSIS_DSP/Source/TransformFunctions/arm_rfft_fast_init_f32.c **** #endif 
 276:../Dave/Generated/CMSIS_DSP/Source/TransformFunctions/arm_rfft_fast_init_f32.c **** 
 277:../Dave/Generated/CMSIS_DSP/Source/TransformFunctions/arm_rfft_fast_init_f32.c **** /**
 278:../Dave/Generated/CMSIS_DSP/Source/TransformFunctions/arm_rfft_fast_init_f32.c ****   @brief         Initialization function for the floating-point real FFT.
 279:../Dave/Generated/CMSIS_DSP/Source/TransformFunctions/arm_rfft_fast_init_f32.c ****   @param[in,out] S       points to an arm_rfft_fast_instance_f32 structure
 280:../Dave/Generated/CMSIS_DSP/Source/TransformFunctions/arm_rfft_fast_init_f32.c ****   @param[in]     fftLen  length of the Real Sequence
 281:../Dave/Generated/CMSIS_DSP/Source/TransformFunctions/arm_rfft_fast_init_f32.c ****   @return        execution status
 282:../Dave/Generated/CMSIS_DSP/Source/TransformFunctions/arm_rfft_fast_init_f32.c ****                    - \ref ARM_MATH_SUCCESS        : Operation successful
 283:../Dave/Generated/CMSIS_DSP/Source/TransformFunctions/arm_rfft_fast_init_f32.c ****                    - \ref ARM_MATH_ARGUMENT_ERROR : <code>fftLen</code> is not a supported length
 284:../Dave/Generated/CMSIS_DSP/Source/TransformFunctions/arm_rfft_fast_init_f32.c **** 
 285:../Dave/Generated/CMSIS_DSP/Source/TransformFunctions/arm_rfft_fast_init_f32.c ****   @par           Description
 286:../Dave/Generated/CMSIS_DSP/Source/TransformFunctions/arm_rfft_fast_init_f32.c ****                    The parameter <code>fftLen</code> specifies the length of RFFT/CIFFT process.
 287:../Dave/Generated/CMSIS_DSP/Source/TransformFunctions/arm_rfft_fast_init_f32.c ****                    Supported FFT Lengths are 32, 64, 128, 256, 512, 1024, 2048, 4096.
 288:../Dave/Generated/CMSIS_DSP/Source/TransformFunctions/arm_rfft_fast_init_f32.c ****   @par
 289:../Dave/Generated/CMSIS_DSP/Source/TransformFunctions/arm_rfft_fast_init_f32.c ****                    This Function also initializes Twiddle factor table pointer and Bit reversal tab
 290:../Dave/Generated/CMSIS_DSP/Source/TransformFunctions/arm_rfft_fast_init_f32.c ****  */
 291:../Dave/Generated/CMSIS_DSP/Source/TransformFunctions/arm_rfft_fast_init_f32.c **** 
 292:../Dave/Generated/CMSIS_DSP/Source/TransformFunctions/arm_rfft_fast_init_f32.c **** arm_status arm_rfft_fast_init_f32(
 293:../Dave/Generated/CMSIS_DSP/Source/TransformFunctions/arm_rfft_fast_init_f32.c ****   arm_rfft_fast_instance_f32 * S,
 294:../Dave/Generated/CMSIS_DSP/Source/TransformFunctions/arm_rfft_fast_init_f32.c ****   uint16_t fftLen)
 295:../Dave/Generated/CMSIS_DSP/Source/TransformFunctions/arm_rfft_fast_init_f32.c **** {
 628              	 .loc 1 295 0
 629              	 .cfi_startproc
 630              	 
 631              	 
 632 0000 80B5     	 push {r7,lr}
 633              	.LCFI40:
 634              	 .cfi_def_cfa_offset 8
 635              	 .cfi_offset 7,-8
 636              	 .cfi_offset 14,-4
 637 0002 84B0     	 sub sp,sp,#16
 638              	.LCFI41:
 639              	 .cfi_def_cfa_offset 24
 640 0004 00AF     	 add r7,sp,#0
 641              	.LCFI42:
 642              	 .cfi_def_cfa_register 7
 643 0006 7860     	 str r0,[r7,#4]
 644 0008 0B46     	 mov r3,r1
 645 000a 7B80     	 strh r3,[r7,#2]
 296:../Dave/Generated/CMSIS_DSP/Source/TransformFunctions/arm_rfft_fast_init_f32.c ****   typedef arm_status(*fft_init_ptr)( arm_rfft_fast_instance_f32 *);
 297:../Dave/Generated/CMSIS_DSP/Source/TransformFunctions/arm_rfft_fast_init_f32.c ****   fft_init_ptr fptr = 0x0;
 646              	 .loc 1 297 0
 647 000c 0023     	 movs r3,#0
 648 000e FB60     	 str r3,[r7,#12]
 298:../Dave/Generated/CMSIS_DSP/Source/TransformFunctions/arm_rfft_fast_init_f32.c **** 
 299:../Dave/Generated/CMSIS_DSP/Source/TransformFunctions/arm_rfft_fast_init_f32.c ****   switch (fftLen)
 649              	 .loc 1 299 0
 650 0010 7B88     	 ldrh r3,[r7,#2]
 651 0012 B3F5807F 	 cmp r3,#256
 652 0016 25D0     	 beq .L51
 653 0018 B3F5807F 	 cmp r3,#256
 654 001c 06DC     	 bgt .L52
 655 001e 402B     	 cmp r3,#64
 656 0020 26D0     	 beq .L53
 657 0022 802B     	 cmp r3,#128
 658 0024 21D0     	 beq .L54
 659 0026 202B     	 cmp r3,#32
 660 0028 25D0     	 beq .L55
 661 002a 27E0     	 b .L50
 662              	.L52:
 663 002c B3F5806F 	 cmp r3,#1024
 664 0030 12D0     	 beq .L56
 665 0032 B3F5806F 	 cmp r3,#1024
 666 0036 03DC     	 bgt .L57
 667 0038 B3F5007F 	 cmp r3,#512
 668 003c 0FD0     	 beq .L58
 669 003e 1DE0     	 b .L50
 670              	.L57:
 671 0040 B3F5006F 	 cmp r3,#2048
 672 0044 05D0     	 beq .L59
 673 0046 B3F5805F 	 cmp r3,#4096
 674 004a 17D1     	 bne .L50
 300:../Dave/Generated/CMSIS_DSP/Source/TransformFunctions/arm_rfft_fast_init_f32.c ****   {
 301:../Dave/Generated/CMSIS_DSP/Source/TransformFunctions/arm_rfft_fast_init_f32.c **** #if !defined(ARM_DSP_CONFIG_TABLES) || defined(ARM_ALL_FFT_TABLES) || (defined(ARM_TABLE_TWIDDLECOE
 302:../Dave/Generated/CMSIS_DSP/Source/TransformFunctions/arm_rfft_fast_init_f32.c ****   case 4096U:
 303:../Dave/Generated/CMSIS_DSP/Source/TransformFunctions/arm_rfft_fast_init_f32.c ****     fptr = arm_rfft_4096_fast_init_f32;
 675              	 .loc 1 303 0
 676 004c 134B     	 ldr r3,.L64
 677 004e FB60     	 str r3,[r7,#12]
 304:../Dave/Generated/CMSIS_DSP/Source/TransformFunctions/arm_rfft_fast_init_f32.c ****     break;
 678              	 .loc 1 304 0
 679 0050 16E0     	 b .L61
 680              	.L59:
 305:../Dave/Generated/CMSIS_DSP/Source/TransformFunctions/arm_rfft_fast_init_f32.c **** #endif
 306:../Dave/Generated/CMSIS_DSP/Source/TransformFunctions/arm_rfft_fast_init_f32.c **** #if !defined(ARM_DSP_CONFIG_TABLES) || defined(ARM_ALL_FFT_TABLES) || (defined(ARM_TABLE_TWIDDLECOE
 307:../Dave/Generated/CMSIS_DSP/Source/TransformFunctions/arm_rfft_fast_init_f32.c ****   case 2048U:
 308:../Dave/Generated/CMSIS_DSP/Source/TransformFunctions/arm_rfft_fast_init_f32.c ****     fptr = arm_rfft_2048_fast_init_f32;
 681              	 .loc 1 308 0
 682 0052 134B     	 ldr r3,.L64+4
 683 0054 FB60     	 str r3,[r7,#12]
 309:../Dave/Generated/CMSIS_DSP/Source/TransformFunctions/arm_rfft_fast_init_f32.c ****     break;
 684              	 .loc 1 309 0
 685 0056 13E0     	 b .L61
 686              	.L56:
 310:../Dave/Generated/CMSIS_DSP/Source/TransformFunctions/arm_rfft_fast_init_f32.c **** #endif
 311:../Dave/Generated/CMSIS_DSP/Source/TransformFunctions/arm_rfft_fast_init_f32.c **** #if !defined(ARM_DSP_CONFIG_TABLES) || defined(ARM_ALL_FFT_TABLES) || (defined(ARM_TABLE_TWIDDLECOE
 312:../Dave/Generated/CMSIS_DSP/Source/TransformFunctions/arm_rfft_fast_init_f32.c ****   case 1024U:
 313:../Dave/Generated/CMSIS_DSP/Source/TransformFunctions/arm_rfft_fast_init_f32.c ****     fptr = arm_rfft_1024_fast_init_f32;
 687              	 .loc 1 313 0
 688 0058 124B     	 ldr r3,.L64+8
 689 005a FB60     	 str r3,[r7,#12]
 314:../Dave/Generated/CMSIS_DSP/Source/TransformFunctions/arm_rfft_fast_init_f32.c ****     break;
 690              	 .loc 1 314 0
 691 005c 10E0     	 b .L61
 692              	.L58:
 315:../Dave/Generated/CMSIS_DSP/Source/TransformFunctions/arm_rfft_fast_init_f32.c **** #endif
 316:../Dave/Generated/CMSIS_DSP/Source/TransformFunctions/arm_rfft_fast_init_f32.c **** #if !defined(ARM_DSP_CONFIG_TABLES) || defined(ARM_ALL_FFT_TABLES) || (defined(ARM_TABLE_TWIDDLECOE
 317:../Dave/Generated/CMSIS_DSP/Source/TransformFunctions/arm_rfft_fast_init_f32.c ****   case 512U:
 318:../Dave/Generated/CMSIS_DSP/Source/TransformFunctions/arm_rfft_fast_init_f32.c ****     fptr = arm_rfft_512_fast_init_f32;
 693              	 .loc 1 318 0
 694 005e 124B     	 ldr r3,.L64+12
 695 0060 FB60     	 str r3,[r7,#12]
 319:../Dave/Generated/CMSIS_DSP/Source/TransformFunctions/arm_rfft_fast_init_f32.c ****     break;
 696              	 .loc 1 319 0
 697 0062 0DE0     	 b .L61
 698              	.L51:
 320:../Dave/Generated/CMSIS_DSP/Source/TransformFunctions/arm_rfft_fast_init_f32.c **** #endif
 321:../Dave/Generated/CMSIS_DSP/Source/TransformFunctions/arm_rfft_fast_init_f32.c **** #if !defined(ARM_DSP_CONFIG_TABLES) || defined(ARM_ALL_FFT_TABLES) || (defined(ARM_TABLE_TWIDDLECOE
 322:../Dave/Generated/CMSIS_DSP/Source/TransformFunctions/arm_rfft_fast_init_f32.c ****   case 256U:
 323:../Dave/Generated/CMSIS_DSP/Source/TransformFunctions/arm_rfft_fast_init_f32.c ****     fptr = arm_rfft_256_fast_init_f32;
 699              	 .loc 1 323 0
 700 0064 114B     	 ldr r3,.L64+16
 701 0066 FB60     	 str r3,[r7,#12]
 324:../Dave/Generated/CMSIS_DSP/Source/TransformFunctions/arm_rfft_fast_init_f32.c ****     break;
 702              	 .loc 1 324 0
 703 0068 0AE0     	 b .L61
 704              	.L54:
 325:../Dave/Generated/CMSIS_DSP/Source/TransformFunctions/arm_rfft_fast_init_f32.c **** #endif
 326:../Dave/Generated/CMSIS_DSP/Source/TransformFunctions/arm_rfft_fast_init_f32.c **** #if !defined(ARM_DSP_CONFIG_TABLES) || defined(ARM_ALL_FFT_TABLES) || (defined(ARM_TABLE_TWIDDLECOE
 327:../Dave/Generated/CMSIS_DSP/Source/TransformFunctions/arm_rfft_fast_init_f32.c ****   case 128U:
 328:../Dave/Generated/CMSIS_DSP/Source/TransformFunctions/arm_rfft_fast_init_f32.c ****     fptr = arm_rfft_128_fast_init_f32;
 705              	 .loc 1 328 0
 706 006a 114B     	 ldr r3,.L64+20
 707 006c FB60     	 str r3,[r7,#12]
 329:../Dave/Generated/CMSIS_DSP/Source/TransformFunctions/arm_rfft_fast_init_f32.c ****     break;
 708              	 .loc 1 329 0
 709 006e 07E0     	 b .L61
 710              	.L53:
 330:../Dave/Generated/CMSIS_DSP/Source/TransformFunctions/arm_rfft_fast_init_f32.c **** #endif
 331:../Dave/Generated/CMSIS_DSP/Source/TransformFunctions/arm_rfft_fast_init_f32.c **** #if !defined(ARM_DSP_CONFIG_TABLES) || defined(ARM_ALL_FFT_TABLES) || (defined(ARM_TABLE_TWIDDLECOE
 332:../Dave/Generated/CMSIS_DSP/Source/TransformFunctions/arm_rfft_fast_init_f32.c ****   case 64U:
 333:../Dave/Generated/CMSIS_DSP/Source/TransformFunctions/arm_rfft_fast_init_f32.c ****     fptr = arm_rfft_64_fast_init_f32;
 711              	 .loc 1 333 0
 712 0070 104B     	 ldr r3,.L64+24
 713 0072 FB60     	 str r3,[r7,#12]
 334:../Dave/Generated/CMSIS_DSP/Source/TransformFunctions/arm_rfft_fast_init_f32.c ****     break;
 714              	 .loc 1 334 0
 715 0074 04E0     	 b .L61
 716              	.L55:
 335:../Dave/Generated/CMSIS_DSP/Source/TransformFunctions/arm_rfft_fast_init_f32.c **** #endif
 336:../Dave/Generated/CMSIS_DSP/Source/TransformFunctions/arm_rfft_fast_init_f32.c **** #if !defined(ARM_DSP_CONFIG_TABLES) || defined(ARM_ALL_FFT_TABLES) || (defined(ARM_TABLE_TWIDDLECOE
 337:../Dave/Generated/CMSIS_DSP/Source/TransformFunctions/arm_rfft_fast_init_f32.c ****   case 32U:
 338:../Dave/Generated/CMSIS_DSP/Source/TransformFunctions/arm_rfft_fast_init_f32.c ****     fptr = arm_rfft_32_fast_init_f32;
 717              	 .loc 1 338 0
 718 0076 104B     	 ldr r3,.L64+28
 719 0078 FB60     	 str r3,[r7,#12]
 339:../Dave/Generated/CMSIS_DSP/Source/TransformFunctions/arm_rfft_fast_init_f32.c ****     break;
 720              	 .loc 1 339 0
 721 007a 01E0     	 b .L61
 722              	.L50:
 340:../Dave/Generated/CMSIS_DSP/Source/TransformFunctions/arm_rfft_fast_init_f32.c **** #endif
 341:../Dave/Generated/CMSIS_DSP/Source/TransformFunctions/arm_rfft_fast_init_f32.c ****   default:
 342:../Dave/Generated/CMSIS_DSP/Source/TransformFunctions/arm_rfft_fast_init_f32.c ****     return ARM_MATH_ARGUMENT_ERROR;
 723              	 .loc 1 342 0
 724 007c FF23     	 movs r3,#255
 725 007e 08E0     	 b .L62
 726              	.L61:
 343:../Dave/Generated/CMSIS_DSP/Source/TransformFunctions/arm_rfft_fast_init_f32.c ****   }
 344:../Dave/Generated/CMSIS_DSP/Source/TransformFunctions/arm_rfft_fast_init_f32.c **** 
 345:../Dave/Generated/CMSIS_DSP/Source/TransformFunctions/arm_rfft_fast_init_f32.c ****   if( ! fptr ) return ARM_MATH_ARGUMENT_ERROR;
 727              	 .loc 1 345 0
 728 0080 FB68     	 ldr r3,[r7,#12]
 729 0082 002B     	 cmp r3,#0
 730 0084 01D1     	 bne .L63
 731              	 .loc 1 345 0 is_stmt 0 discriminator 1
 732 0086 FF23     	 movs r3,#255
 733 0088 03E0     	 b .L62
 734              	.L63:
 346:../Dave/Generated/CMSIS_DSP/Source/TransformFunctions/arm_rfft_fast_init_f32.c ****   return fptr( S );
 735              	 .loc 1 346 0 is_stmt 1
 736 008a FB68     	 ldr r3,[r7,#12]
 737 008c 7868     	 ldr r0,[r7,#4]
 738 008e 9847     	 blx r3
 739 0090 0346     	 mov r3,r0
 740              	.L62:
 741 0092 5BB2     	 sxtb r3,r3
 347:../Dave/Generated/CMSIS_DSP/Source/TransformFunctions/arm_rfft_fast_init_f32.c **** 
 348:../Dave/Generated/CMSIS_DSP/Source/TransformFunctions/arm_rfft_fast_init_f32.c **** }
 742              	 .loc 1 348 0
 743 0094 1846     	 mov r0,r3
 744 0096 1037     	 adds r7,r7,#16
 745              	.LCFI43:
 746              	 .cfi_def_cfa_offset 8
 747 0098 BD46     	 mov sp,r7
 748              	.LCFI44:
 749              	 .cfi_def_cfa_register 13
 750              	 
 751 009a 80BD     	 pop {r7,pc}
 752              	.L65:
 753              	 .align 2
 754              	.L64:
 755 009c 00000000 	 .word arm_rfft_4096_fast_init_f32
 756 00a0 00000000 	 .word arm_rfft_2048_fast_init_f32
 757 00a4 00000000 	 .word arm_rfft_1024_fast_init_f32
 758 00a8 00000000 	 .word arm_rfft_512_fast_init_f32
 759 00ac 00000000 	 .word arm_rfft_256_fast_init_f32
 760 00b0 00000000 	 .word arm_rfft_128_fast_init_f32
 761 00b4 00000000 	 .word arm_rfft_64_fast_init_f32
 762 00b8 00000000 	 .word arm_rfft_32_fast_init_f32
 763              	 .cfi_endproc
 764              	.LFE157:
 766              	 .text
 767              	.Letext0:
 768              	 .file 2 "c:\\infineon\\tools\\dave ide\\4.5.0.202105191637\\eclipse\\arm-gcc-49\\arm-none-eabi\\include\\machine\\_default_types.h"
 769              	 .file 3 "c:\\infineon\\tools\\dave ide\\4.5.0.202105191637\\eclipse\\arm-gcc-49\\arm-none-eabi\\include\\stdint.h"
 770              	 .file 4 "C:/Users/Rui Mendes/Desktop/DAVE/_Naive/_ForTesting/Dave/Generated/CMSIS_DSP/Include/arm_math.h"
 771              	 .file 5 "C:/Users/Rui Mendes/Desktop/DAVE/_Naive/_ForTesting/Libraries/CMSIS/Include/cmsis_gcc.h"
 772              	 .file 6 "C:/Users/Rui Mendes/Desktop/DAVE/_Naive/_ForTesting/Dave/Generated/CMSIS_DSP/Include/arm_common_tables.h"